
SmartLock.elf:     file format elf32-avr

Sections:
Idx Name          Size      VMA       LMA       File off  Algn
  0 .data         0000054a  00800100  0000738a  0000741e  2**0
                  CONTENTS, ALLOC, LOAD, DATA
  1 .text         0000738a  00000000  00000000  00000094  2**1
                  CONTENTS, ALLOC, LOAD, READONLY, CODE
  2 .bss          000004fe  0080064a  0080064a  00007968  2**0
                  ALLOC
  3 .comment      00000030  00000000  00000000  00007968  2**0
                  CONTENTS, READONLY
  4 .note.gnu.avr.deviceinfo 00000040  00000000  00000000  00007998  2**2
                  CONTENTS, READONLY
  5 .debug_aranges 000001a8  00000000  00000000  000079d8  2**0
                  CONTENTS, READONLY, DEBUGGING
  6 .debug_info   0000e7c4  00000000  00000000  00007b80  2**0
                  CONTENTS, READONLY, DEBUGGING
  7 .debug_abbrev 00000fbb  00000000  00000000  00016344  2**0
                  CONTENTS, READONLY, DEBUGGING
  8 .debug_line   00002818  00000000  00000000  000172ff  2**0
                  CONTENTS, READONLY, DEBUGGING
  9 .debug_frame  000005f8  00000000  00000000  00019b18  2**2
                  CONTENTS, READONLY, DEBUGGING
 10 .debug_str    000014e7  00000000  00000000  0001a110  2**0
                  CONTENTS, READONLY, DEBUGGING
 11 .debug_loc    00003fed  00000000  00000000  0001b5f7  2**0
                  CONTENTS, READONLY, DEBUGGING
 12 .debug_ranges 00000310  00000000  00000000  0001f5e4  2**0
                  CONTENTS, READONLY, DEBUGGING

Disassembly of section .text:

00000000 <__vectors>:
       0:	7d c0       	rjmp	.+250    	; 0xfc <__ctors_end>
       2:	00 00       	nop
       4:	a5 c0       	rjmp	.+330    	; 0x150 <__bad_interrupt>
       6:	00 00       	nop
       8:	a3 c0       	rjmp	.+326    	; 0x150 <__bad_interrupt>
       a:	00 00       	nop
       c:	a1 c0       	rjmp	.+322    	; 0x150 <__bad_interrupt>
       e:	00 00       	nop
      10:	0c 94 1c 16 	jmp	0x2c38	; 0x2c38 <__vector_4>
      14:	9d c0       	rjmp	.+314    	; 0x150 <__bad_interrupt>
      16:	00 00       	nop
      18:	9b c0       	rjmp	.+310    	; 0x150 <__bad_interrupt>
      1a:	00 00       	nop
      1c:	99 c0       	rjmp	.+306    	; 0x150 <__bad_interrupt>
      1e:	00 00       	nop
      20:	97 c0       	rjmp	.+302    	; 0x150 <__bad_interrupt>
      22:	00 00       	nop
      24:	95 c0       	rjmp	.+298    	; 0x150 <__bad_interrupt>
      26:	00 00       	nop
      28:	93 c0       	rjmp	.+294    	; 0x150 <__bad_interrupt>
      2a:	00 00       	nop
      2c:	91 c0       	rjmp	.+290    	; 0x150 <__bad_interrupt>
      2e:	00 00       	nop
      30:	8f c0       	rjmp	.+286    	; 0x150 <__bad_interrupt>
      32:	00 00       	nop
      34:	0c 94 40 2a 	jmp	0x5480	; 0x5480 <__vector_13>
      38:	8b c0       	rjmp	.+278    	; 0x150 <__bad_interrupt>
      3a:	00 00       	nop
      3c:	89 c0       	rjmp	.+274    	; 0x150 <__bad_interrupt>
      3e:	00 00       	nop
      40:	87 c0       	rjmp	.+270    	; 0x150 <__bad_interrupt>
      42:	00 00       	nop
      44:	85 c0       	rjmp	.+266    	; 0x150 <__bad_interrupt>
      46:	00 00       	nop
      48:	83 c0       	rjmp	.+262    	; 0x150 <__bad_interrupt>
      4a:	00 00       	nop
      4c:	81 c0       	rjmp	.+258    	; 0x150 <__bad_interrupt>
      4e:	00 00       	nop
      50:	0c 94 09 2a 	jmp	0x5412	; 0x5412 <__vector_20>
      54:	7d c0       	rjmp	.+250    	; 0x150 <__bad_interrupt>
      56:	00 00       	nop
      58:	7b c0       	rjmp	.+246    	; 0x150 <__bad_interrupt>
      5a:	00 00       	nop
      5c:	79 c0       	rjmp	.+242    	; 0x150 <__bad_interrupt>
      5e:	00 00       	nop
      60:	77 c0       	rjmp	.+238    	; 0x150 <__bad_interrupt>
      62:	00 00       	nop
      64:	75 c0       	rjmp	.+234    	; 0x150 <__bad_interrupt>
      66:	00 00       	nop
      68:	73 c0       	rjmp	.+230    	; 0x150 <__bad_interrupt>
      6a:	00 00       	nop
      6c:	71 c0       	rjmp	.+226    	; 0x150 <__bad_interrupt>
      6e:	00 00       	nop
      70:	6f c0       	rjmp	.+222    	; 0x150 <__bad_interrupt>
      72:	00 00       	nop
      74:	6d c0       	rjmp	.+218    	; 0x150 <__bad_interrupt>
      76:	00 00       	nop
      78:	6b c0       	rjmp	.+214    	; 0x150 <__bad_interrupt>
      7a:	00 00       	nop
      7c:	69 c0       	rjmp	.+210    	; 0x150 <__bad_interrupt>
      7e:	00 00       	nop
      80:	67 c0       	rjmp	.+206    	; 0x150 <__bad_interrupt>
      82:	00 00       	nop
      84:	65 c0       	rjmp	.+202    	; 0x150 <__bad_interrupt>
      86:	00 00       	nop
      88:	63 c0       	rjmp	.+198    	; 0x150 <__bad_interrupt>
      8a:	00 00       	nop
      8c:	c2 02       	muls	r28, r18
      8e:	1f 03       	fmul	r17, r23
      90:	7c 03       	fmul	r23, r20
      92:	d9 03       	fmulsu	r21, r17
      94:	36 04       	cpc	r3, r6
      96:	93 04       	cpc	r9, r3
      98:	f0 04       	cpc	r15, r0
      9a:	4d 05       	cpc	r20, r13
      9c:	aa 05       	cpc	r26, r10
      9e:	07 06       	cpc	r0, r23
      a0:	64 06       	cpc	r6, r20
      a2:	28 0b       	sbc	r18, r24
      a4:	36 0b       	sbc	r19, r22
      a6:	57 0b       	sbc	r21, r23
      a8:	86 0b       	sbc	r24, r22
      aa:	c3 0b       	sbc	r28, r19
      ac:	0e 0c       	add	r0, r14
      ae:	67 0c       	add	r6, r7
      b0:	ce 0c       	add	r12, r14
      b2:	43 0d       	add	r20, r3
      b4:	c6 0d       	add	r28, r6
      b6:	57 0e       	add	r5, r23
      b8:	12 0f       	add	r17, r18
      ba:	6f 0f       	add	r22, r31
      bc:	cc 0f       	add	r28, r28
      be:	29 10       	cpse	r2, r9
      c0:	86 10       	cpse	r8, r6
      c2:	e3 10       	cpse	r14, r3
      c4:	40 11       	cpse	r20, r0
      c6:	9d 11       	cpse	r25, r13
      c8:	fa 11       	cpse	r31, r10
      ca:	57 12       	cpse	r5, r23
      cc:	b4 12       	cpse	r11, r20
      ce:	2c 13       	cpse	r18, r28
      d0:	62 13       	cpse	r22, r18
      d2:	98 13       	cpse	r25, r24
      d4:	ce 13       	cpse	r28, r30
      d6:	04 14       	cp	r0, r4
      d8:	3a 14       	cp	r3, r10
      da:	70 14       	cp	r7, r0
      dc:	a6 14       	cp	r10, r6
      de:	dc 14       	cp	r13, r12
      e0:	12 15       	cp	r17, r2
      e2:	48 15       	cp	r20, r8
      e4:	ae 24       	eor	r10, r14
      e6:	ee 24       	eor	r14, r14
      e8:	2e 25       	eor	r18, r14
      ea:	6e 25       	eor	r22, r14
      ec:	ae 25       	eor	r26, r14
      ee:	ee 25       	eor	r30, r14
      f0:	2e 26       	eor	r2, r30
      f2:	6e 26       	eor	r6, r30
      f4:	ae 26       	eor	r10, r30
      f6:	ee 26       	eor	r14, r30
      f8:	2e 27       	eor	r18, r30

000000fa <__ctors_start>:
      fa:	26 37       	cpi	r18, 0x76	; 118

000000fc <__ctors_end>:
      fc:	11 24       	eor	r1, r1
      fe:	1f be       	out	0x3f, r1	; 63
     100:	cf ef       	ldi	r28, 0xFF	; 255
     102:	d0 e4       	ldi	r29, 0x40	; 64
     104:	de bf       	out	0x3e, r29	; 62
     106:	cd bf       	out	0x3d, r28	; 61

00000108 <__do_copy_data>:
     108:	16 e0       	ldi	r17, 0x06	; 6
     10a:	a0 e0       	ldi	r26, 0x00	; 0
     10c:	b1 e0       	ldi	r27, 0x01	; 1
     10e:	ea e8       	ldi	r30, 0x8A	; 138
     110:	f3 e7       	ldi	r31, 0x73	; 115
     112:	00 e0       	ldi	r16, 0x00	; 0
     114:	0b bf       	out	0x3b, r16	; 59
     116:	02 c0       	rjmp	.+4      	; 0x11c <__do_copy_data+0x14>
     118:	07 90       	elpm	r0, Z+
     11a:	0d 92       	st	X+, r0
     11c:	aa 34       	cpi	r26, 0x4A	; 74
     11e:	b1 07       	cpc	r27, r17
     120:	d9 f7       	brne	.-10     	; 0x118 <__do_copy_data+0x10>

00000122 <__do_clear_bss>:
     122:	2b e0       	ldi	r18, 0x0B	; 11
     124:	aa e4       	ldi	r26, 0x4A	; 74
     126:	b6 e0       	ldi	r27, 0x06	; 6
     128:	01 c0       	rjmp	.+2      	; 0x12c <.do_clear_bss_start>

0000012a <.do_clear_bss_loop>:
     12a:	1d 92       	st	X+, r1

0000012c <.do_clear_bss_start>:
     12c:	a8 34       	cpi	r26, 0x48	; 72
     12e:	b2 07       	cpc	r27, r18
     130:	e1 f7       	brne	.-8      	; 0x12a <.do_clear_bss_loop>

00000132 <__do_global_ctors>:
     132:	10 e0       	ldi	r17, 0x00	; 0
     134:	ce e7       	ldi	r28, 0x7E	; 126
     136:	d0 e0       	ldi	r29, 0x00	; 0
     138:	04 c0       	rjmp	.+8      	; 0x142 <__do_global_ctors+0x10>
     13a:	21 97       	sbiw	r28, 0x01	; 1
     13c:	fe 01       	movw	r30, r28
     13e:	0e 94 ba 39 	call	0x7374	; 0x7374 <__tablejump2__>
     142:	cd 37       	cpi	r28, 0x7D	; 125
     144:	d1 07       	cpc	r29, r17
     146:	c9 f7       	brne	.-14     	; 0x13a <__do_global_ctors+0x8>
     148:	0e 94 e6 2a 	call	0x55cc	; 0x55cc <main>
     14c:	0c 94 c3 39 	jmp	0x7386	; 0x7386 <_exit>

00000150 <__bad_interrupt>:
     150:	57 cf       	rjmp	.-338    	; 0x0 <__vectors>

00000152 <_ZN11Device_info7DefaultEv>:
			 }
		 }
		 j++;
	 }
	 
 }
     152:	08 95       	ret

00000154 <_ZN11Device_info7refreshEv>:
     154:	cf 93       	push	r28
     156:	df 93       	push	r29
     158:	ec 01       	movw	r28, r24
     15a:	e8 81       	ld	r30, Y
     15c:	f9 81       	ldd	r31, Y+1	; 0x01
     15e:	01 90       	ld	r0, Z+
     160:	f0 81       	ld	r31, Z
     162:	e0 2d       	mov	r30, r0
     164:	09 95       	icall
     166:	e8 81       	ld	r30, Y
     168:	f9 81       	ldd	r31, Y+1	; 0x01
     16a:	00 88       	ldd	r0, Z+16	; 0x10
     16c:	f1 89       	ldd	r31, Z+17	; 0x11
     16e:	e0 2d       	mov	r30, r0
     170:	ce 01       	movw	r24, r28
     172:	09 95       	icall
     174:	df 91       	pop	r29
     176:	cf 91       	pop	r28
     178:	08 95       	ret

0000017a <_ZN11Device_info4nextEv>:
     17a:	dc 01       	movw	r26, r24
     17c:	ed 91       	ld	r30, X+
     17e:	fc 91       	ld	r31, X
     180:	04 80       	ldd	r0, Z+4	; 0x04
     182:	f5 81       	ldd	r31, Z+5	; 0x05
     184:	e0 2d       	mov	r30, r0
     186:	09 95       	icall
     188:	08 95       	ret

0000018a <_ZN11Device_info8previousEv>:
     18a:	dc 01       	movw	r26, r24
     18c:	ed 91       	ld	r30, X+
     18e:	fc 91       	ld	r31, X
     190:	04 80       	ldd	r0, Z+4	; 0x04
     192:	f5 81       	ldd	r31, Z+5	; 0x05
     194:	e0 2d       	mov	r30, r0
     196:	09 95       	icall
     198:	08 95       	ret

0000019a <_ZN11Device_info6choiseEv>:
     19a:	dc 01       	movw	r26, r24
     19c:	ed 91       	ld	r30, X+
     19e:	fc 91       	ld	r31, X
     1a0:	04 80       	ldd	r0, Z+4	; 0x04
     1a2:	f5 81       	ldd	r31, Z+5	; 0x05
     1a4:	e0 2d       	mov	r30, r0
     1a6:	09 95       	icall
     1a8:	08 95       	ret

000001aa <_ZN11Device_info4backEv>:
     1aa:	dc 01       	movw	r26, r24
     1ac:	ed 91       	ld	r30, X+
     1ae:	fc 91       	ld	r31, X
     1b0:	04 80       	ldd	r0, Z+4	; 0x04
     1b2:	f5 81       	ldd	r31, Z+5	; 0x05
     1b4:	e0 2d       	mov	r30, r0
     1b6:	09 95       	icall
     1b8:	08 95       	ret

000001ba <_ZN11Device_info7animateEv>:
     1ba:	08 95       	ret

000001bc <_ZN11Device_info7actionsEv>:
     1bc:	ef 92       	push	r14
     1be:	ff 92       	push	r15
     1c0:	0f 93       	push	r16
     1c2:	1f 93       	push	r17
     1c4:	cf 93       	push	r28
     1c6:	df 93       	push	r29
     1c8:	ec 01       	movw	r28, r24
     1ca:	90 91 41 07 	lds	r25, 0x0741	; 0x800741 <Device_Info_Status>
     1ce:	99 23       	and	r25, r25
     1d0:	09 f4       	brne	.+2      	; 0x1d4 <_ZN11Device_info7actionsEv+0x18>
     1d2:	ae c1       	rjmp	.+860    	; 0x530 <__LOCK_REGION_LENGTH__+0x130>
     1d4:	48 85       	ldd	r20, Y+8	; 0x08
     1d6:	59 85       	ldd	r21, Y+9	; 0x09
     1d8:	08 e0       	ldi	r16, 0x08	; 8
     1da:	10 e0       	ldi	r17, 0x00	; 0
     1dc:	20 e1       	ldi	r18, 0x10	; 16
     1de:	30 e0       	ldi	r19, 0x00	; 0
     1e0:	60 e0       	ldi	r22, 0x00	; 0
     1e2:	70 e0       	ldi	r23, 0x00	; 0
     1e4:	86 e4       	ldi	r24, 0x46	; 70
     1e6:	97 e0       	ldi	r25, 0x07	; 7
     1e8:	0e 94 a3 38 	call	0x7146	; 0x7146 <_ZN4OLED21OLED_Clear_Bufer_partEiiii>
     1ec:	48 85       	ldd	r20, Y+8	; 0x08
     1ee:	59 85       	ldd	r21, Y+9	; 0x09
     1f0:	6c 81       	ldd	r22, Y+4	; 0x04
     1f2:	7d 81       	ldd	r23, Y+5	; 0x05
     1f4:	0f 2e       	mov	r0, r31
     1f6:	fb e9       	ldi	r31, 0x9B	; 155
     1f8:	ef 2e       	mov	r14, r31
     1fa:	f1 e0       	ldi	r31, 0x01	; 1
     1fc:	ff 2e       	mov	r15, r31
     1fe:	f0 2d       	mov	r31, r0
     200:	21 e0       	ldi	r18, 0x01	; 1
     202:	30 e0       	ldi	r19, 0x00	; 0
     204:	86 e4       	ldi	r24, 0x46	; 70
     206:	97 e0       	ldi	r25, 0x07	; 7
     208:	0e 94 f2 38 	call	0x71e4	; 0x71e4 <_ZN4OLED19OLED_Write_To_BuferEiiiiPKh>
     20c:	48 85       	ldd	r20, Y+8	; 0x08
     20e:	59 85       	ldd	r21, Y+9	; 0x09
     210:	6c 81       	ldd	r22, Y+4	; 0x04
     212:	7d 81       	ldd	r23, Y+5	; 0x05
     214:	68 5f       	subi	r22, 0xF8	; 248
     216:	7f 4f       	sbci	r23, 0xFF	; 255
     218:	0f 2e       	mov	r0, r31
     21a:	fb ea       	ldi	r31, 0xAB	; 171
     21c:	ef 2e       	mov	r14, r31
     21e:	f1 e0       	ldi	r31, 0x01	; 1
     220:	ff 2e       	mov	r15, r31
     222:	f0 2d       	mov	r31, r0
     224:	21 e0       	ldi	r18, 0x01	; 1
     226:	30 e0       	ldi	r19, 0x00	; 0
     228:	86 e4       	ldi	r24, 0x46	; 70
     22a:	97 e0       	ldi	r25, 0x07	; 7
     22c:	0e 94 f2 38 	call	0x71e4	; 0x71e4 <_ZN4OLED19OLED_Write_To_BuferEiiiiPKh>
     230:	48 85       	ldd	r20, Y+8	; 0x08
     232:	59 85       	ldd	r21, Y+9	; 0x09
     234:	6c 81       	ldd	r22, Y+4	; 0x04
     236:	7d 81       	ldd	r23, Y+5	; 0x05
     238:	60 5f       	subi	r22, 0xF0	; 240
     23a:	7f 4f       	sbci	r23, 0xFF	; 255
     23c:	0f 2e       	mov	r0, r31
     23e:	f3 ef       	ldi	r31, 0xF3	; 243
     240:	ef 2e       	mov	r14, r31
     242:	f1 e0       	ldi	r31, 0x01	; 1
     244:	ff 2e       	mov	r15, r31
     246:	f0 2d       	mov	r31, r0
     248:	21 e0       	ldi	r18, 0x01	; 1
     24a:	30 e0       	ldi	r19, 0x00	; 0
     24c:	86 e4       	ldi	r24, 0x46	; 70
     24e:	97 e0       	ldi	r25, 0x07	; 7
     250:	0e 94 f2 38 	call	0x71e4	; 0x71e4 <_ZN4OLED19OLED_Write_To_BuferEiiiiPKh>
     254:	48 85       	ldd	r20, Y+8	; 0x08
     256:	59 85       	ldd	r21, Y+9	; 0x09
     258:	6c 81       	ldd	r22, Y+4	; 0x04
     25a:	7d 81       	ldd	r23, Y+5	; 0x05
     25c:	68 5e       	subi	r22, 0xE8	; 232
     25e:	7f 4f       	sbci	r23, 0xFF	; 255
     260:	0f 2e       	mov	r0, r31
     262:	f3 e9       	ldi	r31, 0x93	; 147
     264:	ef 2e       	mov	r14, r31
     266:	f1 e0       	ldi	r31, 0x01	; 1
     268:	ff 2e       	mov	r15, r31
     26a:	f0 2d       	mov	r31, r0
     26c:	21 e0       	ldi	r18, 0x01	; 1
     26e:	30 e0       	ldi	r19, 0x00	; 0
     270:	86 e4       	ldi	r24, 0x46	; 70
     272:	97 e0       	ldi	r25, 0x07	; 7
     274:	0e 94 f2 38 	call	0x71e4	; 0x71e4 <_ZN4OLED19OLED_Write_To_BuferEiiiiPKh>
     278:	48 85       	ldd	r20, Y+8	; 0x08
     27a:	59 85       	ldd	r21, Y+9	; 0x09
     27c:	6c 81       	ldd	r22, Y+4	; 0x04
     27e:	7d 81       	ldd	r23, Y+5	; 0x05
     280:	60 5e       	subi	r22, 0xE0	; 224
     282:	7f 4f       	sbci	r23, 0xFF	; 255
     284:	0f 2e       	mov	r0, r31
     286:	fb e7       	ldi	r31, 0x7B	; 123
     288:	ef 2e       	mov	r14, r31
     28a:	f1 e0       	ldi	r31, 0x01	; 1
     28c:	ff 2e       	mov	r15, r31
     28e:	f0 2d       	mov	r31, r0
     290:	21 e0       	ldi	r18, 0x01	; 1
     292:	30 e0       	ldi	r19, 0x00	; 0
     294:	86 e4       	ldi	r24, 0x46	; 70
     296:	97 e0       	ldi	r25, 0x07	; 7
     298:	0e 94 f2 38 	call	0x71e4	; 0x71e4 <_ZN4OLED19OLED_Write_To_BuferEiiiiPKh>
     29c:	48 85       	ldd	r20, Y+8	; 0x08
     29e:	59 85       	ldd	r21, Y+9	; 0x09
     2a0:	6c 81       	ldd	r22, Y+4	; 0x04
     2a2:	7d 81       	ldd	r23, Y+5	; 0x05
     2a4:	68 5d       	subi	r22, 0xD8	; 216
     2a6:	7f 4f       	sbci	r23, 0xFF	; 255
     2a8:	0f 2e       	mov	r0, r31
     2aa:	fb e1       	ldi	r31, 0x1B	; 27
     2ac:	ef 2e       	mov	r14, r31
     2ae:	f2 e0       	ldi	r31, 0x02	; 2
     2b0:	ff 2e       	mov	r15, r31
     2b2:	f0 2d       	mov	r31, r0
     2b4:	21 e0       	ldi	r18, 0x01	; 1
     2b6:	30 e0       	ldi	r19, 0x00	; 0
     2b8:	86 e4       	ldi	r24, 0x46	; 70
     2ba:	97 e0       	ldi	r25, 0x07	; 7
     2bc:	0e 94 f2 38 	call	0x71e4	; 0x71e4 <_ZN4OLED19OLED_Write_To_BuferEiiiiPKh>
     2c0:	48 85       	ldd	r20, Y+8	; 0x08
     2c2:	59 85       	ldd	r21, Y+9	; 0x09
     2c4:	6c 81       	ldd	r22, Y+4	; 0x04
     2c6:	7d 81       	ldd	r23, Y+5	; 0x05
     2c8:	60 5d       	subi	r22, 0xD0	; 208
     2ca:	7f 4f       	sbci	r23, 0xFF	; 255
     2cc:	0f 2e       	mov	r0, r31
     2ce:	f3 ea       	ldi	r31, 0xA3	; 163
     2d0:	ef 2e       	mov	r14, r31
     2d2:	f1 e0       	ldi	r31, 0x01	; 1
     2d4:	ff 2e       	mov	r15, r31
     2d6:	f0 2d       	mov	r31, r0
     2d8:	21 e0       	ldi	r18, 0x01	; 1
     2da:	30 e0       	ldi	r19, 0x00	; 0
     2dc:	86 e4       	ldi	r24, 0x46	; 70
     2de:	97 e0       	ldi	r25, 0x07	; 7
     2e0:	0e 94 f2 38 	call	0x71e4	; 0x71e4 <_ZN4OLED19OLED_Write_To_BuferEiiiiPKh>
     2e4:	48 85       	ldd	r20, Y+8	; 0x08
     2e6:	59 85       	ldd	r21, Y+9	; 0x09
     2e8:	6c 81       	ldd	r22, Y+4	; 0x04
     2ea:	7d 81       	ldd	r23, Y+5	; 0x05
     2ec:	68 5c       	subi	r22, 0xC8	; 200
     2ee:	7f 4f       	sbci	r23, 0xFF	; 255
     2f0:	0f 2e       	mov	r0, r31
     2f2:	fb ef       	ldi	r31, 0xFB	; 251
     2f4:	ef 2e       	mov	r14, r31
     2f6:	f1 e0       	ldi	r31, 0x01	; 1
     2f8:	ff 2e       	mov	r15, r31
     2fa:	f0 2d       	mov	r31, r0
     2fc:	21 e0       	ldi	r18, 0x01	; 1
     2fe:	30 e0       	ldi	r19, 0x00	; 0
     300:	86 e4       	ldi	r24, 0x46	; 70
     302:	97 e0       	ldi	r25, 0x07	; 7
     304:	0e 94 f2 38 	call	0x71e4	; 0x71e4 <_ZN4OLED19OLED_Write_To_BuferEiiiiPKh>
     308:	48 85       	ldd	r20, Y+8	; 0x08
     30a:	59 85       	ldd	r21, Y+9	; 0x09
     30c:	6c 81       	ldd	r22, Y+4	; 0x04
     30e:	7d 81       	ldd	r23, Y+5	; 0x05
     310:	68 5b       	subi	r22, 0xB8	; 184
     312:	7f 4f       	sbci	r23, 0xFF	; 255
     314:	0f 2e       	mov	r0, r31
     316:	f3 e8       	ldi	r31, 0x83	; 131
     318:	ef 2e       	mov	r14, r31
     31a:	f1 e0       	ldi	r31, 0x01	; 1
     31c:	ff 2e       	mov	r15, r31
     31e:	f0 2d       	mov	r31, r0
     320:	21 e0       	ldi	r18, 0x01	; 1
     322:	30 e0       	ldi	r19, 0x00	; 0
     324:	86 e4       	ldi	r24, 0x46	; 70
     326:	97 e0       	ldi	r25, 0x07	; 7
     328:	0e 94 f2 38 	call	0x71e4	; 0x71e4 <_ZN4OLED19OLED_Write_To_BuferEiiiiPKh>
     32c:	48 85       	ldd	r20, Y+8	; 0x08
     32e:	59 85       	ldd	r21, Y+9	; 0x09
     330:	6c 81       	ldd	r22, Y+4	; 0x04
     332:	7d 81       	ldd	r23, Y+5	; 0x05
     334:	60 5b       	subi	r22, 0xB0	; 176
     336:	7f 4f       	sbci	r23, 0xFF	; 255
     338:	0f 2e       	mov	r0, r31
     33a:	fb ef       	ldi	r31, 0xFB	; 251
     33c:	ef 2e       	mov	r14, r31
     33e:	f1 e0       	ldi	r31, 0x01	; 1
     340:	ff 2e       	mov	r15, r31
     342:	f0 2d       	mov	r31, r0
     344:	21 e0       	ldi	r18, 0x01	; 1
     346:	30 e0       	ldi	r19, 0x00	; 0
     348:	86 e4       	ldi	r24, 0x46	; 70
     34a:	97 e0       	ldi	r25, 0x07	; 7
     34c:	0e 94 f2 38 	call	0x71e4	; 0x71e4 <_ZN4OLED19OLED_Write_To_BuferEiiiiPKh>
     350:	48 85       	ldd	r20, Y+8	; 0x08
     352:	59 85       	ldd	r21, Y+9	; 0x09
     354:	6c 81       	ldd	r22, Y+4	; 0x04
     356:	7d 81       	ldd	r23, Y+5	; 0x05
     358:	68 5a       	subi	r22, 0xA8	; 168
     35a:	7f 4f       	sbci	r23, 0xFF	; 255
     35c:	0f 2e       	mov	r0, r31
     35e:	f3 ea       	ldi	r31, 0xA3	; 163
     360:	ef 2e       	mov	r14, r31
     362:	f1 e0       	ldi	r31, 0x01	; 1
     364:	ff 2e       	mov	r15, r31
     366:	f0 2d       	mov	r31, r0
     368:	21 e0       	ldi	r18, 0x01	; 1
     36a:	30 e0       	ldi	r19, 0x00	; 0
     36c:	86 e4       	ldi	r24, 0x46	; 70
     36e:	97 e0       	ldi	r25, 0x07	; 7
     370:	0e 94 f2 38 	call	0x71e4	; 0x71e4 <_ZN4OLED19OLED_Write_To_BuferEiiiiPKh>
     374:	48 85       	ldd	r20, Y+8	; 0x08
     376:	59 85       	ldd	r21, Y+9	; 0x09
     378:	6c 81       	ldd	r22, Y+4	; 0x04
     37a:	7d 81       	ldd	r23, Y+5	; 0x05
     37c:	60 5a       	subi	r22, 0xA0	; 160
     37e:	7f 4f       	sbci	r23, 0xFF	; 255
     380:	0f 2e       	mov	r0, r31
     382:	fb e9       	ldi	r31, 0x9B	; 155
     384:	ef 2e       	mov	r14, r31
     386:	f1 e0       	ldi	r31, 0x01	; 1
     388:	ff 2e       	mov	r15, r31
     38a:	f0 2d       	mov	r31, r0
     38c:	21 e0       	ldi	r18, 0x01	; 1
     38e:	30 e0       	ldi	r19, 0x00	; 0
     390:	86 e4       	ldi	r24, 0x46	; 70
     392:	97 e0       	ldi	r25, 0x07	; 7
     394:	0e 94 f2 38 	call	0x71e4	; 0x71e4 <_ZN4OLED19OLED_Write_To_BuferEiiiiPKh>
     398:	48 85       	ldd	r20, Y+8	; 0x08
     39a:	59 85       	ldd	r21, Y+9	; 0x09
     39c:	6c 81       	ldd	r22, Y+4	; 0x04
     39e:	7d 81       	ldd	r23, Y+5	; 0x05
     3a0:	68 59       	subi	r22, 0x98	; 152
     3a2:	7f 4f       	sbci	r23, 0xFF	; 255
     3a4:	0f 2e       	mov	r0, r31
     3a6:	fb ed       	ldi	r31, 0xDB	; 219
     3a8:	ef 2e       	mov	r14, r31
     3aa:	f1 e0       	ldi	r31, 0x01	; 1
     3ac:	ff 2e       	mov	r15, r31
     3ae:	f0 2d       	mov	r31, r0
     3b0:	21 e0       	ldi	r18, 0x01	; 1
     3b2:	30 e0       	ldi	r19, 0x00	; 0
     3b4:	86 e4       	ldi	r24, 0x46	; 70
     3b6:	97 e0       	ldi	r25, 0x07	; 7
     3b8:	0e 94 f2 38 	call	0x71e4	; 0x71e4 <_ZN4OLED19OLED_Write_To_BuferEiiiiPKh>
     3bc:	48 85       	ldd	r20, Y+8	; 0x08
     3be:	59 85       	ldd	r21, Y+9	; 0x09
     3c0:	6c 81       	ldd	r22, Y+4	; 0x04
     3c2:	7d 81       	ldd	r23, Y+5	; 0x05
     3c4:	60 59       	subi	r22, 0x90	; 144
     3c6:	7f 4f       	sbci	r23, 0xFF	; 255
     3c8:	0f 2e       	mov	r0, r31
     3ca:	fb ea       	ldi	r31, 0xAB	; 171
     3cc:	ef 2e       	mov	r14, r31
     3ce:	f1 e0       	ldi	r31, 0x01	; 1
     3d0:	ff 2e       	mov	r15, r31
     3d2:	f0 2d       	mov	r31, r0
     3d4:	21 e0       	ldi	r18, 0x01	; 1
     3d6:	30 e0       	ldi	r19, 0x00	; 0
     3d8:	86 e4       	ldi	r24, 0x46	; 70
     3da:	97 e0       	ldi	r25, 0x07	; 7
     3dc:	0e 94 f2 38 	call	0x71e4	; 0x71e4 <_ZN4OLED19OLED_Write_To_BuferEiiiiPKh>
     3e0:	48 85       	ldd	r20, Y+8	; 0x08
     3e2:	59 85       	ldd	r21, Y+9	; 0x09
     3e4:	6c 81       	ldd	r22, Y+4	; 0x04
     3e6:	7d 81       	ldd	r23, Y+5	; 0x05
     3e8:	68 58       	subi	r22, 0x88	; 136
     3ea:	7f 4f       	sbci	r23, 0xFF	; 255
     3ec:	0f 2e       	mov	r0, r31
     3ee:	f3 eb       	ldi	r31, 0xB3	; 179
     3f0:	ef 2e       	mov	r14, r31
     3f2:	f1 e0       	ldi	r31, 0x01	; 1
     3f4:	ff 2e       	mov	r15, r31
     3f6:	f0 2d       	mov	r31, r0
     3f8:	21 e0       	ldi	r18, 0x01	; 1
     3fa:	30 e0       	ldi	r19, 0x00	; 0
     3fc:	86 e4       	ldi	r24, 0x46	; 70
     3fe:	97 e0       	ldi	r25, 0x07	; 7
     400:	0e 94 f2 38 	call	0x71e4	; 0x71e4 <_ZN4OLED19OLED_Write_To_BuferEiiiiPKh>
     404:	48 85       	ldd	r20, Y+8	; 0x08
     406:	59 85       	ldd	r21, Y+9	; 0x09
     408:	4f 5f       	subi	r20, 0xFF	; 255
     40a:	5f 4f       	sbci	r21, 0xFF	; 255
     40c:	20 e1       	ldi	r18, 0x10	; 16
     40e:	30 e0       	ldi	r19, 0x00	; 0
     410:	60 e0       	ldi	r22, 0x00	; 0
     412:	70 e0       	ldi	r23, 0x00	; 0
     414:	86 e4       	ldi	r24, 0x46	; 70
     416:	97 e0       	ldi	r25, 0x07	; 7
     418:	0e 94 a3 38 	call	0x7146	; 0x7146 <_ZN4OLED21OLED_Clear_Bufer_partEiiii>
     41c:	48 85       	ldd	r20, Y+8	; 0x08
     41e:	59 85       	ldd	r21, Y+9	; 0x09
     420:	4f 5f       	subi	r20, 0xFF	; 255
     422:	5f 4f       	sbci	r21, 0xFF	; 255
     424:	6e 81       	ldd	r22, Y+6	; 0x06
     426:	7f 81       	ldd	r23, Y+7	; 0x07
     428:	0f 2e       	mov	r0, r31
     42a:	fb e9       	ldi	r31, 0x9B	; 155
     42c:	ef 2e       	mov	r14, r31
     42e:	f5 e0       	ldi	r31, 0x05	; 5
     430:	ff 2e       	mov	r15, r31
     432:	f0 2d       	mov	r31, r0
     434:	21 e0       	ldi	r18, 0x01	; 1
     436:	30 e0       	ldi	r19, 0x00	; 0
     438:	86 e4       	ldi	r24, 0x46	; 70
     43a:	97 e0       	ldi	r25, 0x07	; 7
     43c:	0e 94 f2 38 	call	0x71e4	; 0x71e4 <_ZN4OLED19OLED_Write_To_BuferEiiiiPKh>
     440:	48 85       	ldd	r20, Y+8	; 0x08
     442:	59 85       	ldd	r21, Y+9	; 0x09
     444:	4f 5f       	subi	r20, 0xFF	; 255
     446:	5f 4f       	sbci	r21, 0xFF	; 255
     448:	6e 81       	ldd	r22, Y+6	; 0x06
     44a:	7f 81       	ldd	r23, Y+7	; 0x07
     44c:	68 5f       	subi	r22, 0xF8	; 248
     44e:	7f 4f       	sbci	r23, 0xFF	; 255
     450:	0f 2e       	mov	r0, r31
     452:	f3 e6       	ldi	r31, 0x63	; 99
     454:	ef 2e       	mov	r14, r31
     456:	f1 e0       	ldi	r31, 0x01	; 1
     458:	ff 2e       	mov	r15, r31
     45a:	f0 2d       	mov	r31, r0
     45c:	21 e0       	ldi	r18, 0x01	; 1
     45e:	30 e0       	ldi	r19, 0x00	; 0
     460:	86 e4       	ldi	r24, 0x46	; 70
     462:	97 e0       	ldi	r25, 0x07	; 7
     464:	0e 94 f2 38 	call	0x71e4	; 0x71e4 <_ZN4OLED19OLED_Write_To_BuferEiiiiPKh>
     468:	48 85       	ldd	r20, Y+8	; 0x08
     46a:	59 85       	ldd	r21, Y+9	; 0x09
     46c:	4f 5f       	subi	r20, 0xFF	; 255
     46e:	5f 4f       	sbci	r21, 0xFF	; 255
     470:	6e 81       	ldd	r22, Y+6	; 0x06
     472:	7f 81       	ldd	r23, Y+7	; 0x07
     474:	60 5f       	subi	r22, 0xF0	; 240
     476:	7f 4f       	sbci	r23, 0xFF	; 255
     478:	0f 2e       	mov	r0, r31
     47a:	f3 e9       	ldi	r31, 0x93	; 147
     47c:	ef 2e       	mov	r14, r31
     47e:	f5 e0       	ldi	r31, 0x05	; 5
     480:	ff 2e       	mov	r15, r31
     482:	f0 2d       	mov	r31, r0
     484:	21 e0       	ldi	r18, 0x01	; 1
     486:	30 e0       	ldi	r19, 0x00	; 0
     488:	86 e4       	ldi	r24, 0x46	; 70
     48a:	97 e0       	ldi	r25, 0x07	; 7
     48c:	0e 94 f2 38 	call	0x71e4	; 0x71e4 <_ZN4OLED19OLED_Write_To_BuferEiiiiPKh>
     490:	48 85       	ldd	r20, Y+8	; 0x08
     492:	59 85       	ldd	r21, Y+9	; 0x09
     494:	4f 5f       	subi	r20, 0xFF	; 255
     496:	5f 4f       	sbci	r21, 0xFF	; 255
     498:	6e 81       	ldd	r22, Y+6	; 0x06
     49a:	7f 81       	ldd	r23, Y+7	; 0x07
     49c:	60 5e       	subi	r22, 0xE0	; 224
     49e:	7f 4f       	sbci	r23, 0xFF	; 255
     4a0:	0f 2e       	mov	r0, r31
     4a2:	f3 e1       	ldi	r31, 0x13	; 19
     4a4:	ef 2e       	mov	r14, r31
     4a6:	f2 e0       	ldi	r31, 0x02	; 2
     4a8:	ff 2e       	mov	r15, r31
     4aa:	f0 2d       	mov	r31, r0
     4ac:	21 e0       	ldi	r18, 0x01	; 1
     4ae:	30 e0       	ldi	r19, 0x00	; 0
     4b0:	86 e4       	ldi	r24, 0x46	; 70
     4b2:	97 e0       	ldi	r25, 0x07	; 7
     4b4:	0e 94 f2 38 	call	0x71e4	; 0x71e4 <_ZN4OLED19OLED_Write_To_BuferEiiiiPKh>
     4b8:	48 85       	ldd	r20, Y+8	; 0x08
     4ba:	59 85       	ldd	r21, Y+9	; 0x09
     4bc:	4f 5f       	subi	r20, 0xFF	; 255
     4be:	5f 4f       	sbci	r21, 0xFF	; 255
     4c0:	6e 81       	ldd	r22, Y+6	; 0x06
     4c2:	7f 81       	ldd	r23, Y+7	; 0x07
     4c4:	68 5d       	subi	r22, 0xD8	; 216
     4c6:	7f 4f       	sbci	r23, 0xFF	; 255
     4c8:	0f 2e       	mov	r0, r31
     4ca:	fb ef       	ldi	r31, 0xFB	; 251
     4cc:	ef 2e       	mov	r14, r31
     4ce:	f1 e0       	ldi	r31, 0x01	; 1
     4d0:	ff 2e       	mov	r15, r31
     4d2:	f0 2d       	mov	r31, r0
     4d4:	21 e0       	ldi	r18, 0x01	; 1
     4d6:	30 e0       	ldi	r19, 0x00	; 0
     4d8:	86 e4       	ldi	r24, 0x46	; 70
     4da:	97 e0       	ldi	r25, 0x07	; 7
     4dc:	0e 94 f2 38 	call	0x71e4	; 0x71e4 <_ZN4OLED19OLED_Write_To_BuferEiiiiPKh>
     4e0:	48 85       	ldd	r20, Y+8	; 0x08
     4e2:	59 85       	ldd	r21, Y+9	; 0x09
     4e4:	4f 5f       	subi	r20, 0xFF	; 255
     4e6:	5f 4f       	sbci	r21, 0xFF	; 255
     4e8:	6e 81       	ldd	r22, Y+6	; 0x06
     4ea:	7f 81       	ldd	r23, Y+7	; 0x07
     4ec:	60 5d       	subi	r22, 0xD0	; 208
     4ee:	7f 4f       	sbci	r23, 0xFF	; 255
     4f0:	0f 2e       	mov	r0, r31
     4f2:	f3 e9       	ldi	r31, 0x93	; 147
     4f4:	ef 2e       	mov	r14, r31
     4f6:	f1 e0       	ldi	r31, 0x01	; 1
     4f8:	ff 2e       	mov	r15, r31
     4fa:	f0 2d       	mov	r31, r0
     4fc:	21 e0       	ldi	r18, 0x01	; 1
     4fe:	30 e0       	ldi	r19, 0x00	; 0
     500:	86 e4       	ldi	r24, 0x46	; 70
     502:	97 e0       	ldi	r25, 0x07	; 7
     504:	0e 94 f2 38 	call	0x71e4	; 0x71e4 <_ZN4OLED19OLED_Write_To_BuferEiiiiPKh>
     508:	48 85       	ldd	r20, Y+8	; 0x08
     50a:	59 85       	ldd	r21, Y+9	; 0x09
     50c:	4f 5f       	subi	r20, 0xFF	; 255
     50e:	5f 4f       	sbci	r21, 0xFF	; 255
     510:	6e 81       	ldd	r22, Y+6	; 0x06
     512:	7f 81       	ldd	r23, Y+7	; 0x07
     514:	68 5c       	subi	r22, 0xC8	; 200
     516:	7f 4f       	sbci	r23, 0xFF	; 255
     518:	0f 2e       	mov	r0, r31
     51a:	fb e1       	ldi	r31, 0x1B	; 27
     51c:	ef 2e       	mov	r14, r31
     51e:	f2 e0       	ldi	r31, 0x02	; 2
     520:	ff 2e       	mov	r15, r31
     522:	f0 2d       	mov	r31, r0
     524:	21 e0       	ldi	r18, 0x01	; 1
     526:	30 e0       	ldi	r19, 0x00	; 0
     528:	86 e4       	ldi	r24, 0x46	; 70
     52a:	97 e0       	ldi	r25, 0x07	; 7
     52c:	0e 94 f2 38 	call	0x71e4	; 0x71e4 <_ZN4OLED19OLED_Write_To_BuferEiiiiPKh>
     530:	df 91       	pop	r29
     532:	cf 91       	pop	r28
     534:	1f 91       	pop	r17
     536:	0f 91       	pop	r16
     538:	ff 90       	pop	r15
     53a:	ef 90       	pop	r14
     53c:	08 95       	ret

0000053e <_ZN11Device_info5closeEv>:
     53e:	fc 01       	movw	r30, r24
     540:	13 82       	std	Z+3, r1	; 0x03
     542:	12 82       	std	Z+2, r1	; 0x02
     544:	10 92 41 07 	sts	0x0741, r1	; 0x800741 <Device_Info_Status>
     548:	81 e0       	ldi	r24, 0x01	; 1
     54a:	80 93 43 07 	sts	0x0743, r24	; 0x800743 <Info_Menu_Status>
     54e:	86 e4       	ldi	r24, 0x46	; 70
     550:	97 e0       	ldi	r25, 0x07	; 7
     552:	0c 94 0f 38 	jmp	0x701e	; 0x701e <_ZN4OLED16OLED_Bufer_ClearEv>
     556:	08 95       	ret

00000558 <_ZN13Password_Menu7actionsEv>:
     558:	ef 92       	push	r14
     55a:	ff 92       	push	r15
     55c:	0f 93       	push	r16
     55e:	1f 93       	push	r17
     560:	cf 93       	push	r28
     562:	df 93       	push	r29
     564:	ec 01       	movw	r28, r24
     566:	90 91 45 07 	lds	r25, 0x0745	; 0x800745 <Password_Menu_Status>
     56a:	99 23       	and	r25, r25
     56c:	09 f4       	brne	.+2      	; 0x570 <_ZN13Password_Menu7actionsEv+0x18>
     56e:	08 c4       	rjmp	.+2064   	; 0xd80 <_ZN13Password_Menu7actionsEv+0x828>
     570:	ea 81       	ldd	r30, Y+2	; 0x02
     572:	fb 81       	ldd	r31, Y+3	; 0x03
     574:	eb 30       	cpi	r30, 0x0B	; 11
     576:	f1 05       	cpc	r31, r1
     578:	08 f0       	brcs	.+2      	; 0x57c <_ZN13Password_Menu7actionsEv+0x24>
     57a:	02 c4       	rjmp	.+2052   	; 0xd80 <_ZN13Password_Menu7actionsEv+0x828>
     57c:	ea 5b       	subi	r30, 0xBA	; 186
     57e:	ff 4f       	sbci	r31, 0xFF	; 255
     580:	0c 94 ba 39 	jmp	0x7374	; 0x7374 <__tablejump2__>
     584:	4e 85       	ldd	r20, Y+14	; 0x0e
     586:	5f 85       	ldd	r21, Y+15	; 0x0f
     588:	e8 81       	ld	r30, Y
     58a:	f9 81       	ldd	r31, Y+1	; 0x01
     58c:	32 96       	adiw	r30, 0x02	; 2
     58e:	ee 0f       	add	r30, r30
     590:	ff 1f       	adc	r31, r31
     592:	ec 0f       	add	r30, r28
     594:	fd 1f       	adc	r31, r29
     596:	60 81       	ld	r22, Z
     598:	71 81       	ldd	r23, Z+1	; 0x01
     59a:	08 e0       	ldi	r16, 0x08	; 8
     59c:	10 e0       	ldi	r17, 0x00	; 0
     59e:	21 e0       	ldi	r18, 0x01	; 1
     5a0:	30 e0       	ldi	r19, 0x00	; 0
     5a2:	86 e4       	ldi	r24, 0x46	; 70
     5a4:	97 e0       	ldi	r25, 0x07	; 7
     5a6:	0e 94 a3 38 	call	0x7146	; 0x7146 <_ZN4OLED21OLED_Clear_Bufer_partEiiii>
     5aa:	4e 85       	ldd	r20, Y+14	; 0x0e
     5ac:	5f 85       	ldd	r21, Y+15	; 0x0f
     5ae:	e8 81       	ld	r30, Y
     5b0:	f9 81       	ldd	r31, Y+1	; 0x01
     5b2:	32 96       	adiw	r30, 0x02	; 2
     5b4:	ee 0f       	add	r30, r30
     5b6:	ff 1f       	adc	r31, r31
     5b8:	ec 0f       	add	r30, r28
     5ba:	fd 1f       	adc	r31, r29
     5bc:	60 81       	ld	r22, Z
     5be:	71 81       	ldd	r23, Z+1	; 0x01
     5c0:	0f 2e       	mov	r0, r31
     5c2:	fb e9       	ldi	r31, 0x9B	; 155
     5c4:	ef 2e       	mov	r14, r31
     5c6:	f5 e0       	ldi	r31, 0x05	; 5
     5c8:	ff 2e       	mov	r15, r31
     5ca:	f0 2d       	mov	r31, r0
     5cc:	21 e0       	ldi	r18, 0x01	; 1
     5ce:	30 e0       	ldi	r19, 0x00	; 0
     5d0:	86 e4       	ldi	r24, 0x46	; 70
     5d2:	97 e0       	ldi	r25, 0x07	; 7
     5d4:	0e 94 f2 38 	call	0x71e4	; 0x71e4 <_ZN4OLED19OLED_Write_To_BuferEiiiiPKh>
     5d8:	4e 85       	ldd	r20, Y+14	; 0x0e
     5da:	5f 85       	ldd	r21, Y+15	; 0x0f
     5dc:	4e 5f       	subi	r20, 0xFE	; 254
     5de:	5f 4f       	sbci	r21, 0xFF	; 255
     5e0:	e8 81       	ld	r30, Y
     5e2:	f9 81       	ldd	r31, Y+1	; 0x01
     5e4:	32 96       	adiw	r30, 0x02	; 2
     5e6:	ee 0f       	add	r30, r30
     5e8:	ff 1f       	adc	r31, r31
     5ea:	ec 0f       	add	r30, r28
     5ec:	fd 1f       	adc	r31, r29
     5ee:	60 81       	ld	r22, Z
     5f0:	71 81       	ldd	r23, Z+1	; 0x01
     5f2:	0f 2e       	mov	r0, r31
     5f4:	f3 e3       	ldi	r31, 0x33	; 51
     5f6:	ef 2e       	mov	r14, r31
     5f8:	f5 e0       	ldi	r31, 0x05	; 5
     5fa:	ff 2e       	mov	r15, r31
     5fc:	f0 2d       	mov	r31, r0
     5fe:	21 e0       	ldi	r18, 0x01	; 1
     600:	30 e0       	ldi	r19, 0x00	; 0
     602:	86 e4       	ldi	r24, 0x46	; 70
     604:	97 e0       	ldi	r25, 0x07	; 7
     606:	0e 94 f2 38 	call	0x71e4	; 0x71e4 <_ZN4OLED19OLED_Write_To_BuferEiiiiPKh>
     60a:	4e 85       	ldd	r20, Y+14	; 0x0e
     60c:	5f 85       	ldd	r21, Y+15	; 0x0f
     60e:	41 50       	subi	r20, 0x01	; 1
     610:	51 09       	sbc	r21, r1
     612:	88 81       	ld	r24, Y
     614:	99 81       	ldd	r25, Y+1	; 0x01
     616:	02 96       	adiw	r24, 0x02	; 2
     618:	88 0f       	add	r24, r24
     61a:	99 1f       	adc	r25, r25
     61c:	c8 0f       	add	r28, r24
     61e:	d9 1f       	adc	r29, r25
     620:	68 81       	ld	r22, Y
     622:	79 81       	ldd	r23, Y+1	; 0x01
     624:	0f 2e       	mov	r0, r31
     626:	fb e3       	ldi	r31, 0x3B	; 59
     628:	ef 2e       	mov	r14, r31
     62a:	f5 e0       	ldi	r31, 0x05	; 5
     62c:	ff 2e       	mov	r15, r31
     62e:	f0 2d       	mov	r31, r0
     630:	21 e0       	ldi	r18, 0x01	; 1
     632:	30 e0       	ldi	r19, 0x00	; 0
     634:	86 e4       	ldi	r24, 0x46	; 70
     636:	97 e0       	ldi	r25, 0x07	; 7
     638:	0e 94 f2 38 	call	0x71e4	; 0x71e4 <_ZN4OLED19OLED_Write_To_BuferEiiiiPKh>
     63c:	a1 c3       	rjmp	.+1858   	; 0xd80 <_ZN13Password_Menu7actionsEv+0x828>
     63e:	4e 85       	ldd	r20, Y+14	; 0x0e
     640:	5f 85       	ldd	r21, Y+15	; 0x0f
     642:	e8 81       	ld	r30, Y
     644:	f9 81       	ldd	r31, Y+1	; 0x01
     646:	32 96       	adiw	r30, 0x02	; 2
     648:	ee 0f       	add	r30, r30
     64a:	ff 1f       	adc	r31, r31
     64c:	ec 0f       	add	r30, r28
     64e:	fd 1f       	adc	r31, r29
     650:	60 81       	ld	r22, Z
     652:	71 81       	ldd	r23, Z+1	; 0x01
     654:	08 e0       	ldi	r16, 0x08	; 8
     656:	10 e0       	ldi	r17, 0x00	; 0
     658:	21 e0       	ldi	r18, 0x01	; 1
     65a:	30 e0       	ldi	r19, 0x00	; 0
     65c:	86 e4       	ldi	r24, 0x46	; 70
     65e:	97 e0       	ldi	r25, 0x07	; 7
     660:	0e 94 a3 38 	call	0x7146	; 0x7146 <_ZN4OLED21OLED_Clear_Bufer_partEiiii>
     664:	4e 85       	ldd	r20, Y+14	; 0x0e
     666:	5f 85       	ldd	r21, Y+15	; 0x0f
     668:	e8 81       	ld	r30, Y
     66a:	f9 81       	ldd	r31, Y+1	; 0x01
     66c:	32 96       	adiw	r30, 0x02	; 2
     66e:	ee 0f       	add	r30, r30
     670:	ff 1f       	adc	r31, r31
     672:	ec 0f       	add	r30, r28
     674:	fd 1f       	adc	r31, r29
     676:	60 81       	ld	r22, Z
     678:	71 81       	ldd	r23, Z+1	; 0x01
     67a:	0f 2e       	mov	r0, r31
     67c:	f3 e9       	ldi	r31, 0x93	; 147
     67e:	ef 2e       	mov	r14, r31
     680:	f5 e0       	ldi	r31, 0x05	; 5
     682:	ff 2e       	mov	r15, r31
     684:	f0 2d       	mov	r31, r0
     686:	21 e0       	ldi	r18, 0x01	; 1
     688:	30 e0       	ldi	r19, 0x00	; 0
     68a:	86 e4       	ldi	r24, 0x46	; 70
     68c:	97 e0       	ldi	r25, 0x07	; 7
     68e:	0e 94 f2 38 	call	0x71e4	; 0x71e4 <_ZN4OLED19OLED_Write_To_BuferEiiiiPKh>
     692:	4e 85       	ldd	r20, Y+14	; 0x0e
     694:	5f 85       	ldd	r21, Y+15	; 0x0f
     696:	4e 5f       	subi	r20, 0xFE	; 254
     698:	5f 4f       	sbci	r21, 0xFF	; 255
     69a:	e8 81       	ld	r30, Y
     69c:	f9 81       	ldd	r31, Y+1	; 0x01
     69e:	32 96       	adiw	r30, 0x02	; 2
     6a0:	ee 0f       	add	r30, r30
     6a2:	ff 1f       	adc	r31, r31
     6a4:	ec 0f       	add	r30, r28
     6a6:	fd 1f       	adc	r31, r29
     6a8:	60 81       	ld	r22, Z
     6aa:	71 81       	ldd	r23, Z+1	; 0x01
     6ac:	0f 2e       	mov	r0, r31
     6ae:	f3 e3       	ldi	r31, 0x33	; 51
     6b0:	ef 2e       	mov	r14, r31
     6b2:	f5 e0       	ldi	r31, 0x05	; 5
     6b4:	ff 2e       	mov	r15, r31
     6b6:	f0 2d       	mov	r31, r0
     6b8:	21 e0       	ldi	r18, 0x01	; 1
     6ba:	30 e0       	ldi	r19, 0x00	; 0
     6bc:	86 e4       	ldi	r24, 0x46	; 70
     6be:	97 e0       	ldi	r25, 0x07	; 7
     6c0:	0e 94 f2 38 	call	0x71e4	; 0x71e4 <_ZN4OLED19OLED_Write_To_BuferEiiiiPKh>
     6c4:	4e 85       	ldd	r20, Y+14	; 0x0e
     6c6:	5f 85       	ldd	r21, Y+15	; 0x0f
     6c8:	41 50       	subi	r20, 0x01	; 1
     6ca:	51 09       	sbc	r21, r1
     6cc:	88 81       	ld	r24, Y
     6ce:	99 81       	ldd	r25, Y+1	; 0x01
     6d0:	02 96       	adiw	r24, 0x02	; 2
     6d2:	88 0f       	add	r24, r24
     6d4:	99 1f       	adc	r25, r25
     6d6:	c8 0f       	add	r28, r24
     6d8:	d9 1f       	adc	r29, r25
     6da:	68 81       	ld	r22, Y
     6dc:	79 81       	ldd	r23, Y+1	; 0x01
     6de:	0f 2e       	mov	r0, r31
     6e0:	fb e3       	ldi	r31, 0x3B	; 59
     6e2:	ef 2e       	mov	r14, r31
     6e4:	f5 e0       	ldi	r31, 0x05	; 5
     6e6:	ff 2e       	mov	r15, r31
     6e8:	f0 2d       	mov	r31, r0
     6ea:	21 e0       	ldi	r18, 0x01	; 1
     6ec:	30 e0       	ldi	r19, 0x00	; 0
     6ee:	86 e4       	ldi	r24, 0x46	; 70
     6f0:	97 e0       	ldi	r25, 0x07	; 7
     6f2:	0e 94 f2 38 	call	0x71e4	; 0x71e4 <_ZN4OLED19OLED_Write_To_BuferEiiiiPKh>
     6f6:	44 c3       	rjmp	.+1672   	; 0xd80 <_ZN13Password_Menu7actionsEv+0x828>
     6f8:	4e 85       	ldd	r20, Y+14	; 0x0e
     6fa:	5f 85       	ldd	r21, Y+15	; 0x0f
     6fc:	e8 81       	ld	r30, Y
     6fe:	f9 81       	ldd	r31, Y+1	; 0x01
     700:	32 96       	adiw	r30, 0x02	; 2
     702:	ee 0f       	add	r30, r30
     704:	ff 1f       	adc	r31, r31
     706:	ec 0f       	add	r30, r28
     708:	fd 1f       	adc	r31, r29
     70a:	60 81       	ld	r22, Z
     70c:	71 81       	ldd	r23, Z+1	; 0x01
     70e:	08 e0       	ldi	r16, 0x08	; 8
     710:	10 e0       	ldi	r17, 0x00	; 0
     712:	21 e0       	ldi	r18, 0x01	; 1
     714:	30 e0       	ldi	r19, 0x00	; 0
     716:	86 e4       	ldi	r24, 0x46	; 70
     718:	97 e0       	ldi	r25, 0x07	; 7
     71a:	0e 94 a3 38 	call	0x7146	; 0x7146 <_ZN4OLED21OLED_Clear_Bufer_partEiiii>
     71e:	4e 85       	ldd	r20, Y+14	; 0x0e
     720:	5f 85       	ldd	r21, Y+15	; 0x0f
     722:	e8 81       	ld	r30, Y
     724:	f9 81       	ldd	r31, Y+1	; 0x01
     726:	32 96       	adiw	r30, 0x02	; 2
     728:	ee 0f       	add	r30, r30
     72a:	ff 1f       	adc	r31, r31
     72c:	ec 0f       	add	r30, r28
     72e:	fd 1f       	adc	r31, r29
     730:	60 81       	ld	r22, Z
     732:	71 81       	ldd	r23, Z+1	; 0x01
     734:	0f 2e       	mov	r0, r31
     736:	fb e8       	ldi	r31, 0x8B	; 139
     738:	ef 2e       	mov	r14, r31
     73a:	f5 e0       	ldi	r31, 0x05	; 5
     73c:	ff 2e       	mov	r15, r31
     73e:	f0 2d       	mov	r31, r0
     740:	21 e0       	ldi	r18, 0x01	; 1
     742:	30 e0       	ldi	r19, 0x00	; 0
     744:	86 e4       	ldi	r24, 0x46	; 70
     746:	97 e0       	ldi	r25, 0x07	; 7
     748:	0e 94 f2 38 	call	0x71e4	; 0x71e4 <_ZN4OLED19OLED_Write_To_BuferEiiiiPKh>
     74c:	4e 85       	ldd	r20, Y+14	; 0x0e
     74e:	5f 85       	ldd	r21, Y+15	; 0x0f
     750:	4e 5f       	subi	r20, 0xFE	; 254
     752:	5f 4f       	sbci	r21, 0xFF	; 255
     754:	e8 81       	ld	r30, Y
     756:	f9 81       	ldd	r31, Y+1	; 0x01
     758:	32 96       	adiw	r30, 0x02	; 2
     75a:	ee 0f       	add	r30, r30
     75c:	ff 1f       	adc	r31, r31
     75e:	ec 0f       	add	r30, r28
     760:	fd 1f       	adc	r31, r29
     762:	60 81       	ld	r22, Z
     764:	71 81       	ldd	r23, Z+1	; 0x01
     766:	0f 2e       	mov	r0, r31
     768:	f3 e3       	ldi	r31, 0x33	; 51
     76a:	ef 2e       	mov	r14, r31
     76c:	f5 e0       	ldi	r31, 0x05	; 5
     76e:	ff 2e       	mov	r15, r31
     770:	f0 2d       	mov	r31, r0
     772:	21 e0       	ldi	r18, 0x01	; 1
     774:	30 e0       	ldi	r19, 0x00	; 0
     776:	86 e4       	ldi	r24, 0x46	; 70
     778:	97 e0       	ldi	r25, 0x07	; 7
     77a:	0e 94 f2 38 	call	0x71e4	; 0x71e4 <_ZN4OLED19OLED_Write_To_BuferEiiiiPKh>
     77e:	4e 85       	ldd	r20, Y+14	; 0x0e
     780:	5f 85       	ldd	r21, Y+15	; 0x0f
     782:	41 50       	subi	r20, 0x01	; 1
     784:	51 09       	sbc	r21, r1
     786:	88 81       	ld	r24, Y
     788:	99 81       	ldd	r25, Y+1	; 0x01
     78a:	02 96       	adiw	r24, 0x02	; 2
     78c:	88 0f       	add	r24, r24
     78e:	99 1f       	adc	r25, r25
     790:	c8 0f       	add	r28, r24
     792:	d9 1f       	adc	r29, r25
     794:	68 81       	ld	r22, Y
     796:	79 81       	ldd	r23, Y+1	; 0x01
     798:	0f 2e       	mov	r0, r31
     79a:	fb e3       	ldi	r31, 0x3B	; 59
     79c:	ef 2e       	mov	r14, r31
     79e:	f5 e0       	ldi	r31, 0x05	; 5
     7a0:	ff 2e       	mov	r15, r31
     7a2:	f0 2d       	mov	r31, r0
     7a4:	21 e0       	ldi	r18, 0x01	; 1
     7a6:	30 e0       	ldi	r19, 0x00	; 0
     7a8:	86 e4       	ldi	r24, 0x46	; 70
     7aa:	97 e0       	ldi	r25, 0x07	; 7
     7ac:	0e 94 f2 38 	call	0x71e4	; 0x71e4 <_ZN4OLED19OLED_Write_To_BuferEiiiiPKh>
     7b0:	e7 c2       	rjmp	.+1486   	; 0xd80 <_ZN13Password_Menu7actionsEv+0x828>
     7b2:	4e 85       	ldd	r20, Y+14	; 0x0e
     7b4:	5f 85       	ldd	r21, Y+15	; 0x0f
     7b6:	e8 81       	ld	r30, Y
     7b8:	f9 81       	ldd	r31, Y+1	; 0x01
     7ba:	32 96       	adiw	r30, 0x02	; 2
     7bc:	ee 0f       	add	r30, r30
     7be:	ff 1f       	adc	r31, r31
     7c0:	ec 0f       	add	r30, r28
     7c2:	fd 1f       	adc	r31, r29
     7c4:	60 81       	ld	r22, Z
     7c6:	71 81       	ldd	r23, Z+1	; 0x01
     7c8:	08 e0       	ldi	r16, 0x08	; 8
     7ca:	10 e0       	ldi	r17, 0x00	; 0
     7cc:	21 e0       	ldi	r18, 0x01	; 1
     7ce:	30 e0       	ldi	r19, 0x00	; 0
     7d0:	86 e4       	ldi	r24, 0x46	; 70
     7d2:	97 e0       	ldi	r25, 0x07	; 7
     7d4:	0e 94 a3 38 	call	0x7146	; 0x7146 <_ZN4OLED21OLED_Clear_Bufer_partEiiii>
     7d8:	4e 85       	ldd	r20, Y+14	; 0x0e
     7da:	5f 85       	ldd	r21, Y+15	; 0x0f
     7dc:	e8 81       	ld	r30, Y
     7de:	f9 81       	ldd	r31, Y+1	; 0x01
     7e0:	32 96       	adiw	r30, 0x02	; 2
     7e2:	ee 0f       	add	r30, r30
     7e4:	ff 1f       	adc	r31, r31
     7e6:	ec 0f       	add	r30, r28
     7e8:	fd 1f       	adc	r31, r29
     7ea:	60 81       	ld	r22, Z
     7ec:	71 81       	ldd	r23, Z+1	; 0x01
     7ee:	0f 2e       	mov	r0, r31
     7f0:	f3 e8       	ldi	r31, 0x83	; 131
     7f2:	ef 2e       	mov	r14, r31
     7f4:	f5 e0       	ldi	r31, 0x05	; 5
     7f6:	ff 2e       	mov	r15, r31
     7f8:	f0 2d       	mov	r31, r0
     7fa:	21 e0       	ldi	r18, 0x01	; 1
     7fc:	30 e0       	ldi	r19, 0x00	; 0
     7fe:	86 e4       	ldi	r24, 0x46	; 70
     800:	97 e0       	ldi	r25, 0x07	; 7
     802:	0e 94 f2 38 	call	0x71e4	; 0x71e4 <_ZN4OLED19OLED_Write_To_BuferEiiiiPKh>
     806:	4e 85       	ldd	r20, Y+14	; 0x0e
     808:	5f 85       	ldd	r21, Y+15	; 0x0f
     80a:	4e 5f       	subi	r20, 0xFE	; 254
     80c:	5f 4f       	sbci	r21, 0xFF	; 255
     80e:	e8 81       	ld	r30, Y
     810:	f9 81       	ldd	r31, Y+1	; 0x01
     812:	32 96       	adiw	r30, 0x02	; 2
     814:	ee 0f       	add	r30, r30
     816:	ff 1f       	adc	r31, r31
     818:	ec 0f       	add	r30, r28
     81a:	fd 1f       	adc	r31, r29
     81c:	60 81       	ld	r22, Z
     81e:	71 81       	ldd	r23, Z+1	; 0x01
     820:	0f 2e       	mov	r0, r31
     822:	f3 e3       	ldi	r31, 0x33	; 51
     824:	ef 2e       	mov	r14, r31
     826:	f5 e0       	ldi	r31, 0x05	; 5
     828:	ff 2e       	mov	r15, r31
     82a:	f0 2d       	mov	r31, r0
     82c:	21 e0       	ldi	r18, 0x01	; 1
     82e:	30 e0       	ldi	r19, 0x00	; 0
     830:	86 e4       	ldi	r24, 0x46	; 70
     832:	97 e0       	ldi	r25, 0x07	; 7
     834:	0e 94 f2 38 	call	0x71e4	; 0x71e4 <_ZN4OLED19OLED_Write_To_BuferEiiiiPKh>
     838:	4e 85       	ldd	r20, Y+14	; 0x0e
     83a:	5f 85       	ldd	r21, Y+15	; 0x0f
     83c:	41 50       	subi	r20, 0x01	; 1
     83e:	51 09       	sbc	r21, r1
     840:	88 81       	ld	r24, Y
     842:	99 81       	ldd	r25, Y+1	; 0x01
     844:	02 96       	adiw	r24, 0x02	; 2
     846:	88 0f       	add	r24, r24
     848:	99 1f       	adc	r25, r25
     84a:	c8 0f       	add	r28, r24
     84c:	d9 1f       	adc	r29, r25
     84e:	68 81       	ld	r22, Y
     850:	79 81       	ldd	r23, Y+1	; 0x01
     852:	0f 2e       	mov	r0, r31
     854:	fb e3       	ldi	r31, 0x3B	; 59
     856:	ef 2e       	mov	r14, r31
     858:	f5 e0       	ldi	r31, 0x05	; 5
     85a:	ff 2e       	mov	r15, r31
     85c:	f0 2d       	mov	r31, r0
     85e:	21 e0       	ldi	r18, 0x01	; 1
     860:	30 e0       	ldi	r19, 0x00	; 0
     862:	86 e4       	ldi	r24, 0x46	; 70
     864:	97 e0       	ldi	r25, 0x07	; 7
     866:	0e 94 f2 38 	call	0x71e4	; 0x71e4 <_ZN4OLED19OLED_Write_To_BuferEiiiiPKh>
     86a:	8a c2       	rjmp	.+1300   	; 0xd80 <_ZN13Password_Menu7actionsEv+0x828>
     86c:	4e 85       	ldd	r20, Y+14	; 0x0e
     86e:	5f 85       	ldd	r21, Y+15	; 0x0f
     870:	e8 81       	ld	r30, Y
     872:	f9 81       	ldd	r31, Y+1	; 0x01
     874:	32 96       	adiw	r30, 0x02	; 2
     876:	ee 0f       	add	r30, r30
     878:	ff 1f       	adc	r31, r31
     87a:	ec 0f       	add	r30, r28
     87c:	fd 1f       	adc	r31, r29
     87e:	60 81       	ld	r22, Z
     880:	71 81       	ldd	r23, Z+1	; 0x01
     882:	08 e0       	ldi	r16, 0x08	; 8
     884:	10 e0       	ldi	r17, 0x00	; 0
     886:	21 e0       	ldi	r18, 0x01	; 1
     888:	30 e0       	ldi	r19, 0x00	; 0
     88a:	86 e4       	ldi	r24, 0x46	; 70
     88c:	97 e0       	ldi	r25, 0x07	; 7
     88e:	0e 94 a3 38 	call	0x7146	; 0x7146 <_ZN4OLED21OLED_Clear_Bufer_partEiiii>
     892:	4e 85       	ldd	r20, Y+14	; 0x0e
     894:	5f 85       	ldd	r21, Y+15	; 0x0f
     896:	e8 81       	ld	r30, Y
     898:	f9 81       	ldd	r31, Y+1	; 0x01
     89a:	32 96       	adiw	r30, 0x02	; 2
     89c:	ee 0f       	add	r30, r30
     89e:	ff 1f       	adc	r31, r31
     8a0:	ec 0f       	add	r30, r28
     8a2:	fd 1f       	adc	r31, r29
     8a4:	60 81       	ld	r22, Z
     8a6:	71 81       	ldd	r23, Z+1	; 0x01
     8a8:	0f 2e       	mov	r0, r31
     8aa:	fb e7       	ldi	r31, 0x7B	; 123
     8ac:	ef 2e       	mov	r14, r31
     8ae:	f5 e0       	ldi	r31, 0x05	; 5
     8b0:	ff 2e       	mov	r15, r31
     8b2:	f0 2d       	mov	r31, r0
     8b4:	21 e0       	ldi	r18, 0x01	; 1
     8b6:	30 e0       	ldi	r19, 0x00	; 0
     8b8:	86 e4       	ldi	r24, 0x46	; 70
     8ba:	97 e0       	ldi	r25, 0x07	; 7
     8bc:	0e 94 f2 38 	call	0x71e4	; 0x71e4 <_ZN4OLED19OLED_Write_To_BuferEiiiiPKh>
     8c0:	4e 85       	ldd	r20, Y+14	; 0x0e
     8c2:	5f 85       	ldd	r21, Y+15	; 0x0f
     8c4:	4e 5f       	subi	r20, 0xFE	; 254
     8c6:	5f 4f       	sbci	r21, 0xFF	; 255
     8c8:	e8 81       	ld	r30, Y
     8ca:	f9 81       	ldd	r31, Y+1	; 0x01
     8cc:	32 96       	adiw	r30, 0x02	; 2
     8ce:	ee 0f       	add	r30, r30
     8d0:	ff 1f       	adc	r31, r31
     8d2:	ec 0f       	add	r30, r28
     8d4:	fd 1f       	adc	r31, r29
     8d6:	60 81       	ld	r22, Z
     8d8:	71 81       	ldd	r23, Z+1	; 0x01
     8da:	0f 2e       	mov	r0, r31
     8dc:	f3 e3       	ldi	r31, 0x33	; 51
     8de:	ef 2e       	mov	r14, r31
     8e0:	f5 e0       	ldi	r31, 0x05	; 5
     8e2:	ff 2e       	mov	r15, r31
     8e4:	f0 2d       	mov	r31, r0
     8e6:	21 e0       	ldi	r18, 0x01	; 1
     8e8:	30 e0       	ldi	r19, 0x00	; 0
     8ea:	86 e4       	ldi	r24, 0x46	; 70
     8ec:	97 e0       	ldi	r25, 0x07	; 7
     8ee:	0e 94 f2 38 	call	0x71e4	; 0x71e4 <_ZN4OLED19OLED_Write_To_BuferEiiiiPKh>
     8f2:	4e 85       	ldd	r20, Y+14	; 0x0e
     8f4:	5f 85       	ldd	r21, Y+15	; 0x0f
     8f6:	41 50       	subi	r20, 0x01	; 1
     8f8:	51 09       	sbc	r21, r1
     8fa:	88 81       	ld	r24, Y
     8fc:	99 81       	ldd	r25, Y+1	; 0x01
     8fe:	02 96       	adiw	r24, 0x02	; 2
     900:	88 0f       	add	r24, r24
     902:	99 1f       	adc	r25, r25
     904:	c8 0f       	add	r28, r24
     906:	d9 1f       	adc	r29, r25
     908:	68 81       	ld	r22, Y
     90a:	79 81       	ldd	r23, Y+1	; 0x01
     90c:	0f 2e       	mov	r0, r31
     90e:	fb e3       	ldi	r31, 0x3B	; 59
     910:	ef 2e       	mov	r14, r31
     912:	f5 e0       	ldi	r31, 0x05	; 5
     914:	ff 2e       	mov	r15, r31
     916:	f0 2d       	mov	r31, r0
     918:	21 e0       	ldi	r18, 0x01	; 1
     91a:	30 e0       	ldi	r19, 0x00	; 0
     91c:	86 e4       	ldi	r24, 0x46	; 70
     91e:	97 e0       	ldi	r25, 0x07	; 7
     920:	0e 94 f2 38 	call	0x71e4	; 0x71e4 <_ZN4OLED19OLED_Write_To_BuferEiiiiPKh>
     924:	2d c2       	rjmp	.+1114   	; 0xd80 <_ZN13Password_Menu7actionsEv+0x828>
     926:	4e 85       	ldd	r20, Y+14	; 0x0e
     928:	5f 85       	ldd	r21, Y+15	; 0x0f
     92a:	e8 81       	ld	r30, Y
     92c:	f9 81       	ldd	r31, Y+1	; 0x01
     92e:	32 96       	adiw	r30, 0x02	; 2
     930:	ee 0f       	add	r30, r30
     932:	ff 1f       	adc	r31, r31
     934:	ec 0f       	add	r30, r28
     936:	fd 1f       	adc	r31, r29
     938:	60 81       	ld	r22, Z
     93a:	71 81       	ldd	r23, Z+1	; 0x01
     93c:	08 e0       	ldi	r16, 0x08	; 8
     93e:	10 e0       	ldi	r17, 0x00	; 0
     940:	21 e0       	ldi	r18, 0x01	; 1
     942:	30 e0       	ldi	r19, 0x00	; 0
     944:	86 e4       	ldi	r24, 0x46	; 70
     946:	97 e0       	ldi	r25, 0x07	; 7
     948:	0e 94 a3 38 	call	0x7146	; 0x7146 <_ZN4OLED21OLED_Clear_Bufer_partEiiii>
     94c:	4e 85       	ldd	r20, Y+14	; 0x0e
     94e:	5f 85       	ldd	r21, Y+15	; 0x0f
     950:	e8 81       	ld	r30, Y
     952:	f9 81       	ldd	r31, Y+1	; 0x01
     954:	32 96       	adiw	r30, 0x02	; 2
     956:	ee 0f       	add	r30, r30
     958:	ff 1f       	adc	r31, r31
     95a:	ec 0f       	add	r30, r28
     95c:	fd 1f       	adc	r31, r29
     95e:	60 81       	ld	r22, Z
     960:	71 81       	ldd	r23, Z+1	; 0x01
     962:	0f 2e       	mov	r0, r31
     964:	f3 e7       	ldi	r31, 0x73	; 115
     966:	ef 2e       	mov	r14, r31
     968:	f5 e0       	ldi	r31, 0x05	; 5
     96a:	ff 2e       	mov	r15, r31
     96c:	f0 2d       	mov	r31, r0
     96e:	21 e0       	ldi	r18, 0x01	; 1
     970:	30 e0       	ldi	r19, 0x00	; 0
     972:	86 e4       	ldi	r24, 0x46	; 70
     974:	97 e0       	ldi	r25, 0x07	; 7
     976:	0e 94 f2 38 	call	0x71e4	; 0x71e4 <_ZN4OLED19OLED_Write_To_BuferEiiiiPKh>
     97a:	4e 85       	ldd	r20, Y+14	; 0x0e
     97c:	5f 85       	ldd	r21, Y+15	; 0x0f
     97e:	4e 5f       	subi	r20, 0xFE	; 254
     980:	5f 4f       	sbci	r21, 0xFF	; 255
     982:	e8 81       	ld	r30, Y
     984:	f9 81       	ldd	r31, Y+1	; 0x01
     986:	32 96       	adiw	r30, 0x02	; 2
     988:	ee 0f       	add	r30, r30
     98a:	ff 1f       	adc	r31, r31
     98c:	ec 0f       	add	r30, r28
     98e:	fd 1f       	adc	r31, r29
     990:	60 81       	ld	r22, Z
     992:	71 81       	ldd	r23, Z+1	; 0x01
     994:	0f 2e       	mov	r0, r31
     996:	f3 e3       	ldi	r31, 0x33	; 51
     998:	ef 2e       	mov	r14, r31
     99a:	f5 e0       	ldi	r31, 0x05	; 5
     99c:	ff 2e       	mov	r15, r31
     99e:	f0 2d       	mov	r31, r0
     9a0:	21 e0       	ldi	r18, 0x01	; 1
     9a2:	30 e0       	ldi	r19, 0x00	; 0
     9a4:	86 e4       	ldi	r24, 0x46	; 70
     9a6:	97 e0       	ldi	r25, 0x07	; 7
     9a8:	0e 94 f2 38 	call	0x71e4	; 0x71e4 <_ZN4OLED19OLED_Write_To_BuferEiiiiPKh>
     9ac:	4e 85       	ldd	r20, Y+14	; 0x0e
     9ae:	5f 85       	ldd	r21, Y+15	; 0x0f
     9b0:	41 50       	subi	r20, 0x01	; 1
     9b2:	51 09       	sbc	r21, r1
     9b4:	88 81       	ld	r24, Y
     9b6:	99 81       	ldd	r25, Y+1	; 0x01
     9b8:	02 96       	adiw	r24, 0x02	; 2
     9ba:	88 0f       	add	r24, r24
     9bc:	99 1f       	adc	r25, r25
     9be:	c8 0f       	add	r28, r24
     9c0:	d9 1f       	adc	r29, r25
     9c2:	68 81       	ld	r22, Y
     9c4:	79 81       	ldd	r23, Y+1	; 0x01
     9c6:	0f 2e       	mov	r0, r31
     9c8:	fb e3       	ldi	r31, 0x3B	; 59
     9ca:	ef 2e       	mov	r14, r31
     9cc:	f5 e0       	ldi	r31, 0x05	; 5
     9ce:	ff 2e       	mov	r15, r31
     9d0:	f0 2d       	mov	r31, r0
     9d2:	21 e0       	ldi	r18, 0x01	; 1
     9d4:	30 e0       	ldi	r19, 0x00	; 0
     9d6:	86 e4       	ldi	r24, 0x46	; 70
     9d8:	97 e0       	ldi	r25, 0x07	; 7
     9da:	0e 94 f2 38 	call	0x71e4	; 0x71e4 <_ZN4OLED19OLED_Write_To_BuferEiiiiPKh>
     9de:	d0 c1       	rjmp	.+928    	; 0xd80 <_ZN13Password_Menu7actionsEv+0x828>
     9e0:	4e 85       	ldd	r20, Y+14	; 0x0e
     9e2:	5f 85       	ldd	r21, Y+15	; 0x0f
     9e4:	e8 81       	ld	r30, Y
     9e6:	f9 81       	ldd	r31, Y+1	; 0x01
     9e8:	32 96       	adiw	r30, 0x02	; 2
     9ea:	ee 0f       	add	r30, r30
     9ec:	ff 1f       	adc	r31, r31
     9ee:	ec 0f       	add	r30, r28
     9f0:	fd 1f       	adc	r31, r29
     9f2:	60 81       	ld	r22, Z
     9f4:	71 81       	ldd	r23, Z+1	; 0x01
     9f6:	08 e0       	ldi	r16, 0x08	; 8
     9f8:	10 e0       	ldi	r17, 0x00	; 0
     9fa:	21 e0       	ldi	r18, 0x01	; 1
     9fc:	30 e0       	ldi	r19, 0x00	; 0
     9fe:	86 e4       	ldi	r24, 0x46	; 70
     a00:	97 e0       	ldi	r25, 0x07	; 7
     a02:	0e 94 a3 38 	call	0x7146	; 0x7146 <_ZN4OLED21OLED_Clear_Bufer_partEiiii>
     a06:	4e 85       	ldd	r20, Y+14	; 0x0e
     a08:	5f 85       	ldd	r21, Y+15	; 0x0f
     a0a:	e8 81       	ld	r30, Y
     a0c:	f9 81       	ldd	r31, Y+1	; 0x01
     a0e:	32 96       	adiw	r30, 0x02	; 2
     a10:	ee 0f       	add	r30, r30
     a12:	ff 1f       	adc	r31, r31
     a14:	ec 0f       	add	r30, r28
     a16:	fd 1f       	adc	r31, r29
     a18:	60 81       	ld	r22, Z
     a1a:	71 81       	ldd	r23, Z+1	; 0x01
     a1c:	0f 2e       	mov	r0, r31
     a1e:	fb e6       	ldi	r31, 0x6B	; 107
     a20:	ef 2e       	mov	r14, r31
     a22:	f5 e0       	ldi	r31, 0x05	; 5
     a24:	ff 2e       	mov	r15, r31
     a26:	f0 2d       	mov	r31, r0
     a28:	21 e0       	ldi	r18, 0x01	; 1
     a2a:	30 e0       	ldi	r19, 0x00	; 0
     a2c:	86 e4       	ldi	r24, 0x46	; 70
     a2e:	97 e0       	ldi	r25, 0x07	; 7
     a30:	0e 94 f2 38 	call	0x71e4	; 0x71e4 <_ZN4OLED19OLED_Write_To_BuferEiiiiPKh>
     a34:	4e 85       	ldd	r20, Y+14	; 0x0e
     a36:	5f 85       	ldd	r21, Y+15	; 0x0f
     a38:	4e 5f       	subi	r20, 0xFE	; 254
     a3a:	5f 4f       	sbci	r21, 0xFF	; 255
     a3c:	e8 81       	ld	r30, Y
     a3e:	f9 81       	ldd	r31, Y+1	; 0x01
     a40:	32 96       	adiw	r30, 0x02	; 2
     a42:	ee 0f       	add	r30, r30
     a44:	ff 1f       	adc	r31, r31
     a46:	ec 0f       	add	r30, r28
     a48:	fd 1f       	adc	r31, r29
     a4a:	60 81       	ld	r22, Z
     a4c:	71 81       	ldd	r23, Z+1	; 0x01
     a4e:	0f 2e       	mov	r0, r31
     a50:	f3 e3       	ldi	r31, 0x33	; 51
     a52:	ef 2e       	mov	r14, r31
     a54:	f5 e0       	ldi	r31, 0x05	; 5
     a56:	ff 2e       	mov	r15, r31
     a58:	f0 2d       	mov	r31, r0
     a5a:	21 e0       	ldi	r18, 0x01	; 1
     a5c:	30 e0       	ldi	r19, 0x00	; 0
     a5e:	86 e4       	ldi	r24, 0x46	; 70
     a60:	97 e0       	ldi	r25, 0x07	; 7
     a62:	0e 94 f2 38 	call	0x71e4	; 0x71e4 <_ZN4OLED19OLED_Write_To_BuferEiiiiPKh>
     a66:	4e 85       	ldd	r20, Y+14	; 0x0e
     a68:	5f 85       	ldd	r21, Y+15	; 0x0f
     a6a:	41 50       	subi	r20, 0x01	; 1
     a6c:	51 09       	sbc	r21, r1
     a6e:	88 81       	ld	r24, Y
     a70:	99 81       	ldd	r25, Y+1	; 0x01
     a72:	02 96       	adiw	r24, 0x02	; 2
     a74:	88 0f       	add	r24, r24
     a76:	99 1f       	adc	r25, r25
     a78:	c8 0f       	add	r28, r24
     a7a:	d9 1f       	adc	r29, r25
     a7c:	68 81       	ld	r22, Y
     a7e:	79 81       	ldd	r23, Y+1	; 0x01
     a80:	0f 2e       	mov	r0, r31
     a82:	fb e3       	ldi	r31, 0x3B	; 59
     a84:	ef 2e       	mov	r14, r31
     a86:	f5 e0       	ldi	r31, 0x05	; 5
     a88:	ff 2e       	mov	r15, r31
     a8a:	f0 2d       	mov	r31, r0
     a8c:	21 e0       	ldi	r18, 0x01	; 1
     a8e:	30 e0       	ldi	r19, 0x00	; 0
     a90:	86 e4       	ldi	r24, 0x46	; 70
     a92:	97 e0       	ldi	r25, 0x07	; 7
     a94:	0e 94 f2 38 	call	0x71e4	; 0x71e4 <_ZN4OLED19OLED_Write_To_BuferEiiiiPKh>
     a98:	73 c1       	rjmp	.+742    	; 0xd80 <_ZN13Password_Menu7actionsEv+0x828>
     a9a:	4e 85       	ldd	r20, Y+14	; 0x0e
     a9c:	5f 85       	ldd	r21, Y+15	; 0x0f
     a9e:	e8 81       	ld	r30, Y
     aa0:	f9 81       	ldd	r31, Y+1	; 0x01
     aa2:	32 96       	adiw	r30, 0x02	; 2
     aa4:	ee 0f       	add	r30, r30
     aa6:	ff 1f       	adc	r31, r31
     aa8:	ec 0f       	add	r30, r28
     aaa:	fd 1f       	adc	r31, r29
     aac:	60 81       	ld	r22, Z
     aae:	71 81       	ldd	r23, Z+1	; 0x01
     ab0:	08 e0       	ldi	r16, 0x08	; 8
     ab2:	10 e0       	ldi	r17, 0x00	; 0
     ab4:	21 e0       	ldi	r18, 0x01	; 1
     ab6:	30 e0       	ldi	r19, 0x00	; 0
     ab8:	86 e4       	ldi	r24, 0x46	; 70
     aba:	97 e0       	ldi	r25, 0x07	; 7
     abc:	0e 94 a3 38 	call	0x7146	; 0x7146 <_ZN4OLED21OLED_Clear_Bufer_partEiiii>
     ac0:	4e 85       	ldd	r20, Y+14	; 0x0e
     ac2:	5f 85       	ldd	r21, Y+15	; 0x0f
     ac4:	e8 81       	ld	r30, Y
     ac6:	f9 81       	ldd	r31, Y+1	; 0x01
     ac8:	32 96       	adiw	r30, 0x02	; 2
     aca:	ee 0f       	add	r30, r30
     acc:	ff 1f       	adc	r31, r31
     ace:	ec 0f       	add	r30, r28
     ad0:	fd 1f       	adc	r31, r29
     ad2:	60 81       	ld	r22, Z
     ad4:	71 81       	ldd	r23, Z+1	; 0x01
     ad6:	0f 2e       	mov	r0, r31
     ad8:	f3 e6       	ldi	r31, 0x63	; 99
     ada:	ef 2e       	mov	r14, r31
     adc:	f5 e0       	ldi	r31, 0x05	; 5
     ade:	ff 2e       	mov	r15, r31
     ae0:	f0 2d       	mov	r31, r0
     ae2:	21 e0       	ldi	r18, 0x01	; 1
     ae4:	30 e0       	ldi	r19, 0x00	; 0
     ae6:	86 e4       	ldi	r24, 0x46	; 70
     ae8:	97 e0       	ldi	r25, 0x07	; 7
     aea:	0e 94 f2 38 	call	0x71e4	; 0x71e4 <_ZN4OLED19OLED_Write_To_BuferEiiiiPKh>
     aee:	4e 85       	ldd	r20, Y+14	; 0x0e
     af0:	5f 85       	ldd	r21, Y+15	; 0x0f
     af2:	4e 5f       	subi	r20, 0xFE	; 254
     af4:	5f 4f       	sbci	r21, 0xFF	; 255
     af6:	e8 81       	ld	r30, Y
     af8:	f9 81       	ldd	r31, Y+1	; 0x01
     afa:	32 96       	adiw	r30, 0x02	; 2
     afc:	ee 0f       	add	r30, r30
     afe:	ff 1f       	adc	r31, r31
     b00:	ec 0f       	add	r30, r28
     b02:	fd 1f       	adc	r31, r29
     b04:	60 81       	ld	r22, Z
     b06:	71 81       	ldd	r23, Z+1	; 0x01
     b08:	0f 2e       	mov	r0, r31
     b0a:	f3 e3       	ldi	r31, 0x33	; 51
     b0c:	ef 2e       	mov	r14, r31
     b0e:	f5 e0       	ldi	r31, 0x05	; 5
     b10:	ff 2e       	mov	r15, r31
     b12:	f0 2d       	mov	r31, r0
     b14:	21 e0       	ldi	r18, 0x01	; 1
     b16:	30 e0       	ldi	r19, 0x00	; 0
     b18:	86 e4       	ldi	r24, 0x46	; 70
     b1a:	97 e0       	ldi	r25, 0x07	; 7
     b1c:	0e 94 f2 38 	call	0x71e4	; 0x71e4 <_ZN4OLED19OLED_Write_To_BuferEiiiiPKh>
     b20:	4e 85       	ldd	r20, Y+14	; 0x0e
     b22:	5f 85       	ldd	r21, Y+15	; 0x0f
     b24:	41 50       	subi	r20, 0x01	; 1
     b26:	51 09       	sbc	r21, r1
     b28:	88 81       	ld	r24, Y
     b2a:	99 81       	ldd	r25, Y+1	; 0x01
     b2c:	02 96       	adiw	r24, 0x02	; 2
     b2e:	88 0f       	add	r24, r24
     b30:	99 1f       	adc	r25, r25
     b32:	c8 0f       	add	r28, r24
     b34:	d9 1f       	adc	r29, r25
     b36:	68 81       	ld	r22, Y
     b38:	79 81       	ldd	r23, Y+1	; 0x01
     b3a:	0f 2e       	mov	r0, r31
     b3c:	fb e3       	ldi	r31, 0x3B	; 59
     b3e:	ef 2e       	mov	r14, r31
     b40:	f5 e0       	ldi	r31, 0x05	; 5
     b42:	ff 2e       	mov	r15, r31
     b44:	f0 2d       	mov	r31, r0
     b46:	21 e0       	ldi	r18, 0x01	; 1
     b48:	30 e0       	ldi	r19, 0x00	; 0
     b4a:	86 e4       	ldi	r24, 0x46	; 70
     b4c:	97 e0       	ldi	r25, 0x07	; 7
     b4e:	0e 94 f2 38 	call	0x71e4	; 0x71e4 <_ZN4OLED19OLED_Write_To_BuferEiiiiPKh>
     b52:	16 c1       	rjmp	.+556    	; 0xd80 <_ZN13Password_Menu7actionsEv+0x828>
     b54:	4e 85       	ldd	r20, Y+14	; 0x0e
     b56:	5f 85       	ldd	r21, Y+15	; 0x0f
     b58:	e8 81       	ld	r30, Y
     b5a:	f9 81       	ldd	r31, Y+1	; 0x01
     b5c:	32 96       	adiw	r30, 0x02	; 2
     b5e:	ee 0f       	add	r30, r30
     b60:	ff 1f       	adc	r31, r31
     b62:	ec 0f       	add	r30, r28
     b64:	fd 1f       	adc	r31, r29
     b66:	60 81       	ld	r22, Z
     b68:	71 81       	ldd	r23, Z+1	; 0x01
     b6a:	08 e0       	ldi	r16, 0x08	; 8
     b6c:	10 e0       	ldi	r17, 0x00	; 0
     b6e:	21 e0       	ldi	r18, 0x01	; 1
     b70:	30 e0       	ldi	r19, 0x00	; 0
     b72:	86 e4       	ldi	r24, 0x46	; 70
     b74:	97 e0       	ldi	r25, 0x07	; 7
     b76:	0e 94 a3 38 	call	0x7146	; 0x7146 <_ZN4OLED21OLED_Clear_Bufer_partEiiii>
     b7a:	4e 85       	ldd	r20, Y+14	; 0x0e
     b7c:	5f 85       	ldd	r21, Y+15	; 0x0f
     b7e:	e8 81       	ld	r30, Y
     b80:	f9 81       	ldd	r31, Y+1	; 0x01
     b82:	32 96       	adiw	r30, 0x02	; 2
     b84:	ee 0f       	add	r30, r30
     b86:	ff 1f       	adc	r31, r31
     b88:	ec 0f       	add	r30, r28
     b8a:	fd 1f       	adc	r31, r29
     b8c:	60 81       	ld	r22, Z
     b8e:	71 81       	ldd	r23, Z+1	; 0x01
     b90:	0f 2e       	mov	r0, r31
     b92:	fb e5       	ldi	r31, 0x5B	; 91
     b94:	ef 2e       	mov	r14, r31
     b96:	f5 e0       	ldi	r31, 0x05	; 5
     b98:	ff 2e       	mov	r15, r31
     b9a:	f0 2d       	mov	r31, r0
     b9c:	21 e0       	ldi	r18, 0x01	; 1
     b9e:	30 e0       	ldi	r19, 0x00	; 0
     ba0:	86 e4       	ldi	r24, 0x46	; 70
     ba2:	97 e0       	ldi	r25, 0x07	; 7
     ba4:	0e 94 f2 38 	call	0x71e4	; 0x71e4 <_ZN4OLED19OLED_Write_To_BuferEiiiiPKh>
     ba8:	4e 85       	ldd	r20, Y+14	; 0x0e
     baa:	5f 85       	ldd	r21, Y+15	; 0x0f
     bac:	4e 5f       	subi	r20, 0xFE	; 254
     bae:	5f 4f       	sbci	r21, 0xFF	; 255
     bb0:	e8 81       	ld	r30, Y
     bb2:	f9 81       	ldd	r31, Y+1	; 0x01
     bb4:	32 96       	adiw	r30, 0x02	; 2
     bb6:	ee 0f       	add	r30, r30
     bb8:	ff 1f       	adc	r31, r31
     bba:	ec 0f       	add	r30, r28
     bbc:	fd 1f       	adc	r31, r29
     bbe:	60 81       	ld	r22, Z
     bc0:	71 81       	ldd	r23, Z+1	; 0x01
     bc2:	0f 2e       	mov	r0, r31
     bc4:	f3 e3       	ldi	r31, 0x33	; 51
     bc6:	ef 2e       	mov	r14, r31
     bc8:	f5 e0       	ldi	r31, 0x05	; 5
     bca:	ff 2e       	mov	r15, r31
     bcc:	f0 2d       	mov	r31, r0
     bce:	21 e0       	ldi	r18, 0x01	; 1
     bd0:	30 e0       	ldi	r19, 0x00	; 0
     bd2:	86 e4       	ldi	r24, 0x46	; 70
     bd4:	97 e0       	ldi	r25, 0x07	; 7
     bd6:	0e 94 f2 38 	call	0x71e4	; 0x71e4 <_ZN4OLED19OLED_Write_To_BuferEiiiiPKh>
     bda:	4e 85       	ldd	r20, Y+14	; 0x0e
     bdc:	5f 85       	ldd	r21, Y+15	; 0x0f
     bde:	41 50       	subi	r20, 0x01	; 1
     be0:	51 09       	sbc	r21, r1
     be2:	88 81       	ld	r24, Y
     be4:	99 81       	ldd	r25, Y+1	; 0x01
     be6:	02 96       	adiw	r24, 0x02	; 2
     be8:	88 0f       	add	r24, r24
     bea:	99 1f       	adc	r25, r25
     bec:	c8 0f       	add	r28, r24
     bee:	d9 1f       	adc	r29, r25
     bf0:	68 81       	ld	r22, Y
     bf2:	79 81       	ldd	r23, Y+1	; 0x01
     bf4:	0f 2e       	mov	r0, r31
     bf6:	fb e3       	ldi	r31, 0x3B	; 59
     bf8:	ef 2e       	mov	r14, r31
     bfa:	f5 e0       	ldi	r31, 0x05	; 5
     bfc:	ff 2e       	mov	r15, r31
     bfe:	f0 2d       	mov	r31, r0
     c00:	21 e0       	ldi	r18, 0x01	; 1
     c02:	30 e0       	ldi	r19, 0x00	; 0
     c04:	86 e4       	ldi	r24, 0x46	; 70
     c06:	97 e0       	ldi	r25, 0x07	; 7
     c08:	0e 94 f2 38 	call	0x71e4	; 0x71e4 <_ZN4OLED19OLED_Write_To_BuferEiiiiPKh>
     c0c:	b9 c0       	rjmp	.+370    	; 0xd80 <_ZN13Password_Menu7actionsEv+0x828>
     c0e:	4e 85       	ldd	r20, Y+14	; 0x0e
     c10:	5f 85       	ldd	r21, Y+15	; 0x0f
     c12:	e8 81       	ld	r30, Y
     c14:	f9 81       	ldd	r31, Y+1	; 0x01
     c16:	32 96       	adiw	r30, 0x02	; 2
     c18:	ee 0f       	add	r30, r30
     c1a:	ff 1f       	adc	r31, r31
     c1c:	ec 0f       	add	r30, r28
     c1e:	fd 1f       	adc	r31, r29
     c20:	60 81       	ld	r22, Z
     c22:	71 81       	ldd	r23, Z+1	; 0x01
     c24:	08 e0       	ldi	r16, 0x08	; 8
     c26:	10 e0       	ldi	r17, 0x00	; 0
     c28:	21 e0       	ldi	r18, 0x01	; 1
     c2a:	30 e0       	ldi	r19, 0x00	; 0
     c2c:	86 e4       	ldi	r24, 0x46	; 70
     c2e:	97 e0       	ldi	r25, 0x07	; 7
     c30:	0e 94 a3 38 	call	0x7146	; 0x7146 <_ZN4OLED21OLED_Clear_Bufer_partEiiii>
     c34:	4e 85       	ldd	r20, Y+14	; 0x0e
     c36:	5f 85       	ldd	r21, Y+15	; 0x0f
     c38:	e8 81       	ld	r30, Y
     c3a:	f9 81       	ldd	r31, Y+1	; 0x01
     c3c:	32 96       	adiw	r30, 0x02	; 2
     c3e:	ee 0f       	add	r30, r30
     c40:	ff 1f       	adc	r31, r31
     c42:	ec 0f       	add	r30, r28
     c44:	fd 1f       	adc	r31, r29
     c46:	60 81       	ld	r22, Z
     c48:	71 81       	ldd	r23, Z+1	; 0x01
     c4a:	0f 2e       	mov	r0, r31
     c4c:	f3 e5       	ldi	r31, 0x53	; 83
     c4e:	ef 2e       	mov	r14, r31
     c50:	f5 e0       	ldi	r31, 0x05	; 5
     c52:	ff 2e       	mov	r15, r31
     c54:	f0 2d       	mov	r31, r0
     c56:	21 e0       	ldi	r18, 0x01	; 1
     c58:	30 e0       	ldi	r19, 0x00	; 0
     c5a:	86 e4       	ldi	r24, 0x46	; 70
     c5c:	97 e0       	ldi	r25, 0x07	; 7
     c5e:	0e 94 f2 38 	call	0x71e4	; 0x71e4 <_ZN4OLED19OLED_Write_To_BuferEiiiiPKh>
     c62:	4e 85       	ldd	r20, Y+14	; 0x0e
     c64:	5f 85       	ldd	r21, Y+15	; 0x0f
     c66:	4e 5f       	subi	r20, 0xFE	; 254
     c68:	5f 4f       	sbci	r21, 0xFF	; 255
     c6a:	e8 81       	ld	r30, Y
     c6c:	f9 81       	ldd	r31, Y+1	; 0x01
     c6e:	32 96       	adiw	r30, 0x02	; 2
     c70:	ee 0f       	add	r30, r30
     c72:	ff 1f       	adc	r31, r31
     c74:	ec 0f       	add	r30, r28
     c76:	fd 1f       	adc	r31, r29
     c78:	60 81       	ld	r22, Z
     c7a:	71 81       	ldd	r23, Z+1	; 0x01
     c7c:	0f 2e       	mov	r0, r31
     c7e:	f3 e3       	ldi	r31, 0x33	; 51
     c80:	ef 2e       	mov	r14, r31
     c82:	f5 e0       	ldi	r31, 0x05	; 5
     c84:	ff 2e       	mov	r15, r31
     c86:	f0 2d       	mov	r31, r0
     c88:	21 e0       	ldi	r18, 0x01	; 1
     c8a:	30 e0       	ldi	r19, 0x00	; 0
     c8c:	86 e4       	ldi	r24, 0x46	; 70
     c8e:	97 e0       	ldi	r25, 0x07	; 7
     c90:	0e 94 f2 38 	call	0x71e4	; 0x71e4 <_ZN4OLED19OLED_Write_To_BuferEiiiiPKh>
     c94:	4e 85       	ldd	r20, Y+14	; 0x0e
     c96:	5f 85       	ldd	r21, Y+15	; 0x0f
     c98:	41 50       	subi	r20, 0x01	; 1
     c9a:	51 09       	sbc	r21, r1
     c9c:	88 81       	ld	r24, Y
     c9e:	99 81       	ldd	r25, Y+1	; 0x01
     ca0:	02 96       	adiw	r24, 0x02	; 2
     ca2:	88 0f       	add	r24, r24
     ca4:	99 1f       	adc	r25, r25
     ca6:	c8 0f       	add	r28, r24
     ca8:	d9 1f       	adc	r29, r25
     caa:	68 81       	ld	r22, Y
     cac:	79 81       	ldd	r23, Y+1	; 0x01
     cae:	0f 2e       	mov	r0, r31
     cb0:	fb e3       	ldi	r31, 0x3B	; 59
     cb2:	ef 2e       	mov	r14, r31
     cb4:	f5 e0       	ldi	r31, 0x05	; 5
     cb6:	ff 2e       	mov	r15, r31
     cb8:	f0 2d       	mov	r31, r0
     cba:	21 e0       	ldi	r18, 0x01	; 1
     cbc:	30 e0       	ldi	r19, 0x00	; 0
     cbe:	86 e4       	ldi	r24, 0x46	; 70
     cc0:	97 e0       	ldi	r25, 0x07	; 7
     cc2:	0e 94 f2 38 	call	0x71e4	; 0x71e4 <_ZN4OLED19OLED_Write_To_BuferEiiiiPKh>
     cc6:	5c c0       	rjmp	.+184    	; 0xd80 <_ZN13Password_Menu7actionsEv+0x828>
     cc8:	4e 85       	ldd	r20, Y+14	; 0x0e
     cca:	5f 85       	ldd	r21, Y+15	; 0x0f
     ccc:	e8 81       	ld	r30, Y
     cce:	f9 81       	ldd	r31, Y+1	; 0x01
     cd0:	32 96       	adiw	r30, 0x02	; 2
     cd2:	ee 0f       	add	r30, r30
     cd4:	ff 1f       	adc	r31, r31
     cd6:	ec 0f       	add	r30, r28
     cd8:	fd 1f       	adc	r31, r29
     cda:	60 81       	ld	r22, Z
     cdc:	71 81       	ldd	r23, Z+1	; 0x01
     cde:	08 e0       	ldi	r16, 0x08	; 8
     ce0:	10 e0       	ldi	r17, 0x00	; 0
     ce2:	21 e0       	ldi	r18, 0x01	; 1
     ce4:	30 e0       	ldi	r19, 0x00	; 0
     ce6:	86 e4       	ldi	r24, 0x46	; 70
     ce8:	97 e0       	ldi	r25, 0x07	; 7
     cea:	0e 94 a3 38 	call	0x7146	; 0x7146 <_ZN4OLED21OLED_Clear_Bufer_partEiiii>
     cee:	4e 85       	ldd	r20, Y+14	; 0x0e
     cf0:	5f 85       	ldd	r21, Y+15	; 0x0f
     cf2:	e8 81       	ld	r30, Y
     cf4:	f9 81       	ldd	r31, Y+1	; 0x01
     cf6:	32 96       	adiw	r30, 0x02	; 2
     cf8:	ee 0f       	add	r30, r30
     cfa:	ff 1f       	adc	r31, r31
     cfc:	ec 0f       	add	r30, r28
     cfe:	fd 1f       	adc	r31, r29
     d00:	60 81       	ld	r22, Z
     d02:	71 81       	ldd	r23, Z+1	; 0x01
     d04:	0f 2e       	mov	r0, r31
     d06:	f3 e4       	ldi	r31, 0x43	; 67
     d08:	ef 2e       	mov	r14, r31
     d0a:	f5 e0       	ldi	r31, 0x05	; 5
     d0c:	ff 2e       	mov	r15, r31
     d0e:	f0 2d       	mov	r31, r0
     d10:	21 e0       	ldi	r18, 0x01	; 1
     d12:	30 e0       	ldi	r19, 0x00	; 0
     d14:	86 e4       	ldi	r24, 0x46	; 70
     d16:	97 e0       	ldi	r25, 0x07	; 7
     d18:	0e 94 f2 38 	call	0x71e4	; 0x71e4 <_ZN4OLED19OLED_Write_To_BuferEiiiiPKh>
     d1c:	4e 85       	ldd	r20, Y+14	; 0x0e
     d1e:	5f 85       	ldd	r21, Y+15	; 0x0f
     d20:	4e 5f       	subi	r20, 0xFE	; 254
     d22:	5f 4f       	sbci	r21, 0xFF	; 255
     d24:	e8 81       	ld	r30, Y
     d26:	f9 81       	ldd	r31, Y+1	; 0x01
     d28:	32 96       	adiw	r30, 0x02	; 2
     d2a:	ee 0f       	add	r30, r30
     d2c:	ff 1f       	adc	r31, r31
     d2e:	ec 0f       	add	r30, r28
     d30:	fd 1f       	adc	r31, r29
     d32:	60 81       	ld	r22, Z
     d34:	71 81       	ldd	r23, Z+1	; 0x01
     d36:	0f 2e       	mov	r0, r31
     d38:	f3 e3       	ldi	r31, 0x33	; 51
     d3a:	ef 2e       	mov	r14, r31
     d3c:	f5 e0       	ldi	r31, 0x05	; 5
     d3e:	ff 2e       	mov	r15, r31
     d40:	f0 2d       	mov	r31, r0
     d42:	21 e0       	ldi	r18, 0x01	; 1
     d44:	30 e0       	ldi	r19, 0x00	; 0
     d46:	86 e4       	ldi	r24, 0x46	; 70
     d48:	97 e0       	ldi	r25, 0x07	; 7
     d4a:	0e 94 f2 38 	call	0x71e4	; 0x71e4 <_ZN4OLED19OLED_Write_To_BuferEiiiiPKh>
     d4e:	4e 85       	ldd	r20, Y+14	; 0x0e
     d50:	5f 85       	ldd	r21, Y+15	; 0x0f
     d52:	41 50       	subi	r20, 0x01	; 1
     d54:	51 09       	sbc	r21, r1
     d56:	88 81       	ld	r24, Y
     d58:	99 81       	ldd	r25, Y+1	; 0x01
     d5a:	02 96       	adiw	r24, 0x02	; 2
     d5c:	88 0f       	add	r24, r24
     d5e:	99 1f       	adc	r25, r25
     d60:	c8 0f       	add	r28, r24
     d62:	d9 1f       	adc	r29, r25
     d64:	68 81       	ld	r22, Y
     d66:	79 81       	ldd	r23, Y+1	; 0x01
     d68:	0f 2e       	mov	r0, r31
     d6a:	fb e3       	ldi	r31, 0x3B	; 59
     d6c:	ef 2e       	mov	r14, r31
     d6e:	f5 e0       	ldi	r31, 0x05	; 5
     d70:	ff 2e       	mov	r15, r31
     d72:	f0 2d       	mov	r31, r0
     d74:	21 e0       	ldi	r18, 0x01	; 1
     d76:	30 e0       	ldi	r19, 0x00	; 0
     d78:	86 e4       	ldi	r24, 0x46	; 70
     d7a:	97 e0       	ldi	r25, 0x07	; 7
     d7c:	0e 94 f2 38 	call	0x71e4	; 0x71e4 <_ZN4OLED19OLED_Write_To_BuferEiiiiPKh>
     d80:	df 91       	pop	r29
     d82:	cf 91       	pop	r28
     d84:	1f 91       	pop	r17
     d86:	0f 91       	pop	r16
     d88:	ff 90       	pop	r15
     d8a:	ef 90       	pop	r14
     d8c:	08 95       	ret

00000d8e <_ZN9User_Info7actionsEv>:
     d8e:	ef 92       	push	r14
     d90:	ff 92       	push	r15
     d92:	0f 93       	push	r16
     d94:	1f 93       	push	r17
     d96:	cf 93       	push	r28
     d98:	df 93       	push	r29
     d9a:	ec 01       	movw	r28, r24
     d9c:	90 91 42 07 	lds	r25, 0x0742	; 0x800742 <User_Info_Status>
     da0:	99 23       	and	r25, r25
     da2:	09 f4       	brne	.+2      	; 0xda6 <_ZN9User_Info7actionsEv+0x18>
     da4:	2e c3       	rjmp	.+1628   	; 0x1402 <_ZN9User_Info7actionsEv+0x674>
     da6:	4a 85       	ldd	r20, Y+10	; 0x0a
     da8:	5b 85       	ldd	r21, Y+11	; 0x0b
     daa:	08 e0       	ldi	r16, 0x08	; 8
     dac:	10 e0       	ldi	r17, 0x00	; 0
     dae:	20 e1       	ldi	r18, 0x10	; 16
     db0:	30 e0       	ldi	r19, 0x00	; 0
     db2:	60 e0       	ldi	r22, 0x00	; 0
     db4:	70 e0       	ldi	r23, 0x00	; 0
     db6:	86 e4       	ldi	r24, 0x46	; 70
     db8:	97 e0       	ldi	r25, 0x07	; 7
     dba:	0e 94 a3 38 	call	0x7146	; 0x7146 <_ZN4OLED21OLED_Clear_Bufer_partEiiii>
     dbe:	4a 85       	ldd	r20, Y+10	; 0x0a
     dc0:	5b 85       	ldd	r21, Y+11	; 0x0b
     dc2:	6a 81       	ldd	r22, Y+2	; 0x02
     dc4:	7b 81       	ldd	r23, Y+3	; 0x03
     dc6:	0f 2e       	mov	r0, r31
     dc8:	fb e8       	ldi	r31, 0x8B	; 139
     dca:	ef 2e       	mov	r14, r31
     dcc:	f1 e0       	ldi	r31, 0x01	; 1
     dce:	ff 2e       	mov	r15, r31
     dd0:	f0 2d       	mov	r31, r0
     dd2:	21 e0       	ldi	r18, 0x01	; 1
     dd4:	30 e0       	ldi	r19, 0x00	; 0
     dd6:	86 e4       	ldi	r24, 0x46	; 70
     dd8:	97 e0       	ldi	r25, 0x07	; 7
     dda:	0e 94 f2 38 	call	0x71e4	; 0x71e4 <_ZN4OLED19OLED_Write_To_BuferEiiiiPKh>
     dde:	4a 85       	ldd	r20, Y+10	; 0x0a
     de0:	5b 85       	ldd	r21, Y+11	; 0x0b
     de2:	6a 81       	ldd	r22, Y+2	; 0x02
     de4:	7b 81       	ldd	r23, Y+3	; 0x03
     de6:	68 5f       	subi	r22, 0xF8	; 248
     de8:	7f 4f       	sbci	r23, 0xFF	; 255
     dea:	0f 2e       	mov	r0, r31
     dec:	f3 ed       	ldi	r31, 0xD3	; 211
     dee:	ef 2e       	mov	r14, r31
     df0:	f1 e0       	ldi	r31, 0x01	; 1
     df2:	ff 2e       	mov	r15, r31
     df4:	f0 2d       	mov	r31, r0
     df6:	21 e0       	ldi	r18, 0x01	; 1
     df8:	30 e0       	ldi	r19, 0x00	; 0
     dfa:	86 e4       	ldi	r24, 0x46	; 70
     dfc:	97 e0       	ldi	r25, 0x07	; 7
     dfe:	0e 94 f2 38 	call	0x71e4	; 0x71e4 <_ZN4OLED19OLED_Write_To_BuferEiiiiPKh>
     e02:	4a 85       	ldd	r20, Y+10	; 0x0a
     e04:	5b 85       	ldd	r21, Y+11	; 0x0b
     e06:	6a 81       	ldd	r22, Y+2	; 0x02
     e08:	7b 81       	ldd	r23, Y+3	; 0x03
     e0a:	60 5f       	subi	r22, 0xF0	; 240
     e0c:	7f 4f       	sbci	r23, 0xFF	; 255
     e0e:	0f 2e       	mov	r0, r31
     e10:	f3 eb       	ldi	r31, 0xB3	; 179
     e12:	ef 2e       	mov	r14, r31
     e14:	f1 e0       	ldi	r31, 0x01	; 1
     e16:	ff 2e       	mov	r15, r31
     e18:	f0 2d       	mov	r31, r0
     e1a:	21 e0       	ldi	r18, 0x01	; 1
     e1c:	30 e0       	ldi	r19, 0x00	; 0
     e1e:	86 e4       	ldi	r24, 0x46	; 70
     e20:	97 e0       	ldi	r25, 0x07	; 7
     e22:	0e 94 f2 38 	call	0x71e4	; 0x71e4 <_ZN4OLED19OLED_Write_To_BuferEiiiiPKh>
     e26:	4a 85       	ldd	r20, Y+10	; 0x0a
     e28:	5b 85       	ldd	r21, Y+11	; 0x0b
     e2a:	6a 81       	ldd	r22, Y+2	; 0x02
     e2c:	7b 81       	ldd	r23, Y+3	; 0x03
     e2e:	68 5e       	subi	r22, 0xE8	; 232
     e30:	7f 4f       	sbci	r23, 0xFF	; 255
     e32:	0f 2e       	mov	r0, r31
     e34:	fb ea       	ldi	r31, 0xAB	; 171
     e36:	ef 2e       	mov	r14, r31
     e38:	f1 e0       	ldi	r31, 0x01	; 1
     e3a:	ff 2e       	mov	r15, r31
     e3c:	f0 2d       	mov	r31, r0
     e3e:	21 e0       	ldi	r18, 0x01	; 1
     e40:	30 e0       	ldi	r19, 0x00	; 0
     e42:	86 e4       	ldi	r24, 0x46	; 70
     e44:	97 e0       	ldi	r25, 0x07	; 7
     e46:	0e 94 f2 38 	call	0x71e4	; 0x71e4 <_ZN4OLED19OLED_Write_To_BuferEiiiiPKh>
     e4a:	4a 85       	ldd	r20, Y+10	; 0x0a
     e4c:	5b 85       	ldd	r21, Y+11	; 0x0b
     e4e:	6a 81       	ldd	r22, Y+2	; 0x02
     e50:	7b 81       	ldd	r23, Y+3	; 0x03
     e52:	60 5e       	subi	r22, 0xE0	; 224
     e54:	7f 4f       	sbci	r23, 0xFF	; 255
     e56:	0f 2e       	mov	r0, r31
     e58:	f3 e1       	ldi	r31, 0x13	; 19
     e5a:	ef 2e       	mov	r14, r31
     e5c:	f2 e0       	ldi	r31, 0x02	; 2
     e5e:	ff 2e       	mov	r15, r31
     e60:	f0 2d       	mov	r31, r0
     e62:	21 e0       	ldi	r18, 0x01	; 1
     e64:	30 e0       	ldi	r19, 0x00	; 0
     e66:	86 e4       	ldi	r24, 0x46	; 70
     e68:	97 e0       	ldi	r25, 0x07	; 7
     e6a:	0e 94 f2 38 	call	0x71e4	; 0x71e4 <_ZN4OLED19OLED_Write_To_BuferEiiiiPKh>
     e6e:	4a 85       	ldd	r20, Y+10	; 0x0a
     e70:	5b 85       	ldd	r21, Y+11	; 0x0b
     e72:	6a 81       	ldd	r22, Y+2	; 0x02
     e74:	7b 81       	ldd	r23, Y+3	; 0x03
     e76:	68 5d       	subi	r22, 0xD8	; 216
     e78:	7f 4f       	sbci	r23, 0xFF	; 255
     e7a:	0f 2e       	mov	r0, r31
     e7c:	fb e8       	ldi	r31, 0x8B	; 139
     e7e:	ef 2e       	mov	r14, r31
     e80:	f1 e0       	ldi	r31, 0x01	; 1
     e82:	ff 2e       	mov	r15, r31
     e84:	f0 2d       	mov	r31, r0
     e86:	21 e0       	ldi	r18, 0x01	; 1
     e88:	30 e0       	ldi	r19, 0x00	; 0
     e8a:	86 e4       	ldi	r24, 0x46	; 70
     e8c:	97 e0       	ldi	r25, 0x07	; 7
     e8e:	0e 94 f2 38 	call	0x71e4	; 0x71e4 <_ZN4OLED19OLED_Write_To_BuferEiiiiPKh>
     e92:	4a 85       	ldd	r20, Y+10	; 0x0a
     e94:	5b 85       	ldd	r21, Y+11	; 0x0b
     e96:	6a 81       	ldd	r22, Y+2	; 0x02
     e98:	7b 81       	ldd	r23, Y+3	; 0x03
     e9a:	60 5d       	subi	r22, 0xD0	; 208
     e9c:	7f 4f       	sbci	r23, 0xFF	; 255
     e9e:	0f 2e       	mov	r0, r31
     ea0:	f3 e9       	ldi	r31, 0x93	; 147
     ea2:	ef 2e       	mov	r14, r31
     ea4:	f1 e0       	ldi	r31, 0x01	; 1
     ea6:	ff 2e       	mov	r15, r31
     ea8:	f0 2d       	mov	r31, r0
     eaa:	21 e0       	ldi	r18, 0x01	; 1
     eac:	30 e0       	ldi	r19, 0x00	; 0
     eae:	86 e4       	ldi	r24, 0x46	; 70
     eb0:	97 e0       	ldi	r25, 0x07	; 7
     eb2:	0e 94 f2 38 	call	0x71e4	; 0x71e4 <_ZN4OLED19OLED_Write_To_BuferEiiiiPKh>
     eb6:	4a 85       	ldd	r20, Y+10	; 0x0a
     eb8:	5b 85       	ldd	r21, Y+11	; 0x0b
     eba:	6a 81       	ldd	r22, Y+2	; 0x02
     ebc:	7b 81       	ldd	r23, Y+3	; 0x03
     ebe:	68 5c       	subi	r22, 0xC8	; 200
     ec0:	7f 4f       	sbci	r23, 0xFF	; 255
     ec2:	0f 2e       	mov	r0, r31
     ec4:	fb ea       	ldi	r31, 0xAB	; 171
     ec6:	ef 2e       	mov	r14, r31
     ec8:	f1 e0       	ldi	r31, 0x01	; 1
     eca:	ff 2e       	mov	r15, r31
     ecc:	f0 2d       	mov	r31, r0
     ece:	21 e0       	ldi	r18, 0x01	; 1
     ed0:	30 e0       	ldi	r19, 0x00	; 0
     ed2:	86 e4       	ldi	r24, 0x46	; 70
     ed4:	97 e0       	ldi	r25, 0x07	; 7
     ed6:	0e 94 f2 38 	call	0x71e4	; 0x71e4 <_ZN4OLED19OLED_Write_To_BuferEiiiiPKh>
     eda:	4a 85       	ldd	r20, Y+10	; 0x0a
     edc:	5b 85       	ldd	r21, Y+11	; 0x0b
     ede:	6a 81       	ldd	r22, Y+2	; 0x02
     ee0:	7b 81       	ldd	r23, Y+3	; 0x03
     ee2:	60 5c       	subi	r22, 0xC0	; 192
     ee4:	7f 4f       	sbci	r23, 0xFF	; 255
     ee6:	0f 2e       	mov	r0, r31
     ee8:	f3 e8       	ldi	r31, 0x83	; 131
     eea:	ef 2e       	mov	r14, r31
     eec:	f1 e0       	ldi	r31, 0x01	; 1
     eee:	ff 2e       	mov	r15, r31
     ef0:	f0 2d       	mov	r31, r0
     ef2:	21 e0       	ldi	r18, 0x01	; 1
     ef4:	30 e0       	ldi	r19, 0x00	; 0
     ef6:	86 e4       	ldi	r24, 0x46	; 70
     ef8:	97 e0       	ldi	r25, 0x07	; 7
     efa:	0e 94 f2 38 	call	0x71e4	; 0x71e4 <_ZN4OLED19OLED_Write_To_BuferEiiiiPKh>
     efe:	4a 85       	ldd	r20, Y+10	; 0x0a
     f00:	5b 85       	ldd	r21, Y+11	; 0x0b
     f02:	6a 81       	ldd	r22, Y+2	; 0x02
     f04:	7b 81       	ldd	r23, Y+3	; 0x03
     f06:	68 5b       	subi	r22, 0xB8	; 184
     f08:	7f 4f       	sbci	r23, 0xFF	; 255
     f0a:	0f 2e       	mov	r0, r31
     f0c:	fb e9       	ldi	r31, 0x9B	; 155
     f0e:	ef 2e       	mov	r14, r31
     f10:	f1 e0       	ldi	r31, 0x01	; 1
     f12:	ff 2e       	mov	r15, r31
     f14:	f0 2d       	mov	r31, r0
     f16:	21 e0       	ldi	r18, 0x01	; 1
     f18:	30 e0       	ldi	r19, 0x00	; 0
     f1a:	86 e4       	ldi	r24, 0x46	; 70
     f1c:	97 e0       	ldi	r25, 0x07	; 7
     f1e:	0e 94 f2 38 	call	0x71e4	; 0x71e4 <_ZN4OLED19OLED_Write_To_BuferEiiiiPKh>
     f22:	4a 85       	ldd	r20, Y+10	; 0x0a
     f24:	5b 85       	ldd	r21, Y+11	; 0x0b
     f26:	6a 81       	ldd	r22, Y+2	; 0x02
     f28:	7b 81       	ldd	r23, Y+3	; 0x03
     f2a:	60 5b       	subi	r22, 0xB0	; 176
     f2c:	7f 4f       	sbci	r23, 0xFF	; 255
     f2e:	0f 2e       	mov	r0, r31
     f30:	fb ec       	ldi	r31, 0xCB	; 203
     f32:	ef 2e       	mov	r14, r31
     f34:	f1 e0       	ldi	r31, 0x01	; 1
     f36:	ff 2e       	mov	r15, r31
     f38:	f0 2d       	mov	r31, r0
     f3a:	21 e0       	ldi	r18, 0x01	; 1
     f3c:	30 e0       	ldi	r19, 0x00	; 0
     f3e:	86 e4       	ldi	r24, 0x46	; 70
     f40:	97 e0       	ldi	r25, 0x07	; 7
     f42:	0e 94 f2 38 	call	0x71e4	; 0x71e4 <_ZN4OLED19OLED_Write_To_BuferEiiiiPKh>
     f46:	4a 85       	ldd	r20, Y+10	; 0x0a
     f48:	5b 85       	ldd	r21, Y+11	; 0x0b
     f4a:	6a 81       	ldd	r22, Y+2	; 0x02
     f4c:	7b 81       	ldd	r23, Y+3	; 0x03
     f4e:	68 5a       	subi	r22, 0xA8	; 168
     f50:	7f 4f       	sbci	r23, 0xFF	; 255
     f52:	0f 2e       	mov	r0, r31
     f54:	fb e1       	ldi	r31, 0x1B	; 27
     f56:	ef 2e       	mov	r14, r31
     f58:	f2 e0       	ldi	r31, 0x02	; 2
     f5a:	ff 2e       	mov	r15, r31
     f5c:	f0 2d       	mov	r31, r0
     f5e:	21 e0       	ldi	r18, 0x01	; 1
     f60:	30 e0       	ldi	r19, 0x00	; 0
     f62:	86 e4       	ldi	r24, 0x46	; 70
     f64:	97 e0       	ldi	r25, 0x07	; 7
     f66:	0e 94 f2 38 	call	0x71e4	; 0x71e4 <_ZN4OLED19OLED_Write_To_BuferEiiiiPKh>
     f6a:	4a 85       	ldd	r20, Y+10	; 0x0a
     f6c:	5b 85       	ldd	r21, Y+11	; 0x0b
     f6e:	6a 81       	ldd	r22, Y+2	; 0x02
     f70:	7b 81       	ldd	r23, Y+3	; 0x03
     f72:	60 5a       	subi	r22, 0xA0	; 160
     f74:	7f 4f       	sbci	r23, 0xFF	; 255
     f76:	0f 2e       	mov	r0, r31
     f78:	f3 e7       	ldi	r31, 0x73	; 115
     f7a:	ef 2e       	mov	r14, r31
     f7c:	f1 e0       	ldi	r31, 0x01	; 1
     f7e:	ff 2e       	mov	r15, r31
     f80:	f0 2d       	mov	r31, r0
     f82:	21 e0       	ldi	r18, 0x01	; 1
     f84:	30 e0       	ldi	r19, 0x00	; 0
     f86:	86 e4       	ldi	r24, 0x46	; 70
     f88:	97 e0       	ldi	r25, 0x07	; 7
     f8a:	0e 94 f2 38 	call	0x71e4	; 0x71e4 <_ZN4OLED19OLED_Write_To_BuferEiiiiPKh>
     f8e:	4a 85       	ldd	r20, Y+10	; 0x0a
     f90:	5b 85       	ldd	r21, Y+11	; 0x0b
     f92:	6a 81       	ldd	r22, Y+2	; 0x02
     f94:	7b 81       	ldd	r23, Y+3	; 0x03
     f96:	68 59       	subi	r22, 0x98	; 152
     f98:	7f 4f       	sbci	r23, 0xFF	; 255
     f9a:	0f 2e       	mov	r0, r31
     f9c:	fb e1       	ldi	r31, 0x1B	; 27
     f9e:	ef 2e       	mov	r14, r31
     fa0:	f2 e0       	ldi	r31, 0x02	; 2
     fa2:	ff 2e       	mov	r15, r31
     fa4:	f0 2d       	mov	r31, r0
     fa6:	21 e0       	ldi	r18, 0x01	; 1
     fa8:	30 e0       	ldi	r19, 0x00	; 0
     faa:	86 e4       	ldi	r24, 0x46	; 70
     fac:	97 e0       	ldi	r25, 0x07	; 7
     fae:	0e 94 f2 38 	call	0x71e4	; 0x71e4 <_ZN4OLED19OLED_Write_To_BuferEiiiiPKh>
     fb2:	4a 85       	ldd	r20, Y+10	; 0x0a
     fb4:	5b 85       	ldd	r21, Y+11	; 0x0b
     fb6:	4f 5f       	subi	r20, 0xFF	; 255
     fb8:	5f 4f       	sbci	r21, 0xFF	; 255
     fba:	20 e1       	ldi	r18, 0x10	; 16
     fbc:	30 e0       	ldi	r19, 0x00	; 0
     fbe:	60 e0       	ldi	r22, 0x00	; 0
     fc0:	70 e0       	ldi	r23, 0x00	; 0
     fc2:	86 e4       	ldi	r24, 0x46	; 70
     fc4:	97 e0       	ldi	r25, 0x07	; 7
     fc6:	0e 94 a3 38 	call	0x7146	; 0x7146 <_ZN4OLED21OLED_Clear_Bufer_partEiiii>
     fca:	4a 85       	ldd	r20, Y+10	; 0x0a
     fcc:	5b 85       	ldd	r21, Y+11	; 0x0b
     fce:	4f 5f       	subi	r20, 0xFF	; 255
     fd0:	5f 4f       	sbci	r21, 0xFF	; 255
     fd2:	6c 81       	ldd	r22, Y+4	; 0x04
     fd4:	7d 81       	ldd	r23, Y+5	; 0x05
     fd6:	0f 2e       	mov	r0, r31
     fd8:	fb e6       	ldi	r31, 0x6B	; 107
     fda:	ef 2e       	mov	r14, r31
     fdc:	f5 e0       	ldi	r31, 0x05	; 5
     fde:	ff 2e       	mov	r15, r31
     fe0:	f0 2d       	mov	r31, r0
     fe2:	21 e0       	ldi	r18, 0x01	; 1
     fe4:	30 e0       	ldi	r19, 0x00	; 0
     fe6:	86 e4       	ldi	r24, 0x46	; 70
     fe8:	97 e0       	ldi	r25, 0x07	; 7
     fea:	0e 94 f2 38 	call	0x71e4	; 0x71e4 <_ZN4OLED19OLED_Write_To_BuferEiiiiPKh>
     fee:	4a 85       	ldd	r20, Y+10	; 0x0a
     ff0:	5b 85       	ldd	r21, Y+11	; 0x0b
     ff2:	4f 5f       	subi	r20, 0xFF	; 255
     ff4:	5f 4f       	sbci	r21, 0xFF	; 255
     ff6:	6c 81       	ldd	r22, Y+4	; 0x04
     ff8:	7d 81       	ldd	r23, Y+5	; 0x05
     ffa:	68 5f       	subi	r22, 0xF8	; 248
     ffc:	7f 4f       	sbci	r23, 0xFF	; 255
     ffe:	21 e0       	ldi	r18, 0x01	; 1
    1000:	30 e0       	ldi	r19, 0x00	; 0
    1002:	86 e4       	ldi	r24, 0x46	; 70
    1004:	97 e0       	ldi	r25, 0x07	; 7
    1006:	0e 94 f2 38 	call	0x71e4	; 0x71e4 <_ZN4OLED19OLED_Write_To_BuferEiiiiPKh>
    100a:	4a 85       	ldd	r20, Y+10	; 0x0a
    100c:	5b 85       	ldd	r21, Y+11	; 0x0b
    100e:	4f 5f       	subi	r20, 0xFF	; 255
    1010:	5f 4f       	sbci	r21, 0xFF	; 255
    1012:	6c 81       	ldd	r22, Y+4	; 0x04
    1014:	7d 81       	ldd	r23, Y+5	; 0x05
    1016:	68 5e       	subi	r22, 0xE8	; 232
    1018:	7f 4f       	sbci	r23, 0xFF	; 255
    101a:	21 e0       	ldi	r18, 0x01	; 1
    101c:	30 e0       	ldi	r19, 0x00	; 0
    101e:	86 e4       	ldi	r24, 0x46	; 70
    1020:	97 e0       	ldi	r25, 0x07	; 7
    1022:	0e 94 f2 38 	call	0x71e4	; 0x71e4 <_ZN4OLED19OLED_Write_To_BuferEiiiiPKh>
    1026:	4a 85       	ldd	r20, Y+10	; 0x0a
    1028:	5b 85       	ldd	r21, Y+11	; 0x0b
    102a:	4f 5f       	subi	r20, 0xFF	; 255
    102c:	5f 4f       	sbci	r21, 0xFF	; 255
    102e:	6c 81       	ldd	r22, Y+4	; 0x04
    1030:	7d 81       	ldd	r23, Y+5	; 0x05
    1032:	60 5e       	subi	r22, 0xE0	; 224
    1034:	7f 4f       	sbci	r23, 0xFF	; 255
    1036:	0f 2e       	mov	r0, r31
    1038:	f3 e5       	ldi	r31, 0x53	; 83
    103a:	ef 2e       	mov	r14, r31
    103c:	f5 e0       	ldi	r31, 0x05	; 5
    103e:	ff 2e       	mov	r15, r31
    1040:	f0 2d       	mov	r31, r0
    1042:	21 e0       	ldi	r18, 0x01	; 1
    1044:	30 e0       	ldi	r19, 0x00	; 0
    1046:	86 e4       	ldi	r24, 0x46	; 70
    1048:	97 e0       	ldi	r25, 0x07	; 7
    104a:	0e 94 f2 38 	call	0x71e4	; 0x71e4 <_ZN4OLED19OLED_Write_To_BuferEiiiiPKh>
    104e:	4a 85       	ldd	r20, Y+10	; 0x0a
    1050:	5b 85       	ldd	r21, Y+11	; 0x0b
    1052:	4e 5f       	subi	r20, 0xFE	; 254
    1054:	5f 4f       	sbci	r21, 0xFF	; 255
    1056:	20 e1       	ldi	r18, 0x10	; 16
    1058:	30 e0       	ldi	r19, 0x00	; 0
    105a:	60 e0       	ldi	r22, 0x00	; 0
    105c:	70 e0       	ldi	r23, 0x00	; 0
    105e:	86 e4       	ldi	r24, 0x46	; 70
    1060:	97 e0       	ldi	r25, 0x07	; 7
    1062:	0e 94 a3 38 	call	0x7146	; 0x7146 <_ZN4OLED21OLED_Clear_Bufer_partEiiii>
    1066:	4a 85       	ldd	r20, Y+10	; 0x0a
    1068:	5b 85       	ldd	r21, Y+11	; 0x0b
    106a:	4e 5f       	subi	r20, 0xFE	; 254
    106c:	5f 4f       	sbci	r21, 0xFF	; 255
    106e:	6e 81       	ldd	r22, Y+6	; 0x06
    1070:	7f 81       	ldd	r23, Y+7	; 0x07
    1072:	0f 2e       	mov	r0, r31
    1074:	f3 e0       	ldi	r31, 0x03	; 3
    1076:	ef 2e       	mov	r14, r31
    1078:	f2 e0       	ldi	r31, 0x02	; 2
    107a:	ff 2e       	mov	r15, r31
    107c:	f0 2d       	mov	r31, r0
    107e:	21 e0       	ldi	r18, 0x01	; 1
    1080:	30 e0       	ldi	r19, 0x00	; 0
    1082:	86 e4       	ldi	r24, 0x46	; 70
    1084:	97 e0       	ldi	r25, 0x07	; 7
    1086:	0e 94 f2 38 	call	0x71e4	; 0x71e4 <_ZN4OLED19OLED_Write_To_BuferEiiiiPKh>
    108a:	4a 85       	ldd	r20, Y+10	; 0x0a
    108c:	5b 85       	ldd	r21, Y+11	; 0x0b
    108e:	4e 5f       	subi	r20, 0xFE	; 254
    1090:	5f 4f       	sbci	r21, 0xFF	; 255
    1092:	6e 81       	ldd	r22, Y+6	; 0x06
    1094:	7f 81       	ldd	r23, Y+7	; 0x07
    1096:	68 5f       	subi	r22, 0xF8	; 248
    1098:	7f 4f       	sbci	r23, 0xFF	; 255
    109a:	0f 2e       	mov	r0, r31
    109c:	fb eb       	ldi	r31, 0xBB	; 187
    109e:	ef 2e       	mov	r14, r31
    10a0:	f1 e0       	ldi	r31, 0x01	; 1
    10a2:	ff 2e       	mov	r15, r31
    10a4:	f0 2d       	mov	r31, r0
    10a6:	21 e0       	ldi	r18, 0x01	; 1
    10a8:	30 e0       	ldi	r19, 0x00	; 0
    10aa:	86 e4       	ldi	r24, 0x46	; 70
    10ac:	97 e0       	ldi	r25, 0x07	; 7
    10ae:	0e 94 f2 38 	call	0x71e4	; 0x71e4 <_ZN4OLED19OLED_Write_To_BuferEiiiiPKh>
    10b2:	4a 85       	ldd	r20, Y+10	; 0x0a
    10b4:	5b 85       	ldd	r21, Y+11	; 0x0b
    10b6:	4e 5f       	subi	r20, 0xFE	; 254
    10b8:	5f 4f       	sbci	r21, 0xFF	; 255
    10ba:	6e 81       	ldd	r22, Y+6	; 0x06
    10bc:	7f 81       	ldd	r23, Y+7	; 0x07
    10be:	60 5f       	subi	r22, 0xF0	; 240
    10c0:	7f 4f       	sbci	r23, 0xFF	; 255
    10c2:	0f 2e       	mov	r0, r31
    10c4:	fb ed       	ldi	r31, 0xDB	; 219
    10c6:	ef 2e       	mov	r14, r31
    10c8:	f1 e0       	ldi	r31, 0x01	; 1
    10ca:	ff 2e       	mov	r15, r31
    10cc:	f0 2d       	mov	r31, r0
    10ce:	21 e0       	ldi	r18, 0x01	; 1
    10d0:	30 e0       	ldi	r19, 0x00	; 0
    10d2:	86 e4       	ldi	r24, 0x46	; 70
    10d4:	97 e0       	ldi	r25, 0x07	; 7
    10d6:	0e 94 f2 38 	call	0x71e4	; 0x71e4 <_ZN4OLED19OLED_Write_To_BuferEiiiiPKh>
    10da:	4a 85       	ldd	r20, Y+10	; 0x0a
    10dc:	5b 85       	ldd	r21, Y+11	; 0x0b
    10de:	4e 5f       	subi	r20, 0xFE	; 254
    10e0:	5f 4f       	sbci	r21, 0xFF	; 255
    10e2:	6e 81       	ldd	r22, Y+6	; 0x06
    10e4:	7f 81       	ldd	r23, Y+7	; 0x07
    10e6:	68 5e       	subi	r22, 0xE8	; 232
    10e8:	7f 4f       	sbci	r23, 0xFF	; 255
    10ea:	0f 2e       	mov	r0, r31
    10ec:	f3 e9       	ldi	r31, 0x93	; 147
    10ee:	ef 2e       	mov	r14, r31
    10f0:	f1 e0       	ldi	r31, 0x01	; 1
    10f2:	ff 2e       	mov	r15, r31
    10f4:	f0 2d       	mov	r31, r0
    10f6:	21 e0       	ldi	r18, 0x01	; 1
    10f8:	30 e0       	ldi	r19, 0x00	; 0
    10fa:	86 e4       	ldi	r24, 0x46	; 70
    10fc:	97 e0       	ldi	r25, 0x07	; 7
    10fe:	0e 94 f2 38 	call	0x71e4	; 0x71e4 <_ZN4OLED19OLED_Write_To_BuferEiiiiPKh>
    1102:	4a 85       	ldd	r20, Y+10	; 0x0a
    1104:	5b 85       	ldd	r21, Y+11	; 0x0b
    1106:	4e 5f       	subi	r20, 0xFE	; 254
    1108:	5f 4f       	sbci	r21, 0xFF	; 255
    110a:	6e 81       	ldd	r22, Y+6	; 0x06
    110c:	7f 81       	ldd	r23, Y+7	; 0x07
    110e:	60 5e       	subi	r22, 0xE0	; 224
    1110:	7f 4f       	sbci	r23, 0xFF	; 255
    1112:	0f 2e       	mov	r0, r31
    1114:	f3 ea       	ldi	r31, 0xA3	; 163
    1116:	ef 2e       	mov	r14, r31
    1118:	f1 e0       	ldi	r31, 0x01	; 1
    111a:	ff 2e       	mov	r15, r31
    111c:	f0 2d       	mov	r31, r0
    111e:	21 e0       	ldi	r18, 0x01	; 1
    1120:	30 e0       	ldi	r19, 0x00	; 0
    1122:	86 e4       	ldi	r24, 0x46	; 70
    1124:	97 e0       	ldi	r25, 0x07	; 7
    1126:	0e 94 f2 38 	call	0x71e4	; 0x71e4 <_ZN4OLED19OLED_Write_To_BuferEiiiiPKh>
    112a:	4a 85       	ldd	r20, Y+10	; 0x0a
    112c:	5b 85       	ldd	r21, Y+11	; 0x0b
    112e:	4e 5f       	subi	r20, 0xFE	; 254
    1130:	5f 4f       	sbci	r21, 0xFF	; 255
    1132:	6e 81       	ldd	r22, Y+6	; 0x06
    1134:	7f 81       	ldd	r23, Y+7	; 0x07
    1136:	68 5d       	subi	r22, 0xD8	; 216
    1138:	7f 4f       	sbci	r23, 0xFF	; 255
    113a:	0f 2e       	mov	r0, r31
    113c:	f3 e7       	ldi	r31, 0x73	; 115
    113e:	ef 2e       	mov	r14, r31
    1140:	f1 e0       	ldi	r31, 0x01	; 1
    1142:	ff 2e       	mov	r15, r31
    1144:	f0 2d       	mov	r31, r0
    1146:	21 e0       	ldi	r18, 0x01	; 1
    1148:	30 e0       	ldi	r19, 0x00	; 0
    114a:	86 e4       	ldi	r24, 0x46	; 70
    114c:	97 e0       	ldi	r25, 0x07	; 7
    114e:	0e 94 f2 38 	call	0x71e4	; 0x71e4 <_ZN4OLED19OLED_Write_To_BuferEiiiiPKh>
    1152:	4a 85       	ldd	r20, Y+10	; 0x0a
    1154:	5b 85       	ldd	r21, Y+11	; 0x0b
    1156:	4e 5f       	subi	r20, 0xFE	; 254
    1158:	5f 4f       	sbci	r21, 0xFF	; 255
    115a:	6e 81       	ldd	r22, Y+6	; 0x06
    115c:	7f 81       	ldd	r23, Y+7	; 0x07
    115e:	68 5c       	subi	r22, 0xC8	; 200
    1160:	7f 4f       	sbci	r23, 0xFF	; 255
    1162:	0f 2e       	mov	r0, r31
    1164:	f3 e0       	ldi	r31, 0x03	; 3
    1166:	ef 2e       	mov	r14, r31
    1168:	f2 e0       	ldi	r31, 0x02	; 2
    116a:	ff 2e       	mov	r15, r31
    116c:	f0 2d       	mov	r31, r0
    116e:	21 e0       	ldi	r18, 0x01	; 1
    1170:	30 e0       	ldi	r19, 0x00	; 0
    1172:	86 e4       	ldi	r24, 0x46	; 70
    1174:	97 e0       	ldi	r25, 0x07	; 7
    1176:	0e 94 f2 38 	call	0x71e4	; 0x71e4 <_ZN4OLED19OLED_Write_To_BuferEiiiiPKh>
    117a:	4a 85       	ldd	r20, Y+10	; 0x0a
    117c:	5b 85       	ldd	r21, Y+11	; 0x0b
    117e:	4e 5f       	subi	r20, 0xFE	; 254
    1180:	5f 4f       	sbci	r21, 0xFF	; 255
    1182:	6e 81       	ldd	r22, Y+6	; 0x06
    1184:	7f 81       	ldd	r23, Y+7	; 0x07
    1186:	60 5c       	subi	r22, 0xC0	; 192
    1188:	7f 4f       	sbci	r23, 0xFF	; 255
    118a:	0f 2e       	mov	r0, r31
    118c:	fb e8       	ldi	r31, 0x8B	; 139
    118e:	ef 2e       	mov	r14, r31
    1190:	f1 e0       	ldi	r31, 0x01	; 1
    1192:	ff 2e       	mov	r15, r31
    1194:	f0 2d       	mov	r31, r0
    1196:	21 e0       	ldi	r18, 0x01	; 1
    1198:	30 e0       	ldi	r19, 0x00	; 0
    119a:	86 e4       	ldi	r24, 0x46	; 70
    119c:	97 e0       	ldi	r25, 0x07	; 7
    119e:	0e 94 f2 38 	call	0x71e4	; 0x71e4 <_ZN4OLED19OLED_Write_To_BuferEiiiiPKh>
    11a2:	4a 85       	ldd	r20, Y+10	; 0x0a
    11a4:	5b 85       	ldd	r21, Y+11	; 0x0b
    11a6:	4e 5f       	subi	r20, 0xFE	; 254
    11a8:	5f 4f       	sbci	r21, 0xFF	; 255
    11aa:	6e 81       	ldd	r22, Y+6	; 0x06
    11ac:	7f 81       	ldd	r23, Y+7	; 0x07
    11ae:	68 5b       	subi	r22, 0xB8	; 184
    11b0:	7f 4f       	sbci	r23, 0xFF	; 255
    11b2:	0f 2e       	mov	r0, r31
    11b4:	f3 e1       	ldi	r31, 0x13	; 19
    11b6:	ef 2e       	mov	r14, r31
    11b8:	f2 e0       	ldi	r31, 0x02	; 2
    11ba:	ff 2e       	mov	r15, r31
    11bc:	f0 2d       	mov	r31, r0
    11be:	21 e0       	ldi	r18, 0x01	; 1
    11c0:	30 e0       	ldi	r19, 0x00	; 0
    11c2:	86 e4       	ldi	r24, 0x46	; 70
    11c4:	97 e0       	ldi	r25, 0x07	; 7
    11c6:	0e 94 f2 38 	call	0x71e4	; 0x71e4 <_ZN4OLED19OLED_Write_To_BuferEiiiiPKh>
    11ca:	4a 85       	ldd	r20, Y+10	; 0x0a
    11cc:	5b 85       	ldd	r21, Y+11	; 0x0b
    11ce:	4e 5f       	subi	r20, 0xFE	; 254
    11d0:	5f 4f       	sbci	r21, 0xFF	; 255
    11d2:	6e 81       	ldd	r22, Y+6	; 0x06
    11d4:	7f 81       	ldd	r23, Y+7	; 0x07
    11d6:	60 5b       	subi	r22, 0xB0	; 176
    11d8:	7f 4f       	sbci	r23, 0xFF	; 255
    11da:	0f 2e       	mov	r0, r31
    11dc:	fb ed       	ldi	r31, 0xDB	; 219
    11de:	ef 2e       	mov	r14, r31
    11e0:	f1 e0       	ldi	r31, 0x01	; 1
    11e2:	ff 2e       	mov	r15, r31
    11e4:	f0 2d       	mov	r31, r0
    11e6:	21 e0       	ldi	r18, 0x01	; 1
    11e8:	30 e0       	ldi	r19, 0x00	; 0
    11ea:	86 e4       	ldi	r24, 0x46	; 70
    11ec:	97 e0       	ldi	r25, 0x07	; 7
    11ee:	0e 94 f2 38 	call	0x71e4	; 0x71e4 <_ZN4OLED19OLED_Write_To_BuferEiiiiPKh>
    11f2:	4a 85       	ldd	r20, Y+10	; 0x0a
    11f4:	5b 85       	ldd	r21, Y+11	; 0x0b
    11f6:	4e 5f       	subi	r20, 0xFE	; 254
    11f8:	5f 4f       	sbci	r21, 0xFF	; 255
    11fa:	6e 81       	ldd	r22, Y+6	; 0x06
    11fc:	7f 81       	ldd	r23, Y+7	; 0x07
    11fe:	68 5a       	subi	r22, 0xA8	; 168
    1200:	7f 4f       	sbci	r23, 0xFF	; 255
    1202:	0f 2e       	mov	r0, r31
    1204:	f3 eb       	ldi	r31, 0xB3	; 179
    1206:	ef 2e       	mov	r14, r31
    1208:	f1 e0       	ldi	r31, 0x01	; 1
    120a:	ff 2e       	mov	r15, r31
    120c:	f0 2d       	mov	r31, r0
    120e:	21 e0       	ldi	r18, 0x01	; 1
    1210:	30 e0       	ldi	r19, 0x00	; 0
    1212:	86 e4       	ldi	r24, 0x46	; 70
    1214:	97 e0       	ldi	r25, 0x07	; 7
    1216:	0e 94 f2 38 	call	0x71e4	; 0x71e4 <_ZN4OLED19OLED_Write_To_BuferEiiiiPKh>
    121a:	4a 85       	ldd	r20, Y+10	; 0x0a
    121c:	5b 85       	ldd	r21, Y+11	; 0x0b
    121e:	4e 5f       	subi	r20, 0xFE	; 254
    1220:	5f 4f       	sbci	r21, 0xFF	; 255
    1222:	6e 81       	ldd	r22, Y+6	; 0x06
    1224:	7f 81       	ldd	r23, Y+7	; 0x07
    1226:	60 5a       	subi	r22, 0xA0	; 160
    1228:	7f 4f       	sbci	r23, 0xFF	; 255
    122a:	0f 2e       	mov	r0, r31
    122c:	fb e1       	ldi	r31, 0x1B	; 27
    122e:	ef 2e       	mov	r14, r31
    1230:	f2 e0       	ldi	r31, 0x02	; 2
    1232:	ff 2e       	mov	r15, r31
    1234:	f0 2d       	mov	r31, r0
    1236:	21 e0       	ldi	r18, 0x01	; 1
    1238:	30 e0       	ldi	r19, 0x00	; 0
    123a:	86 e4       	ldi	r24, 0x46	; 70
    123c:	97 e0       	ldi	r25, 0x07	; 7
    123e:	0e 94 f2 38 	call	0x71e4	; 0x71e4 <_ZN4OLED19OLED_Write_To_BuferEiiiiPKh>
    1242:	4a 85       	ldd	r20, Y+10	; 0x0a
    1244:	5b 85       	ldd	r21, Y+11	; 0x0b
    1246:	4d 5f       	subi	r20, 0xFD	; 253
    1248:	5f 4f       	sbci	r21, 0xFF	; 255
    124a:	20 e1       	ldi	r18, 0x10	; 16
    124c:	30 e0       	ldi	r19, 0x00	; 0
    124e:	60 e0       	ldi	r22, 0x00	; 0
    1250:	70 e0       	ldi	r23, 0x00	; 0
    1252:	86 e4       	ldi	r24, 0x46	; 70
    1254:	97 e0       	ldi	r25, 0x07	; 7
    1256:	0e 94 a3 38 	call	0x7146	; 0x7146 <_ZN4OLED21OLED_Clear_Bufer_partEiiii>
    125a:	4a 85       	ldd	r20, Y+10	; 0x0a
    125c:	5b 85       	ldd	r21, Y+11	; 0x0b
    125e:	4d 5f       	subi	r20, 0xFD	; 253
    1260:	5f 4f       	sbci	r21, 0xFF	; 255
    1262:	68 85       	ldd	r22, Y+8	; 0x08
    1264:	79 85       	ldd	r23, Y+9	; 0x09
    1266:	0f 2e       	mov	r0, r31
    1268:	fb e5       	ldi	r31, 0x5B	; 91
    126a:	ef 2e       	mov	r14, r31
    126c:	f5 e0       	ldi	r31, 0x05	; 5
    126e:	ff 2e       	mov	r15, r31
    1270:	f0 2d       	mov	r31, r0
    1272:	21 e0       	ldi	r18, 0x01	; 1
    1274:	30 e0       	ldi	r19, 0x00	; 0
    1276:	86 e4       	ldi	r24, 0x46	; 70
    1278:	97 e0       	ldi	r25, 0x07	; 7
    127a:	0e 94 f2 38 	call	0x71e4	; 0x71e4 <_ZN4OLED19OLED_Write_To_BuferEiiiiPKh>
    127e:	4a 85       	ldd	r20, Y+10	; 0x0a
    1280:	5b 85       	ldd	r21, Y+11	; 0x0b
    1282:	4d 5f       	subi	r20, 0xFD	; 253
    1284:	5f 4f       	sbci	r21, 0xFF	; 255
    1286:	68 85       	ldd	r22, Y+8	; 0x08
    1288:	79 85       	ldd	r23, Y+9	; 0x09
    128a:	68 5f       	subi	r22, 0xF8	; 248
    128c:	7f 4f       	sbci	r23, 0xFF	; 255
    128e:	0f 2e       	mov	r0, r31
    1290:	f3 e5       	ldi	r31, 0x53	; 83
    1292:	ef 2e       	mov	r14, r31
    1294:	f5 e0       	ldi	r31, 0x05	; 5
    1296:	ff 2e       	mov	r15, r31
    1298:	f0 2d       	mov	r31, r0
    129a:	21 e0       	ldi	r18, 0x01	; 1
    129c:	30 e0       	ldi	r19, 0x00	; 0
    129e:	86 e4       	ldi	r24, 0x46	; 70
    12a0:	97 e0       	ldi	r25, 0x07	; 7
    12a2:	0e 94 f2 38 	call	0x71e4	; 0x71e4 <_ZN4OLED19OLED_Write_To_BuferEiiiiPKh>
    12a6:	4a 85       	ldd	r20, Y+10	; 0x0a
    12a8:	5b 85       	ldd	r21, Y+11	; 0x0b
    12aa:	4d 5f       	subi	r20, 0xFD	; 253
    12ac:	5f 4f       	sbci	r21, 0xFF	; 255
    12ae:	68 85       	ldd	r22, Y+8	; 0x08
    12b0:	79 85       	ldd	r23, Y+9	; 0x09
    12b2:	60 5f       	subi	r22, 0xF0	; 240
    12b4:	7f 4f       	sbci	r23, 0xFF	; 255
    12b6:	0f 2e       	mov	r0, r31
    12b8:	fb e8       	ldi	r31, 0x8B	; 139
    12ba:	ef 2e       	mov	r14, r31
    12bc:	f5 e0       	ldi	r31, 0x05	; 5
    12be:	ff 2e       	mov	r15, r31
    12c0:	f0 2d       	mov	r31, r0
    12c2:	21 e0       	ldi	r18, 0x01	; 1
    12c4:	30 e0       	ldi	r19, 0x00	; 0
    12c6:	86 e4       	ldi	r24, 0x46	; 70
    12c8:	97 e0       	ldi	r25, 0x07	; 7
    12ca:	0e 94 f2 38 	call	0x71e4	; 0x71e4 <_ZN4OLED19OLED_Write_To_BuferEiiiiPKh>
    12ce:	4a 85       	ldd	r20, Y+10	; 0x0a
    12d0:	5b 85       	ldd	r21, Y+11	; 0x0b
    12d2:	4d 5f       	subi	r20, 0xFD	; 253
    12d4:	5f 4f       	sbci	r21, 0xFF	; 255
    12d6:	68 85       	ldd	r22, Y+8	; 0x08
    12d8:	79 85       	ldd	r23, Y+9	; 0x09
    12da:	68 5e       	subi	r22, 0xE8	; 232
    12dc:	7f 4f       	sbci	r23, 0xFF	; 255
    12de:	0f 2e       	mov	r0, r31
    12e0:	fb e6       	ldi	r31, 0x6B	; 107
    12e2:	ef 2e       	mov	r14, r31
    12e4:	f5 e0       	ldi	r31, 0x05	; 5
    12e6:	ff 2e       	mov	r15, r31
    12e8:	f0 2d       	mov	r31, r0
    12ea:	21 e0       	ldi	r18, 0x01	; 1
    12ec:	30 e0       	ldi	r19, 0x00	; 0
    12ee:	86 e4       	ldi	r24, 0x46	; 70
    12f0:	97 e0       	ldi	r25, 0x07	; 7
    12f2:	0e 94 f2 38 	call	0x71e4	; 0x71e4 <_ZN4OLED19OLED_Write_To_BuferEiiiiPKh>
    12f6:	4a 85       	ldd	r20, Y+10	; 0x0a
    12f8:	5b 85       	ldd	r21, Y+11	; 0x0b
    12fa:	4d 5f       	subi	r20, 0xFD	; 253
    12fc:	5f 4f       	sbci	r21, 0xFF	; 255
    12fe:	68 85       	ldd	r22, Y+8	; 0x08
    1300:	79 85       	ldd	r23, Y+9	; 0x09
    1302:	60 5e       	subi	r22, 0xE0	; 224
    1304:	7f 4f       	sbci	r23, 0xFF	; 255
    1306:	0f 2e       	mov	r0, r31
    1308:	fb e9       	ldi	r31, 0x9B	; 155
    130a:	ef 2e       	mov	r14, r31
    130c:	f5 e0       	ldi	r31, 0x05	; 5
    130e:	ff 2e       	mov	r15, r31
    1310:	f0 2d       	mov	r31, r0
    1312:	21 e0       	ldi	r18, 0x01	; 1
    1314:	30 e0       	ldi	r19, 0x00	; 0
    1316:	86 e4       	ldi	r24, 0x46	; 70
    1318:	97 e0       	ldi	r25, 0x07	; 7
    131a:	0e 94 f2 38 	call	0x71e4	; 0x71e4 <_ZN4OLED19OLED_Write_To_BuferEiiiiPKh>
    131e:	4a 85       	ldd	r20, Y+10	; 0x0a
    1320:	5b 85       	ldd	r21, Y+11	; 0x0b
    1322:	4d 5f       	subi	r20, 0xFD	; 253
    1324:	5f 4f       	sbci	r21, 0xFF	; 255
    1326:	68 85       	ldd	r22, Y+8	; 0x08
    1328:	79 85       	ldd	r23, Y+9	; 0x09
    132a:	68 5d       	subi	r22, 0xD8	; 216
    132c:	7f 4f       	sbci	r23, 0xFF	; 255
    132e:	0f 2e       	mov	r0, r31
    1330:	f3 e6       	ldi	r31, 0x63	; 99
    1332:	ef 2e       	mov	r14, r31
    1334:	f5 e0       	ldi	r31, 0x05	; 5
    1336:	ff 2e       	mov	r15, r31
    1338:	f0 2d       	mov	r31, r0
    133a:	21 e0       	ldi	r18, 0x01	; 1
    133c:	30 e0       	ldi	r19, 0x00	; 0
    133e:	86 e4       	ldi	r24, 0x46	; 70
    1340:	97 e0       	ldi	r25, 0x07	; 7
    1342:	0e 94 f2 38 	call	0x71e4	; 0x71e4 <_ZN4OLED19OLED_Write_To_BuferEiiiiPKh>
    1346:	4a 85       	ldd	r20, Y+10	; 0x0a
    1348:	5b 85       	ldd	r21, Y+11	; 0x0b
    134a:	4d 5f       	subi	r20, 0xFD	; 253
    134c:	5f 4f       	sbci	r21, 0xFF	; 255
    134e:	68 85       	ldd	r22, Y+8	; 0x08
    1350:	79 85       	ldd	r23, Y+9	; 0x09
    1352:	60 5d       	subi	r22, 0xD0	; 208
    1354:	7f 4f       	sbci	r23, 0xFF	; 255
    1356:	0f 2e       	mov	r0, r31
    1358:	f3 e7       	ldi	r31, 0x73	; 115
    135a:	ef 2e       	mov	r14, r31
    135c:	f5 e0       	ldi	r31, 0x05	; 5
    135e:	ff 2e       	mov	r15, r31
    1360:	f0 2d       	mov	r31, r0
    1362:	21 e0       	ldi	r18, 0x01	; 1
    1364:	30 e0       	ldi	r19, 0x00	; 0
    1366:	86 e4       	ldi	r24, 0x46	; 70
    1368:	97 e0       	ldi	r25, 0x07	; 7
    136a:	0e 94 f2 38 	call	0x71e4	; 0x71e4 <_ZN4OLED19OLED_Write_To_BuferEiiiiPKh>
    136e:	4a 85       	ldd	r20, Y+10	; 0x0a
    1370:	5b 85       	ldd	r21, Y+11	; 0x0b
    1372:	4d 5f       	subi	r20, 0xFD	; 253
    1374:	5f 4f       	sbci	r21, 0xFF	; 255
    1376:	68 85       	ldd	r22, Y+8	; 0x08
    1378:	79 85       	ldd	r23, Y+9	; 0x09
    137a:	68 5c       	subi	r22, 0xC8	; 200
    137c:	7f 4f       	sbci	r23, 0xFF	; 255
    137e:	21 e0       	ldi	r18, 0x01	; 1
    1380:	30 e0       	ldi	r19, 0x00	; 0
    1382:	86 e4       	ldi	r24, 0x46	; 70
    1384:	97 e0       	ldi	r25, 0x07	; 7
    1386:	0e 94 f2 38 	call	0x71e4	; 0x71e4 <_ZN4OLED19OLED_Write_To_BuferEiiiiPKh>
    138a:	4a 85       	ldd	r20, Y+10	; 0x0a
    138c:	5b 85       	ldd	r21, Y+11	; 0x0b
    138e:	4d 5f       	subi	r20, 0xFD	; 253
    1390:	5f 4f       	sbci	r21, 0xFF	; 255
    1392:	68 85       	ldd	r22, Y+8	; 0x08
    1394:	79 85       	ldd	r23, Y+9	; 0x09
    1396:	60 5c       	subi	r22, 0xC0	; 192
    1398:	7f 4f       	sbci	r23, 0xFF	; 255
    139a:	0f 2e       	mov	r0, r31
    139c:	f3 e6       	ldi	r31, 0x63	; 99
    139e:	ef 2e       	mov	r14, r31
    13a0:	f5 e0       	ldi	r31, 0x05	; 5
    13a2:	ff 2e       	mov	r15, r31
    13a4:	f0 2d       	mov	r31, r0
    13a6:	21 e0       	ldi	r18, 0x01	; 1
    13a8:	30 e0       	ldi	r19, 0x00	; 0
    13aa:	86 e4       	ldi	r24, 0x46	; 70
    13ac:	97 e0       	ldi	r25, 0x07	; 7
    13ae:	0e 94 f2 38 	call	0x71e4	; 0x71e4 <_ZN4OLED19OLED_Write_To_BuferEiiiiPKh>
    13b2:	4a 85       	ldd	r20, Y+10	; 0x0a
    13b4:	5b 85       	ldd	r21, Y+11	; 0x0b
    13b6:	4d 5f       	subi	r20, 0xFD	; 253
    13b8:	5f 4f       	sbci	r21, 0xFF	; 255
    13ba:	68 85       	ldd	r22, Y+8	; 0x08
    13bc:	79 85       	ldd	r23, Y+9	; 0x09
    13be:	68 5b       	subi	r22, 0xB8	; 184
    13c0:	7f 4f       	sbci	r23, 0xFF	; 255
    13c2:	0f 2e       	mov	r0, r31
    13c4:	fb e8       	ldi	r31, 0x8B	; 139
    13c6:	ef 2e       	mov	r14, r31
    13c8:	f5 e0       	ldi	r31, 0x05	; 5
    13ca:	ff 2e       	mov	r15, r31
    13cc:	f0 2d       	mov	r31, r0
    13ce:	21 e0       	ldi	r18, 0x01	; 1
    13d0:	30 e0       	ldi	r19, 0x00	; 0
    13d2:	86 e4       	ldi	r24, 0x46	; 70
    13d4:	97 e0       	ldi	r25, 0x07	; 7
    13d6:	0e 94 f2 38 	call	0x71e4	; 0x71e4 <_ZN4OLED19OLED_Write_To_BuferEiiiiPKh>
    13da:	4a 85       	ldd	r20, Y+10	; 0x0a
    13dc:	5b 85       	ldd	r21, Y+11	; 0x0b
    13de:	4d 5f       	subi	r20, 0xFD	; 253
    13e0:	5f 4f       	sbci	r21, 0xFF	; 255
    13e2:	68 85       	ldd	r22, Y+8	; 0x08
    13e4:	79 85       	ldd	r23, Y+9	; 0x09
    13e6:	60 5b       	subi	r22, 0xB0	; 176
    13e8:	7f 4f       	sbci	r23, 0xFF	; 255
    13ea:	0f 2e       	mov	r0, r31
    13ec:	f3 e7       	ldi	r31, 0x73	; 115
    13ee:	ef 2e       	mov	r14, r31
    13f0:	f5 e0       	ldi	r31, 0x05	; 5
    13f2:	ff 2e       	mov	r15, r31
    13f4:	f0 2d       	mov	r31, r0
    13f6:	21 e0       	ldi	r18, 0x01	; 1
    13f8:	30 e0       	ldi	r19, 0x00	; 0
    13fa:	86 e4       	ldi	r24, 0x46	; 70
    13fc:	97 e0       	ldi	r25, 0x07	; 7
    13fe:	0e 94 f2 38 	call	0x71e4	; 0x71e4 <_ZN4OLED19OLED_Write_To_BuferEiiiiPKh>
    1402:	df 91       	pop	r29
    1404:	cf 91       	pop	r28
    1406:	1f 91       	pop	r17
    1408:	0f 91       	pop	r16
    140a:	ff 90       	pop	r15
    140c:	ef 90       	pop	r14
    140e:	08 95       	ret

00001410 <_ZN10Bright_set7actionsEv>:
    1410:	ef 92       	push	r14
    1412:	ff 92       	push	r15
    1414:	0f 93       	push	r16
    1416:	1f 93       	push	r17
    1418:	cf 93       	push	r28
    141a:	df 93       	push	r29
    141c:	ec 01       	movw	r28, r24
    141e:	4a 85       	ldd	r20, Y+10	; 0x0a
    1420:	5b 85       	ldd	r21, Y+11	; 0x0b
    1422:	41 50       	subi	r20, 0x01	; 1
    1424:	51 09       	sbc	r21, r1
    1426:	08 e0       	ldi	r16, 0x08	; 8
    1428:	10 e0       	ldi	r17, 0x00	; 0
    142a:	20 e1       	ldi	r18, 0x10	; 16
    142c:	30 e0       	ldi	r19, 0x00	; 0
    142e:	60 e0       	ldi	r22, 0x00	; 0
    1430:	70 e0       	ldi	r23, 0x00	; 0
    1432:	86 e4       	ldi	r24, 0x46	; 70
    1434:	97 e0       	ldi	r25, 0x07	; 7
    1436:	0e 94 a3 38 	call	0x7146	; 0x7146 <_ZN4OLED21OLED_Clear_Bufer_partEiiii>
    143a:	4a 85       	ldd	r20, Y+10	; 0x0a
    143c:	5b 85       	ldd	r21, Y+11	; 0x0b
    143e:	41 50       	subi	r20, 0x01	; 1
    1440:	51 09       	sbc	r21, r1
    1442:	6e 81       	ldd	r22, Y+6	; 0x06
    1444:	7f 81       	ldd	r23, Y+7	; 0x07
    1446:	0f 2e       	mov	r0, r31
    1448:	fb e9       	ldi	r31, 0x9B	; 155
    144a:	ef 2e       	mov	r14, r31
    144c:	f1 e0       	ldi	r31, 0x01	; 1
    144e:	ff 2e       	mov	r15, r31
    1450:	f0 2d       	mov	r31, r0
    1452:	21 e0       	ldi	r18, 0x01	; 1
    1454:	30 e0       	ldi	r19, 0x00	; 0
    1456:	86 e4       	ldi	r24, 0x46	; 70
    1458:	97 e0       	ldi	r25, 0x07	; 7
    145a:	0e 94 f2 38 	call	0x71e4	; 0x71e4 <_ZN4OLED19OLED_Write_To_BuferEiiiiPKh>
    145e:	4a 85       	ldd	r20, Y+10	; 0x0a
    1460:	5b 85       	ldd	r21, Y+11	; 0x0b
    1462:	41 50       	subi	r20, 0x01	; 1
    1464:	51 09       	sbc	r21, r1
    1466:	6e 81       	ldd	r22, Y+6	; 0x06
    1468:	7f 81       	ldd	r23, Y+7	; 0x07
    146a:	68 5f       	subi	r22, 0xF8	; 248
    146c:	7f 4f       	sbci	r23, 0xFF	; 255
    146e:	0f 2e       	mov	r0, r31
    1470:	fb ef       	ldi	r31, 0xFB	; 251
    1472:	ef 2e       	mov	r14, r31
    1474:	f1 e0       	ldi	r31, 0x01	; 1
    1476:	ff 2e       	mov	r15, r31
    1478:	f0 2d       	mov	r31, r0
    147a:	21 e0       	ldi	r18, 0x01	; 1
    147c:	30 e0       	ldi	r19, 0x00	; 0
    147e:	86 e4       	ldi	r24, 0x46	; 70
    1480:	97 e0       	ldi	r25, 0x07	; 7
    1482:	0e 94 f2 38 	call	0x71e4	; 0x71e4 <_ZN4OLED19OLED_Write_To_BuferEiiiiPKh>
    1486:	4a 85       	ldd	r20, Y+10	; 0x0a
    1488:	5b 85       	ldd	r21, Y+11	; 0x0b
    148a:	41 50       	subi	r20, 0x01	; 1
    148c:	51 09       	sbc	r21, r1
    148e:	6e 81       	ldd	r22, Y+6	; 0x06
    1490:	7f 81       	ldd	r23, Y+7	; 0x07
    1492:	60 5f       	subi	r22, 0xF0	; 240
    1494:	7f 4f       	sbci	r23, 0xFF	; 255
    1496:	0f 2e       	mov	r0, r31
    1498:	f3 e9       	ldi	r31, 0x93	; 147
    149a:	ef 2e       	mov	r14, r31
    149c:	f1 e0       	ldi	r31, 0x01	; 1
    149e:	ff 2e       	mov	r15, r31
    14a0:	f0 2d       	mov	r31, r0
    14a2:	21 e0       	ldi	r18, 0x01	; 1
    14a4:	30 e0       	ldi	r19, 0x00	; 0
    14a6:	86 e4       	ldi	r24, 0x46	; 70
    14a8:	97 e0       	ldi	r25, 0x07	; 7
    14aa:	0e 94 f2 38 	call	0x71e4	; 0x71e4 <_ZN4OLED19OLED_Write_To_BuferEiiiiPKh>
    14ae:	4a 85       	ldd	r20, Y+10	; 0x0a
    14b0:	5b 85       	ldd	r21, Y+11	; 0x0b
    14b2:	41 50       	subi	r20, 0x01	; 1
    14b4:	51 09       	sbc	r21, r1
    14b6:	6e 81       	ldd	r22, Y+6	; 0x06
    14b8:	7f 81       	ldd	r23, Y+7	; 0x07
    14ba:	60 5e       	subi	r22, 0xE0	; 224
    14bc:	7f 4f       	sbci	r23, 0xFF	; 255
    14be:	0f 2e       	mov	r0, r31
    14c0:	f3 e1       	ldi	r31, 0x13	; 19
    14c2:	ef 2e       	mov	r14, r31
    14c4:	f2 e0       	ldi	r31, 0x02	; 2
    14c6:	ff 2e       	mov	r15, r31
    14c8:	f0 2d       	mov	r31, r0
    14ca:	21 e0       	ldi	r18, 0x01	; 1
    14cc:	30 e0       	ldi	r19, 0x00	; 0
    14ce:	86 e4       	ldi	r24, 0x46	; 70
    14d0:	97 e0       	ldi	r25, 0x07	; 7
    14d2:	0e 94 f2 38 	call	0x71e4	; 0x71e4 <_ZN4OLED19OLED_Write_To_BuferEiiiiPKh>
    14d6:	4a 85       	ldd	r20, Y+10	; 0x0a
    14d8:	5b 85       	ldd	r21, Y+11	; 0x0b
    14da:	41 50       	subi	r20, 0x01	; 1
    14dc:	51 09       	sbc	r21, r1
    14de:	6e 81       	ldd	r22, Y+6	; 0x06
    14e0:	7f 81       	ldd	r23, Y+7	; 0x07
    14e2:	68 5d       	subi	r22, 0xD8	; 216
    14e4:	7f 4f       	sbci	r23, 0xFF	; 255
    14e6:	0f 2e       	mov	r0, r31
    14e8:	f3 ea       	ldi	r31, 0xA3	; 163
    14ea:	ef 2e       	mov	r14, r31
    14ec:	f1 e0       	ldi	r31, 0x01	; 1
    14ee:	ff 2e       	mov	r15, r31
    14f0:	f0 2d       	mov	r31, r0
    14f2:	21 e0       	ldi	r18, 0x01	; 1
    14f4:	30 e0       	ldi	r19, 0x00	; 0
    14f6:	86 e4       	ldi	r24, 0x46	; 70
    14f8:	97 e0       	ldi	r25, 0x07	; 7
    14fa:	0e 94 f2 38 	call	0x71e4	; 0x71e4 <_ZN4OLED19OLED_Write_To_BuferEiiiiPKh>
    14fe:	4a 85       	ldd	r20, Y+10	; 0x0a
    1500:	5b 85       	ldd	r21, Y+11	; 0x0b
    1502:	41 50       	subi	r20, 0x01	; 1
    1504:	51 09       	sbc	r21, r1
    1506:	6e 81       	ldd	r22, Y+6	; 0x06
    1508:	7f 81       	ldd	r23, Y+7	; 0x07
    150a:	60 5d       	subi	r22, 0xD0	; 208
    150c:	7f 4f       	sbci	r23, 0xFF	; 255
    150e:	0f 2e       	mov	r0, r31
    1510:	fb ed       	ldi	r31, 0xDB	; 219
    1512:	ef 2e       	mov	r14, r31
    1514:	f1 e0       	ldi	r31, 0x01	; 1
    1516:	ff 2e       	mov	r15, r31
    1518:	f0 2d       	mov	r31, r0
    151a:	21 e0       	ldi	r18, 0x01	; 1
    151c:	30 e0       	ldi	r19, 0x00	; 0
    151e:	86 e4       	ldi	r24, 0x46	; 70
    1520:	97 e0       	ldi	r25, 0x07	; 7
    1522:	0e 94 f2 38 	call	0x71e4	; 0x71e4 <_ZN4OLED19OLED_Write_To_BuferEiiiiPKh>
    1526:	4a 85       	ldd	r20, Y+10	; 0x0a
    1528:	5b 85       	ldd	r21, Y+11	; 0x0b
    152a:	41 50       	subi	r20, 0x01	; 1
    152c:	51 09       	sbc	r21, r1
    152e:	6e 81       	ldd	r22, Y+6	; 0x06
    1530:	7f 81       	ldd	r23, Y+7	; 0x07
    1532:	68 5c       	subi	r22, 0xC8	; 200
    1534:	7f 4f       	sbci	r23, 0xFF	; 255
    1536:	0f 2e       	mov	r0, r31
    1538:	fb ee       	ldi	r31, 0xEB	; 235
    153a:	ef 2e       	mov	r14, r31
    153c:	f1 e0       	ldi	r31, 0x01	; 1
    153e:	ff 2e       	mov	r15, r31
    1540:	f0 2d       	mov	r31, r0
    1542:	21 e0       	ldi	r18, 0x01	; 1
    1544:	30 e0       	ldi	r19, 0x00	; 0
    1546:	86 e4       	ldi	r24, 0x46	; 70
    1548:	97 e0       	ldi	r25, 0x07	; 7
    154a:	0e 94 f2 38 	call	0x71e4	; 0x71e4 <_ZN4OLED19OLED_Write_To_BuferEiiiiPKh>
    154e:	4a 85       	ldd	r20, Y+10	; 0x0a
    1550:	5b 85       	ldd	r21, Y+11	; 0x0b
    1552:	41 50       	subi	r20, 0x01	; 1
    1554:	51 09       	sbc	r21, r1
    1556:	6e 81       	ldd	r22, Y+6	; 0x06
    1558:	7f 81       	ldd	r23, Y+7	; 0x07
    155a:	60 5c       	subi	r22, 0xC0	; 192
    155c:	7f 4f       	sbci	r23, 0xFF	; 255
    155e:	0f 2e       	mov	r0, r31
    1560:	f3 ee       	ldi	r31, 0xE3	; 227
    1562:	ef 2e       	mov	r14, r31
    1564:	f1 e0       	ldi	r31, 0x01	; 1
    1566:	ff 2e       	mov	r15, r31
    1568:	f0 2d       	mov	r31, r0
    156a:	21 e0       	ldi	r18, 0x01	; 1
    156c:	30 e0       	ldi	r19, 0x00	; 0
    156e:	86 e4       	ldi	r24, 0x46	; 70
    1570:	97 e0       	ldi	r25, 0x07	; 7
    1572:	0e 94 f2 38 	call	0x71e4	; 0x71e4 <_ZN4OLED19OLED_Write_To_BuferEiiiiPKh>
    1576:	4a 85       	ldd	r20, Y+10	; 0x0a
    1578:	5b 85       	ldd	r21, Y+11	; 0x0b
    157a:	41 50       	subi	r20, 0x01	; 1
    157c:	51 09       	sbc	r21, r1
    157e:	6e 81       	ldd	r22, Y+6	; 0x06
    1580:	7f 81       	ldd	r23, Y+7	; 0x07
    1582:	68 5b       	subi	r22, 0xB8	; 184
    1584:	7f 4f       	sbci	r23, 0xFF	; 255
    1586:	0f 2e       	mov	r0, r31
    1588:	f3 e9       	ldi	r31, 0x93	; 147
    158a:	ef 2e       	mov	r14, r31
    158c:	f1 e0       	ldi	r31, 0x01	; 1
    158e:	ff 2e       	mov	r15, r31
    1590:	f0 2d       	mov	r31, r0
    1592:	21 e0       	ldi	r18, 0x01	; 1
    1594:	30 e0       	ldi	r19, 0x00	; 0
    1596:	86 e4       	ldi	r24, 0x46	; 70
    1598:	97 e0       	ldi	r25, 0x07	; 7
    159a:	0e 94 f2 38 	call	0x71e4	; 0x71e4 <_ZN4OLED19OLED_Write_To_BuferEiiiiPKh>
    159e:	4a 85       	ldd	r20, Y+10	; 0x0a
    15a0:	5b 85       	ldd	r21, Y+11	; 0x0b
    15a2:	41 50       	subi	r20, 0x01	; 1
    15a4:	51 09       	sbc	r21, r1
    15a6:	6e 81       	ldd	r22, Y+6	; 0x06
    15a8:	7f 81       	ldd	r23, Y+7	; 0x07
    15aa:	60 5b       	subi	r22, 0xB0	; 176
    15ac:	7f 4f       	sbci	r23, 0xFF	; 255
    15ae:	0f 2e       	mov	r0, r31
    15b0:	f3 eb       	ldi	r31, 0xB3	; 179
    15b2:	ef 2e       	mov	r14, r31
    15b4:	f1 e0       	ldi	r31, 0x01	; 1
    15b6:	ff 2e       	mov	r15, r31
    15b8:	f0 2d       	mov	r31, r0
    15ba:	21 e0       	ldi	r18, 0x01	; 1
    15bc:	30 e0       	ldi	r19, 0x00	; 0
    15be:	86 e4       	ldi	r24, 0x46	; 70
    15c0:	97 e0       	ldi	r25, 0x07	; 7
    15c2:	0e 94 f2 38 	call	0x71e4	; 0x71e4 <_ZN4OLED19OLED_Write_To_BuferEiiiiPKh>
    15c6:	4a 85       	ldd	r20, Y+10	; 0x0a
    15c8:	5b 85       	ldd	r21, Y+11	; 0x0b
    15ca:	41 50       	subi	r20, 0x01	; 1
    15cc:	51 09       	sbc	r21, r1
    15ce:	6e 81       	ldd	r22, Y+6	; 0x06
    15d0:	7f 81       	ldd	r23, Y+7	; 0x07
    15d2:	68 5a       	subi	r22, 0xA8	; 168
    15d4:	7f 4f       	sbci	r23, 0xFF	; 255
    15d6:	0f 2e       	mov	r0, r31
    15d8:	fb ef       	ldi	r31, 0xFB	; 251
    15da:	ef 2e       	mov	r14, r31
    15dc:	f1 e0       	ldi	r31, 0x01	; 1
    15de:	ff 2e       	mov	r15, r31
    15e0:	f0 2d       	mov	r31, r0
    15e2:	21 e0       	ldi	r18, 0x01	; 1
    15e4:	30 e0       	ldi	r19, 0x00	; 0
    15e6:	86 e4       	ldi	r24, 0x46	; 70
    15e8:	97 e0       	ldi	r25, 0x07	; 7
    15ea:	0e 94 f2 38 	call	0x71e4	; 0x71e4 <_ZN4OLED19OLED_Write_To_BuferEiiiiPKh>
    15ee:	4a 85       	ldd	r20, Y+10	; 0x0a
    15f0:	5b 85       	ldd	r21, Y+11	; 0x0b
    15f2:	41 50       	subi	r20, 0x01	; 1
    15f4:	51 09       	sbc	r21, r1
    15f6:	6e 81       	ldd	r22, Y+6	; 0x06
    15f8:	7f 81       	ldd	r23, Y+7	; 0x07
    15fa:	60 5a       	subi	r22, 0xA0	; 160
    15fc:	7f 4f       	sbci	r23, 0xFF	; 255
    15fe:	0f 2e       	mov	r0, r31
    1600:	fb e9       	ldi	r31, 0x9B	; 155
    1602:	ef 2e       	mov	r14, r31
    1604:	f1 e0       	ldi	r31, 0x01	; 1
    1606:	ff 2e       	mov	r15, r31
    1608:	f0 2d       	mov	r31, r0
    160a:	21 e0       	ldi	r18, 0x01	; 1
    160c:	30 e0       	ldi	r19, 0x00	; 0
    160e:	86 e4       	ldi	r24, 0x46	; 70
    1610:	97 e0       	ldi	r25, 0x07	; 7
    1612:	0e 94 f2 38 	call	0x71e4	; 0x71e4 <_ZN4OLED19OLED_Write_To_BuferEiiiiPKh>
    1616:	4a 85       	ldd	r20, Y+10	; 0x0a
    1618:	5b 85       	ldd	r21, Y+11	; 0x0b
    161a:	41 50       	subi	r20, 0x01	; 1
    161c:	51 09       	sbc	r21, r1
    161e:	6e 81       	ldd	r22, Y+6	; 0x06
    1620:	7f 81       	ldd	r23, Y+7	; 0x07
    1622:	68 59       	subi	r22, 0x98	; 152
    1624:	7f 4f       	sbci	r23, 0xFF	; 255
    1626:	21 e0       	ldi	r18, 0x01	; 1
    1628:	30 e0       	ldi	r19, 0x00	; 0
    162a:	86 e4       	ldi	r24, 0x46	; 70
    162c:	97 e0       	ldi	r25, 0x07	; 7
    162e:	0e 94 f2 38 	call	0x71e4	; 0x71e4 <_ZN4OLED19OLED_Write_To_BuferEiiiiPKh>
    1632:	80 91 3e 07 	lds	r24, 0x073E	; 0x80073e <Brightness_Status>
    1636:	88 23       	and	r24, r24
    1638:	09 f4       	brne	.+2      	; 0x163c <_ZN10Bright_set7actionsEv+0x22c>
    163a:	d7 c3       	rjmp	.+1966   	; 0x1dea <_ZN10Bright_set7actionsEv+0x9da>
    163c:	e8 81       	ld	r30, Y
    163e:	f9 81       	ldd	r31, Y+1	; 0x01
    1640:	eb 30       	cpi	r30, 0x0B	; 11
    1642:	f1 05       	cpc	r31, r1
    1644:	08 f0       	brcs	.+2      	; 0x1648 <_ZN10Bright_set7actionsEv+0x238>
    1646:	d1 c3       	rjmp	.+1954   	; 0x1dea <_ZN10Bright_set7actionsEv+0x9da>
    1648:	ef 5a       	subi	r30, 0xAF	; 175
    164a:	ff 4f       	sbci	r31, 0xFF	; 255
    164c:	0c 94 ba 39 	jmp	0x7374	; 0x7374 <__tablejump2__>
    1650:	4a 85       	ldd	r20, Y+10	; 0x0a
    1652:	5b 85       	ldd	r21, Y+11	; 0x0b
    1654:	4f 5f       	subi	r20, 0xFF	; 255
    1656:	5f 4f       	sbci	r21, 0xFF	; 255
    1658:	68 85       	ldd	r22, Y+8	; 0x08
    165a:	79 85       	ldd	r23, Y+9	; 0x09
    165c:	00 e1       	ldi	r16, 0x10	; 16
    165e:	10 e0       	ldi	r17, 0x00	; 0
    1660:	2a e0       	ldi	r18, 0x0A	; 10
    1662:	30 e0       	ldi	r19, 0x00	; 0
    1664:	86 e4       	ldi	r24, 0x46	; 70
    1666:	97 e0       	ldi	r25, 0x07	; 7
    1668:	0e 94 a3 38 	call	0x7146	; 0x7146 <_ZN4OLED21OLED_Clear_Bufer_partEiiii>
    166c:	4a 85       	ldd	r20, Y+10	; 0x0a
    166e:	5b 85       	ldd	r21, Y+11	; 0x0b
    1670:	4f 5f       	subi	r20, 0xFF	; 255
    1672:	5f 4f       	sbci	r21, 0xFF	; 255
    1674:	68 85       	ldd	r22, Y+8	; 0x08
    1676:	79 85       	ldd	r23, Y+9	; 0x09
    1678:	00 e1       	ldi	r16, 0x10	; 16
    167a:	10 e0       	ldi	r17, 0x00	; 0
    167c:	2a e0       	ldi	r18, 0x0A	; 10
    167e:	30 e0       	ldi	r19, 0x00	; 0
    1680:	86 e4       	ldi	r24, 0x46	; 70
    1682:	97 e0       	ldi	r25, 0x07	; 7
    1684:	0e 94 a3 38 	call	0x7146	; 0x7146 <_ZN4OLED21OLED_Clear_Bufer_partEiiii>
    1688:	4a 85       	ldd	r20, Y+10	; 0x0a
    168a:	5b 85       	ldd	r21, Y+11	; 0x0b
    168c:	4f 5f       	subi	r20, 0xFF	; 255
    168e:	5f 4f       	sbci	r21, 0xFF	; 255
    1690:	68 85       	ldd	r22, Y+8	; 0x08
    1692:	79 85       	ldd	r23, Y+9	; 0x09
    1694:	0f 2e       	mov	r0, r31
    1696:	f3 e0       	ldi	r31, 0x03	; 3
    1698:	ef 2e       	mov	r14, r31
    169a:	f1 e0       	ldi	r31, 0x01	; 1
    169c:	ff 2e       	mov	r15, r31
    169e:	f0 2d       	mov	r31, r0
    16a0:	21 e0       	ldi	r18, 0x01	; 1
    16a2:	30 e0       	ldi	r19, 0x00	; 0
    16a4:	86 e4       	ldi	r24, 0x46	; 70
    16a6:	97 e0       	ldi	r25, 0x07	; 7
    16a8:	0e 94 f2 38 	call	0x71e4	; 0x71e4 <_ZN4OLED19OLED_Write_To_BuferEiiiiPKh>
    16ac:	9e c3       	rjmp	.+1852   	; 0x1dea <_ZN10Bright_set7actionsEv+0x9da>
    16ae:	4a 85       	ldd	r20, Y+10	; 0x0a
    16b0:	5b 85       	ldd	r21, Y+11	; 0x0b
    16b2:	4f 5f       	subi	r20, 0xFF	; 255
    16b4:	5f 4f       	sbci	r21, 0xFF	; 255
    16b6:	68 85       	ldd	r22, Y+8	; 0x08
    16b8:	79 85       	ldd	r23, Y+9	; 0x09
    16ba:	00 e1       	ldi	r16, 0x10	; 16
    16bc:	10 e0       	ldi	r17, 0x00	; 0
    16be:	2a e0       	ldi	r18, 0x0A	; 10
    16c0:	30 e0       	ldi	r19, 0x00	; 0
    16c2:	86 e4       	ldi	r24, 0x46	; 70
    16c4:	97 e0       	ldi	r25, 0x07	; 7
    16c6:	0e 94 a3 38 	call	0x7146	; 0x7146 <_ZN4OLED21OLED_Clear_Bufer_partEiiii>
    16ca:	4a 85       	ldd	r20, Y+10	; 0x0a
    16cc:	5b 85       	ldd	r21, Y+11	; 0x0b
    16ce:	4f 5f       	subi	r20, 0xFF	; 255
    16d0:	5f 4f       	sbci	r21, 0xFF	; 255
    16d2:	68 85       	ldd	r22, Y+8	; 0x08
    16d4:	79 85       	ldd	r23, Y+9	; 0x09
    16d6:	0f 2e       	mov	r0, r31
    16d8:	f3 e0       	ldi	r31, 0x03	; 3
    16da:	ef 2e       	mov	r14, r31
    16dc:	f1 e0       	ldi	r31, 0x01	; 1
    16de:	ff 2e       	mov	r15, r31
    16e0:	f0 2d       	mov	r31, r0
    16e2:	21 e0       	ldi	r18, 0x01	; 1
    16e4:	30 e0       	ldi	r19, 0x00	; 0
    16e6:	86 e4       	ldi	r24, 0x46	; 70
    16e8:	97 e0       	ldi	r25, 0x07	; 7
    16ea:	0e 94 f2 38 	call	0x71e4	; 0x71e4 <_ZN4OLED19OLED_Write_To_BuferEiiiiPKh>
    16ee:	4a 85       	ldd	r20, Y+10	; 0x0a
    16f0:	5b 85       	ldd	r21, Y+11	; 0x0b
    16f2:	4f 5f       	subi	r20, 0xFF	; 255
    16f4:	5f 4f       	sbci	r21, 0xFF	; 255
    16f6:	68 85       	ldd	r22, Y+8	; 0x08
    16f8:	79 85       	ldd	r23, Y+9	; 0x09
    16fa:	68 5f       	subi	r22, 0xF8	; 248
    16fc:	7f 4f       	sbci	r23, 0xFF	; 255
    16fe:	21 e0       	ldi	r18, 0x01	; 1
    1700:	30 e0       	ldi	r19, 0x00	; 0
    1702:	86 e4       	ldi	r24, 0x46	; 70
    1704:	97 e0       	ldi	r25, 0x07	; 7
    1706:	0e 94 f2 38 	call	0x71e4	; 0x71e4 <_ZN4OLED19OLED_Write_To_BuferEiiiiPKh>
    170a:	6f c3       	rjmp	.+1758   	; 0x1dea <_ZN10Bright_set7actionsEv+0x9da>
    170c:	4a 85       	ldd	r20, Y+10	; 0x0a
    170e:	5b 85       	ldd	r21, Y+11	; 0x0b
    1710:	4f 5f       	subi	r20, 0xFF	; 255
    1712:	5f 4f       	sbci	r21, 0xFF	; 255
    1714:	68 85       	ldd	r22, Y+8	; 0x08
    1716:	79 85       	ldd	r23, Y+9	; 0x09
    1718:	00 e1       	ldi	r16, 0x10	; 16
    171a:	10 e0       	ldi	r17, 0x00	; 0
    171c:	2a e0       	ldi	r18, 0x0A	; 10
    171e:	30 e0       	ldi	r19, 0x00	; 0
    1720:	86 e4       	ldi	r24, 0x46	; 70
    1722:	97 e0       	ldi	r25, 0x07	; 7
    1724:	0e 94 a3 38 	call	0x7146	; 0x7146 <_ZN4OLED21OLED_Clear_Bufer_partEiiii>
    1728:	4a 85       	ldd	r20, Y+10	; 0x0a
    172a:	5b 85       	ldd	r21, Y+11	; 0x0b
    172c:	4f 5f       	subi	r20, 0xFF	; 255
    172e:	5f 4f       	sbci	r21, 0xFF	; 255
    1730:	68 85       	ldd	r22, Y+8	; 0x08
    1732:	79 85       	ldd	r23, Y+9	; 0x09
    1734:	0f 2e       	mov	r0, r31
    1736:	f3 e0       	ldi	r31, 0x03	; 3
    1738:	ef 2e       	mov	r14, r31
    173a:	f1 e0       	ldi	r31, 0x01	; 1
    173c:	ff 2e       	mov	r15, r31
    173e:	f0 2d       	mov	r31, r0
    1740:	21 e0       	ldi	r18, 0x01	; 1
    1742:	30 e0       	ldi	r19, 0x00	; 0
    1744:	86 e4       	ldi	r24, 0x46	; 70
    1746:	97 e0       	ldi	r25, 0x07	; 7
    1748:	0e 94 f2 38 	call	0x71e4	; 0x71e4 <_ZN4OLED19OLED_Write_To_BuferEiiiiPKh>
    174c:	4a 85       	ldd	r20, Y+10	; 0x0a
    174e:	5b 85       	ldd	r21, Y+11	; 0x0b
    1750:	4f 5f       	subi	r20, 0xFF	; 255
    1752:	5f 4f       	sbci	r21, 0xFF	; 255
    1754:	68 85       	ldd	r22, Y+8	; 0x08
    1756:	79 85       	ldd	r23, Y+9	; 0x09
    1758:	68 5f       	subi	r22, 0xF8	; 248
    175a:	7f 4f       	sbci	r23, 0xFF	; 255
    175c:	21 e0       	ldi	r18, 0x01	; 1
    175e:	30 e0       	ldi	r19, 0x00	; 0
    1760:	86 e4       	ldi	r24, 0x46	; 70
    1762:	97 e0       	ldi	r25, 0x07	; 7
    1764:	0e 94 f2 38 	call	0x71e4	; 0x71e4 <_ZN4OLED19OLED_Write_To_BuferEiiiiPKh>
    1768:	4a 85       	ldd	r20, Y+10	; 0x0a
    176a:	5b 85       	ldd	r21, Y+11	; 0x0b
    176c:	4f 5f       	subi	r20, 0xFF	; 255
    176e:	5f 4f       	sbci	r21, 0xFF	; 255
    1770:	68 85       	ldd	r22, Y+8	; 0x08
    1772:	79 85       	ldd	r23, Y+9	; 0x09
    1774:	60 5f       	subi	r22, 0xF0	; 240
    1776:	7f 4f       	sbci	r23, 0xFF	; 255
    1778:	21 e0       	ldi	r18, 0x01	; 1
    177a:	30 e0       	ldi	r19, 0x00	; 0
    177c:	86 e4       	ldi	r24, 0x46	; 70
    177e:	97 e0       	ldi	r25, 0x07	; 7
    1780:	0e 94 f2 38 	call	0x71e4	; 0x71e4 <_ZN4OLED19OLED_Write_To_BuferEiiiiPKh>
    1784:	32 c3       	rjmp	.+1636   	; 0x1dea <_ZN10Bright_set7actionsEv+0x9da>
    1786:	4a 85       	ldd	r20, Y+10	; 0x0a
    1788:	5b 85       	ldd	r21, Y+11	; 0x0b
    178a:	4f 5f       	subi	r20, 0xFF	; 255
    178c:	5f 4f       	sbci	r21, 0xFF	; 255
    178e:	68 85       	ldd	r22, Y+8	; 0x08
    1790:	79 85       	ldd	r23, Y+9	; 0x09
    1792:	00 e1       	ldi	r16, 0x10	; 16
    1794:	10 e0       	ldi	r17, 0x00	; 0
    1796:	2a e0       	ldi	r18, 0x0A	; 10
    1798:	30 e0       	ldi	r19, 0x00	; 0
    179a:	86 e4       	ldi	r24, 0x46	; 70
    179c:	97 e0       	ldi	r25, 0x07	; 7
    179e:	0e 94 a3 38 	call	0x7146	; 0x7146 <_ZN4OLED21OLED_Clear_Bufer_partEiiii>
    17a2:	4a 85       	ldd	r20, Y+10	; 0x0a
    17a4:	5b 85       	ldd	r21, Y+11	; 0x0b
    17a6:	4f 5f       	subi	r20, 0xFF	; 255
    17a8:	5f 4f       	sbci	r21, 0xFF	; 255
    17aa:	68 85       	ldd	r22, Y+8	; 0x08
    17ac:	79 85       	ldd	r23, Y+9	; 0x09
    17ae:	0f 2e       	mov	r0, r31
    17b0:	f3 e0       	ldi	r31, 0x03	; 3
    17b2:	ef 2e       	mov	r14, r31
    17b4:	f1 e0       	ldi	r31, 0x01	; 1
    17b6:	ff 2e       	mov	r15, r31
    17b8:	f0 2d       	mov	r31, r0
    17ba:	21 e0       	ldi	r18, 0x01	; 1
    17bc:	30 e0       	ldi	r19, 0x00	; 0
    17be:	86 e4       	ldi	r24, 0x46	; 70
    17c0:	97 e0       	ldi	r25, 0x07	; 7
    17c2:	0e 94 f2 38 	call	0x71e4	; 0x71e4 <_ZN4OLED19OLED_Write_To_BuferEiiiiPKh>
    17c6:	4a 85       	ldd	r20, Y+10	; 0x0a
    17c8:	5b 85       	ldd	r21, Y+11	; 0x0b
    17ca:	4f 5f       	subi	r20, 0xFF	; 255
    17cc:	5f 4f       	sbci	r21, 0xFF	; 255
    17ce:	68 85       	ldd	r22, Y+8	; 0x08
    17d0:	79 85       	ldd	r23, Y+9	; 0x09
    17d2:	68 5f       	subi	r22, 0xF8	; 248
    17d4:	7f 4f       	sbci	r23, 0xFF	; 255
    17d6:	21 e0       	ldi	r18, 0x01	; 1
    17d8:	30 e0       	ldi	r19, 0x00	; 0
    17da:	86 e4       	ldi	r24, 0x46	; 70
    17dc:	97 e0       	ldi	r25, 0x07	; 7
    17de:	0e 94 f2 38 	call	0x71e4	; 0x71e4 <_ZN4OLED19OLED_Write_To_BuferEiiiiPKh>
    17e2:	4a 85       	ldd	r20, Y+10	; 0x0a
    17e4:	5b 85       	ldd	r21, Y+11	; 0x0b
    17e6:	4f 5f       	subi	r20, 0xFF	; 255
    17e8:	5f 4f       	sbci	r21, 0xFF	; 255
    17ea:	68 85       	ldd	r22, Y+8	; 0x08
    17ec:	79 85       	ldd	r23, Y+9	; 0x09
    17ee:	60 5f       	subi	r22, 0xF0	; 240
    17f0:	7f 4f       	sbci	r23, 0xFF	; 255
    17f2:	21 e0       	ldi	r18, 0x01	; 1
    17f4:	30 e0       	ldi	r19, 0x00	; 0
    17f6:	86 e4       	ldi	r24, 0x46	; 70
    17f8:	97 e0       	ldi	r25, 0x07	; 7
    17fa:	0e 94 f2 38 	call	0x71e4	; 0x71e4 <_ZN4OLED19OLED_Write_To_BuferEiiiiPKh>
    17fe:	4a 85       	ldd	r20, Y+10	; 0x0a
    1800:	5b 85       	ldd	r21, Y+11	; 0x0b
    1802:	4f 5f       	subi	r20, 0xFF	; 255
    1804:	5f 4f       	sbci	r21, 0xFF	; 255
    1806:	68 85       	ldd	r22, Y+8	; 0x08
    1808:	79 85       	ldd	r23, Y+9	; 0x09
    180a:	68 5e       	subi	r22, 0xE8	; 232
    180c:	7f 4f       	sbci	r23, 0xFF	; 255
    180e:	21 e0       	ldi	r18, 0x01	; 1
    1810:	30 e0       	ldi	r19, 0x00	; 0
    1812:	86 e4       	ldi	r24, 0x46	; 70
    1814:	97 e0       	ldi	r25, 0x07	; 7
    1816:	0e 94 f2 38 	call	0x71e4	; 0x71e4 <_ZN4OLED19OLED_Write_To_BuferEiiiiPKh>
    181a:	e7 c2       	rjmp	.+1486   	; 0x1dea <_ZN10Bright_set7actionsEv+0x9da>
    181c:	4a 85       	ldd	r20, Y+10	; 0x0a
    181e:	5b 85       	ldd	r21, Y+11	; 0x0b
    1820:	4f 5f       	subi	r20, 0xFF	; 255
    1822:	5f 4f       	sbci	r21, 0xFF	; 255
    1824:	68 85       	ldd	r22, Y+8	; 0x08
    1826:	79 85       	ldd	r23, Y+9	; 0x09
    1828:	00 e1       	ldi	r16, 0x10	; 16
    182a:	10 e0       	ldi	r17, 0x00	; 0
    182c:	2a e0       	ldi	r18, 0x0A	; 10
    182e:	30 e0       	ldi	r19, 0x00	; 0
    1830:	86 e4       	ldi	r24, 0x46	; 70
    1832:	97 e0       	ldi	r25, 0x07	; 7
    1834:	0e 94 a3 38 	call	0x7146	; 0x7146 <_ZN4OLED21OLED_Clear_Bufer_partEiiii>
    1838:	4a 85       	ldd	r20, Y+10	; 0x0a
    183a:	5b 85       	ldd	r21, Y+11	; 0x0b
    183c:	4f 5f       	subi	r20, 0xFF	; 255
    183e:	5f 4f       	sbci	r21, 0xFF	; 255
    1840:	68 85       	ldd	r22, Y+8	; 0x08
    1842:	79 85       	ldd	r23, Y+9	; 0x09
    1844:	0f 2e       	mov	r0, r31
    1846:	f3 e0       	ldi	r31, 0x03	; 3
    1848:	ef 2e       	mov	r14, r31
    184a:	f1 e0       	ldi	r31, 0x01	; 1
    184c:	ff 2e       	mov	r15, r31
    184e:	f0 2d       	mov	r31, r0
    1850:	21 e0       	ldi	r18, 0x01	; 1
    1852:	30 e0       	ldi	r19, 0x00	; 0
    1854:	86 e4       	ldi	r24, 0x46	; 70
    1856:	97 e0       	ldi	r25, 0x07	; 7
    1858:	0e 94 f2 38 	call	0x71e4	; 0x71e4 <_ZN4OLED19OLED_Write_To_BuferEiiiiPKh>
    185c:	4a 85       	ldd	r20, Y+10	; 0x0a
    185e:	5b 85       	ldd	r21, Y+11	; 0x0b
    1860:	4f 5f       	subi	r20, 0xFF	; 255
    1862:	5f 4f       	sbci	r21, 0xFF	; 255
    1864:	68 85       	ldd	r22, Y+8	; 0x08
    1866:	79 85       	ldd	r23, Y+9	; 0x09
    1868:	68 5f       	subi	r22, 0xF8	; 248
    186a:	7f 4f       	sbci	r23, 0xFF	; 255
    186c:	21 e0       	ldi	r18, 0x01	; 1
    186e:	30 e0       	ldi	r19, 0x00	; 0
    1870:	86 e4       	ldi	r24, 0x46	; 70
    1872:	97 e0       	ldi	r25, 0x07	; 7
    1874:	0e 94 f2 38 	call	0x71e4	; 0x71e4 <_ZN4OLED19OLED_Write_To_BuferEiiiiPKh>
    1878:	4a 85       	ldd	r20, Y+10	; 0x0a
    187a:	5b 85       	ldd	r21, Y+11	; 0x0b
    187c:	4f 5f       	subi	r20, 0xFF	; 255
    187e:	5f 4f       	sbci	r21, 0xFF	; 255
    1880:	68 85       	ldd	r22, Y+8	; 0x08
    1882:	79 85       	ldd	r23, Y+9	; 0x09
    1884:	60 5f       	subi	r22, 0xF0	; 240
    1886:	7f 4f       	sbci	r23, 0xFF	; 255
    1888:	21 e0       	ldi	r18, 0x01	; 1
    188a:	30 e0       	ldi	r19, 0x00	; 0
    188c:	86 e4       	ldi	r24, 0x46	; 70
    188e:	97 e0       	ldi	r25, 0x07	; 7
    1890:	0e 94 f2 38 	call	0x71e4	; 0x71e4 <_ZN4OLED19OLED_Write_To_BuferEiiiiPKh>
    1894:	4a 85       	ldd	r20, Y+10	; 0x0a
    1896:	5b 85       	ldd	r21, Y+11	; 0x0b
    1898:	4f 5f       	subi	r20, 0xFF	; 255
    189a:	5f 4f       	sbci	r21, 0xFF	; 255
    189c:	68 85       	ldd	r22, Y+8	; 0x08
    189e:	79 85       	ldd	r23, Y+9	; 0x09
    18a0:	68 5e       	subi	r22, 0xE8	; 232
    18a2:	7f 4f       	sbci	r23, 0xFF	; 255
    18a4:	21 e0       	ldi	r18, 0x01	; 1
    18a6:	30 e0       	ldi	r19, 0x00	; 0
    18a8:	86 e4       	ldi	r24, 0x46	; 70
    18aa:	97 e0       	ldi	r25, 0x07	; 7
    18ac:	0e 94 f2 38 	call	0x71e4	; 0x71e4 <_ZN4OLED19OLED_Write_To_BuferEiiiiPKh>
    18b0:	4a 85       	ldd	r20, Y+10	; 0x0a
    18b2:	5b 85       	ldd	r21, Y+11	; 0x0b
    18b4:	4f 5f       	subi	r20, 0xFF	; 255
    18b6:	5f 4f       	sbci	r21, 0xFF	; 255
    18b8:	68 85       	ldd	r22, Y+8	; 0x08
    18ba:	79 85       	ldd	r23, Y+9	; 0x09
    18bc:	60 5e       	subi	r22, 0xE0	; 224
    18be:	7f 4f       	sbci	r23, 0xFF	; 255
    18c0:	21 e0       	ldi	r18, 0x01	; 1
    18c2:	30 e0       	ldi	r19, 0x00	; 0
    18c4:	86 e4       	ldi	r24, 0x46	; 70
    18c6:	97 e0       	ldi	r25, 0x07	; 7
    18c8:	0e 94 f2 38 	call	0x71e4	; 0x71e4 <_ZN4OLED19OLED_Write_To_BuferEiiiiPKh>
    18cc:	8e c2       	rjmp	.+1308   	; 0x1dea <_ZN10Bright_set7actionsEv+0x9da>
    18ce:	4a 85       	ldd	r20, Y+10	; 0x0a
    18d0:	5b 85       	ldd	r21, Y+11	; 0x0b
    18d2:	4f 5f       	subi	r20, 0xFF	; 255
    18d4:	5f 4f       	sbci	r21, 0xFF	; 255
    18d6:	68 85       	ldd	r22, Y+8	; 0x08
    18d8:	79 85       	ldd	r23, Y+9	; 0x09
    18da:	00 e1       	ldi	r16, 0x10	; 16
    18dc:	10 e0       	ldi	r17, 0x00	; 0
    18de:	2a e0       	ldi	r18, 0x0A	; 10
    18e0:	30 e0       	ldi	r19, 0x00	; 0
    18e2:	86 e4       	ldi	r24, 0x46	; 70
    18e4:	97 e0       	ldi	r25, 0x07	; 7
    18e6:	0e 94 a3 38 	call	0x7146	; 0x7146 <_ZN4OLED21OLED_Clear_Bufer_partEiiii>
    18ea:	4a 85       	ldd	r20, Y+10	; 0x0a
    18ec:	5b 85       	ldd	r21, Y+11	; 0x0b
    18ee:	4f 5f       	subi	r20, 0xFF	; 255
    18f0:	5f 4f       	sbci	r21, 0xFF	; 255
    18f2:	68 85       	ldd	r22, Y+8	; 0x08
    18f4:	79 85       	ldd	r23, Y+9	; 0x09
    18f6:	0f 2e       	mov	r0, r31
    18f8:	f3 e0       	ldi	r31, 0x03	; 3
    18fa:	ef 2e       	mov	r14, r31
    18fc:	f1 e0       	ldi	r31, 0x01	; 1
    18fe:	ff 2e       	mov	r15, r31
    1900:	f0 2d       	mov	r31, r0
    1902:	21 e0       	ldi	r18, 0x01	; 1
    1904:	30 e0       	ldi	r19, 0x00	; 0
    1906:	86 e4       	ldi	r24, 0x46	; 70
    1908:	97 e0       	ldi	r25, 0x07	; 7
    190a:	0e 94 f2 38 	call	0x71e4	; 0x71e4 <_ZN4OLED19OLED_Write_To_BuferEiiiiPKh>
    190e:	4a 85       	ldd	r20, Y+10	; 0x0a
    1910:	5b 85       	ldd	r21, Y+11	; 0x0b
    1912:	4f 5f       	subi	r20, 0xFF	; 255
    1914:	5f 4f       	sbci	r21, 0xFF	; 255
    1916:	68 85       	ldd	r22, Y+8	; 0x08
    1918:	79 85       	ldd	r23, Y+9	; 0x09
    191a:	68 5f       	subi	r22, 0xF8	; 248
    191c:	7f 4f       	sbci	r23, 0xFF	; 255
    191e:	21 e0       	ldi	r18, 0x01	; 1
    1920:	30 e0       	ldi	r19, 0x00	; 0
    1922:	86 e4       	ldi	r24, 0x46	; 70
    1924:	97 e0       	ldi	r25, 0x07	; 7
    1926:	0e 94 f2 38 	call	0x71e4	; 0x71e4 <_ZN4OLED19OLED_Write_To_BuferEiiiiPKh>
    192a:	4a 85       	ldd	r20, Y+10	; 0x0a
    192c:	5b 85       	ldd	r21, Y+11	; 0x0b
    192e:	4f 5f       	subi	r20, 0xFF	; 255
    1930:	5f 4f       	sbci	r21, 0xFF	; 255
    1932:	68 85       	ldd	r22, Y+8	; 0x08
    1934:	79 85       	ldd	r23, Y+9	; 0x09
    1936:	60 5f       	subi	r22, 0xF0	; 240
    1938:	7f 4f       	sbci	r23, 0xFF	; 255
    193a:	21 e0       	ldi	r18, 0x01	; 1
    193c:	30 e0       	ldi	r19, 0x00	; 0
    193e:	86 e4       	ldi	r24, 0x46	; 70
    1940:	97 e0       	ldi	r25, 0x07	; 7
    1942:	0e 94 f2 38 	call	0x71e4	; 0x71e4 <_ZN4OLED19OLED_Write_To_BuferEiiiiPKh>
    1946:	4a 85       	ldd	r20, Y+10	; 0x0a
    1948:	5b 85       	ldd	r21, Y+11	; 0x0b
    194a:	4f 5f       	subi	r20, 0xFF	; 255
    194c:	5f 4f       	sbci	r21, 0xFF	; 255
    194e:	68 85       	ldd	r22, Y+8	; 0x08
    1950:	79 85       	ldd	r23, Y+9	; 0x09
    1952:	68 5e       	subi	r22, 0xE8	; 232
    1954:	7f 4f       	sbci	r23, 0xFF	; 255
    1956:	21 e0       	ldi	r18, 0x01	; 1
    1958:	30 e0       	ldi	r19, 0x00	; 0
    195a:	86 e4       	ldi	r24, 0x46	; 70
    195c:	97 e0       	ldi	r25, 0x07	; 7
    195e:	0e 94 f2 38 	call	0x71e4	; 0x71e4 <_ZN4OLED19OLED_Write_To_BuferEiiiiPKh>
    1962:	4a 85       	ldd	r20, Y+10	; 0x0a
    1964:	5b 85       	ldd	r21, Y+11	; 0x0b
    1966:	4f 5f       	subi	r20, 0xFF	; 255
    1968:	5f 4f       	sbci	r21, 0xFF	; 255
    196a:	68 85       	ldd	r22, Y+8	; 0x08
    196c:	79 85       	ldd	r23, Y+9	; 0x09
    196e:	60 5e       	subi	r22, 0xE0	; 224
    1970:	7f 4f       	sbci	r23, 0xFF	; 255
    1972:	21 e0       	ldi	r18, 0x01	; 1
    1974:	30 e0       	ldi	r19, 0x00	; 0
    1976:	86 e4       	ldi	r24, 0x46	; 70
    1978:	97 e0       	ldi	r25, 0x07	; 7
    197a:	0e 94 f2 38 	call	0x71e4	; 0x71e4 <_ZN4OLED19OLED_Write_To_BuferEiiiiPKh>
    197e:	4a 85       	ldd	r20, Y+10	; 0x0a
    1980:	5b 85       	ldd	r21, Y+11	; 0x0b
    1982:	4f 5f       	subi	r20, 0xFF	; 255
    1984:	5f 4f       	sbci	r21, 0xFF	; 255
    1986:	68 85       	ldd	r22, Y+8	; 0x08
    1988:	79 85       	ldd	r23, Y+9	; 0x09
    198a:	68 5d       	subi	r22, 0xD8	; 216
    198c:	7f 4f       	sbci	r23, 0xFF	; 255
    198e:	21 e0       	ldi	r18, 0x01	; 1
    1990:	30 e0       	ldi	r19, 0x00	; 0
    1992:	86 e4       	ldi	r24, 0x46	; 70
    1994:	97 e0       	ldi	r25, 0x07	; 7
    1996:	0e 94 f2 38 	call	0x71e4	; 0x71e4 <_ZN4OLED19OLED_Write_To_BuferEiiiiPKh>
    199a:	27 c2       	rjmp	.+1102   	; 0x1dea <_ZN10Bright_set7actionsEv+0x9da>
    199c:	4a 85       	ldd	r20, Y+10	; 0x0a
    199e:	5b 85       	ldd	r21, Y+11	; 0x0b
    19a0:	4f 5f       	subi	r20, 0xFF	; 255
    19a2:	5f 4f       	sbci	r21, 0xFF	; 255
    19a4:	68 85       	ldd	r22, Y+8	; 0x08
    19a6:	79 85       	ldd	r23, Y+9	; 0x09
    19a8:	00 e1       	ldi	r16, 0x10	; 16
    19aa:	10 e0       	ldi	r17, 0x00	; 0
    19ac:	2a e0       	ldi	r18, 0x0A	; 10
    19ae:	30 e0       	ldi	r19, 0x00	; 0
    19b0:	86 e4       	ldi	r24, 0x46	; 70
    19b2:	97 e0       	ldi	r25, 0x07	; 7
    19b4:	0e 94 a3 38 	call	0x7146	; 0x7146 <_ZN4OLED21OLED_Clear_Bufer_partEiiii>
    19b8:	4a 85       	ldd	r20, Y+10	; 0x0a
    19ba:	5b 85       	ldd	r21, Y+11	; 0x0b
    19bc:	4f 5f       	subi	r20, 0xFF	; 255
    19be:	5f 4f       	sbci	r21, 0xFF	; 255
    19c0:	68 85       	ldd	r22, Y+8	; 0x08
    19c2:	79 85       	ldd	r23, Y+9	; 0x09
    19c4:	0f 2e       	mov	r0, r31
    19c6:	f3 e0       	ldi	r31, 0x03	; 3
    19c8:	ef 2e       	mov	r14, r31
    19ca:	f1 e0       	ldi	r31, 0x01	; 1
    19cc:	ff 2e       	mov	r15, r31
    19ce:	f0 2d       	mov	r31, r0
    19d0:	21 e0       	ldi	r18, 0x01	; 1
    19d2:	30 e0       	ldi	r19, 0x00	; 0
    19d4:	86 e4       	ldi	r24, 0x46	; 70
    19d6:	97 e0       	ldi	r25, 0x07	; 7
    19d8:	0e 94 f2 38 	call	0x71e4	; 0x71e4 <_ZN4OLED19OLED_Write_To_BuferEiiiiPKh>
    19dc:	4a 85       	ldd	r20, Y+10	; 0x0a
    19de:	5b 85       	ldd	r21, Y+11	; 0x0b
    19e0:	4f 5f       	subi	r20, 0xFF	; 255
    19e2:	5f 4f       	sbci	r21, 0xFF	; 255
    19e4:	68 85       	ldd	r22, Y+8	; 0x08
    19e6:	79 85       	ldd	r23, Y+9	; 0x09
    19e8:	68 5f       	subi	r22, 0xF8	; 248
    19ea:	7f 4f       	sbci	r23, 0xFF	; 255
    19ec:	21 e0       	ldi	r18, 0x01	; 1
    19ee:	30 e0       	ldi	r19, 0x00	; 0
    19f0:	86 e4       	ldi	r24, 0x46	; 70
    19f2:	97 e0       	ldi	r25, 0x07	; 7
    19f4:	0e 94 f2 38 	call	0x71e4	; 0x71e4 <_ZN4OLED19OLED_Write_To_BuferEiiiiPKh>
    19f8:	4a 85       	ldd	r20, Y+10	; 0x0a
    19fa:	5b 85       	ldd	r21, Y+11	; 0x0b
    19fc:	4f 5f       	subi	r20, 0xFF	; 255
    19fe:	5f 4f       	sbci	r21, 0xFF	; 255
    1a00:	68 85       	ldd	r22, Y+8	; 0x08
    1a02:	79 85       	ldd	r23, Y+9	; 0x09
    1a04:	60 5f       	subi	r22, 0xF0	; 240
    1a06:	7f 4f       	sbci	r23, 0xFF	; 255
    1a08:	21 e0       	ldi	r18, 0x01	; 1
    1a0a:	30 e0       	ldi	r19, 0x00	; 0
    1a0c:	86 e4       	ldi	r24, 0x46	; 70
    1a0e:	97 e0       	ldi	r25, 0x07	; 7
    1a10:	0e 94 f2 38 	call	0x71e4	; 0x71e4 <_ZN4OLED19OLED_Write_To_BuferEiiiiPKh>
    1a14:	4a 85       	ldd	r20, Y+10	; 0x0a
    1a16:	5b 85       	ldd	r21, Y+11	; 0x0b
    1a18:	4f 5f       	subi	r20, 0xFF	; 255
    1a1a:	5f 4f       	sbci	r21, 0xFF	; 255
    1a1c:	68 85       	ldd	r22, Y+8	; 0x08
    1a1e:	79 85       	ldd	r23, Y+9	; 0x09
    1a20:	68 5e       	subi	r22, 0xE8	; 232
    1a22:	7f 4f       	sbci	r23, 0xFF	; 255
    1a24:	21 e0       	ldi	r18, 0x01	; 1
    1a26:	30 e0       	ldi	r19, 0x00	; 0
    1a28:	86 e4       	ldi	r24, 0x46	; 70
    1a2a:	97 e0       	ldi	r25, 0x07	; 7
    1a2c:	0e 94 f2 38 	call	0x71e4	; 0x71e4 <_ZN4OLED19OLED_Write_To_BuferEiiiiPKh>
    1a30:	4a 85       	ldd	r20, Y+10	; 0x0a
    1a32:	5b 85       	ldd	r21, Y+11	; 0x0b
    1a34:	4f 5f       	subi	r20, 0xFF	; 255
    1a36:	5f 4f       	sbci	r21, 0xFF	; 255
    1a38:	68 85       	ldd	r22, Y+8	; 0x08
    1a3a:	79 85       	ldd	r23, Y+9	; 0x09
    1a3c:	60 5e       	subi	r22, 0xE0	; 224
    1a3e:	7f 4f       	sbci	r23, 0xFF	; 255
    1a40:	21 e0       	ldi	r18, 0x01	; 1
    1a42:	30 e0       	ldi	r19, 0x00	; 0
    1a44:	86 e4       	ldi	r24, 0x46	; 70
    1a46:	97 e0       	ldi	r25, 0x07	; 7
    1a48:	0e 94 f2 38 	call	0x71e4	; 0x71e4 <_ZN4OLED19OLED_Write_To_BuferEiiiiPKh>
    1a4c:	4a 85       	ldd	r20, Y+10	; 0x0a
    1a4e:	5b 85       	ldd	r21, Y+11	; 0x0b
    1a50:	4f 5f       	subi	r20, 0xFF	; 255
    1a52:	5f 4f       	sbci	r21, 0xFF	; 255
    1a54:	68 85       	ldd	r22, Y+8	; 0x08
    1a56:	79 85       	ldd	r23, Y+9	; 0x09
    1a58:	68 5d       	subi	r22, 0xD8	; 216
    1a5a:	7f 4f       	sbci	r23, 0xFF	; 255
    1a5c:	21 e0       	ldi	r18, 0x01	; 1
    1a5e:	30 e0       	ldi	r19, 0x00	; 0
    1a60:	86 e4       	ldi	r24, 0x46	; 70
    1a62:	97 e0       	ldi	r25, 0x07	; 7
    1a64:	0e 94 f2 38 	call	0x71e4	; 0x71e4 <_ZN4OLED19OLED_Write_To_BuferEiiiiPKh>
    1a68:	4a 85       	ldd	r20, Y+10	; 0x0a
    1a6a:	5b 85       	ldd	r21, Y+11	; 0x0b
    1a6c:	4f 5f       	subi	r20, 0xFF	; 255
    1a6e:	5f 4f       	sbci	r21, 0xFF	; 255
    1a70:	68 85       	ldd	r22, Y+8	; 0x08
    1a72:	79 85       	ldd	r23, Y+9	; 0x09
    1a74:	60 5d       	subi	r22, 0xD0	; 208
    1a76:	7f 4f       	sbci	r23, 0xFF	; 255
    1a78:	21 e0       	ldi	r18, 0x01	; 1
    1a7a:	30 e0       	ldi	r19, 0x00	; 0
    1a7c:	86 e4       	ldi	r24, 0x46	; 70
    1a7e:	97 e0       	ldi	r25, 0x07	; 7
    1a80:	0e 94 f2 38 	call	0x71e4	; 0x71e4 <_ZN4OLED19OLED_Write_To_BuferEiiiiPKh>
    1a84:	b2 c1       	rjmp	.+868    	; 0x1dea <_ZN10Bright_set7actionsEv+0x9da>
    1a86:	4a 85       	ldd	r20, Y+10	; 0x0a
    1a88:	5b 85       	ldd	r21, Y+11	; 0x0b
    1a8a:	4f 5f       	subi	r20, 0xFF	; 255
    1a8c:	5f 4f       	sbci	r21, 0xFF	; 255
    1a8e:	68 85       	ldd	r22, Y+8	; 0x08
    1a90:	79 85       	ldd	r23, Y+9	; 0x09
    1a92:	00 e1       	ldi	r16, 0x10	; 16
    1a94:	10 e0       	ldi	r17, 0x00	; 0
    1a96:	2a e0       	ldi	r18, 0x0A	; 10
    1a98:	30 e0       	ldi	r19, 0x00	; 0
    1a9a:	86 e4       	ldi	r24, 0x46	; 70
    1a9c:	97 e0       	ldi	r25, 0x07	; 7
    1a9e:	0e 94 a3 38 	call	0x7146	; 0x7146 <_ZN4OLED21OLED_Clear_Bufer_partEiiii>
    1aa2:	4a 85       	ldd	r20, Y+10	; 0x0a
    1aa4:	5b 85       	ldd	r21, Y+11	; 0x0b
    1aa6:	4f 5f       	subi	r20, 0xFF	; 255
    1aa8:	5f 4f       	sbci	r21, 0xFF	; 255
    1aaa:	68 85       	ldd	r22, Y+8	; 0x08
    1aac:	79 85       	ldd	r23, Y+9	; 0x09
    1aae:	0f 2e       	mov	r0, r31
    1ab0:	f3 e0       	ldi	r31, 0x03	; 3
    1ab2:	ef 2e       	mov	r14, r31
    1ab4:	f1 e0       	ldi	r31, 0x01	; 1
    1ab6:	ff 2e       	mov	r15, r31
    1ab8:	f0 2d       	mov	r31, r0
    1aba:	21 e0       	ldi	r18, 0x01	; 1
    1abc:	30 e0       	ldi	r19, 0x00	; 0
    1abe:	86 e4       	ldi	r24, 0x46	; 70
    1ac0:	97 e0       	ldi	r25, 0x07	; 7
    1ac2:	0e 94 f2 38 	call	0x71e4	; 0x71e4 <_ZN4OLED19OLED_Write_To_BuferEiiiiPKh>
    1ac6:	4a 85       	ldd	r20, Y+10	; 0x0a
    1ac8:	5b 85       	ldd	r21, Y+11	; 0x0b
    1aca:	4f 5f       	subi	r20, 0xFF	; 255
    1acc:	5f 4f       	sbci	r21, 0xFF	; 255
    1ace:	68 85       	ldd	r22, Y+8	; 0x08
    1ad0:	79 85       	ldd	r23, Y+9	; 0x09
    1ad2:	68 5f       	subi	r22, 0xF8	; 248
    1ad4:	7f 4f       	sbci	r23, 0xFF	; 255
    1ad6:	21 e0       	ldi	r18, 0x01	; 1
    1ad8:	30 e0       	ldi	r19, 0x00	; 0
    1ada:	86 e4       	ldi	r24, 0x46	; 70
    1adc:	97 e0       	ldi	r25, 0x07	; 7
    1ade:	0e 94 f2 38 	call	0x71e4	; 0x71e4 <_ZN4OLED19OLED_Write_To_BuferEiiiiPKh>
    1ae2:	4a 85       	ldd	r20, Y+10	; 0x0a
    1ae4:	5b 85       	ldd	r21, Y+11	; 0x0b
    1ae6:	4f 5f       	subi	r20, 0xFF	; 255
    1ae8:	5f 4f       	sbci	r21, 0xFF	; 255
    1aea:	68 85       	ldd	r22, Y+8	; 0x08
    1aec:	79 85       	ldd	r23, Y+9	; 0x09
    1aee:	60 5f       	subi	r22, 0xF0	; 240
    1af0:	7f 4f       	sbci	r23, 0xFF	; 255
    1af2:	21 e0       	ldi	r18, 0x01	; 1
    1af4:	30 e0       	ldi	r19, 0x00	; 0
    1af6:	86 e4       	ldi	r24, 0x46	; 70
    1af8:	97 e0       	ldi	r25, 0x07	; 7
    1afa:	0e 94 f2 38 	call	0x71e4	; 0x71e4 <_ZN4OLED19OLED_Write_To_BuferEiiiiPKh>
    1afe:	4a 85       	ldd	r20, Y+10	; 0x0a
    1b00:	5b 85       	ldd	r21, Y+11	; 0x0b
    1b02:	4f 5f       	subi	r20, 0xFF	; 255
    1b04:	5f 4f       	sbci	r21, 0xFF	; 255
    1b06:	68 85       	ldd	r22, Y+8	; 0x08
    1b08:	79 85       	ldd	r23, Y+9	; 0x09
    1b0a:	68 5e       	subi	r22, 0xE8	; 232
    1b0c:	7f 4f       	sbci	r23, 0xFF	; 255
    1b0e:	21 e0       	ldi	r18, 0x01	; 1
    1b10:	30 e0       	ldi	r19, 0x00	; 0
    1b12:	86 e4       	ldi	r24, 0x46	; 70
    1b14:	97 e0       	ldi	r25, 0x07	; 7
    1b16:	0e 94 f2 38 	call	0x71e4	; 0x71e4 <_ZN4OLED19OLED_Write_To_BuferEiiiiPKh>
    1b1a:	4a 85       	ldd	r20, Y+10	; 0x0a
    1b1c:	5b 85       	ldd	r21, Y+11	; 0x0b
    1b1e:	4f 5f       	subi	r20, 0xFF	; 255
    1b20:	5f 4f       	sbci	r21, 0xFF	; 255
    1b22:	68 85       	ldd	r22, Y+8	; 0x08
    1b24:	79 85       	ldd	r23, Y+9	; 0x09
    1b26:	60 5e       	subi	r22, 0xE0	; 224
    1b28:	7f 4f       	sbci	r23, 0xFF	; 255
    1b2a:	21 e0       	ldi	r18, 0x01	; 1
    1b2c:	30 e0       	ldi	r19, 0x00	; 0
    1b2e:	86 e4       	ldi	r24, 0x46	; 70
    1b30:	97 e0       	ldi	r25, 0x07	; 7
    1b32:	0e 94 f2 38 	call	0x71e4	; 0x71e4 <_ZN4OLED19OLED_Write_To_BuferEiiiiPKh>
    1b36:	4a 85       	ldd	r20, Y+10	; 0x0a
    1b38:	5b 85       	ldd	r21, Y+11	; 0x0b
    1b3a:	4f 5f       	subi	r20, 0xFF	; 255
    1b3c:	5f 4f       	sbci	r21, 0xFF	; 255
    1b3e:	68 85       	ldd	r22, Y+8	; 0x08
    1b40:	79 85       	ldd	r23, Y+9	; 0x09
    1b42:	68 5d       	subi	r22, 0xD8	; 216
    1b44:	7f 4f       	sbci	r23, 0xFF	; 255
    1b46:	21 e0       	ldi	r18, 0x01	; 1
    1b48:	30 e0       	ldi	r19, 0x00	; 0
    1b4a:	86 e4       	ldi	r24, 0x46	; 70
    1b4c:	97 e0       	ldi	r25, 0x07	; 7
    1b4e:	0e 94 f2 38 	call	0x71e4	; 0x71e4 <_ZN4OLED19OLED_Write_To_BuferEiiiiPKh>
    1b52:	4a 85       	ldd	r20, Y+10	; 0x0a
    1b54:	5b 85       	ldd	r21, Y+11	; 0x0b
    1b56:	4f 5f       	subi	r20, 0xFF	; 255
    1b58:	5f 4f       	sbci	r21, 0xFF	; 255
    1b5a:	68 85       	ldd	r22, Y+8	; 0x08
    1b5c:	79 85       	ldd	r23, Y+9	; 0x09
    1b5e:	60 5d       	subi	r22, 0xD0	; 208
    1b60:	7f 4f       	sbci	r23, 0xFF	; 255
    1b62:	21 e0       	ldi	r18, 0x01	; 1
    1b64:	30 e0       	ldi	r19, 0x00	; 0
    1b66:	86 e4       	ldi	r24, 0x46	; 70
    1b68:	97 e0       	ldi	r25, 0x07	; 7
    1b6a:	0e 94 f2 38 	call	0x71e4	; 0x71e4 <_ZN4OLED19OLED_Write_To_BuferEiiiiPKh>
    1b6e:	4a 85       	ldd	r20, Y+10	; 0x0a
    1b70:	5b 85       	ldd	r21, Y+11	; 0x0b
    1b72:	4f 5f       	subi	r20, 0xFF	; 255
    1b74:	5f 4f       	sbci	r21, 0xFF	; 255
    1b76:	68 85       	ldd	r22, Y+8	; 0x08
    1b78:	79 85       	ldd	r23, Y+9	; 0x09
    1b7a:	68 5c       	subi	r22, 0xC8	; 200
    1b7c:	7f 4f       	sbci	r23, 0xFF	; 255
    1b7e:	21 e0       	ldi	r18, 0x01	; 1
    1b80:	30 e0       	ldi	r19, 0x00	; 0
    1b82:	86 e4       	ldi	r24, 0x46	; 70
    1b84:	97 e0       	ldi	r25, 0x07	; 7
    1b86:	0e 94 f2 38 	call	0x71e4	; 0x71e4 <_ZN4OLED19OLED_Write_To_BuferEiiiiPKh>
    1b8a:	2f c1       	rjmp	.+606    	; 0x1dea <_ZN10Bright_set7actionsEv+0x9da>
    1b8c:	4a 85       	ldd	r20, Y+10	; 0x0a
    1b8e:	5b 85       	ldd	r21, Y+11	; 0x0b
    1b90:	4f 5f       	subi	r20, 0xFF	; 255
    1b92:	5f 4f       	sbci	r21, 0xFF	; 255
    1b94:	68 85       	ldd	r22, Y+8	; 0x08
    1b96:	79 85       	ldd	r23, Y+9	; 0x09
    1b98:	00 e1       	ldi	r16, 0x10	; 16
    1b9a:	10 e0       	ldi	r17, 0x00	; 0
    1b9c:	2a e0       	ldi	r18, 0x0A	; 10
    1b9e:	30 e0       	ldi	r19, 0x00	; 0
    1ba0:	86 e4       	ldi	r24, 0x46	; 70
    1ba2:	97 e0       	ldi	r25, 0x07	; 7
    1ba4:	0e 94 a3 38 	call	0x7146	; 0x7146 <_ZN4OLED21OLED_Clear_Bufer_partEiiii>
    1ba8:	4a 85       	ldd	r20, Y+10	; 0x0a
    1baa:	5b 85       	ldd	r21, Y+11	; 0x0b
    1bac:	4f 5f       	subi	r20, 0xFF	; 255
    1bae:	5f 4f       	sbci	r21, 0xFF	; 255
    1bb0:	68 85       	ldd	r22, Y+8	; 0x08
    1bb2:	79 85       	ldd	r23, Y+9	; 0x09
    1bb4:	0f 2e       	mov	r0, r31
    1bb6:	f3 e0       	ldi	r31, 0x03	; 3
    1bb8:	ef 2e       	mov	r14, r31
    1bba:	f1 e0       	ldi	r31, 0x01	; 1
    1bbc:	ff 2e       	mov	r15, r31
    1bbe:	f0 2d       	mov	r31, r0
    1bc0:	21 e0       	ldi	r18, 0x01	; 1
    1bc2:	30 e0       	ldi	r19, 0x00	; 0
    1bc4:	86 e4       	ldi	r24, 0x46	; 70
    1bc6:	97 e0       	ldi	r25, 0x07	; 7
    1bc8:	0e 94 f2 38 	call	0x71e4	; 0x71e4 <_ZN4OLED19OLED_Write_To_BuferEiiiiPKh>
    1bcc:	4a 85       	ldd	r20, Y+10	; 0x0a
    1bce:	5b 85       	ldd	r21, Y+11	; 0x0b
    1bd0:	4f 5f       	subi	r20, 0xFF	; 255
    1bd2:	5f 4f       	sbci	r21, 0xFF	; 255
    1bd4:	68 85       	ldd	r22, Y+8	; 0x08
    1bd6:	79 85       	ldd	r23, Y+9	; 0x09
    1bd8:	68 5f       	subi	r22, 0xF8	; 248
    1bda:	7f 4f       	sbci	r23, 0xFF	; 255
    1bdc:	21 e0       	ldi	r18, 0x01	; 1
    1bde:	30 e0       	ldi	r19, 0x00	; 0
    1be0:	86 e4       	ldi	r24, 0x46	; 70
    1be2:	97 e0       	ldi	r25, 0x07	; 7
    1be4:	0e 94 f2 38 	call	0x71e4	; 0x71e4 <_ZN4OLED19OLED_Write_To_BuferEiiiiPKh>
    1be8:	4a 85       	ldd	r20, Y+10	; 0x0a
    1bea:	5b 85       	ldd	r21, Y+11	; 0x0b
    1bec:	4f 5f       	subi	r20, 0xFF	; 255
    1bee:	5f 4f       	sbci	r21, 0xFF	; 255
    1bf0:	68 85       	ldd	r22, Y+8	; 0x08
    1bf2:	79 85       	ldd	r23, Y+9	; 0x09
    1bf4:	60 5f       	subi	r22, 0xF0	; 240
    1bf6:	7f 4f       	sbci	r23, 0xFF	; 255
    1bf8:	21 e0       	ldi	r18, 0x01	; 1
    1bfa:	30 e0       	ldi	r19, 0x00	; 0
    1bfc:	86 e4       	ldi	r24, 0x46	; 70
    1bfe:	97 e0       	ldi	r25, 0x07	; 7
    1c00:	0e 94 f2 38 	call	0x71e4	; 0x71e4 <_ZN4OLED19OLED_Write_To_BuferEiiiiPKh>
    1c04:	4a 85       	ldd	r20, Y+10	; 0x0a
    1c06:	5b 85       	ldd	r21, Y+11	; 0x0b
    1c08:	4f 5f       	subi	r20, 0xFF	; 255
    1c0a:	5f 4f       	sbci	r21, 0xFF	; 255
    1c0c:	68 85       	ldd	r22, Y+8	; 0x08
    1c0e:	79 85       	ldd	r23, Y+9	; 0x09
    1c10:	68 5e       	subi	r22, 0xE8	; 232
    1c12:	7f 4f       	sbci	r23, 0xFF	; 255
    1c14:	21 e0       	ldi	r18, 0x01	; 1
    1c16:	30 e0       	ldi	r19, 0x00	; 0
    1c18:	86 e4       	ldi	r24, 0x46	; 70
    1c1a:	97 e0       	ldi	r25, 0x07	; 7
    1c1c:	0e 94 f2 38 	call	0x71e4	; 0x71e4 <_ZN4OLED19OLED_Write_To_BuferEiiiiPKh>
    1c20:	4a 85       	ldd	r20, Y+10	; 0x0a
    1c22:	5b 85       	ldd	r21, Y+11	; 0x0b
    1c24:	4f 5f       	subi	r20, 0xFF	; 255
    1c26:	5f 4f       	sbci	r21, 0xFF	; 255
    1c28:	68 85       	ldd	r22, Y+8	; 0x08
    1c2a:	79 85       	ldd	r23, Y+9	; 0x09
    1c2c:	60 5e       	subi	r22, 0xE0	; 224
    1c2e:	7f 4f       	sbci	r23, 0xFF	; 255
    1c30:	21 e0       	ldi	r18, 0x01	; 1
    1c32:	30 e0       	ldi	r19, 0x00	; 0
    1c34:	86 e4       	ldi	r24, 0x46	; 70
    1c36:	97 e0       	ldi	r25, 0x07	; 7
    1c38:	0e 94 f2 38 	call	0x71e4	; 0x71e4 <_ZN4OLED19OLED_Write_To_BuferEiiiiPKh>
    1c3c:	4a 85       	ldd	r20, Y+10	; 0x0a
    1c3e:	5b 85       	ldd	r21, Y+11	; 0x0b
    1c40:	4f 5f       	subi	r20, 0xFF	; 255
    1c42:	5f 4f       	sbci	r21, 0xFF	; 255
    1c44:	68 85       	ldd	r22, Y+8	; 0x08
    1c46:	79 85       	ldd	r23, Y+9	; 0x09
    1c48:	68 5d       	subi	r22, 0xD8	; 216
    1c4a:	7f 4f       	sbci	r23, 0xFF	; 255
    1c4c:	21 e0       	ldi	r18, 0x01	; 1
    1c4e:	30 e0       	ldi	r19, 0x00	; 0
    1c50:	86 e4       	ldi	r24, 0x46	; 70
    1c52:	97 e0       	ldi	r25, 0x07	; 7
    1c54:	0e 94 f2 38 	call	0x71e4	; 0x71e4 <_ZN4OLED19OLED_Write_To_BuferEiiiiPKh>
    1c58:	4a 85       	ldd	r20, Y+10	; 0x0a
    1c5a:	5b 85       	ldd	r21, Y+11	; 0x0b
    1c5c:	4f 5f       	subi	r20, 0xFF	; 255
    1c5e:	5f 4f       	sbci	r21, 0xFF	; 255
    1c60:	68 85       	ldd	r22, Y+8	; 0x08
    1c62:	79 85       	ldd	r23, Y+9	; 0x09
    1c64:	60 5d       	subi	r22, 0xD0	; 208
    1c66:	7f 4f       	sbci	r23, 0xFF	; 255
    1c68:	21 e0       	ldi	r18, 0x01	; 1
    1c6a:	30 e0       	ldi	r19, 0x00	; 0
    1c6c:	86 e4       	ldi	r24, 0x46	; 70
    1c6e:	97 e0       	ldi	r25, 0x07	; 7
    1c70:	0e 94 f2 38 	call	0x71e4	; 0x71e4 <_ZN4OLED19OLED_Write_To_BuferEiiiiPKh>
    1c74:	4a 85       	ldd	r20, Y+10	; 0x0a
    1c76:	5b 85       	ldd	r21, Y+11	; 0x0b
    1c78:	4f 5f       	subi	r20, 0xFF	; 255
    1c7a:	5f 4f       	sbci	r21, 0xFF	; 255
    1c7c:	68 85       	ldd	r22, Y+8	; 0x08
    1c7e:	79 85       	ldd	r23, Y+9	; 0x09
    1c80:	68 5c       	subi	r22, 0xC8	; 200
    1c82:	7f 4f       	sbci	r23, 0xFF	; 255
    1c84:	21 e0       	ldi	r18, 0x01	; 1
    1c86:	30 e0       	ldi	r19, 0x00	; 0
    1c88:	86 e4       	ldi	r24, 0x46	; 70
    1c8a:	97 e0       	ldi	r25, 0x07	; 7
    1c8c:	0e 94 f2 38 	call	0x71e4	; 0x71e4 <_ZN4OLED19OLED_Write_To_BuferEiiiiPKh>
    1c90:	4a 85       	ldd	r20, Y+10	; 0x0a
    1c92:	5b 85       	ldd	r21, Y+11	; 0x0b
    1c94:	4f 5f       	subi	r20, 0xFF	; 255
    1c96:	5f 4f       	sbci	r21, 0xFF	; 255
    1c98:	68 85       	ldd	r22, Y+8	; 0x08
    1c9a:	79 85       	ldd	r23, Y+9	; 0x09
    1c9c:	60 5c       	subi	r22, 0xC0	; 192
    1c9e:	7f 4f       	sbci	r23, 0xFF	; 255
    1ca0:	21 e0       	ldi	r18, 0x01	; 1
    1ca2:	30 e0       	ldi	r19, 0x00	; 0
    1ca4:	86 e4       	ldi	r24, 0x46	; 70
    1ca6:	97 e0       	ldi	r25, 0x07	; 7
    1ca8:	0e 94 f2 38 	call	0x71e4	; 0x71e4 <_ZN4OLED19OLED_Write_To_BuferEiiiiPKh>
    1cac:	9e c0       	rjmp	.+316    	; 0x1dea <_ZN10Bright_set7actionsEv+0x9da>
    1cae:	4a 85       	ldd	r20, Y+10	; 0x0a
    1cb0:	5b 85       	ldd	r21, Y+11	; 0x0b
    1cb2:	4f 5f       	subi	r20, 0xFF	; 255
    1cb4:	5f 4f       	sbci	r21, 0xFF	; 255
    1cb6:	68 85       	ldd	r22, Y+8	; 0x08
    1cb8:	79 85       	ldd	r23, Y+9	; 0x09
    1cba:	00 e1       	ldi	r16, 0x10	; 16
    1cbc:	10 e0       	ldi	r17, 0x00	; 0
    1cbe:	2a e0       	ldi	r18, 0x0A	; 10
    1cc0:	30 e0       	ldi	r19, 0x00	; 0
    1cc2:	86 e4       	ldi	r24, 0x46	; 70
    1cc4:	97 e0       	ldi	r25, 0x07	; 7
    1cc6:	0e 94 a3 38 	call	0x7146	; 0x7146 <_ZN4OLED21OLED_Clear_Bufer_partEiiii>
    1cca:	4a 85       	ldd	r20, Y+10	; 0x0a
    1ccc:	5b 85       	ldd	r21, Y+11	; 0x0b
    1cce:	4f 5f       	subi	r20, 0xFF	; 255
    1cd0:	5f 4f       	sbci	r21, 0xFF	; 255
    1cd2:	68 85       	ldd	r22, Y+8	; 0x08
    1cd4:	79 85       	ldd	r23, Y+9	; 0x09
    1cd6:	0f 2e       	mov	r0, r31
    1cd8:	f3 e0       	ldi	r31, 0x03	; 3
    1cda:	ef 2e       	mov	r14, r31
    1cdc:	f1 e0       	ldi	r31, 0x01	; 1
    1cde:	ff 2e       	mov	r15, r31
    1ce0:	f0 2d       	mov	r31, r0
    1ce2:	21 e0       	ldi	r18, 0x01	; 1
    1ce4:	30 e0       	ldi	r19, 0x00	; 0
    1ce6:	86 e4       	ldi	r24, 0x46	; 70
    1ce8:	97 e0       	ldi	r25, 0x07	; 7
    1cea:	0e 94 f2 38 	call	0x71e4	; 0x71e4 <_ZN4OLED19OLED_Write_To_BuferEiiiiPKh>
    1cee:	4a 85       	ldd	r20, Y+10	; 0x0a
    1cf0:	5b 85       	ldd	r21, Y+11	; 0x0b
    1cf2:	4f 5f       	subi	r20, 0xFF	; 255
    1cf4:	5f 4f       	sbci	r21, 0xFF	; 255
    1cf6:	68 85       	ldd	r22, Y+8	; 0x08
    1cf8:	79 85       	ldd	r23, Y+9	; 0x09
    1cfa:	68 5f       	subi	r22, 0xF8	; 248
    1cfc:	7f 4f       	sbci	r23, 0xFF	; 255
    1cfe:	21 e0       	ldi	r18, 0x01	; 1
    1d00:	30 e0       	ldi	r19, 0x00	; 0
    1d02:	86 e4       	ldi	r24, 0x46	; 70
    1d04:	97 e0       	ldi	r25, 0x07	; 7
    1d06:	0e 94 f2 38 	call	0x71e4	; 0x71e4 <_ZN4OLED19OLED_Write_To_BuferEiiiiPKh>
    1d0a:	4a 85       	ldd	r20, Y+10	; 0x0a
    1d0c:	5b 85       	ldd	r21, Y+11	; 0x0b
    1d0e:	4f 5f       	subi	r20, 0xFF	; 255
    1d10:	5f 4f       	sbci	r21, 0xFF	; 255
    1d12:	68 85       	ldd	r22, Y+8	; 0x08
    1d14:	79 85       	ldd	r23, Y+9	; 0x09
    1d16:	60 5f       	subi	r22, 0xF0	; 240
    1d18:	7f 4f       	sbci	r23, 0xFF	; 255
    1d1a:	21 e0       	ldi	r18, 0x01	; 1
    1d1c:	30 e0       	ldi	r19, 0x00	; 0
    1d1e:	86 e4       	ldi	r24, 0x46	; 70
    1d20:	97 e0       	ldi	r25, 0x07	; 7
    1d22:	0e 94 f2 38 	call	0x71e4	; 0x71e4 <_ZN4OLED19OLED_Write_To_BuferEiiiiPKh>
    1d26:	4a 85       	ldd	r20, Y+10	; 0x0a
    1d28:	5b 85       	ldd	r21, Y+11	; 0x0b
    1d2a:	4f 5f       	subi	r20, 0xFF	; 255
    1d2c:	5f 4f       	sbci	r21, 0xFF	; 255
    1d2e:	68 85       	ldd	r22, Y+8	; 0x08
    1d30:	79 85       	ldd	r23, Y+9	; 0x09
    1d32:	68 5e       	subi	r22, 0xE8	; 232
    1d34:	7f 4f       	sbci	r23, 0xFF	; 255
    1d36:	21 e0       	ldi	r18, 0x01	; 1
    1d38:	30 e0       	ldi	r19, 0x00	; 0
    1d3a:	86 e4       	ldi	r24, 0x46	; 70
    1d3c:	97 e0       	ldi	r25, 0x07	; 7
    1d3e:	0e 94 f2 38 	call	0x71e4	; 0x71e4 <_ZN4OLED19OLED_Write_To_BuferEiiiiPKh>
    1d42:	4a 85       	ldd	r20, Y+10	; 0x0a
    1d44:	5b 85       	ldd	r21, Y+11	; 0x0b
    1d46:	4f 5f       	subi	r20, 0xFF	; 255
    1d48:	5f 4f       	sbci	r21, 0xFF	; 255
    1d4a:	68 85       	ldd	r22, Y+8	; 0x08
    1d4c:	79 85       	ldd	r23, Y+9	; 0x09
    1d4e:	60 5e       	subi	r22, 0xE0	; 224
    1d50:	7f 4f       	sbci	r23, 0xFF	; 255
    1d52:	21 e0       	ldi	r18, 0x01	; 1
    1d54:	30 e0       	ldi	r19, 0x00	; 0
    1d56:	86 e4       	ldi	r24, 0x46	; 70
    1d58:	97 e0       	ldi	r25, 0x07	; 7
    1d5a:	0e 94 f2 38 	call	0x71e4	; 0x71e4 <_ZN4OLED19OLED_Write_To_BuferEiiiiPKh>
    1d5e:	4a 85       	ldd	r20, Y+10	; 0x0a
    1d60:	5b 85       	ldd	r21, Y+11	; 0x0b
    1d62:	4f 5f       	subi	r20, 0xFF	; 255
    1d64:	5f 4f       	sbci	r21, 0xFF	; 255
    1d66:	68 85       	ldd	r22, Y+8	; 0x08
    1d68:	79 85       	ldd	r23, Y+9	; 0x09
    1d6a:	68 5d       	subi	r22, 0xD8	; 216
    1d6c:	7f 4f       	sbci	r23, 0xFF	; 255
    1d6e:	21 e0       	ldi	r18, 0x01	; 1
    1d70:	30 e0       	ldi	r19, 0x00	; 0
    1d72:	86 e4       	ldi	r24, 0x46	; 70
    1d74:	97 e0       	ldi	r25, 0x07	; 7
    1d76:	0e 94 f2 38 	call	0x71e4	; 0x71e4 <_ZN4OLED19OLED_Write_To_BuferEiiiiPKh>
    1d7a:	4a 85       	ldd	r20, Y+10	; 0x0a
    1d7c:	5b 85       	ldd	r21, Y+11	; 0x0b
    1d7e:	4f 5f       	subi	r20, 0xFF	; 255
    1d80:	5f 4f       	sbci	r21, 0xFF	; 255
    1d82:	68 85       	ldd	r22, Y+8	; 0x08
    1d84:	79 85       	ldd	r23, Y+9	; 0x09
    1d86:	60 5d       	subi	r22, 0xD0	; 208
    1d88:	7f 4f       	sbci	r23, 0xFF	; 255
    1d8a:	21 e0       	ldi	r18, 0x01	; 1
    1d8c:	30 e0       	ldi	r19, 0x00	; 0
    1d8e:	86 e4       	ldi	r24, 0x46	; 70
    1d90:	97 e0       	ldi	r25, 0x07	; 7
    1d92:	0e 94 f2 38 	call	0x71e4	; 0x71e4 <_ZN4OLED19OLED_Write_To_BuferEiiiiPKh>
    1d96:	4a 85       	ldd	r20, Y+10	; 0x0a
    1d98:	5b 85       	ldd	r21, Y+11	; 0x0b
    1d9a:	4f 5f       	subi	r20, 0xFF	; 255
    1d9c:	5f 4f       	sbci	r21, 0xFF	; 255
    1d9e:	68 85       	ldd	r22, Y+8	; 0x08
    1da0:	79 85       	ldd	r23, Y+9	; 0x09
    1da2:	68 5c       	subi	r22, 0xC8	; 200
    1da4:	7f 4f       	sbci	r23, 0xFF	; 255
    1da6:	21 e0       	ldi	r18, 0x01	; 1
    1da8:	30 e0       	ldi	r19, 0x00	; 0
    1daa:	86 e4       	ldi	r24, 0x46	; 70
    1dac:	97 e0       	ldi	r25, 0x07	; 7
    1dae:	0e 94 f2 38 	call	0x71e4	; 0x71e4 <_ZN4OLED19OLED_Write_To_BuferEiiiiPKh>
    1db2:	4a 85       	ldd	r20, Y+10	; 0x0a
    1db4:	5b 85       	ldd	r21, Y+11	; 0x0b
    1db6:	4f 5f       	subi	r20, 0xFF	; 255
    1db8:	5f 4f       	sbci	r21, 0xFF	; 255
    1dba:	68 85       	ldd	r22, Y+8	; 0x08
    1dbc:	79 85       	ldd	r23, Y+9	; 0x09
    1dbe:	60 5c       	subi	r22, 0xC0	; 192
    1dc0:	7f 4f       	sbci	r23, 0xFF	; 255
    1dc2:	21 e0       	ldi	r18, 0x01	; 1
    1dc4:	30 e0       	ldi	r19, 0x00	; 0
    1dc6:	86 e4       	ldi	r24, 0x46	; 70
    1dc8:	97 e0       	ldi	r25, 0x07	; 7
    1dca:	0e 94 f2 38 	call	0x71e4	; 0x71e4 <_ZN4OLED19OLED_Write_To_BuferEiiiiPKh>
    1dce:	4a 85       	ldd	r20, Y+10	; 0x0a
    1dd0:	5b 85       	ldd	r21, Y+11	; 0x0b
    1dd2:	4f 5f       	subi	r20, 0xFF	; 255
    1dd4:	5f 4f       	sbci	r21, 0xFF	; 255
    1dd6:	68 85       	ldd	r22, Y+8	; 0x08
    1dd8:	79 85       	ldd	r23, Y+9	; 0x09
    1dda:	68 5b       	subi	r22, 0xB8	; 184
    1ddc:	7f 4f       	sbci	r23, 0xFF	; 255
    1dde:	21 e0       	ldi	r18, 0x01	; 1
    1de0:	30 e0       	ldi	r19, 0x00	; 0
    1de2:	86 e4       	ldi	r24, 0x46	; 70
    1de4:	97 e0       	ldi	r25, 0x07	; 7
    1de6:	0e 94 f2 38 	call	0x71e4	; 0x71e4 <_ZN4OLED19OLED_Write_To_BuferEiiiiPKh>
    1dea:	df 91       	pop	r29
    1dec:	cf 91       	pop	r28
    1dee:	1f 91       	pop	r17
    1df0:	0f 91       	pop	r16
    1df2:	ff 90       	pop	r15
    1df4:	ef 90       	pop	r14
    1df6:	08 95       	ret

00001df8 <_ZN9Add_Owner7actionsEv>:
    1df8:	ef 92       	push	r14
    1dfa:	ff 92       	push	r15
    1dfc:	0f 93       	push	r16
    1dfe:	1f 93       	push	r17
    1e00:	cf 93       	push	r28
    1e02:	df 93       	push	r29
    1e04:	ec 01       	movw	r28, r24
    1e06:	90 91 40 07 	lds	r25, 0x0740	; 0x800740 <User_Add_Status>
    1e0a:	99 23       	and	r25, r25
    1e0c:	09 f4       	brne	.+2      	; 0x1e10 <_ZN9Add_Owner7actionsEv+0x18>
    1e0e:	08 c4       	rjmp	.+2064   	; 0x2620 <_ZN9Add_Owner7actionsEv+0x828>
    1e10:	ea 81       	ldd	r30, Y+2	; 0x02
    1e12:	fb 81       	ldd	r31, Y+3	; 0x03
    1e14:	eb 30       	cpi	r30, 0x0B	; 11
    1e16:	f1 05       	cpc	r31, r1
    1e18:	08 f0       	brcs	.+2      	; 0x1e1c <_ZN9Add_Owner7actionsEv+0x24>
    1e1a:	02 c4       	rjmp	.+2052   	; 0x2620 <_ZN9Add_Owner7actionsEv+0x828>
    1e1c:	e4 5a       	subi	r30, 0xA4	; 164
    1e1e:	ff 4f       	sbci	r31, 0xFF	; 255
    1e20:	0c 94 ba 39 	jmp	0x7374	; 0x7374 <__tablejump2__>
    1e24:	4a 8d       	ldd	r20, Y+26	; 0x1a
    1e26:	5b 8d       	ldd	r21, Y+27	; 0x1b
    1e28:	e8 81       	ld	r30, Y
    1e2a:	f9 81       	ldd	r31, Y+1	; 0x01
    1e2c:	32 96       	adiw	r30, 0x02	; 2
    1e2e:	ee 0f       	add	r30, r30
    1e30:	ff 1f       	adc	r31, r31
    1e32:	ec 0f       	add	r30, r28
    1e34:	fd 1f       	adc	r31, r29
    1e36:	60 81       	ld	r22, Z
    1e38:	71 81       	ldd	r23, Z+1	; 0x01
    1e3a:	08 e0       	ldi	r16, 0x08	; 8
    1e3c:	10 e0       	ldi	r17, 0x00	; 0
    1e3e:	21 e0       	ldi	r18, 0x01	; 1
    1e40:	30 e0       	ldi	r19, 0x00	; 0
    1e42:	86 e4       	ldi	r24, 0x46	; 70
    1e44:	97 e0       	ldi	r25, 0x07	; 7
    1e46:	0e 94 a3 38 	call	0x7146	; 0x7146 <_ZN4OLED21OLED_Clear_Bufer_partEiiii>
    1e4a:	4a 8d       	ldd	r20, Y+26	; 0x1a
    1e4c:	5b 8d       	ldd	r21, Y+27	; 0x1b
    1e4e:	e8 81       	ld	r30, Y
    1e50:	f9 81       	ldd	r31, Y+1	; 0x01
    1e52:	32 96       	adiw	r30, 0x02	; 2
    1e54:	ee 0f       	add	r30, r30
    1e56:	ff 1f       	adc	r31, r31
    1e58:	ec 0f       	add	r30, r28
    1e5a:	fd 1f       	adc	r31, r29
    1e5c:	60 81       	ld	r22, Z
    1e5e:	71 81       	ldd	r23, Z+1	; 0x01
    1e60:	0f 2e       	mov	r0, r31
    1e62:	fb e9       	ldi	r31, 0x9B	; 155
    1e64:	ef 2e       	mov	r14, r31
    1e66:	f5 e0       	ldi	r31, 0x05	; 5
    1e68:	ff 2e       	mov	r15, r31
    1e6a:	f0 2d       	mov	r31, r0
    1e6c:	21 e0       	ldi	r18, 0x01	; 1
    1e6e:	30 e0       	ldi	r19, 0x00	; 0
    1e70:	86 e4       	ldi	r24, 0x46	; 70
    1e72:	97 e0       	ldi	r25, 0x07	; 7
    1e74:	0e 94 f2 38 	call	0x71e4	; 0x71e4 <_ZN4OLED19OLED_Write_To_BuferEiiiiPKh>
    1e78:	4a 8d       	ldd	r20, Y+26	; 0x1a
    1e7a:	5b 8d       	ldd	r21, Y+27	; 0x1b
    1e7c:	4e 5f       	subi	r20, 0xFE	; 254
    1e7e:	5f 4f       	sbci	r21, 0xFF	; 255
    1e80:	e8 81       	ld	r30, Y
    1e82:	f9 81       	ldd	r31, Y+1	; 0x01
    1e84:	32 96       	adiw	r30, 0x02	; 2
    1e86:	ee 0f       	add	r30, r30
    1e88:	ff 1f       	adc	r31, r31
    1e8a:	ec 0f       	add	r30, r28
    1e8c:	fd 1f       	adc	r31, r29
    1e8e:	60 81       	ld	r22, Z
    1e90:	71 81       	ldd	r23, Z+1	; 0x01
    1e92:	0f 2e       	mov	r0, r31
    1e94:	f3 e3       	ldi	r31, 0x33	; 51
    1e96:	ef 2e       	mov	r14, r31
    1e98:	f5 e0       	ldi	r31, 0x05	; 5
    1e9a:	ff 2e       	mov	r15, r31
    1e9c:	f0 2d       	mov	r31, r0
    1e9e:	21 e0       	ldi	r18, 0x01	; 1
    1ea0:	30 e0       	ldi	r19, 0x00	; 0
    1ea2:	86 e4       	ldi	r24, 0x46	; 70
    1ea4:	97 e0       	ldi	r25, 0x07	; 7
    1ea6:	0e 94 f2 38 	call	0x71e4	; 0x71e4 <_ZN4OLED19OLED_Write_To_BuferEiiiiPKh>
    1eaa:	4a 8d       	ldd	r20, Y+26	; 0x1a
    1eac:	5b 8d       	ldd	r21, Y+27	; 0x1b
    1eae:	41 50       	subi	r20, 0x01	; 1
    1eb0:	51 09       	sbc	r21, r1
    1eb2:	88 81       	ld	r24, Y
    1eb4:	99 81       	ldd	r25, Y+1	; 0x01
    1eb6:	02 96       	adiw	r24, 0x02	; 2
    1eb8:	88 0f       	add	r24, r24
    1eba:	99 1f       	adc	r25, r25
    1ebc:	c8 0f       	add	r28, r24
    1ebe:	d9 1f       	adc	r29, r25
    1ec0:	68 81       	ld	r22, Y
    1ec2:	79 81       	ldd	r23, Y+1	; 0x01
    1ec4:	0f 2e       	mov	r0, r31
    1ec6:	fb e3       	ldi	r31, 0x3B	; 59
    1ec8:	ef 2e       	mov	r14, r31
    1eca:	f5 e0       	ldi	r31, 0x05	; 5
    1ecc:	ff 2e       	mov	r15, r31
    1ece:	f0 2d       	mov	r31, r0
    1ed0:	21 e0       	ldi	r18, 0x01	; 1
    1ed2:	30 e0       	ldi	r19, 0x00	; 0
    1ed4:	86 e4       	ldi	r24, 0x46	; 70
    1ed6:	97 e0       	ldi	r25, 0x07	; 7
    1ed8:	0e 94 f2 38 	call	0x71e4	; 0x71e4 <_ZN4OLED19OLED_Write_To_BuferEiiiiPKh>
    1edc:	a1 c3       	rjmp	.+1858   	; 0x2620 <_ZN9Add_Owner7actionsEv+0x828>
    1ede:	4a 8d       	ldd	r20, Y+26	; 0x1a
    1ee0:	5b 8d       	ldd	r21, Y+27	; 0x1b
    1ee2:	e8 81       	ld	r30, Y
    1ee4:	f9 81       	ldd	r31, Y+1	; 0x01
    1ee6:	32 96       	adiw	r30, 0x02	; 2
    1ee8:	ee 0f       	add	r30, r30
    1eea:	ff 1f       	adc	r31, r31
    1eec:	ec 0f       	add	r30, r28
    1eee:	fd 1f       	adc	r31, r29
    1ef0:	60 81       	ld	r22, Z
    1ef2:	71 81       	ldd	r23, Z+1	; 0x01
    1ef4:	08 e0       	ldi	r16, 0x08	; 8
    1ef6:	10 e0       	ldi	r17, 0x00	; 0
    1ef8:	21 e0       	ldi	r18, 0x01	; 1
    1efa:	30 e0       	ldi	r19, 0x00	; 0
    1efc:	86 e4       	ldi	r24, 0x46	; 70
    1efe:	97 e0       	ldi	r25, 0x07	; 7
    1f00:	0e 94 a3 38 	call	0x7146	; 0x7146 <_ZN4OLED21OLED_Clear_Bufer_partEiiii>
    1f04:	4a 8d       	ldd	r20, Y+26	; 0x1a
    1f06:	5b 8d       	ldd	r21, Y+27	; 0x1b
    1f08:	e8 81       	ld	r30, Y
    1f0a:	f9 81       	ldd	r31, Y+1	; 0x01
    1f0c:	32 96       	adiw	r30, 0x02	; 2
    1f0e:	ee 0f       	add	r30, r30
    1f10:	ff 1f       	adc	r31, r31
    1f12:	ec 0f       	add	r30, r28
    1f14:	fd 1f       	adc	r31, r29
    1f16:	60 81       	ld	r22, Z
    1f18:	71 81       	ldd	r23, Z+1	; 0x01
    1f1a:	0f 2e       	mov	r0, r31
    1f1c:	f3 e9       	ldi	r31, 0x93	; 147
    1f1e:	ef 2e       	mov	r14, r31
    1f20:	f5 e0       	ldi	r31, 0x05	; 5
    1f22:	ff 2e       	mov	r15, r31
    1f24:	f0 2d       	mov	r31, r0
    1f26:	21 e0       	ldi	r18, 0x01	; 1
    1f28:	30 e0       	ldi	r19, 0x00	; 0
    1f2a:	86 e4       	ldi	r24, 0x46	; 70
    1f2c:	97 e0       	ldi	r25, 0x07	; 7
    1f2e:	0e 94 f2 38 	call	0x71e4	; 0x71e4 <_ZN4OLED19OLED_Write_To_BuferEiiiiPKh>
    1f32:	4a 8d       	ldd	r20, Y+26	; 0x1a
    1f34:	5b 8d       	ldd	r21, Y+27	; 0x1b
    1f36:	4e 5f       	subi	r20, 0xFE	; 254
    1f38:	5f 4f       	sbci	r21, 0xFF	; 255
    1f3a:	e8 81       	ld	r30, Y
    1f3c:	f9 81       	ldd	r31, Y+1	; 0x01
    1f3e:	32 96       	adiw	r30, 0x02	; 2
    1f40:	ee 0f       	add	r30, r30
    1f42:	ff 1f       	adc	r31, r31
    1f44:	ec 0f       	add	r30, r28
    1f46:	fd 1f       	adc	r31, r29
    1f48:	60 81       	ld	r22, Z
    1f4a:	71 81       	ldd	r23, Z+1	; 0x01
    1f4c:	0f 2e       	mov	r0, r31
    1f4e:	f3 e3       	ldi	r31, 0x33	; 51
    1f50:	ef 2e       	mov	r14, r31
    1f52:	f5 e0       	ldi	r31, 0x05	; 5
    1f54:	ff 2e       	mov	r15, r31
    1f56:	f0 2d       	mov	r31, r0
    1f58:	21 e0       	ldi	r18, 0x01	; 1
    1f5a:	30 e0       	ldi	r19, 0x00	; 0
    1f5c:	86 e4       	ldi	r24, 0x46	; 70
    1f5e:	97 e0       	ldi	r25, 0x07	; 7
    1f60:	0e 94 f2 38 	call	0x71e4	; 0x71e4 <_ZN4OLED19OLED_Write_To_BuferEiiiiPKh>
    1f64:	4a 8d       	ldd	r20, Y+26	; 0x1a
    1f66:	5b 8d       	ldd	r21, Y+27	; 0x1b
    1f68:	41 50       	subi	r20, 0x01	; 1
    1f6a:	51 09       	sbc	r21, r1
    1f6c:	88 81       	ld	r24, Y
    1f6e:	99 81       	ldd	r25, Y+1	; 0x01
    1f70:	02 96       	adiw	r24, 0x02	; 2
    1f72:	88 0f       	add	r24, r24
    1f74:	99 1f       	adc	r25, r25
    1f76:	c8 0f       	add	r28, r24
    1f78:	d9 1f       	adc	r29, r25
    1f7a:	68 81       	ld	r22, Y
    1f7c:	79 81       	ldd	r23, Y+1	; 0x01
    1f7e:	0f 2e       	mov	r0, r31
    1f80:	fb e3       	ldi	r31, 0x3B	; 59
    1f82:	ef 2e       	mov	r14, r31
    1f84:	f5 e0       	ldi	r31, 0x05	; 5
    1f86:	ff 2e       	mov	r15, r31
    1f88:	f0 2d       	mov	r31, r0
    1f8a:	21 e0       	ldi	r18, 0x01	; 1
    1f8c:	30 e0       	ldi	r19, 0x00	; 0
    1f8e:	86 e4       	ldi	r24, 0x46	; 70
    1f90:	97 e0       	ldi	r25, 0x07	; 7
    1f92:	0e 94 f2 38 	call	0x71e4	; 0x71e4 <_ZN4OLED19OLED_Write_To_BuferEiiiiPKh>
    1f96:	44 c3       	rjmp	.+1672   	; 0x2620 <_ZN9Add_Owner7actionsEv+0x828>
    1f98:	4a 8d       	ldd	r20, Y+26	; 0x1a
    1f9a:	5b 8d       	ldd	r21, Y+27	; 0x1b
    1f9c:	e8 81       	ld	r30, Y
    1f9e:	f9 81       	ldd	r31, Y+1	; 0x01
    1fa0:	32 96       	adiw	r30, 0x02	; 2
    1fa2:	ee 0f       	add	r30, r30
    1fa4:	ff 1f       	adc	r31, r31
    1fa6:	ec 0f       	add	r30, r28
    1fa8:	fd 1f       	adc	r31, r29
    1faa:	60 81       	ld	r22, Z
    1fac:	71 81       	ldd	r23, Z+1	; 0x01
    1fae:	08 e0       	ldi	r16, 0x08	; 8
    1fb0:	10 e0       	ldi	r17, 0x00	; 0
    1fb2:	21 e0       	ldi	r18, 0x01	; 1
    1fb4:	30 e0       	ldi	r19, 0x00	; 0
    1fb6:	86 e4       	ldi	r24, 0x46	; 70
    1fb8:	97 e0       	ldi	r25, 0x07	; 7
    1fba:	0e 94 a3 38 	call	0x7146	; 0x7146 <_ZN4OLED21OLED_Clear_Bufer_partEiiii>
    1fbe:	4a 8d       	ldd	r20, Y+26	; 0x1a
    1fc0:	5b 8d       	ldd	r21, Y+27	; 0x1b
    1fc2:	e8 81       	ld	r30, Y
    1fc4:	f9 81       	ldd	r31, Y+1	; 0x01
    1fc6:	32 96       	adiw	r30, 0x02	; 2
    1fc8:	ee 0f       	add	r30, r30
    1fca:	ff 1f       	adc	r31, r31
    1fcc:	ec 0f       	add	r30, r28
    1fce:	fd 1f       	adc	r31, r29
    1fd0:	60 81       	ld	r22, Z
    1fd2:	71 81       	ldd	r23, Z+1	; 0x01
    1fd4:	0f 2e       	mov	r0, r31
    1fd6:	fb e8       	ldi	r31, 0x8B	; 139
    1fd8:	ef 2e       	mov	r14, r31
    1fda:	f5 e0       	ldi	r31, 0x05	; 5
    1fdc:	ff 2e       	mov	r15, r31
    1fde:	f0 2d       	mov	r31, r0
    1fe0:	21 e0       	ldi	r18, 0x01	; 1
    1fe2:	30 e0       	ldi	r19, 0x00	; 0
    1fe4:	86 e4       	ldi	r24, 0x46	; 70
    1fe6:	97 e0       	ldi	r25, 0x07	; 7
    1fe8:	0e 94 f2 38 	call	0x71e4	; 0x71e4 <_ZN4OLED19OLED_Write_To_BuferEiiiiPKh>
    1fec:	4a 8d       	ldd	r20, Y+26	; 0x1a
    1fee:	5b 8d       	ldd	r21, Y+27	; 0x1b
    1ff0:	4e 5f       	subi	r20, 0xFE	; 254
    1ff2:	5f 4f       	sbci	r21, 0xFF	; 255
    1ff4:	e8 81       	ld	r30, Y
    1ff6:	f9 81       	ldd	r31, Y+1	; 0x01
    1ff8:	32 96       	adiw	r30, 0x02	; 2
    1ffa:	ee 0f       	add	r30, r30
    1ffc:	ff 1f       	adc	r31, r31
    1ffe:	ec 0f       	add	r30, r28
    2000:	fd 1f       	adc	r31, r29
    2002:	60 81       	ld	r22, Z
    2004:	71 81       	ldd	r23, Z+1	; 0x01
    2006:	0f 2e       	mov	r0, r31
    2008:	f3 e3       	ldi	r31, 0x33	; 51
    200a:	ef 2e       	mov	r14, r31
    200c:	f5 e0       	ldi	r31, 0x05	; 5
    200e:	ff 2e       	mov	r15, r31
    2010:	f0 2d       	mov	r31, r0
    2012:	21 e0       	ldi	r18, 0x01	; 1
    2014:	30 e0       	ldi	r19, 0x00	; 0
    2016:	86 e4       	ldi	r24, 0x46	; 70
    2018:	97 e0       	ldi	r25, 0x07	; 7
    201a:	0e 94 f2 38 	call	0x71e4	; 0x71e4 <_ZN4OLED19OLED_Write_To_BuferEiiiiPKh>
    201e:	4a 8d       	ldd	r20, Y+26	; 0x1a
    2020:	5b 8d       	ldd	r21, Y+27	; 0x1b
    2022:	41 50       	subi	r20, 0x01	; 1
    2024:	51 09       	sbc	r21, r1
    2026:	88 81       	ld	r24, Y
    2028:	99 81       	ldd	r25, Y+1	; 0x01
    202a:	02 96       	adiw	r24, 0x02	; 2
    202c:	88 0f       	add	r24, r24
    202e:	99 1f       	adc	r25, r25
    2030:	c8 0f       	add	r28, r24
    2032:	d9 1f       	adc	r29, r25
    2034:	68 81       	ld	r22, Y
    2036:	79 81       	ldd	r23, Y+1	; 0x01
    2038:	0f 2e       	mov	r0, r31
    203a:	fb e3       	ldi	r31, 0x3B	; 59
    203c:	ef 2e       	mov	r14, r31
    203e:	f5 e0       	ldi	r31, 0x05	; 5
    2040:	ff 2e       	mov	r15, r31
    2042:	f0 2d       	mov	r31, r0
    2044:	21 e0       	ldi	r18, 0x01	; 1
    2046:	30 e0       	ldi	r19, 0x00	; 0
    2048:	86 e4       	ldi	r24, 0x46	; 70
    204a:	97 e0       	ldi	r25, 0x07	; 7
    204c:	0e 94 f2 38 	call	0x71e4	; 0x71e4 <_ZN4OLED19OLED_Write_To_BuferEiiiiPKh>
    2050:	e7 c2       	rjmp	.+1486   	; 0x2620 <_ZN9Add_Owner7actionsEv+0x828>
    2052:	4a 8d       	ldd	r20, Y+26	; 0x1a
    2054:	5b 8d       	ldd	r21, Y+27	; 0x1b
    2056:	e8 81       	ld	r30, Y
    2058:	f9 81       	ldd	r31, Y+1	; 0x01
    205a:	32 96       	adiw	r30, 0x02	; 2
    205c:	ee 0f       	add	r30, r30
    205e:	ff 1f       	adc	r31, r31
    2060:	ec 0f       	add	r30, r28
    2062:	fd 1f       	adc	r31, r29
    2064:	60 81       	ld	r22, Z
    2066:	71 81       	ldd	r23, Z+1	; 0x01
    2068:	08 e0       	ldi	r16, 0x08	; 8
    206a:	10 e0       	ldi	r17, 0x00	; 0
    206c:	21 e0       	ldi	r18, 0x01	; 1
    206e:	30 e0       	ldi	r19, 0x00	; 0
    2070:	86 e4       	ldi	r24, 0x46	; 70
    2072:	97 e0       	ldi	r25, 0x07	; 7
    2074:	0e 94 a3 38 	call	0x7146	; 0x7146 <_ZN4OLED21OLED_Clear_Bufer_partEiiii>
    2078:	4a 8d       	ldd	r20, Y+26	; 0x1a
    207a:	5b 8d       	ldd	r21, Y+27	; 0x1b
    207c:	e8 81       	ld	r30, Y
    207e:	f9 81       	ldd	r31, Y+1	; 0x01
    2080:	32 96       	adiw	r30, 0x02	; 2
    2082:	ee 0f       	add	r30, r30
    2084:	ff 1f       	adc	r31, r31
    2086:	ec 0f       	add	r30, r28
    2088:	fd 1f       	adc	r31, r29
    208a:	60 81       	ld	r22, Z
    208c:	71 81       	ldd	r23, Z+1	; 0x01
    208e:	0f 2e       	mov	r0, r31
    2090:	f3 e8       	ldi	r31, 0x83	; 131
    2092:	ef 2e       	mov	r14, r31
    2094:	f5 e0       	ldi	r31, 0x05	; 5
    2096:	ff 2e       	mov	r15, r31
    2098:	f0 2d       	mov	r31, r0
    209a:	21 e0       	ldi	r18, 0x01	; 1
    209c:	30 e0       	ldi	r19, 0x00	; 0
    209e:	86 e4       	ldi	r24, 0x46	; 70
    20a0:	97 e0       	ldi	r25, 0x07	; 7
    20a2:	0e 94 f2 38 	call	0x71e4	; 0x71e4 <_ZN4OLED19OLED_Write_To_BuferEiiiiPKh>
    20a6:	4a 8d       	ldd	r20, Y+26	; 0x1a
    20a8:	5b 8d       	ldd	r21, Y+27	; 0x1b
    20aa:	4e 5f       	subi	r20, 0xFE	; 254
    20ac:	5f 4f       	sbci	r21, 0xFF	; 255
    20ae:	e8 81       	ld	r30, Y
    20b0:	f9 81       	ldd	r31, Y+1	; 0x01
    20b2:	32 96       	adiw	r30, 0x02	; 2
    20b4:	ee 0f       	add	r30, r30
    20b6:	ff 1f       	adc	r31, r31
    20b8:	ec 0f       	add	r30, r28
    20ba:	fd 1f       	adc	r31, r29
    20bc:	60 81       	ld	r22, Z
    20be:	71 81       	ldd	r23, Z+1	; 0x01
    20c0:	0f 2e       	mov	r0, r31
    20c2:	f3 e3       	ldi	r31, 0x33	; 51
    20c4:	ef 2e       	mov	r14, r31
    20c6:	f5 e0       	ldi	r31, 0x05	; 5
    20c8:	ff 2e       	mov	r15, r31
    20ca:	f0 2d       	mov	r31, r0
    20cc:	21 e0       	ldi	r18, 0x01	; 1
    20ce:	30 e0       	ldi	r19, 0x00	; 0
    20d0:	86 e4       	ldi	r24, 0x46	; 70
    20d2:	97 e0       	ldi	r25, 0x07	; 7
    20d4:	0e 94 f2 38 	call	0x71e4	; 0x71e4 <_ZN4OLED19OLED_Write_To_BuferEiiiiPKh>
    20d8:	4a 8d       	ldd	r20, Y+26	; 0x1a
    20da:	5b 8d       	ldd	r21, Y+27	; 0x1b
    20dc:	41 50       	subi	r20, 0x01	; 1
    20de:	51 09       	sbc	r21, r1
    20e0:	88 81       	ld	r24, Y
    20e2:	99 81       	ldd	r25, Y+1	; 0x01
    20e4:	02 96       	adiw	r24, 0x02	; 2
    20e6:	88 0f       	add	r24, r24
    20e8:	99 1f       	adc	r25, r25
    20ea:	c8 0f       	add	r28, r24
    20ec:	d9 1f       	adc	r29, r25
    20ee:	68 81       	ld	r22, Y
    20f0:	79 81       	ldd	r23, Y+1	; 0x01
    20f2:	0f 2e       	mov	r0, r31
    20f4:	fb e3       	ldi	r31, 0x3B	; 59
    20f6:	ef 2e       	mov	r14, r31
    20f8:	f5 e0       	ldi	r31, 0x05	; 5
    20fa:	ff 2e       	mov	r15, r31
    20fc:	f0 2d       	mov	r31, r0
    20fe:	21 e0       	ldi	r18, 0x01	; 1
    2100:	30 e0       	ldi	r19, 0x00	; 0
    2102:	86 e4       	ldi	r24, 0x46	; 70
    2104:	97 e0       	ldi	r25, 0x07	; 7
    2106:	0e 94 f2 38 	call	0x71e4	; 0x71e4 <_ZN4OLED19OLED_Write_To_BuferEiiiiPKh>
    210a:	8a c2       	rjmp	.+1300   	; 0x2620 <_ZN9Add_Owner7actionsEv+0x828>
    210c:	4a 8d       	ldd	r20, Y+26	; 0x1a
    210e:	5b 8d       	ldd	r21, Y+27	; 0x1b
    2110:	e8 81       	ld	r30, Y
    2112:	f9 81       	ldd	r31, Y+1	; 0x01
    2114:	32 96       	adiw	r30, 0x02	; 2
    2116:	ee 0f       	add	r30, r30
    2118:	ff 1f       	adc	r31, r31
    211a:	ec 0f       	add	r30, r28
    211c:	fd 1f       	adc	r31, r29
    211e:	60 81       	ld	r22, Z
    2120:	71 81       	ldd	r23, Z+1	; 0x01
    2122:	08 e0       	ldi	r16, 0x08	; 8
    2124:	10 e0       	ldi	r17, 0x00	; 0
    2126:	21 e0       	ldi	r18, 0x01	; 1
    2128:	30 e0       	ldi	r19, 0x00	; 0
    212a:	86 e4       	ldi	r24, 0x46	; 70
    212c:	97 e0       	ldi	r25, 0x07	; 7
    212e:	0e 94 a3 38 	call	0x7146	; 0x7146 <_ZN4OLED21OLED_Clear_Bufer_partEiiii>
    2132:	4a 8d       	ldd	r20, Y+26	; 0x1a
    2134:	5b 8d       	ldd	r21, Y+27	; 0x1b
    2136:	e8 81       	ld	r30, Y
    2138:	f9 81       	ldd	r31, Y+1	; 0x01
    213a:	32 96       	adiw	r30, 0x02	; 2
    213c:	ee 0f       	add	r30, r30
    213e:	ff 1f       	adc	r31, r31
    2140:	ec 0f       	add	r30, r28
    2142:	fd 1f       	adc	r31, r29
    2144:	60 81       	ld	r22, Z
    2146:	71 81       	ldd	r23, Z+1	; 0x01
    2148:	0f 2e       	mov	r0, r31
    214a:	fb e7       	ldi	r31, 0x7B	; 123
    214c:	ef 2e       	mov	r14, r31
    214e:	f5 e0       	ldi	r31, 0x05	; 5
    2150:	ff 2e       	mov	r15, r31
    2152:	f0 2d       	mov	r31, r0
    2154:	21 e0       	ldi	r18, 0x01	; 1
    2156:	30 e0       	ldi	r19, 0x00	; 0
    2158:	86 e4       	ldi	r24, 0x46	; 70
    215a:	97 e0       	ldi	r25, 0x07	; 7
    215c:	0e 94 f2 38 	call	0x71e4	; 0x71e4 <_ZN4OLED19OLED_Write_To_BuferEiiiiPKh>
    2160:	4a 8d       	ldd	r20, Y+26	; 0x1a
    2162:	5b 8d       	ldd	r21, Y+27	; 0x1b
    2164:	4e 5f       	subi	r20, 0xFE	; 254
    2166:	5f 4f       	sbci	r21, 0xFF	; 255
    2168:	e8 81       	ld	r30, Y
    216a:	f9 81       	ldd	r31, Y+1	; 0x01
    216c:	32 96       	adiw	r30, 0x02	; 2
    216e:	ee 0f       	add	r30, r30
    2170:	ff 1f       	adc	r31, r31
    2172:	ec 0f       	add	r30, r28
    2174:	fd 1f       	adc	r31, r29
    2176:	60 81       	ld	r22, Z
    2178:	71 81       	ldd	r23, Z+1	; 0x01
    217a:	0f 2e       	mov	r0, r31
    217c:	f3 e3       	ldi	r31, 0x33	; 51
    217e:	ef 2e       	mov	r14, r31
    2180:	f5 e0       	ldi	r31, 0x05	; 5
    2182:	ff 2e       	mov	r15, r31
    2184:	f0 2d       	mov	r31, r0
    2186:	21 e0       	ldi	r18, 0x01	; 1
    2188:	30 e0       	ldi	r19, 0x00	; 0
    218a:	86 e4       	ldi	r24, 0x46	; 70
    218c:	97 e0       	ldi	r25, 0x07	; 7
    218e:	0e 94 f2 38 	call	0x71e4	; 0x71e4 <_ZN4OLED19OLED_Write_To_BuferEiiiiPKh>
    2192:	4a 8d       	ldd	r20, Y+26	; 0x1a
    2194:	5b 8d       	ldd	r21, Y+27	; 0x1b
    2196:	41 50       	subi	r20, 0x01	; 1
    2198:	51 09       	sbc	r21, r1
    219a:	88 81       	ld	r24, Y
    219c:	99 81       	ldd	r25, Y+1	; 0x01
    219e:	02 96       	adiw	r24, 0x02	; 2
    21a0:	88 0f       	add	r24, r24
    21a2:	99 1f       	adc	r25, r25
    21a4:	c8 0f       	add	r28, r24
    21a6:	d9 1f       	adc	r29, r25
    21a8:	68 81       	ld	r22, Y
    21aa:	79 81       	ldd	r23, Y+1	; 0x01
    21ac:	0f 2e       	mov	r0, r31
    21ae:	fb e3       	ldi	r31, 0x3B	; 59
    21b0:	ef 2e       	mov	r14, r31
    21b2:	f5 e0       	ldi	r31, 0x05	; 5
    21b4:	ff 2e       	mov	r15, r31
    21b6:	f0 2d       	mov	r31, r0
    21b8:	21 e0       	ldi	r18, 0x01	; 1
    21ba:	30 e0       	ldi	r19, 0x00	; 0
    21bc:	86 e4       	ldi	r24, 0x46	; 70
    21be:	97 e0       	ldi	r25, 0x07	; 7
    21c0:	0e 94 f2 38 	call	0x71e4	; 0x71e4 <_ZN4OLED19OLED_Write_To_BuferEiiiiPKh>
    21c4:	2d c2       	rjmp	.+1114   	; 0x2620 <_ZN9Add_Owner7actionsEv+0x828>
    21c6:	4a 8d       	ldd	r20, Y+26	; 0x1a
    21c8:	5b 8d       	ldd	r21, Y+27	; 0x1b
    21ca:	e8 81       	ld	r30, Y
    21cc:	f9 81       	ldd	r31, Y+1	; 0x01
    21ce:	32 96       	adiw	r30, 0x02	; 2
    21d0:	ee 0f       	add	r30, r30
    21d2:	ff 1f       	adc	r31, r31
    21d4:	ec 0f       	add	r30, r28
    21d6:	fd 1f       	adc	r31, r29
    21d8:	60 81       	ld	r22, Z
    21da:	71 81       	ldd	r23, Z+1	; 0x01
    21dc:	08 e0       	ldi	r16, 0x08	; 8
    21de:	10 e0       	ldi	r17, 0x00	; 0
    21e0:	21 e0       	ldi	r18, 0x01	; 1
    21e2:	30 e0       	ldi	r19, 0x00	; 0
    21e4:	86 e4       	ldi	r24, 0x46	; 70
    21e6:	97 e0       	ldi	r25, 0x07	; 7
    21e8:	0e 94 a3 38 	call	0x7146	; 0x7146 <_ZN4OLED21OLED_Clear_Bufer_partEiiii>
    21ec:	4a 8d       	ldd	r20, Y+26	; 0x1a
    21ee:	5b 8d       	ldd	r21, Y+27	; 0x1b
    21f0:	e8 81       	ld	r30, Y
    21f2:	f9 81       	ldd	r31, Y+1	; 0x01
    21f4:	32 96       	adiw	r30, 0x02	; 2
    21f6:	ee 0f       	add	r30, r30
    21f8:	ff 1f       	adc	r31, r31
    21fa:	ec 0f       	add	r30, r28
    21fc:	fd 1f       	adc	r31, r29
    21fe:	60 81       	ld	r22, Z
    2200:	71 81       	ldd	r23, Z+1	; 0x01
    2202:	0f 2e       	mov	r0, r31
    2204:	f3 e7       	ldi	r31, 0x73	; 115
    2206:	ef 2e       	mov	r14, r31
    2208:	f5 e0       	ldi	r31, 0x05	; 5
    220a:	ff 2e       	mov	r15, r31
    220c:	f0 2d       	mov	r31, r0
    220e:	21 e0       	ldi	r18, 0x01	; 1
    2210:	30 e0       	ldi	r19, 0x00	; 0
    2212:	86 e4       	ldi	r24, 0x46	; 70
    2214:	97 e0       	ldi	r25, 0x07	; 7
    2216:	0e 94 f2 38 	call	0x71e4	; 0x71e4 <_ZN4OLED19OLED_Write_To_BuferEiiiiPKh>
    221a:	4a 8d       	ldd	r20, Y+26	; 0x1a
    221c:	5b 8d       	ldd	r21, Y+27	; 0x1b
    221e:	4e 5f       	subi	r20, 0xFE	; 254
    2220:	5f 4f       	sbci	r21, 0xFF	; 255
    2222:	e8 81       	ld	r30, Y
    2224:	f9 81       	ldd	r31, Y+1	; 0x01
    2226:	32 96       	adiw	r30, 0x02	; 2
    2228:	ee 0f       	add	r30, r30
    222a:	ff 1f       	adc	r31, r31
    222c:	ec 0f       	add	r30, r28
    222e:	fd 1f       	adc	r31, r29
    2230:	60 81       	ld	r22, Z
    2232:	71 81       	ldd	r23, Z+1	; 0x01
    2234:	0f 2e       	mov	r0, r31
    2236:	f3 e3       	ldi	r31, 0x33	; 51
    2238:	ef 2e       	mov	r14, r31
    223a:	f5 e0       	ldi	r31, 0x05	; 5
    223c:	ff 2e       	mov	r15, r31
    223e:	f0 2d       	mov	r31, r0
    2240:	21 e0       	ldi	r18, 0x01	; 1
    2242:	30 e0       	ldi	r19, 0x00	; 0
    2244:	86 e4       	ldi	r24, 0x46	; 70
    2246:	97 e0       	ldi	r25, 0x07	; 7
    2248:	0e 94 f2 38 	call	0x71e4	; 0x71e4 <_ZN4OLED19OLED_Write_To_BuferEiiiiPKh>
    224c:	4a 8d       	ldd	r20, Y+26	; 0x1a
    224e:	5b 8d       	ldd	r21, Y+27	; 0x1b
    2250:	41 50       	subi	r20, 0x01	; 1
    2252:	51 09       	sbc	r21, r1
    2254:	88 81       	ld	r24, Y
    2256:	99 81       	ldd	r25, Y+1	; 0x01
    2258:	02 96       	adiw	r24, 0x02	; 2
    225a:	88 0f       	add	r24, r24
    225c:	99 1f       	adc	r25, r25
    225e:	c8 0f       	add	r28, r24
    2260:	d9 1f       	adc	r29, r25
    2262:	68 81       	ld	r22, Y
    2264:	79 81       	ldd	r23, Y+1	; 0x01
    2266:	0f 2e       	mov	r0, r31
    2268:	fb e3       	ldi	r31, 0x3B	; 59
    226a:	ef 2e       	mov	r14, r31
    226c:	f5 e0       	ldi	r31, 0x05	; 5
    226e:	ff 2e       	mov	r15, r31
    2270:	f0 2d       	mov	r31, r0
    2272:	21 e0       	ldi	r18, 0x01	; 1
    2274:	30 e0       	ldi	r19, 0x00	; 0
    2276:	86 e4       	ldi	r24, 0x46	; 70
    2278:	97 e0       	ldi	r25, 0x07	; 7
    227a:	0e 94 f2 38 	call	0x71e4	; 0x71e4 <_ZN4OLED19OLED_Write_To_BuferEiiiiPKh>
    227e:	d0 c1       	rjmp	.+928    	; 0x2620 <_ZN9Add_Owner7actionsEv+0x828>
    2280:	4a 8d       	ldd	r20, Y+26	; 0x1a
    2282:	5b 8d       	ldd	r21, Y+27	; 0x1b
    2284:	e8 81       	ld	r30, Y
    2286:	f9 81       	ldd	r31, Y+1	; 0x01
    2288:	32 96       	adiw	r30, 0x02	; 2
    228a:	ee 0f       	add	r30, r30
    228c:	ff 1f       	adc	r31, r31
    228e:	ec 0f       	add	r30, r28
    2290:	fd 1f       	adc	r31, r29
    2292:	60 81       	ld	r22, Z
    2294:	71 81       	ldd	r23, Z+1	; 0x01
    2296:	08 e0       	ldi	r16, 0x08	; 8
    2298:	10 e0       	ldi	r17, 0x00	; 0
    229a:	21 e0       	ldi	r18, 0x01	; 1
    229c:	30 e0       	ldi	r19, 0x00	; 0
    229e:	86 e4       	ldi	r24, 0x46	; 70
    22a0:	97 e0       	ldi	r25, 0x07	; 7
    22a2:	0e 94 a3 38 	call	0x7146	; 0x7146 <_ZN4OLED21OLED_Clear_Bufer_partEiiii>
    22a6:	4a 8d       	ldd	r20, Y+26	; 0x1a
    22a8:	5b 8d       	ldd	r21, Y+27	; 0x1b
    22aa:	e8 81       	ld	r30, Y
    22ac:	f9 81       	ldd	r31, Y+1	; 0x01
    22ae:	32 96       	adiw	r30, 0x02	; 2
    22b0:	ee 0f       	add	r30, r30
    22b2:	ff 1f       	adc	r31, r31
    22b4:	ec 0f       	add	r30, r28
    22b6:	fd 1f       	adc	r31, r29
    22b8:	60 81       	ld	r22, Z
    22ba:	71 81       	ldd	r23, Z+1	; 0x01
    22bc:	0f 2e       	mov	r0, r31
    22be:	fb e6       	ldi	r31, 0x6B	; 107
    22c0:	ef 2e       	mov	r14, r31
    22c2:	f5 e0       	ldi	r31, 0x05	; 5
    22c4:	ff 2e       	mov	r15, r31
    22c6:	f0 2d       	mov	r31, r0
    22c8:	21 e0       	ldi	r18, 0x01	; 1
    22ca:	30 e0       	ldi	r19, 0x00	; 0
    22cc:	86 e4       	ldi	r24, 0x46	; 70
    22ce:	97 e0       	ldi	r25, 0x07	; 7
    22d0:	0e 94 f2 38 	call	0x71e4	; 0x71e4 <_ZN4OLED19OLED_Write_To_BuferEiiiiPKh>
    22d4:	4a 8d       	ldd	r20, Y+26	; 0x1a
    22d6:	5b 8d       	ldd	r21, Y+27	; 0x1b
    22d8:	4e 5f       	subi	r20, 0xFE	; 254
    22da:	5f 4f       	sbci	r21, 0xFF	; 255
    22dc:	e8 81       	ld	r30, Y
    22de:	f9 81       	ldd	r31, Y+1	; 0x01
    22e0:	32 96       	adiw	r30, 0x02	; 2
    22e2:	ee 0f       	add	r30, r30
    22e4:	ff 1f       	adc	r31, r31
    22e6:	ec 0f       	add	r30, r28
    22e8:	fd 1f       	adc	r31, r29
    22ea:	60 81       	ld	r22, Z
    22ec:	71 81       	ldd	r23, Z+1	; 0x01
    22ee:	0f 2e       	mov	r0, r31
    22f0:	f3 e3       	ldi	r31, 0x33	; 51
    22f2:	ef 2e       	mov	r14, r31
    22f4:	f5 e0       	ldi	r31, 0x05	; 5
    22f6:	ff 2e       	mov	r15, r31
    22f8:	f0 2d       	mov	r31, r0
    22fa:	21 e0       	ldi	r18, 0x01	; 1
    22fc:	30 e0       	ldi	r19, 0x00	; 0
    22fe:	86 e4       	ldi	r24, 0x46	; 70
    2300:	97 e0       	ldi	r25, 0x07	; 7
    2302:	0e 94 f2 38 	call	0x71e4	; 0x71e4 <_ZN4OLED19OLED_Write_To_BuferEiiiiPKh>
    2306:	4a 8d       	ldd	r20, Y+26	; 0x1a
    2308:	5b 8d       	ldd	r21, Y+27	; 0x1b
    230a:	41 50       	subi	r20, 0x01	; 1
    230c:	51 09       	sbc	r21, r1
    230e:	88 81       	ld	r24, Y
    2310:	99 81       	ldd	r25, Y+1	; 0x01
    2312:	02 96       	adiw	r24, 0x02	; 2
    2314:	88 0f       	add	r24, r24
    2316:	99 1f       	adc	r25, r25
    2318:	c8 0f       	add	r28, r24
    231a:	d9 1f       	adc	r29, r25
    231c:	68 81       	ld	r22, Y
    231e:	79 81       	ldd	r23, Y+1	; 0x01
    2320:	0f 2e       	mov	r0, r31
    2322:	fb e3       	ldi	r31, 0x3B	; 59
    2324:	ef 2e       	mov	r14, r31
    2326:	f5 e0       	ldi	r31, 0x05	; 5
    2328:	ff 2e       	mov	r15, r31
    232a:	f0 2d       	mov	r31, r0
    232c:	21 e0       	ldi	r18, 0x01	; 1
    232e:	30 e0       	ldi	r19, 0x00	; 0
    2330:	86 e4       	ldi	r24, 0x46	; 70
    2332:	97 e0       	ldi	r25, 0x07	; 7
    2334:	0e 94 f2 38 	call	0x71e4	; 0x71e4 <_ZN4OLED19OLED_Write_To_BuferEiiiiPKh>
    2338:	73 c1       	rjmp	.+742    	; 0x2620 <_ZN9Add_Owner7actionsEv+0x828>
    233a:	4a 8d       	ldd	r20, Y+26	; 0x1a
    233c:	5b 8d       	ldd	r21, Y+27	; 0x1b
    233e:	e8 81       	ld	r30, Y
    2340:	f9 81       	ldd	r31, Y+1	; 0x01
    2342:	32 96       	adiw	r30, 0x02	; 2
    2344:	ee 0f       	add	r30, r30
    2346:	ff 1f       	adc	r31, r31
    2348:	ec 0f       	add	r30, r28
    234a:	fd 1f       	adc	r31, r29
    234c:	60 81       	ld	r22, Z
    234e:	71 81       	ldd	r23, Z+1	; 0x01
    2350:	08 e0       	ldi	r16, 0x08	; 8
    2352:	10 e0       	ldi	r17, 0x00	; 0
    2354:	21 e0       	ldi	r18, 0x01	; 1
    2356:	30 e0       	ldi	r19, 0x00	; 0
    2358:	86 e4       	ldi	r24, 0x46	; 70
    235a:	97 e0       	ldi	r25, 0x07	; 7
    235c:	0e 94 a3 38 	call	0x7146	; 0x7146 <_ZN4OLED21OLED_Clear_Bufer_partEiiii>
    2360:	4a 8d       	ldd	r20, Y+26	; 0x1a
    2362:	5b 8d       	ldd	r21, Y+27	; 0x1b
    2364:	e8 81       	ld	r30, Y
    2366:	f9 81       	ldd	r31, Y+1	; 0x01
    2368:	32 96       	adiw	r30, 0x02	; 2
    236a:	ee 0f       	add	r30, r30
    236c:	ff 1f       	adc	r31, r31
    236e:	ec 0f       	add	r30, r28
    2370:	fd 1f       	adc	r31, r29
    2372:	60 81       	ld	r22, Z
    2374:	71 81       	ldd	r23, Z+1	; 0x01
    2376:	0f 2e       	mov	r0, r31
    2378:	f3 e6       	ldi	r31, 0x63	; 99
    237a:	ef 2e       	mov	r14, r31
    237c:	f5 e0       	ldi	r31, 0x05	; 5
    237e:	ff 2e       	mov	r15, r31
    2380:	f0 2d       	mov	r31, r0
    2382:	21 e0       	ldi	r18, 0x01	; 1
    2384:	30 e0       	ldi	r19, 0x00	; 0
    2386:	86 e4       	ldi	r24, 0x46	; 70
    2388:	97 e0       	ldi	r25, 0x07	; 7
    238a:	0e 94 f2 38 	call	0x71e4	; 0x71e4 <_ZN4OLED19OLED_Write_To_BuferEiiiiPKh>
    238e:	4a 8d       	ldd	r20, Y+26	; 0x1a
    2390:	5b 8d       	ldd	r21, Y+27	; 0x1b
    2392:	4e 5f       	subi	r20, 0xFE	; 254
    2394:	5f 4f       	sbci	r21, 0xFF	; 255
    2396:	e8 81       	ld	r30, Y
    2398:	f9 81       	ldd	r31, Y+1	; 0x01
    239a:	32 96       	adiw	r30, 0x02	; 2
    239c:	ee 0f       	add	r30, r30
    239e:	ff 1f       	adc	r31, r31
    23a0:	ec 0f       	add	r30, r28
    23a2:	fd 1f       	adc	r31, r29
    23a4:	60 81       	ld	r22, Z
    23a6:	71 81       	ldd	r23, Z+1	; 0x01
    23a8:	0f 2e       	mov	r0, r31
    23aa:	f3 e3       	ldi	r31, 0x33	; 51
    23ac:	ef 2e       	mov	r14, r31
    23ae:	f5 e0       	ldi	r31, 0x05	; 5
    23b0:	ff 2e       	mov	r15, r31
    23b2:	f0 2d       	mov	r31, r0
    23b4:	21 e0       	ldi	r18, 0x01	; 1
    23b6:	30 e0       	ldi	r19, 0x00	; 0
    23b8:	86 e4       	ldi	r24, 0x46	; 70
    23ba:	97 e0       	ldi	r25, 0x07	; 7
    23bc:	0e 94 f2 38 	call	0x71e4	; 0x71e4 <_ZN4OLED19OLED_Write_To_BuferEiiiiPKh>
    23c0:	4a 8d       	ldd	r20, Y+26	; 0x1a
    23c2:	5b 8d       	ldd	r21, Y+27	; 0x1b
    23c4:	41 50       	subi	r20, 0x01	; 1
    23c6:	51 09       	sbc	r21, r1
    23c8:	88 81       	ld	r24, Y
    23ca:	99 81       	ldd	r25, Y+1	; 0x01
    23cc:	02 96       	adiw	r24, 0x02	; 2
    23ce:	88 0f       	add	r24, r24
    23d0:	99 1f       	adc	r25, r25
    23d2:	c8 0f       	add	r28, r24
    23d4:	d9 1f       	adc	r29, r25
    23d6:	68 81       	ld	r22, Y
    23d8:	79 81       	ldd	r23, Y+1	; 0x01
    23da:	0f 2e       	mov	r0, r31
    23dc:	fb e3       	ldi	r31, 0x3B	; 59
    23de:	ef 2e       	mov	r14, r31
    23e0:	f5 e0       	ldi	r31, 0x05	; 5
    23e2:	ff 2e       	mov	r15, r31
    23e4:	f0 2d       	mov	r31, r0
    23e6:	21 e0       	ldi	r18, 0x01	; 1
    23e8:	30 e0       	ldi	r19, 0x00	; 0
    23ea:	86 e4       	ldi	r24, 0x46	; 70
    23ec:	97 e0       	ldi	r25, 0x07	; 7
    23ee:	0e 94 f2 38 	call	0x71e4	; 0x71e4 <_ZN4OLED19OLED_Write_To_BuferEiiiiPKh>
    23f2:	16 c1       	rjmp	.+556    	; 0x2620 <_ZN9Add_Owner7actionsEv+0x828>
    23f4:	4a 8d       	ldd	r20, Y+26	; 0x1a
    23f6:	5b 8d       	ldd	r21, Y+27	; 0x1b
    23f8:	e8 81       	ld	r30, Y
    23fa:	f9 81       	ldd	r31, Y+1	; 0x01
    23fc:	32 96       	adiw	r30, 0x02	; 2
    23fe:	ee 0f       	add	r30, r30
    2400:	ff 1f       	adc	r31, r31
    2402:	ec 0f       	add	r30, r28
    2404:	fd 1f       	adc	r31, r29
    2406:	60 81       	ld	r22, Z
    2408:	71 81       	ldd	r23, Z+1	; 0x01
    240a:	08 e0       	ldi	r16, 0x08	; 8
    240c:	10 e0       	ldi	r17, 0x00	; 0
    240e:	21 e0       	ldi	r18, 0x01	; 1
    2410:	30 e0       	ldi	r19, 0x00	; 0
    2412:	86 e4       	ldi	r24, 0x46	; 70
    2414:	97 e0       	ldi	r25, 0x07	; 7
    2416:	0e 94 a3 38 	call	0x7146	; 0x7146 <_ZN4OLED21OLED_Clear_Bufer_partEiiii>
    241a:	4a 8d       	ldd	r20, Y+26	; 0x1a
    241c:	5b 8d       	ldd	r21, Y+27	; 0x1b
    241e:	e8 81       	ld	r30, Y
    2420:	f9 81       	ldd	r31, Y+1	; 0x01
    2422:	32 96       	adiw	r30, 0x02	; 2
    2424:	ee 0f       	add	r30, r30
    2426:	ff 1f       	adc	r31, r31
    2428:	ec 0f       	add	r30, r28
    242a:	fd 1f       	adc	r31, r29
    242c:	60 81       	ld	r22, Z
    242e:	71 81       	ldd	r23, Z+1	; 0x01
    2430:	0f 2e       	mov	r0, r31
    2432:	fb e5       	ldi	r31, 0x5B	; 91
    2434:	ef 2e       	mov	r14, r31
    2436:	f5 e0       	ldi	r31, 0x05	; 5
    2438:	ff 2e       	mov	r15, r31
    243a:	f0 2d       	mov	r31, r0
    243c:	21 e0       	ldi	r18, 0x01	; 1
    243e:	30 e0       	ldi	r19, 0x00	; 0
    2440:	86 e4       	ldi	r24, 0x46	; 70
    2442:	97 e0       	ldi	r25, 0x07	; 7
    2444:	0e 94 f2 38 	call	0x71e4	; 0x71e4 <_ZN4OLED19OLED_Write_To_BuferEiiiiPKh>
    2448:	4a 8d       	ldd	r20, Y+26	; 0x1a
    244a:	5b 8d       	ldd	r21, Y+27	; 0x1b
    244c:	4e 5f       	subi	r20, 0xFE	; 254
    244e:	5f 4f       	sbci	r21, 0xFF	; 255
    2450:	e8 81       	ld	r30, Y
    2452:	f9 81       	ldd	r31, Y+1	; 0x01
    2454:	32 96       	adiw	r30, 0x02	; 2
    2456:	ee 0f       	add	r30, r30
    2458:	ff 1f       	adc	r31, r31
    245a:	ec 0f       	add	r30, r28
    245c:	fd 1f       	adc	r31, r29
    245e:	60 81       	ld	r22, Z
    2460:	71 81       	ldd	r23, Z+1	; 0x01
    2462:	0f 2e       	mov	r0, r31
    2464:	f3 e3       	ldi	r31, 0x33	; 51
    2466:	ef 2e       	mov	r14, r31
    2468:	f5 e0       	ldi	r31, 0x05	; 5
    246a:	ff 2e       	mov	r15, r31
    246c:	f0 2d       	mov	r31, r0
    246e:	21 e0       	ldi	r18, 0x01	; 1
    2470:	30 e0       	ldi	r19, 0x00	; 0
    2472:	86 e4       	ldi	r24, 0x46	; 70
    2474:	97 e0       	ldi	r25, 0x07	; 7
    2476:	0e 94 f2 38 	call	0x71e4	; 0x71e4 <_ZN4OLED19OLED_Write_To_BuferEiiiiPKh>
    247a:	4a 8d       	ldd	r20, Y+26	; 0x1a
    247c:	5b 8d       	ldd	r21, Y+27	; 0x1b
    247e:	41 50       	subi	r20, 0x01	; 1
    2480:	51 09       	sbc	r21, r1
    2482:	88 81       	ld	r24, Y
    2484:	99 81       	ldd	r25, Y+1	; 0x01
    2486:	02 96       	adiw	r24, 0x02	; 2
    2488:	88 0f       	add	r24, r24
    248a:	99 1f       	adc	r25, r25
    248c:	c8 0f       	add	r28, r24
    248e:	d9 1f       	adc	r29, r25
    2490:	68 81       	ld	r22, Y
    2492:	79 81       	ldd	r23, Y+1	; 0x01
    2494:	0f 2e       	mov	r0, r31
    2496:	fb e3       	ldi	r31, 0x3B	; 59
    2498:	ef 2e       	mov	r14, r31
    249a:	f5 e0       	ldi	r31, 0x05	; 5
    249c:	ff 2e       	mov	r15, r31
    249e:	f0 2d       	mov	r31, r0
    24a0:	21 e0       	ldi	r18, 0x01	; 1
    24a2:	30 e0       	ldi	r19, 0x00	; 0
    24a4:	86 e4       	ldi	r24, 0x46	; 70
    24a6:	97 e0       	ldi	r25, 0x07	; 7
    24a8:	0e 94 f2 38 	call	0x71e4	; 0x71e4 <_ZN4OLED19OLED_Write_To_BuferEiiiiPKh>
    24ac:	b9 c0       	rjmp	.+370    	; 0x2620 <_ZN9Add_Owner7actionsEv+0x828>
    24ae:	4a 8d       	ldd	r20, Y+26	; 0x1a
    24b0:	5b 8d       	ldd	r21, Y+27	; 0x1b
    24b2:	e8 81       	ld	r30, Y
    24b4:	f9 81       	ldd	r31, Y+1	; 0x01
    24b6:	32 96       	adiw	r30, 0x02	; 2
    24b8:	ee 0f       	add	r30, r30
    24ba:	ff 1f       	adc	r31, r31
    24bc:	ec 0f       	add	r30, r28
    24be:	fd 1f       	adc	r31, r29
    24c0:	60 81       	ld	r22, Z
    24c2:	71 81       	ldd	r23, Z+1	; 0x01
    24c4:	08 e0       	ldi	r16, 0x08	; 8
    24c6:	10 e0       	ldi	r17, 0x00	; 0
    24c8:	21 e0       	ldi	r18, 0x01	; 1
    24ca:	30 e0       	ldi	r19, 0x00	; 0
    24cc:	86 e4       	ldi	r24, 0x46	; 70
    24ce:	97 e0       	ldi	r25, 0x07	; 7
    24d0:	0e 94 a3 38 	call	0x7146	; 0x7146 <_ZN4OLED21OLED_Clear_Bufer_partEiiii>
    24d4:	4a 8d       	ldd	r20, Y+26	; 0x1a
    24d6:	5b 8d       	ldd	r21, Y+27	; 0x1b
    24d8:	e8 81       	ld	r30, Y
    24da:	f9 81       	ldd	r31, Y+1	; 0x01
    24dc:	32 96       	adiw	r30, 0x02	; 2
    24de:	ee 0f       	add	r30, r30
    24e0:	ff 1f       	adc	r31, r31
    24e2:	ec 0f       	add	r30, r28
    24e4:	fd 1f       	adc	r31, r29
    24e6:	60 81       	ld	r22, Z
    24e8:	71 81       	ldd	r23, Z+1	; 0x01
    24ea:	0f 2e       	mov	r0, r31
    24ec:	f3 e5       	ldi	r31, 0x53	; 83
    24ee:	ef 2e       	mov	r14, r31
    24f0:	f5 e0       	ldi	r31, 0x05	; 5
    24f2:	ff 2e       	mov	r15, r31
    24f4:	f0 2d       	mov	r31, r0
    24f6:	21 e0       	ldi	r18, 0x01	; 1
    24f8:	30 e0       	ldi	r19, 0x00	; 0
    24fa:	86 e4       	ldi	r24, 0x46	; 70
    24fc:	97 e0       	ldi	r25, 0x07	; 7
    24fe:	0e 94 f2 38 	call	0x71e4	; 0x71e4 <_ZN4OLED19OLED_Write_To_BuferEiiiiPKh>
    2502:	4a 8d       	ldd	r20, Y+26	; 0x1a
    2504:	5b 8d       	ldd	r21, Y+27	; 0x1b
    2506:	4e 5f       	subi	r20, 0xFE	; 254
    2508:	5f 4f       	sbci	r21, 0xFF	; 255
    250a:	e8 81       	ld	r30, Y
    250c:	f9 81       	ldd	r31, Y+1	; 0x01
    250e:	32 96       	adiw	r30, 0x02	; 2
    2510:	ee 0f       	add	r30, r30
    2512:	ff 1f       	adc	r31, r31
    2514:	ec 0f       	add	r30, r28
    2516:	fd 1f       	adc	r31, r29
    2518:	60 81       	ld	r22, Z
    251a:	71 81       	ldd	r23, Z+1	; 0x01
    251c:	0f 2e       	mov	r0, r31
    251e:	f3 e3       	ldi	r31, 0x33	; 51
    2520:	ef 2e       	mov	r14, r31
    2522:	f5 e0       	ldi	r31, 0x05	; 5
    2524:	ff 2e       	mov	r15, r31
    2526:	f0 2d       	mov	r31, r0
    2528:	21 e0       	ldi	r18, 0x01	; 1
    252a:	30 e0       	ldi	r19, 0x00	; 0
    252c:	86 e4       	ldi	r24, 0x46	; 70
    252e:	97 e0       	ldi	r25, 0x07	; 7
    2530:	0e 94 f2 38 	call	0x71e4	; 0x71e4 <_ZN4OLED19OLED_Write_To_BuferEiiiiPKh>
    2534:	4a 8d       	ldd	r20, Y+26	; 0x1a
    2536:	5b 8d       	ldd	r21, Y+27	; 0x1b
    2538:	41 50       	subi	r20, 0x01	; 1
    253a:	51 09       	sbc	r21, r1
    253c:	88 81       	ld	r24, Y
    253e:	99 81       	ldd	r25, Y+1	; 0x01
    2540:	02 96       	adiw	r24, 0x02	; 2
    2542:	88 0f       	add	r24, r24
    2544:	99 1f       	adc	r25, r25
    2546:	c8 0f       	add	r28, r24
    2548:	d9 1f       	adc	r29, r25
    254a:	68 81       	ld	r22, Y
    254c:	79 81       	ldd	r23, Y+1	; 0x01
    254e:	0f 2e       	mov	r0, r31
    2550:	fb e3       	ldi	r31, 0x3B	; 59
    2552:	ef 2e       	mov	r14, r31
    2554:	f5 e0       	ldi	r31, 0x05	; 5
    2556:	ff 2e       	mov	r15, r31
    2558:	f0 2d       	mov	r31, r0
    255a:	21 e0       	ldi	r18, 0x01	; 1
    255c:	30 e0       	ldi	r19, 0x00	; 0
    255e:	86 e4       	ldi	r24, 0x46	; 70
    2560:	97 e0       	ldi	r25, 0x07	; 7
    2562:	0e 94 f2 38 	call	0x71e4	; 0x71e4 <_ZN4OLED19OLED_Write_To_BuferEiiiiPKh>
    2566:	5c c0       	rjmp	.+184    	; 0x2620 <_ZN9Add_Owner7actionsEv+0x828>
    2568:	4a 8d       	ldd	r20, Y+26	; 0x1a
    256a:	5b 8d       	ldd	r21, Y+27	; 0x1b
    256c:	e8 81       	ld	r30, Y
    256e:	f9 81       	ldd	r31, Y+1	; 0x01
    2570:	32 96       	adiw	r30, 0x02	; 2
    2572:	ee 0f       	add	r30, r30
    2574:	ff 1f       	adc	r31, r31
    2576:	ec 0f       	add	r30, r28
    2578:	fd 1f       	adc	r31, r29
    257a:	60 81       	ld	r22, Z
    257c:	71 81       	ldd	r23, Z+1	; 0x01
    257e:	08 e0       	ldi	r16, 0x08	; 8
    2580:	10 e0       	ldi	r17, 0x00	; 0
    2582:	21 e0       	ldi	r18, 0x01	; 1
    2584:	30 e0       	ldi	r19, 0x00	; 0
    2586:	86 e4       	ldi	r24, 0x46	; 70
    2588:	97 e0       	ldi	r25, 0x07	; 7
    258a:	0e 94 a3 38 	call	0x7146	; 0x7146 <_ZN4OLED21OLED_Clear_Bufer_partEiiii>
    258e:	4a 8d       	ldd	r20, Y+26	; 0x1a
    2590:	5b 8d       	ldd	r21, Y+27	; 0x1b
    2592:	e8 81       	ld	r30, Y
    2594:	f9 81       	ldd	r31, Y+1	; 0x01
    2596:	32 96       	adiw	r30, 0x02	; 2
    2598:	ee 0f       	add	r30, r30
    259a:	ff 1f       	adc	r31, r31
    259c:	ec 0f       	add	r30, r28
    259e:	fd 1f       	adc	r31, r29
    25a0:	60 81       	ld	r22, Z
    25a2:	71 81       	ldd	r23, Z+1	; 0x01
    25a4:	0f 2e       	mov	r0, r31
    25a6:	f3 e4       	ldi	r31, 0x43	; 67
    25a8:	ef 2e       	mov	r14, r31
    25aa:	f5 e0       	ldi	r31, 0x05	; 5
    25ac:	ff 2e       	mov	r15, r31
    25ae:	f0 2d       	mov	r31, r0
    25b0:	21 e0       	ldi	r18, 0x01	; 1
    25b2:	30 e0       	ldi	r19, 0x00	; 0
    25b4:	86 e4       	ldi	r24, 0x46	; 70
    25b6:	97 e0       	ldi	r25, 0x07	; 7
    25b8:	0e 94 f2 38 	call	0x71e4	; 0x71e4 <_ZN4OLED19OLED_Write_To_BuferEiiiiPKh>
    25bc:	4a 8d       	ldd	r20, Y+26	; 0x1a
    25be:	5b 8d       	ldd	r21, Y+27	; 0x1b
    25c0:	4e 5f       	subi	r20, 0xFE	; 254
    25c2:	5f 4f       	sbci	r21, 0xFF	; 255
    25c4:	e8 81       	ld	r30, Y
    25c6:	f9 81       	ldd	r31, Y+1	; 0x01
    25c8:	32 96       	adiw	r30, 0x02	; 2
    25ca:	ee 0f       	add	r30, r30
    25cc:	ff 1f       	adc	r31, r31
    25ce:	ec 0f       	add	r30, r28
    25d0:	fd 1f       	adc	r31, r29
    25d2:	60 81       	ld	r22, Z
    25d4:	71 81       	ldd	r23, Z+1	; 0x01
    25d6:	0f 2e       	mov	r0, r31
    25d8:	f3 e3       	ldi	r31, 0x33	; 51
    25da:	ef 2e       	mov	r14, r31
    25dc:	f5 e0       	ldi	r31, 0x05	; 5
    25de:	ff 2e       	mov	r15, r31
    25e0:	f0 2d       	mov	r31, r0
    25e2:	21 e0       	ldi	r18, 0x01	; 1
    25e4:	30 e0       	ldi	r19, 0x00	; 0
    25e6:	86 e4       	ldi	r24, 0x46	; 70
    25e8:	97 e0       	ldi	r25, 0x07	; 7
    25ea:	0e 94 f2 38 	call	0x71e4	; 0x71e4 <_ZN4OLED19OLED_Write_To_BuferEiiiiPKh>
    25ee:	4a 8d       	ldd	r20, Y+26	; 0x1a
    25f0:	5b 8d       	ldd	r21, Y+27	; 0x1b
    25f2:	41 50       	subi	r20, 0x01	; 1
    25f4:	51 09       	sbc	r21, r1
    25f6:	88 81       	ld	r24, Y
    25f8:	99 81       	ldd	r25, Y+1	; 0x01
    25fa:	02 96       	adiw	r24, 0x02	; 2
    25fc:	88 0f       	add	r24, r24
    25fe:	99 1f       	adc	r25, r25
    2600:	c8 0f       	add	r28, r24
    2602:	d9 1f       	adc	r29, r25
    2604:	68 81       	ld	r22, Y
    2606:	79 81       	ldd	r23, Y+1	; 0x01
    2608:	0f 2e       	mov	r0, r31
    260a:	fb e3       	ldi	r31, 0x3B	; 59
    260c:	ef 2e       	mov	r14, r31
    260e:	f5 e0       	ldi	r31, 0x05	; 5
    2610:	ff 2e       	mov	r15, r31
    2612:	f0 2d       	mov	r31, r0
    2614:	21 e0       	ldi	r18, 0x01	; 1
    2616:	30 e0       	ldi	r19, 0x00	; 0
    2618:	86 e4       	ldi	r24, 0x46	; 70
    261a:	97 e0       	ldi	r25, 0x07	; 7
    261c:	0e 94 f2 38 	call	0x71e4	; 0x71e4 <_ZN4OLED19OLED_Write_To_BuferEiiiiPKh>
    2620:	df 91       	pop	r29
    2622:	cf 91       	pop	r28
    2624:	1f 91       	pop	r17
    2626:	0f 91       	pop	r16
    2628:	ff 90       	pop	r15
    262a:	ef 90       	pop	r14
    262c:	08 95       	ret

0000262e <_ZN9Add_Owner6choiseEv>:
    262e:	af 92       	push	r10
    2630:	bf 92       	push	r11
    2632:	cf 92       	push	r12
    2634:	df 92       	push	r13
    2636:	ef 92       	push	r14
    2638:	ff 92       	push	r15
    263a:	0f 93       	push	r16
    263c:	1f 93       	push	r17
    263e:	cf 93       	push	r28
    2640:	df 93       	push	r29
    2642:	ec 01       	movw	r28, r24
    2644:	ea 81       	ldd	r30, Y+2	; 0x02
    2646:	fb 81       	ldd	r31, Y+3	; 0x03
    2648:	eb 30       	cpi	r30, 0x0B	; 11
    264a:	f1 05       	cpc	r31, r1
    264c:	08 f0       	brcs	.+2      	; 0x2650 <_ZN9Add_Owner6choiseEv+0x22>
    264e:	74 c2       	rjmp	.+1256   	; 0x2b38 <_ZN9Add_Owner6choiseEv+0x50a>
    2650:	e9 59       	subi	r30, 0x99	; 153
    2652:	ff 4f       	sbci	r31, 0xFF	; 255
    2654:	0c 94 ba 39 	jmp	0x7374	; 0x7374 <__tablejump2__>
    2658:	88 81       	ld	r24, Y
    265a:	99 81       	ldd	r25, Y+1	; 0x01
    265c:	01 96       	adiw	r24, 0x01	; 1
    265e:	99 83       	std	Y+1, r25	; 0x01
    2660:	88 83       	st	Y, r24
    2662:	18 16       	cp	r1, r24
    2664:	19 06       	cpc	r1, r25
    2666:	0c f0       	brlt	.+2      	; 0x266a <_ZN9Add_Owner6choiseEv+0x3c>
    2668:	67 c2       	rjmp	.+1230   	; 0x2b38 <_ZN9Add_Owner6choiseEv+0x50a>
    266a:	6e 01       	movw	r12, r28
    266c:	84 e0       	ldi	r24, 0x04	; 4
    266e:	c8 0e       	add	r12, r24
    2670:	d1 1c       	adc	r13, r1
    2672:	e1 2c       	mov	r14, r1
    2674:	f1 2c       	mov	r15, r1
    2676:	56 01       	movw	r10, r12
    2678:	4a 8d       	ldd	r20, Y+26	; 0x1a
    267a:	5b 8d       	ldd	r21, Y+27	; 0x1b
    267c:	4e 5f       	subi	r20, 0xFE	; 254
    267e:	5f 4f       	sbci	r21, 0xFF	; 255
    2680:	f6 01       	movw	r30, r12
    2682:	61 91       	ld	r22, Z+
    2684:	71 91       	ld	r23, Z+
    2686:	6f 01       	movw	r12, r30
    2688:	08 e0       	ldi	r16, 0x08	; 8
    268a:	10 e0       	ldi	r17, 0x00	; 0
    268c:	21 e0       	ldi	r18, 0x01	; 1
    268e:	30 e0       	ldi	r19, 0x00	; 0
    2690:	86 e4       	ldi	r24, 0x46	; 70
    2692:	97 e0       	ldi	r25, 0x07	; 7
    2694:	0e 94 a3 38 	call	0x7146	; 0x7146 <_ZN4OLED21OLED_Clear_Bufer_partEiiii>
    2698:	4a 8d       	ldd	r20, Y+26	; 0x1a
    269a:	5b 8d       	ldd	r21, Y+27	; 0x1b
    269c:	41 50       	subi	r20, 0x01	; 1
    269e:	51 09       	sbc	r21, r1
    26a0:	f5 01       	movw	r30, r10
    26a2:	60 81       	ld	r22, Z
    26a4:	71 81       	ldd	r23, Z+1	; 0x01
    26a6:	21 e0       	ldi	r18, 0x01	; 1
    26a8:	30 e0       	ldi	r19, 0x00	; 0
    26aa:	86 e4       	ldi	r24, 0x46	; 70
    26ac:	97 e0       	ldi	r25, 0x07	; 7
    26ae:	0e 94 a3 38 	call	0x7146	; 0x7146 <_ZN4OLED21OLED_Clear_Bufer_partEiiii>
    26b2:	ff ef       	ldi	r31, 0xFF	; 255
    26b4:	ef 1a       	sub	r14, r31
    26b6:	ff 0a       	sbc	r15, r31
    26b8:	88 81       	ld	r24, Y
    26ba:	99 81       	ldd	r25, Y+1	; 0x01
    26bc:	e8 16       	cp	r14, r24
    26be:	f9 06       	cpc	r15, r25
    26c0:	d4 f2       	brlt	.-76     	; 0x2676 <_ZN9Add_Owner6choiseEv+0x48>
    26c2:	3a c2       	rjmp	.+1140   	; 0x2b38 <_ZN9Add_Owner6choiseEv+0x50a>
    26c4:	88 81       	ld	r24, Y
    26c6:	99 81       	ldd	r25, Y+1	; 0x01
    26c8:	01 96       	adiw	r24, 0x01	; 1
    26ca:	99 83       	std	Y+1, r25	; 0x01
    26cc:	88 83       	st	Y, r24
    26ce:	18 16       	cp	r1, r24
    26d0:	19 06       	cpc	r1, r25
    26d2:	0c f0       	brlt	.+2      	; 0x26d6 <_ZN9Add_Owner6choiseEv+0xa8>
    26d4:	31 c2       	rjmp	.+1122   	; 0x2b38 <_ZN9Add_Owner6choiseEv+0x50a>
    26d6:	6e 01       	movw	r12, r28
    26d8:	84 e0       	ldi	r24, 0x04	; 4
    26da:	c8 0e       	add	r12, r24
    26dc:	d1 1c       	adc	r13, r1
    26de:	e1 2c       	mov	r14, r1
    26e0:	f1 2c       	mov	r15, r1
    26e2:	56 01       	movw	r10, r12
    26e4:	4a 8d       	ldd	r20, Y+26	; 0x1a
    26e6:	5b 8d       	ldd	r21, Y+27	; 0x1b
    26e8:	4e 5f       	subi	r20, 0xFE	; 254
    26ea:	5f 4f       	sbci	r21, 0xFF	; 255
    26ec:	f6 01       	movw	r30, r12
    26ee:	61 91       	ld	r22, Z+
    26f0:	71 91       	ld	r23, Z+
    26f2:	6f 01       	movw	r12, r30
    26f4:	08 e0       	ldi	r16, 0x08	; 8
    26f6:	10 e0       	ldi	r17, 0x00	; 0
    26f8:	21 e0       	ldi	r18, 0x01	; 1
    26fa:	30 e0       	ldi	r19, 0x00	; 0
    26fc:	86 e4       	ldi	r24, 0x46	; 70
    26fe:	97 e0       	ldi	r25, 0x07	; 7
    2700:	0e 94 a3 38 	call	0x7146	; 0x7146 <_ZN4OLED21OLED_Clear_Bufer_partEiiii>
    2704:	4a 8d       	ldd	r20, Y+26	; 0x1a
    2706:	5b 8d       	ldd	r21, Y+27	; 0x1b
    2708:	41 50       	subi	r20, 0x01	; 1
    270a:	51 09       	sbc	r21, r1
    270c:	f5 01       	movw	r30, r10
    270e:	60 81       	ld	r22, Z
    2710:	71 81       	ldd	r23, Z+1	; 0x01
    2712:	21 e0       	ldi	r18, 0x01	; 1
    2714:	30 e0       	ldi	r19, 0x00	; 0
    2716:	86 e4       	ldi	r24, 0x46	; 70
    2718:	97 e0       	ldi	r25, 0x07	; 7
    271a:	0e 94 a3 38 	call	0x7146	; 0x7146 <_ZN4OLED21OLED_Clear_Bufer_partEiiii>
    271e:	ff ef       	ldi	r31, 0xFF	; 255
    2720:	ef 1a       	sub	r14, r31
    2722:	ff 0a       	sbc	r15, r31
    2724:	88 81       	ld	r24, Y
    2726:	99 81       	ldd	r25, Y+1	; 0x01
    2728:	e8 16       	cp	r14, r24
    272a:	f9 06       	cpc	r15, r25
    272c:	d4 f2       	brlt	.-76     	; 0x26e2 <_ZN9Add_Owner6choiseEv+0xb4>
    272e:	04 c2       	rjmp	.+1032   	; 0x2b38 <_ZN9Add_Owner6choiseEv+0x50a>
    2730:	88 81       	ld	r24, Y
    2732:	99 81       	ldd	r25, Y+1	; 0x01
    2734:	01 96       	adiw	r24, 0x01	; 1
    2736:	99 83       	std	Y+1, r25	; 0x01
    2738:	88 83       	st	Y, r24
    273a:	18 16       	cp	r1, r24
    273c:	19 06       	cpc	r1, r25
    273e:	0c f0       	brlt	.+2      	; 0x2742 <_ZN9Add_Owner6choiseEv+0x114>
    2740:	fb c1       	rjmp	.+1014   	; 0x2b38 <_ZN9Add_Owner6choiseEv+0x50a>
    2742:	6e 01       	movw	r12, r28
    2744:	84 e0       	ldi	r24, 0x04	; 4
    2746:	c8 0e       	add	r12, r24
    2748:	d1 1c       	adc	r13, r1
    274a:	e1 2c       	mov	r14, r1
    274c:	f1 2c       	mov	r15, r1
    274e:	56 01       	movw	r10, r12
    2750:	4a 8d       	ldd	r20, Y+26	; 0x1a
    2752:	5b 8d       	ldd	r21, Y+27	; 0x1b
    2754:	4e 5f       	subi	r20, 0xFE	; 254
    2756:	5f 4f       	sbci	r21, 0xFF	; 255
    2758:	f6 01       	movw	r30, r12
    275a:	61 91       	ld	r22, Z+
    275c:	71 91       	ld	r23, Z+
    275e:	6f 01       	movw	r12, r30
    2760:	08 e0       	ldi	r16, 0x08	; 8
    2762:	10 e0       	ldi	r17, 0x00	; 0
    2764:	21 e0       	ldi	r18, 0x01	; 1
    2766:	30 e0       	ldi	r19, 0x00	; 0
    2768:	86 e4       	ldi	r24, 0x46	; 70
    276a:	97 e0       	ldi	r25, 0x07	; 7
    276c:	0e 94 a3 38 	call	0x7146	; 0x7146 <_ZN4OLED21OLED_Clear_Bufer_partEiiii>
    2770:	4a 8d       	ldd	r20, Y+26	; 0x1a
    2772:	5b 8d       	ldd	r21, Y+27	; 0x1b
    2774:	41 50       	subi	r20, 0x01	; 1
    2776:	51 09       	sbc	r21, r1
    2778:	f5 01       	movw	r30, r10
    277a:	60 81       	ld	r22, Z
    277c:	71 81       	ldd	r23, Z+1	; 0x01
    277e:	21 e0       	ldi	r18, 0x01	; 1
    2780:	30 e0       	ldi	r19, 0x00	; 0
    2782:	86 e4       	ldi	r24, 0x46	; 70
    2784:	97 e0       	ldi	r25, 0x07	; 7
    2786:	0e 94 a3 38 	call	0x7146	; 0x7146 <_ZN4OLED21OLED_Clear_Bufer_partEiiii>
    278a:	ff ef       	ldi	r31, 0xFF	; 255
    278c:	ef 1a       	sub	r14, r31
    278e:	ff 0a       	sbc	r15, r31
    2790:	88 81       	ld	r24, Y
    2792:	99 81       	ldd	r25, Y+1	; 0x01
    2794:	e8 16       	cp	r14, r24
    2796:	f9 06       	cpc	r15, r25
    2798:	d4 f2       	brlt	.-76     	; 0x274e <_ZN9Add_Owner6choiseEv+0x120>
    279a:	ce c1       	rjmp	.+924    	; 0x2b38 <_ZN9Add_Owner6choiseEv+0x50a>
    279c:	88 81       	ld	r24, Y
    279e:	99 81       	ldd	r25, Y+1	; 0x01
    27a0:	01 96       	adiw	r24, 0x01	; 1
    27a2:	99 83       	std	Y+1, r25	; 0x01
    27a4:	88 83       	st	Y, r24
    27a6:	18 16       	cp	r1, r24
    27a8:	19 06       	cpc	r1, r25
    27aa:	0c f0       	brlt	.+2      	; 0x27ae <_ZN9Add_Owner6choiseEv+0x180>
    27ac:	c5 c1       	rjmp	.+906    	; 0x2b38 <_ZN9Add_Owner6choiseEv+0x50a>
    27ae:	6e 01       	movw	r12, r28
    27b0:	84 e0       	ldi	r24, 0x04	; 4
    27b2:	c8 0e       	add	r12, r24
    27b4:	d1 1c       	adc	r13, r1
    27b6:	e1 2c       	mov	r14, r1
    27b8:	f1 2c       	mov	r15, r1
    27ba:	56 01       	movw	r10, r12
    27bc:	4a 8d       	ldd	r20, Y+26	; 0x1a
    27be:	5b 8d       	ldd	r21, Y+27	; 0x1b
    27c0:	4e 5f       	subi	r20, 0xFE	; 254
    27c2:	5f 4f       	sbci	r21, 0xFF	; 255
    27c4:	f6 01       	movw	r30, r12
    27c6:	61 91       	ld	r22, Z+
    27c8:	71 91       	ld	r23, Z+
    27ca:	6f 01       	movw	r12, r30
    27cc:	08 e0       	ldi	r16, 0x08	; 8
    27ce:	10 e0       	ldi	r17, 0x00	; 0
    27d0:	21 e0       	ldi	r18, 0x01	; 1
    27d2:	30 e0       	ldi	r19, 0x00	; 0
    27d4:	86 e4       	ldi	r24, 0x46	; 70
    27d6:	97 e0       	ldi	r25, 0x07	; 7
    27d8:	0e 94 a3 38 	call	0x7146	; 0x7146 <_ZN4OLED21OLED_Clear_Bufer_partEiiii>
    27dc:	4a 8d       	ldd	r20, Y+26	; 0x1a
    27de:	5b 8d       	ldd	r21, Y+27	; 0x1b
    27e0:	41 50       	subi	r20, 0x01	; 1
    27e2:	51 09       	sbc	r21, r1
    27e4:	f5 01       	movw	r30, r10
    27e6:	60 81       	ld	r22, Z
    27e8:	71 81       	ldd	r23, Z+1	; 0x01
    27ea:	21 e0       	ldi	r18, 0x01	; 1
    27ec:	30 e0       	ldi	r19, 0x00	; 0
    27ee:	86 e4       	ldi	r24, 0x46	; 70
    27f0:	97 e0       	ldi	r25, 0x07	; 7
    27f2:	0e 94 a3 38 	call	0x7146	; 0x7146 <_ZN4OLED21OLED_Clear_Bufer_partEiiii>
    27f6:	ff ef       	ldi	r31, 0xFF	; 255
    27f8:	ef 1a       	sub	r14, r31
    27fa:	ff 0a       	sbc	r15, r31
    27fc:	88 81       	ld	r24, Y
    27fe:	99 81       	ldd	r25, Y+1	; 0x01
    2800:	e8 16       	cp	r14, r24
    2802:	f9 06       	cpc	r15, r25
    2804:	d4 f2       	brlt	.-76     	; 0x27ba <_ZN9Add_Owner6choiseEv+0x18c>
    2806:	98 c1       	rjmp	.+816    	; 0x2b38 <_ZN9Add_Owner6choiseEv+0x50a>
    2808:	88 81       	ld	r24, Y
    280a:	99 81       	ldd	r25, Y+1	; 0x01
    280c:	01 96       	adiw	r24, 0x01	; 1
    280e:	99 83       	std	Y+1, r25	; 0x01
    2810:	88 83       	st	Y, r24
    2812:	18 16       	cp	r1, r24
    2814:	19 06       	cpc	r1, r25
    2816:	0c f0       	brlt	.+2      	; 0x281a <_ZN9Add_Owner6choiseEv+0x1ec>
    2818:	8f c1       	rjmp	.+798    	; 0x2b38 <_ZN9Add_Owner6choiseEv+0x50a>
    281a:	6e 01       	movw	r12, r28
    281c:	84 e0       	ldi	r24, 0x04	; 4
    281e:	c8 0e       	add	r12, r24
    2820:	d1 1c       	adc	r13, r1
    2822:	e1 2c       	mov	r14, r1
    2824:	f1 2c       	mov	r15, r1
    2826:	56 01       	movw	r10, r12
    2828:	4a 8d       	ldd	r20, Y+26	; 0x1a
    282a:	5b 8d       	ldd	r21, Y+27	; 0x1b
    282c:	4e 5f       	subi	r20, 0xFE	; 254
    282e:	5f 4f       	sbci	r21, 0xFF	; 255
    2830:	f6 01       	movw	r30, r12
    2832:	61 91       	ld	r22, Z+
    2834:	71 91       	ld	r23, Z+
    2836:	6f 01       	movw	r12, r30
    2838:	08 e0       	ldi	r16, 0x08	; 8
    283a:	10 e0       	ldi	r17, 0x00	; 0
    283c:	21 e0       	ldi	r18, 0x01	; 1
    283e:	30 e0       	ldi	r19, 0x00	; 0
    2840:	86 e4       	ldi	r24, 0x46	; 70
    2842:	97 e0       	ldi	r25, 0x07	; 7
    2844:	0e 94 a3 38 	call	0x7146	; 0x7146 <_ZN4OLED21OLED_Clear_Bufer_partEiiii>
    2848:	4a 8d       	ldd	r20, Y+26	; 0x1a
    284a:	5b 8d       	ldd	r21, Y+27	; 0x1b
    284c:	41 50       	subi	r20, 0x01	; 1
    284e:	51 09       	sbc	r21, r1
    2850:	f5 01       	movw	r30, r10
    2852:	60 81       	ld	r22, Z
    2854:	71 81       	ldd	r23, Z+1	; 0x01
    2856:	21 e0       	ldi	r18, 0x01	; 1
    2858:	30 e0       	ldi	r19, 0x00	; 0
    285a:	86 e4       	ldi	r24, 0x46	; 70
    285c:	97 e0       	ldi	r25, 0x07	; 7
    285e:	0e 94 a3 38 	call	0x7146	; 0x7146 <_ZN4OLED21OLED_Clear_Bufer_partEiiii>
    2862:	ff ef       	ldi	r31, 0xFF	; 255
    2864:	ef 1a       	sub	r14, r31
    2866:	ff 0a       	sbc	r15, r31
    2868:	88 81       	ld	r24, Y
    286a:	99 81       	ldd	r25, Y+1	; 0x01
    286c:	e8 16       	cp	r14, r24
    286e:	f9 06       	cpc	r15, r25
    2870:	d4 f2       	brlt	.-76     	; 0x2826 <_ZN9Add_Owner6choiseEv+0x1f8>
    2872:	62 c1       	rjmp	.+708    	; 0x2b38 <_ZN9Add_Owner6choiseEv+0x50a>
    2874:	88 81       	ld	r24, Y
    2876:	99 81       	ldd	r25, Y+1	; 0x01
    2878:	01 96       	adiw	r24, 0x01	; 1
    287a:	99 83       	std	Y+1, r25	; 0x01
    287c:	88 83       	st	Y, r24
    287e:	18 16       	cp	r1, r24
    2880:	19 06       	cpc	r1, r25
    2882:	0c f0       	brlt	.+2      	; 0x2886 <_ZN9Add_Owner6choiseEv+0x258>
    2884:	59 c1       	rjmp	.+690    	; 0x2b38 <_ZN9Add_Owner6choiseEv+0x50a>
    2886:	6e 01       	movw	r12, r28
    2888:	84 e0       	ldi	r24, 0x04	; 4
    288a:	c8 0e       	add	r12, r24
    288c:	d1 1c       	adc	r13, r1
    288e:	e1 2c       	mov	r14, r1
    2890:	f1 2c       	mov	r15, r1
    2892:	56 01       	movw	r10, r12
    2894:	4a 8d       	ldd	r20, Y+26	; 0x1a
    2896:	5b 8d       	ldd	r21, Y+27	; 0x1b
    2898:	4e 5f       	subi	r20, 0xFE	; 254
    289a:	5f 4f       	sbci	r21, 0xFF	; 255
    289c:	f6 01       	movw	r30, r12
    289e:	61 91       	ld	r22, Z+
    28a0:	71 91       	ld	r23, Z+
    28a2:	6f 01       	movw	r12, r30
    28a4:	08 e0       	ldi	r16, 0x08	; 8
    28a6:	10 e0       	ldi	r17, 0x00	; 0
    28a8:	21 e0       	ldi	r18, 0x01	; 1
    28aa:	30 e0       	ldi	r19, 0x00	; 0
    28ac:	86 e4       	ldi	r24, 0x46	; 70
    28ae:	97 e0       	ldi	r25, 0x07	; 7
    28b0:	0e 94 a3 38 	call	0x7146	; 0x7146 <_ZN4OLED21OLED_Clear_Bufer_partEiiii>
    28b4:	4a 8d       	ldd	r20, Y+26	; 0x1a
    28b6:	5b 8d       	ldd	r21, Y+27	; 0x1b
    28b8:	41 50       	subi	r20, 0x01	; 1
    28ba:	51 09       	sbc	r21, r1
    28bc:	f5 01       	movw	r30, r10
    28be:	60 81       	ld	r22, Z
    28c0:	71 81       	ldd	r23, Z+1	; 0x01
    28c2:	21 e0       	ldi	r18, 0x01	; 1
    28c4:	30 e0       	ldi	r19, 0x00	; 0
    28c6:	86 e4       	ldi	r24, 0x46	; 70
    28c8:	97 e0       	ldi	r25, 0x07	; 7
    28ca:	0e 94 a3 38 	call	0x7146	; 0x7146 <_ZN4OLED21OLED_Clear_Bufer_partEiiii>
    28ce:	ff ef       	ldi	r31, 0xFF	; 255
    28d0:	ef 1a       	sub	r14, r31
    28d2:	ff 0a       	sbc	r15, r31
    28d4:	88 81       	ld	r24, Y
    28d6:	99 81       	ldd	r25, Y+1	; 0x01
    28d8:	e8 16       	cp	r14, r24
    28da:	f9 06       	cpc	r15, r25
    28dc:	d4 f2       	brlt	.-76     	; 0x2892 <_ZN9Add_Owner6choiseEv+0x264>
    28de:	2c c1       	rjmp	.+600    	; 0x2b38 <_ZN9Add_Owner6choiseEv+0x50a>
    28e0:	88 81       	ld	r24, Y
    28e2:	99 81       	ldd	r25, Y+1	; 0x01
    28e4:	01 96       	adiw	r24, 0x01	; 1
    28e6:	99 83       	std	Y+1, r25	; 0x01
    28e8:	88 83       	st	Y, r24
    28ea:	18 16       	cp	r1, r24
    28ec:	19 06       	cpc	r1, r25
    28ee:	0c f0       	brlt	.+2      	; 0x28f2 <_ZN9Add_Owner6choiseEv+0x2c4>
    28f0:	23 c1       	rjmp	.+582    	; 0x2b38 <_ZN9Add_Owner6choiseEv+0x50a>
    28f2:	6e 01       	movw	r12, r28
    28f4:	84 e0       	ldi	r24, 0x04	; 4
    28f6:	c8 0e       	add	r12, r24
    28f8:	d1 1c       	adc	r13, r1
    28fa:	e1 2c       	mov	r14, r1
    28fc:	f1 2c       	mov	r15, r1
    28fe:	56 01       	movw	r10, r12
    2900:	4a 8d       	ldd	r20, Y+26	; 0x1a
    2902:	5b 8d       	ldd	r21, Y+27	; 0x1b
    2904:	4e 5f       	subi	r20, 0xFE	; 254
    2906:	5f 4f       	sbci	r21, 0xFF	; 255
    2908:	f6 01       	movw	r30, r12
    290a:	61 91       	ld	r22, Z+
    290c:	71 91       	ld	r23, Z+
    290e:	6f 01       	movw	r12, r30
    2910:	08 e0       	ldi	r16, 0x08	; 8
    2912:	10 e0       	ldi	r17, 0x00	; 0
    2914:	21 e0       	ldi	r18, 0x01	; 1
    2916:	30 e0       	ldi	r19, 0x00	; 0
    2918:	86 e4       	ldi	r24, 0x46	; 70
    291a:	97 e0       	ldi	r25, 0x07	; 7
    291c:	0e 94 a3 38 	call	0x7146	; 0x7146 <_ZN4OLED21OLED_Clear_Bufer_partEiiii>
    2920:	4a 8d       	ldd	r20, Y+26	; 0x1a
    2922:	5b 8d       	ldd	r21, Y+27	; 0x1b
    2924:	41 50       	subi	r20, 0x01	; 1
    2926:	51 09       	sbc	r21, r1
    2928:	f5 01       	movw	r30, r10
    292a:	60 81       	ld	r22, Z
    292c:	71 81       	ldd	r23, Z+1	; 0x01
    292e:	21 e0       	ldi	r18, 0x01	; 1
    2930:	30 e0       	ldi	r19, 0x00	; 0
    2932:	86 e4       	ldi	r24, 0x46	; 70
    2934:	97 e0       	ldi	r25, 0x07	; 7
    2936:	0e 94 a3 38 	call	0x7146	; 0x7146 <_ZN4OLED21OLED_Clear_Bufer_partEiiii>
    293a:	ff ef       	ldi	r31, 0xFF	; 255
    293c:	ef 1a       	sub	r14, r31
    293e:	ff 0a       	sbc	r15, r31
    2940:	88 81       	ld	r24, Y
    2942:	99 81       	ldd	r25, Y+1	; 0x01
    2944:	e8 16       	cp	r14, r24
    2946:	f9 06       	cpc	r15, r25
    2948:	d4 f2       	brlt	.-76     	; 0x28fe <_ZN9Add_Owner6choiseEv+0x2d0>
    294a:	f6 c0       	rjmp	.+492    	; 0x2b38 <_ZN9Add_Owner6choiseEv+0x50a>
    294c:	88 81       	ld	r24, Y
    294e:	99 81       	ldd	r25, Y+1	; 0x01
    2950:	01 96       	adiw	r24, 0x01	; 1
    2952:	99 83       	std	Y+1, r25	; 0x01
    2954:	88 83       	st	Y, r24
    2956:	18 16       	cp	r1, r24
    2958:	19 06       	cpc	r1, r25
    295a:	0c f0       	brlt	.+2      	; 0x295e <_ZN9Add_Owner6choiseEv+0x330>
    295c:	ed c0       	rjmp	.+474    	; 0x2b38 <_ZN9Add_Owner6choiseEv+0x50a>
    295e:	6e 01       	movw	r12, r28
    2960:	84 e0       	ldi	r24, 0x04	; 4
    2962:	c8 0e       	add	r12, r24
    2964:	d1 1c       	adc	r13, r1
    2966:	e1 2c       	mov	r14, r1
    2968:	f1 2c       	mov	r15, r1
    296a:	56 01       	movw	r10, r12
    296c:	4a 8d       	ldd	r20, Y+26	; 0x1a
    296e:	5b 8d       	ldd	r21, Y+27	; 0x1b
    2970:	4e 5f       	subi	r20, 0xFE	; 254
    2972:	5f 4f       	sbci	r21, 0xFF	; 255
    2974:	f6 01       	movw	r30, r12
    2976:	61 91       	ld	r22, Z+
    2978:	71 91       	ld	r23, Z+
    297a:	6f 01       	movw	r12, r30
    297c:	08 e0       	ldi	r16, 0x08	; 8
    297e:	10 e0       	ldi	r17, 0x00	; 0
    2980:	21 e0       	ldi	r18, 0x01	; 1
    2982:	30 e0       	ldi	r19, 0x00	; 0
    2984:	86 e4       	ldi	r24, 0x46	; 70
    2986:	97 e0       	ldi	r25, 0x07	; 7
    2988:	0e 94 a3 38 	call	0x7146	; 0x7146 <_ZN4OLED21OLED_Clear_Bufer_partEiiii>
    298c:	4a 8d       	ldd	r20, Y+26	; 0x1a
    298e:	5b 8d       	ldd	r21, Y+27	; 0x1b
    2990:	41 50       	subi	r20, 0x01	; 1
    2992:	51 09       	sbc	r21, r1
    2994:	f5 01       	movw	r30, r10
    2996:	60 81       	ld	r22, Z
    2998:	71 81       	ldd	r23, Z+1	; 0x01
    299a:	21 e0       	ldi	r18, 0x01	; 1
    299c:	30 e0       	ldi	r19, 0x00	; 0
    299e:	86 e4       	ldi	r24, 0x46	; 70
    29a0:	97 e0       	ldi	r25, 0x07	; 7
    29a2:	0e 94 a3 38 	call	0x7146	; 0x7146 <_ZN4OLED21OLED_Clear_Bufer_partEiiii>
    29a6:	ff ef       	ldi	r31, 0xFF	; 255
    29a8:	ef 1a       	sub	r14, r31
    29aa:	ff 0a       	sbc	r15, r31
    29ac:	88 81       	ld	r24, Y
    29ae:	99 81       	ldd	r25, Y+1	; 0x01
    29b0:	e8 16       	cp	r14, r24
    29b2:	f9 06       	cpc	r15, r25
    29b4:	d4 f2       	brlt	.-76     	; 0x296a <_ZN9Add_Owner6choiseEv+0x33c>
    29b6:	c0 c0       	rjmp	.+384    	; 0x2b38 <_ZN9Add_Owner6choiseEv+0x50a>
    29b8:	88 81       	ld	r24, Y
    29ba:	99 81       	ldd	r25, Y+1	; 0x01
    29bc:	01 96       	adiw	r24, 0x01	; 1
    29be:	99 83       	std	Y+1, r25	; 0x01
    29c0:	88 83       	st	Y, r24
    29c2:	18 16       	cp	r1, r24
    29c4:	19 06       	cpc	r1, r25
    29c6:	0c f0       	brlt	.+2      	; 0x29ca <_ZN9Add_Owner6choiseEv+0x39c>
    29c8:	b7 c0       	rjmp	.+366    	; 0x2b38 <_ZN9Add_Owner6choiseEv+0x50a>
    29ca:	6e 01       	movw	r12, r28
    29cc:	84 e0       	ldi	r24, 0x04	; 4
    29ce:	c8 0e       	add	r12, r24
    29d0:	d1 1c       	adc	r13, r1
    29d2:	e1 2c       	mov	r14, r1
    29d4:	f1 2c       	mov	r15, r1
    29d6:	56 01       	movw	r10, r12
    29d8:	4a 8d       	ldd	r20, Y+26	; 0x1a
    29da:	5b 8d       	ldd	r21, Y+27	; 0x1b
    29dc:	4e 5f       	subi	r20, 0xFE	; 254
    29de:	5f 4f       	sbci	r21, 0xFF	; 255
    29e0:	f6 01       	movw	r30, r12
    29e2:	61 91       	ld	r22, Z+
    29e4:	71 91       	ld	r23, Z+
    29e6:	6f 01       	movw	r12, r30
    29e8:	08 e0       	ldi	r16, 0x08	; 8
    29ea:	10 e0       	ldi	r17, 0x00	; 0
    29ec:	21 e0       	ldi	r18, 0x01	; 1
    29ee:	30 e0       	ldi	r19, 0x00	; 0
    29f0:	86 e4       	ldi	r24, 0x46	; 70
    29f2:	97 e0       	ldi	r25, 0x07	; 7
    29f4:	0e 94 a3 38 	call	0x7146	; 0x7146 <_ZN4OLED21OLED_Clear_Bufer_partEiiii>
    29f8:	4a 8d       	ldd	r20, Y+26	; 0x1a
    29fa:	5b 8d       	ldd	r21, Y+27	; 0x1b
    29fc:	41 50       	subi	r20, 0x01	; 1
    29fe:	51 09       	sbc	r21, r1
    2a00:	f5 01       	movw	r30, r10
    2a02:	60 81       	ld	r22, Z
    2a04:	71 81       	ldd	r23, Z+1	; 0x01
    2a06:	21 e0       	ldi	r18, 0x01	; 1
    2a08:	30 e0       	ldi	r19, 0x00	; 0
    2a0a:	86 e4       	ldi	r24, 0x46	; 70
    2a0c:	97 e0       	ldi	r25, 0x07	; 7
    2a0e:	0e 94 a3 38 	call	0x7146	; 0x7146 <_ZN4OLED21OLED_Clear_Bufer_partEiiii>
    2a12:	ff ef       	ldi	r31, 0xFF	; 255
    2a14:	ef 1a       	sub	r14, r31
    2a16:	ff 0a       	sbc	r15, r31
    2a18:	88 81       	ld	r24, Y
    2a1a:	99 81       	ldd	r25, Y+1	; 0x01
    2a1c:	e8 16       	cp	r14, r24
    2a1e:	f9 06       	cpc	r15, r25
    2a20:	d4 f2       	brlt	.-76     	; 0x29d6 <_ZN9Add_Owner6choiseEv+0x3a8>
    2a22:	8a c0       	rjmp	.+276    	; 0x2b38 <_ZN9Add_Owner6choiseEv+0x50a>
    2a24:	88 81       	ld	r24, Y
    2a26:	99 81       	ldd	r25, Y+1	; 0x01
    2a28:	01 96       	adiw	r24, 0x01	; 1
    2a2a:	99 83       	std	Y+1, r25	; 0x01
    2a2c:	88 83       	st	Y, r24
    2a2e:	18 16       	cp	r1, r24
    2a30:	19 06       	cpc	r1, r25
    2a32:	0c f0       	brlt	.+2      	; 0x2a36 <_ZN9Add_Owner6choiseEv+0x408>
    2a34:	81 c0       	rjmp	.+258    	; 0x2b38 <_ZN9Add_Owner6choiseEv+0x50a>
    2a36:	6e 01       	movw	r12, r28
    2a38:	84 e0       	ldi	r24, 0x04	; 4
    2a3a:	c8 0e       	add	r12, r24
    2a3c:	d1 1c       	adc	r13, r1
    2a3e:	e1 2c       	mov	r14, r1
    2a40:	f1 2c       	mov	r15, r1
    2a42:	56 01       	movw	r10, r12
    2a44:	4a 8d       	ldd	r20, Y+26	; 0x1a
    2a46:	5b 8d       	ldd	r21, Y+27	; 0x1b
    2a48:	4e 5f       	subi	r20, 0xFE	; 254
    2a4a:	5f 4f       	sbci	r21, 0xFF	; 255
    2a4c:	f6 01       	movw	r30, r12
    2a4e:	61 91       	ld	r22, Z+
    2a50:	71 91       	ld	r23, Z+
    2a52:	6f 01       	movw	r12, r30
    2a54:	08 e0       	ldi	r16, 0x08	; 8
    2a56:	10 e0       	ldi	r17, 0x00	; 0
    2a58:	21 e0       	ldi	r18, 0x01	; 1
    2a5a:	30 e0       	ldi	r19, 0x00	; 0
    2a5c:	86 e4       	ldi	r24, 0x46	; 70
    2a5e:	97 e0       	ldi	r25, 0x07	; 7
    2a60:	0e 94 a3 38 	call	0x7146	; 0x7146 <_ZN4OLED21OLED_Clear_Bufer_partEiiii>
    2a64:	4a 8d       	ldd	r20, Y+26	; 0x1a
    2a66:	5b 8d       	ldd	r21, Y+27	; 0x1b
    2a68:	41 50       	subi	r20, 0x01	; 1
    2a6a:	51 09       	sbc	r21, r1
    2a6c:	f5 01       	movw	r30, r10
    2a6e:	60 81       	ld	r22, Z
    2a70:	71 81       	ldd	r23, Z+1	; 0x01
    2a72:	21 e0       	ldi	r18, 0x01	; 1
    2a74:	30 e0       	ldi	r19, 0x00	; 0
    2a76:	86 e4       	ldi	r24, 0x46	; 70
    2a78:	97 e0       	ldi	r25, 0x07	; 7
    2a7a:	0e 94 a3 38 	call	0x7146	; 0x7146 <_ZN4OLED21OLED_Clear_Bufer_partEiiii>
    2a7e:	ff ef       	ldi	r31, 0xFF	; 255
    2a80:	ef 1a       	sub	r14, r31
    2a82:	ff 0a       	sbc	r15, r31
    2a84:	88 81       	ld	r24, Y
    2a86:	99 81       	ldd	r25, Y+1	; 0x01
    2a88:	e8 16       	cp	r14, r24
    2a8a:	f9 06       	cpc	r15, r25
    2a8c:	d4 f2       	brlt	.-76     	; 0x2a42 <_ZN9Add_Owner6choiseEv+0x414>
    2a8e:	54 c0       	rjmp	.+168    	; 0x2b38 <_ZN9Add_Owner6choiseEv+0x50a>
    2a90:	4a 8d       	ldd	r20, Y+26	; 0x1a
    2a92:	5b 8d       	ldd	r21, Y+27	; 0x1b
    2a94:	e8 81       	ld	r30, Y
    2a96:	f9 81       	ldd	r31, Y+1	; 0x01
    2a98:	32 96       	adiw	r30, 0x02	; 2
    2a9a:	ee 0f       	add	r30, r30
    2a9c:	ff 1f       	adc	r31, r31
    2a9e:	e8 0f       	add	r30, r24
    2aa0:	f9 1f       	adc	r31, r25
    2aa2:	60 81       	ld	r22, Z
    2aa4:	71 81       	ldd	r23, Z+1	; 0x01
    2aa6:	08 e0       	ldi	r16, 0x08	; 8
    2aa8:	10 e0       	ldi	r17, 0x00	; 0
    2aaa:	21 e0       	ldi	r18, 0x01	; 1
    2aac:	30 e0       	ldi	r19, 0x00	; 0
    2aae:	86 e4       	ldi	r24, 0x46	; 70
    2ab0:	97 e0       	ldi	r25, 0x07	; 7
    2ab2:	0e 94 a3 38 	call	0x7146	; 0x7146 <_ZN4OLED21OLED_Clear_Bufer_partEiiii>
    2ab6:	4a 8d       	ldd	r20, Y+26	; 0x1a
    2ab8:	5b 8d       	ldd	r21, Y+27	; 0x1b
    2aba:	4e 5f       	subi	r20, 0xFE	; 254
    2abc:	5f 4f       	sbci	r21, 0xFF	; 255
    2abe:	e8 81       	ld	r30, Y
    2ac0:	f9 81       	ldd	r31, Y+1	; 0x01
    2ac2:	32 96       	adiw	r30, 0x02	; 2
    2ac4:	ee 0f       	add	r30, r30
    2ac6:	ff 1f       	adc	r31, r31
    2ac8:	ec 0f       	add	r30, r28
    2aca:	fd 1f       	adc	r31, r29
    2acc:	60 81       	ld	r22, Z
    2ace:	71 81       	ldd	r23, Z+1	; 0x01
    2ad0:	21 e0       	ldi	r18, 0x01	; 1
    2ad2:	30 e0       	ldi	r19, 0x00	; 0
    2ad4:	86 e4       	ldi	r24, 0x46	; 70
    2ad6:	97 e0       	ldi	r25, 0x07	; 7
    2ad8:	0e 94 a3 38 	call	0x7146	; 0x7146 <_ZN4OLED21OLED_Clear_Bufer_partEiiii>
    2adc:	4a 8d       	ldd	r20, Y+26	; 0x1a
    2ade:	5b 8d       	ldd	r21, Y+27	; 0x1b
    2ae0:	41 50       	subi	r20, 0x01	; 1
    2ae2:	51 09       	sbc	r21, r1
    2ae4:	e8 81       	ld	r30, Y
    2ae6:	f9 81       	ldd	r31, Y+1	; 0x01
    2ae8:	32 96       	adiw	r30, 0x02	; 2
    2aea:	ee 0f       	add	r30, r30
    2aec:	ff 1f       	adc	r31, r31
    2aee:	ec 0f       	add	r30, r28
    2af0:	fd 1f       	adc	r31, r29
    2af2:	60 81       	ld	r22, Z
    2af4:	71 81       	ldd	r23, Z+1	; 0x01
    2af6:	21 e0       	ldi	r18, 0x01	; 1
    2af8:	30 e0       	ldi	r19, 0x00	; 0
    2afa:	86 e4       	ldi	r24, 0x46	; 70
    2afc:	97 e0       	ldi	r25, 0x07	; 7
    2afe:	0e 94 a3 38 	call	0x7146	; 0x7146 <_ZN4OLED21OLED_Clear_Bufer_partEiiii>
    2b02:	88 81       	ld	r24, Y
    2b04:	99 81       	ldd	r25, Y+1	; 0x01
    2b06:	01 97       	sbiw	r24, 0x01	; 1
    2b08:	99 83       	std	Y+1, r25	; 0x01
    2b0a:	88 83       	st	Y, r24
    2b0c:	99 23       	and	r25, r25
    2b0e:	94 f4       	brge	.+36     	; 0x2b34 <_ZN9Add_Owner6choiseEv+0x506>
    2b10:	19 82       	std	Y+1, r1	; 0x01
    2b12:	18 82       	st	Y, r1
    2b14:	1b 82       	std	Y+3, r1	; 0x03
    2b16:	1a 82       	std	Y+2, r1	; 0x02
    2b18:	10 92 40 07 	sts	0x0740, r1	; 0x800740 <User_Add_Status>
    2b1c:	81 e0       	ldi	r24, 0x01	; 1
    2b1e:	80 93 44 07 	sts	0x0744, r24	; 0x800744 <Settings_Menu_Status>
    2b22:	86 e4       	ldi	r24, 0x46	; 70
    2b24:	97 e0       	ldi	r25, 0x07	; 7
    2b26:	0e 94 0f 38 	call	0x701e	; 0x701e <_ZN4OLED16OLED_Bufer_ClearEv>
    2b2a:	19 82       	std	Y+1, r1	; 0x01
    2b2c:	18 82       	st	Y, r1
    2b2e:	80 e0       	ldi	r24, 0x00	; 0
    2b30:	90 e0       	ldi	r25, 0x00	; 0
    2b32:	15 c0       	rjmp	.+42     	; 0x2b5e <_ZN9Add_Owner6choiseEv+0x530>
    2b34:	ce 01       	movw	r24, r28
    2b36:	60 d9       	rcall	.-3392   	; 0x1df8 <_ZN9Add_Owner7actionsEv>
    2b38:	88 81       	ld	r24, Y
    2b3a:	99 81       	ldd	r25, Y+1	; 0x01
    2b3c:	8b 30       	cpi	r24, 0x0B	; 11
    2b3e:	91 05       	cpc	r25, r1
    2b40:	74 f0       	brlt	.+28     	; 0x2b5e <_ZN9Add_Owner6choiseEv+0x530>
    2b42:	19 82       	std	Y+1, r1	; 0x01
    2b44:	18 82       	st	Y, r1
    2b46:	1b 82       	std	Y+3, r1	; 0x03
    2b48:	1a 82       	std	Y+2, r1	; 0x02
    2b4a:	10 92 40 07 	sts	0x0740, r1	; 0x800740 <User_Add_Status>
    2b4e:	81 e0       	ldi	r24, 0x01	; 1
    2b50:	80 93 44 07 	sts	0x0744, r24	; 0x800744 <Settings_Menu_Status>
    2b54:	86 e4       	ldi	r24, 0x46	; 70
    2b56:	97 e0       	ldi	r25, 0x07	; 7
    2b58:	0e 94 0f 38 	call	0x701e	; 0x701e <_ZN4OLED16OLED_Bufer_ClearEv>
    2b5c:	62 c0       	rjmp	.+196    	; 0x2c22 <_ZN9Add_Owner6choiseEv+0x5f4>
    2b5e:	1b 82       	std	Y+3, r1	; 0x03
    2b60:	1a 82       	std	Y+2, r1	; 0x02
    2b62:	20 91 40 07 	lds	r18, 0x0740	; 0x800740 <User_Add_Status>
    2b66:	22 23       	and	r18, r18
    2b68:	09 f4       	brne	.+2      	; 0x2b6c <_ZN9Add_Owner6choiseEv+0x53e>
    2b6a:	5b c0       	rjmp	.+182    	; 0x2c22 <_ZN9Add_Owner6choiseEv+0x5f4>
    2b6c:	4a 8d       	ldd	r20, Y+26	; 0x1a
    2b6e:	5b 8d       	ldd	r21, Y+27	; 0x1b
    2b70:	fc 01       	movw	r30, r24
    2b72:	32 96       	adiw	r30, 0x02	; 2
    2b74:	ee 0f       	add	r30, r30
    2b76:	ff 1f       	adc	r31, r31
    2b78:	ec 0f       	add	r30, r28
    2b7a:	fd 1f       	adc	r31, r29
    2b7c:	60 81       	ld	r22, Z
    2b7e:	71 81       	ldd	r23, Z+1	; 0x01
    2b80:	08 e0       	ldi	r16, 0x08	; 8
    2b82:	10 e0       	ldi	r17, 0x00	; 0
    2b84:	21 e0       	ldi	r18, 0x01	; 1
    2b86:	30 e0       	ldi	r19, 0x00	; 0
    2b88:	86 e4       	ldi	r24, 0x46	; 70
    2b8a:	97 e0       	ldi	r25, 0x07	; 7
    2b8c:	0e 94 a3 38 	call	0x7146	; 0x7146 <_ZN4OLED21OLED_Clear_Bufer_partEiiii>
    2b90:	4a 8d       	ldd	r20, Y+26	; 0x1a
    2b92:	5b 8d       	ldd	r21, Y+27	; 0x1b
    2b94:	e8 81       	ld	r30, Y
    2b96:	f9 81       	ldd	r31, Y+1	; 0x01
    2b98:	32 96       	adiw	r30, 0x02	; 2
    2b9a:	ee 0f       	add	r30, r30
    2b9c:	ff 1f       	adc	r31, r31
    2b9e:	ec 0f       	add	r30, r28
    2ba0:	fd 1f       	adc	r31, r29
    2ba2:	60 81       	ld	r22, Z
    2ba4:	71 81       	ldd	r23, Z+1	; 0x01
    2ba6:	0f 2e       	mov	r0, r31
    2ba8:	fb e9       	ldi	r31, 0x9B	; 155
    2baa:	ef 2e       	mov	r14, r31
    2bac:	f5 e0       	ldi	r31, 0x05	; 5
    2bae:	ff 2e       	mov	r15, r31
    2bb0:	f0 2d       	mov	r31, r0
    2bb2:	21 e0       	ldi	r18, 0x01	; 1
    2bb4:	30 e0       	ldi	r19, 0x00	; 0
    2bb6:	86 e4       	ldi	r24, 0x46	; 70
    2bb8:	97 e0       	ldi	r25, 0x07	; 7
    2bba:	0e 94 f2 38 	call	0x71e4	; 0x71e4 <_ZN4OLED19OLED_Write_To_BuferEiiiiPKh>
    2bbe:	4a 8d       	ldd	r20, Y+26	; 0x1a
    2bc0:	5b 8d       	ldd	r21, Y+27	; 0x1b
    2bc2:	4e 5f       	subi	r20, 0xFE	; 254
    2bc4:	5f 4f       	sbci	r21, 0xFF	; 255
    2bc6:	e8 81       	ld	r30, Y
    2bc8:	f9 81       	ldd	r31, Y+1	; 0x01
    2bca:	32 96       	adiw	r30, 0x02	; 2
    2bcc:	ee 0f       	add	r30, r30
    2bce:	ff 1f       	adc	r31, r31
    2bd0:	ec 0f       	add	r30, r28
    2bd2:	fd 1f       	adc	r31, r29
    2bd4:	60 81       	ld	r22, Z
    2bd6:	71 81       	ldd	r23, Z+1	; 0x01
    2bd8:	0f 2e       	mov	r0, r31
    2bda:	f3 e3       	ldi	r31, 0x33	; 51
    2bdc:	ef 2e       	mov	r14, r31
    2bde:	f5 e0       	ldi	r31, 0x05	; 5
    2be0:	ff 2e       	mov	r15, r31
    2be2:	f0 2d       	mov	r31, r0
    2be4:	21 e0       	ldi	r18, 0x01	; 1
    2be6:	30 e0       	ldi	r19, 0x00	; 0
    2be8:	86 e4       	ldi	r24, 0x46	; 70
    2bea:	97 e0       	ldi	r25, 0x07	; 7
    2bec:	0e 94 f2 38 	call	0x71e4	; 0x71e4 <_ZN4OLED19OLED_Write_To_BuferEiiiiPKh>
    2bf0:	4a 8d       	ldd	r20, Y+26	; 0x1a
    2bf2:	5b 8d       	ldd	r21, Y+27	; 0x1b
    2bf4:	41 50       	subi	r20, 0x01	; 1
    2bf6:	51 09       	sbc	r21, r1
    2bf8:	88 81       	ld	r24, Y
    2bfa:	99 81       	ldd	r25, Y+1	; 0x01
    2bfc:	02 96       	adiw	r24, 0x02	; 2
    2bfe:	88 0f       	add	r24, r24
    2c00:	99 1f       	adc	r25, r25
    2c02:	c8 0f       	add	r28, r24
    2c04:	d9 1f       	adc	r29, r25
    2c06:	68 81       	ld	r22, Y
    2c08:	79 81       	ldd	r23, Y+1	; 0x01
    2c0a:	0f 2e       	mov	r0, r31
    2c0c:	fb e3       	ldi	r31, 0x3B	; 59
    2c0e:	ef 2e       	mov	r14, r31
    2c10:	f5 e0       	ldi	r31, 0x05	; 5
    2c12:	ff 2e       	mov	r15, r31
    2c14:	f0 2d       	mov	r31, r0
    2c16:	21 e0       	ldi	r18, 0x01	; 1
    2c18:	30 e0       	ldi	r19, 0x00	; 0
    2c1a:	86 e4       	ldi	r24, 0x46	; 70
    2c1c:	97 e0       	ldi	r25, 0x07	; 7
    2c1e:	0e 94 f2 38 	call	0x71e4	; 0x71e4 <_ZN4OLED19OLED_Write_To_BuferEiiiiPKh>
    2c22:	df 91       	pop	r29
    2c24:	cf 91       	pop	r28
    2c26:	1f 91       	pop	r17
    2c28:	0f 91       	pop	r16
    2c2a:	ff 90       	pop	r15
    2c2c:	ef 90       	pop	r14
    2c2e:	df 90       	pop	r13
    2c30:	cf 90       	pop	r12
    2c32:	bf 90       	pop	r11
    2c34:	af 90       	pop	r10
    2c36:	08 95       	ret

00002c38 <__vector_4>:
    2c38:	1f 92       	push	r1
    2c3a:	0f 92       	push	r0
    2c3c:	0f b6       	in	r0, 0x3f	; 63
    2c3e:	0f 92       	push	r0
    2c40:	11 24       	eor	r1, r1
    2c42:	8f 93       	push	r24
    2c44:	9f 93       	push	r25
    2c46:	80 b1       	in	r24, 0x00	; 0
    2c48:	82 fb       	bst	r24, 2
    2c4a:	99 27       	eor	r25, r25
    2c4c:	90 f9       	bld	r25, 0
    2c4e:	81 e0       	ldi	r24, 0x01	; 1
    2c50:	89 27       	eor	r24, r25
    2c52:	90 91 bd 06 	lds	r25, 0x06BD	; 0x8006bd <btn2>
    2c56:	98 17       	cp	r25, r24
    2c58:	18 f4       	brcc	.+6      	; 0x2c60 <__vector_4+0x28>
    2c5a:	81 e0       	ldi	r24, 0x01	; 1
    2c5c:	80 93 bd 06 	sts	0x06BD, r24	; 0x8006bd <btn2>
    2c60:	80 b1       	in	r24, 0x00	; 0
    2c62:	83 fb       	bst	r24, 3
    2c64:	99 27       	eor	r25, r25
    2c66:	90 f9       	bld	r25, 0
    2c68:	81 e0       	ldi	r24, 0x01	; 1
    2c6a:	89 27       	eor	r24, r25
    2c6c:	90 91 bc 06 	lds	r25, 0x06BC	; 0x8006bc <btn3>
    2c70:	98 17       	cp	r25, r24
    2c72:	18 f4       	brcc	.+6      	; 0x2c7a <__vector_4+0x42>
    2c74:	81 e0       	ldi	r24, 0x01	; 1
    2c76:	80 93 bc 06 	sts	0x06BC, r24	; 0x8006bc <btn3>
    2c7a:	80 b1       	in	r24, 0x00	; 0
    2c7c:	82 95       	swap	r24
    2c7e:	81 70       	andi	r24, 0x01	; 1
    2c80:	91 e0       	ldi	r25, 0x01	; 1
    2c82:	89 27       	eor	r24, r25
    2c84:	90 91 bf 06 	lds	r25, 0x06BF	; 0x8006bf <btn0>
    2c88:	98 17       	cp	r25, r24
    2c8a:	18 f4       	brcc	.+6      	; 0x2c92 <__vector_4+0x5a>
    2c8c:	81 e0       	ldi	r24, 0x01	; 1
    2c8e:	80 93 bf 06 	sts	0x06BF, r24	; 0x8006bf <btn0>
    2c92:	80 b1       	in	r24, 0x00	; 0
    2c94:	85 fb       	bst	r24, 5
    2c96:	99 27       	eor	r25, r25
    2c98:	90 f9       	bld	r25, 0
    2c9a:	81 e0       	ldi	r24, 0x01	; 1
    2c9c:	89 27       	eor	r24, r25
    2c9e:	90 91 be 06 	lds	r25, 0x06BE	; 0x8006be <btn1>
    2ca2:	98 17       	cp	r25, r24
    2ca4:	18 f4       	brcc	.+6      	; 0x2cac <__vector_4+0x74>
    2ca6:	81 e0       	ldi	r24, 0x01	; 1
    2ca8:	80 93 be 06 	sts	0x06BE, r24	; 0x8006be <btn1>
    2cac:	9f 91       	pop	r25
    2cae:	8f 91       	pop	r24
    2cb0:	0f 90       	pop	r0
    2cb2:	0f be       	out	0x3f, r0	; 63
    2cb4:	0f 90       	pop	r0
    2cb6:	1f 90       	pop	r1
    2cb8:	18 95       	reti

00002cba <_Z5checkv>:
    2cba:	af 92       	push	r10
    2cbc:	bf 92       	push	r11
    2cbe:	cf 92       	push	r12
    2cc0:	df 92       	push	r13
    2cc2:	ef 92       	push	r14
    2cc4:	ff 92       	push	r15
    2cc6:	0f 93       	push	r16
    2cc8:	1f 93       	push	r17
    2cca:	cf 93       	push	r28
    2ccc:	df 93       	push	r29
    2cce:	2f e3       	ldi	r18, 0x3F	; 63
    2cd0:	8d e0       	ldi	r24, 0x0D	; 13
    2cd2:	93 e0       	ldi	r25, 0x03	; 3
    2cd4:	21 50       	subi	r18, 0x01	; 1
    2cd6:	80 40       	sbci	r24, 0x00	; 0
    2cd8:	90 40       	sbci	r25, 0x00	; 0
    2cda:	e1 f7       	brne	.-8      	; 0x2cd4 <_Z5checkv+0x1a>
    2cdc:	00 c0       	rjmp	.+0      	; 0x2cde <_Z5checkv+0x24>
    2cde:	00 00       	nop
    2ce0:	f8 94       	cli
    2ce2:	30 91 bf 06 	lds	r19, 0x06BF	; 0x8006bf <btn0>
    2ce6:	80 91 be 06 	lds	r24, 0x06BE	; 0x8006be <btn1>
    2cea:	41 e0       	ldi	r20, 0x01	; 1
    2cec:	28 2f       	mov	r18, r24
    2cee:	24 27       	eor	r18, r20
    2cf0:	90 91 bd 06 	lds	r25, 0x06BD	; 0x8006bd <btn2>
    2cf4:	49 27       	eor	r20, r25
    2cf6:	a2 2f       	mov	r26, r18
    2cf8:	a4 23       	and	r26, r20
    2cfa:	53 2f       	mov	r21, r19
    2cfc:	5a 23       	and	r21, r26
    2cfe:	b0 91 bc 06 	lds	r27, 0x06BC	; 0x8006bc <btn3>
    2d02:	fb 2f       	mov	r31, r27
    2d04:	f5 23       	and	r31, r21
    2d06:	61 f0       	breq	.+24     	; 0x2d20 <_Z5checkv+0x66>
    2d08:	51 e0       	ldi	r21, 0x01	; 1
    2d0a:	50 93 bb 06 	sts	0x06BB, r21	; 0x8006bb <btn03>
    2d0e:	35 27       	eor	r19, r21
    2d10:	7b 2f       	mov	r23, r27
    2d12:	75 27       	eor	r23, r21
    2d14:	83 23       	and	r24, r19
    2d16:	89 23       	and	r24, r25
    2d18:	b8 17       	cp	r27, r24
    2d1a:	50 f0       	brcs	.+20     	; 0x2d30 <_Z5checkv+0x76>
    2d1c:	0c 94 56 29 	jmp	0x52ac	; 0x52ac <__stack+0x11ad>
    2d20:	71 e0       	ldi	r23, 0x01	; 1
    2d22:	37 27       	eor	r19, r23
    2d24:	83 23       	and	r24, r19
    2d26:	7b 27       	eor	r23, r27
    2d28:	f9 2f       	mov	r31, r25
    2d2a:	f8 23       	and	r31, r24
    2d2c:	bf 17       	cp	r27, r31
    2d2e:	40 f4       	brcc	.+16     	; 0x2d40 <_Z5checkv+0x86>
    2d30:	81 e0       	ldi	r24, 0x01	; 1
    2d32:	80 93 ba 06 	sts	0x06BA, r24	; 0x8006ba <btn12>
    2d36:	f0 91 bb 06 	lds	r31, 0x06BB	; 0x8006bb <btn03>
    2d3a:	60 e0       	ldi	r22, 0x00	; 0
    2d3c:	e1 e0       	ldi	r30, 0x01	; 1
    2d3e:	db c6       	rjmp	.+3510   	; 0x3af6 <_Z5checkv+0xe3c>
    2d40:	e0 91 ba 06 	lds	r30, 0x06BA	; 0x8006ba <btn12>
    2d44:	61 e0       	ldi	r22, 0x01	; 1
    2d46:	6e 27       	eor	r22, r30
    2d48:	f0 91 bb 06 	lds	r31, 0x06BB	; 0x8006bb <btn03>
    2d4c:	c7 2f       	mov	r28, r23
    2d4e:	c6 23       	and	r28, r22
    2d50:	5c 23       	and	r21, r28
    2d52:	f5 17       	cp	r31, r21
    2d54:	08 f0       	brcs	.+2      	; 0x2d58 <_Z5checkv+0x9e>
    2d56:	7f c6       	rjmp	.+3326   	; 0x3a56 <_Z5checkv+0xd9c>
    2d58:	80 91 45 07 	lds	r24, 0x0745	; 0x800745 <Password_Menu_Status>
    2d5c:	88 23       	and	r24, r24
    2d5e:	b1 f0       	breq	.+44     	; 0x2d8c <_Z5checkv+0xd2>
    2d60:	80 91 0a 07 	lds	r24, 0x070A	; 0x80070a <passw_menu+0x2>
    2d64:	90 91 0b 07 	lds	r25, 0x070B	; 0x80070b <passw_menu+0x3>
    2d68:	01 97       	sbiw	r24, 0x01	; 1
    2d6a:	2a f0       	brmi	.+10     	; 0x2d76 <_Z5checkv+0xbc>
    2d6c:	90 93 0b 07 	sts	0x070B, r25	; 0x80070b <passw_menu+0x3>
    2d70:	80 93 0a 07 	sts	0x070A, r24	; 0x80070a <passw_menu+0x2>
    2d74:	06 c0       	rjmp	.+12     	; 0x2d82 <_Z5checkv+0xc8>
    2d76:	8a e0       	ldi	r24, 0x0A	; 10
    2d78:	90 e0       	ldi	r25, 0x00	; 0
    2d7a:	90 93 0b 07 	sts	0x070B, r25	; 0x80070b <passw_menu+0x3>
    2d7e:	80 93 0a 07 	sts	0x070A, r24	; 0x80070a <passw_menu+0x2>
    2d82:	88 e0       	ldi	r24, 0x08	; 8
    2d84:	97 e0       	ldi	r25, 0x07	; 7
    2d86:	0e 94 ac 02 	call	0x558	; 0x558 <_ZN13Password_Menu7actionsEv>
    2d8a:	55 c6       	rjmp	.+3242   	; 0x3a36 <_Z5checkv+0xd7c>
    2d8c:	80 91 00 01 	lds	r24, 0x0100	; 0x800100 <Main_Menu_Status>
    2d90:	88 23       	and	r24, r24
    2d92:	09 f4       	brne	.+2      	; 0x2d96 <_Z5checkv+0xdc>
    2d94:	8a c0       	rjmp	.+276    	; 0x2eaa <_Z5checkv+0x1f0>
    2d96:	80 91 06 07 	lds	r24, 0x0706	; 0x800706 <menu>
    2d9a:	90 91 07 07 	lds	r25, 0x0707	; 0x800707 <menu+0x1>
    2d9e:	01 97       	sbiw	r24, 0x01	; 1
    2da0:	90 93 07 07 	sts	0x0707, r25	; 0x800707 <menu+0x1>
    2da4:	80 93 06 07 	sts	0x0706, r24	; 0x800706 <menu>
    2da8:	99 23       	and	r25, r25
    2daa:	3c f4       	brge	.+14     	; 0x2dba <_Z5checkv+0x100>
    2dac:	82 e0       	ldi	r24, 0x02	; 2
    2dae:	90 e0       	ldi	r25, 0x00	; 0
    2db0:	90 93 07 07 	sts	0x0707, r25	; 0x800707 <menu+0x1>
    2db4:	80 93 06 07 	sts	0x0706, r24	; 0x800706 <menu>
    2db8:	5b c0       	rjmp	.+182    	; 0x2e70 <_Z5checkv+0x1b6>
    2dba:	81 30       	cpi	r24, 0x01	; 1
    2dbc:	91 05       	cpc	r25, r1
    2dbe:	d9 f1       	breq	.+118    	; 0x2e36 <_Z5checkv+0x17c>
    2dc0:	82 30       	cpi	r24, 0x02	; 2
    2dc2:	91 05       	cpc	r25, r1
    2dc4:	09 f4       	brne	.+2      	; 0x2dc8 <_Z5checkv+0x10e>
    2dc6:	54 c0       	rjmp	.+168    	; 0x2e70 <_Z5checkv+0x1b6>
    2dc8:	89 2b       	or	r24, r25
    2dca:	09 f0       	breq	.+2      	; 0x2dce <_Z5checkv+0x114>
    2dcc:	34 c6       	rjmp	.+3176   	; 0x3a36 <_Z5checkv+0xd7c>
    2dce:	00 e2       	ldi	r16, 0x20	; 32
    2dd0:	10 e0       	ldi	r17, 0x00	; 0
    2dd2:	24 e0       	ldi	r18, 0x04	; 4
    2dd4:	30 e0       	ldi	r19, 0x00	; 0
    2dd6:	42 e0       	ldi	r20, 0x02	; 2
    2dd8:	50 e0       	ldi	r21, 0x00	; 0
    2dda:	62 e3       	ldi	r22, 0x32	; 50
    2ddc:	70 e0       	ldi	r23, 0x00	; 0
    2dde:	86 e4       	ldi	r24, 0x46	; 70
    2de0:	97 e0       	ldi	r25, 0x07	; 7
    2de2:	0e 94 a3 38 	call	0x7146	; 0x7146 <_ZN4OLED21OLED_Clear_Bufer_partEiiii>
    2de6:	80 91 3b 07 	lds	r24, 0x073B	; 0x80073b <locked>
    2dea:	81 11       	cpse	r24, r1
    2dec:	11 c0       	rjmp	.+34     	; 0x2e10 <_Z5checkv+0x156>
    2dee:	0f 2e       	mov	r0, r31
    2df0:	f3 e0       	ldi	r31, 0x03	; 3
    2df2:	ef 2e       	mov	r14, r31
    2df4:	f3 e0       	ldi	r31, 0x03	; 3
    2df6:	ff 2e       	mov	r15, r31
    2df8:	f0 2d       	mov	r31, r0
    2dfa:	24 e0       	ldi	r18, 0x04	; 4
    2dfc:	30 e0       	ldi	r19, 0x00	; 0
    2dfe:	42 e0       	ldi	r20, 0x02	; 2
    2e00:	50 e0       	ldi	r21, 0x00	; 0
    2e02:	62 e3       	ldi	r22, 0x32	; 50
    2e04:	70 e0       	ldi	r23, 0x00	; 0
    2e06:	86 e4       	ldi	r24, 0x46	; 70
    2e08:	97 e0       	ldi	r25, 0x07	; 7
    2e0a:	0e 94 f2 38 	call	0x71e4	; 0x71e4 <_ZN4OLED19OLED_Write_To_BuferEiiiiPKh>
    2e0e:	13 c6       	rjmp	.+3110   	; 0x3a36 <_Z5checkv+0xd7c>
    2e10:	0f 2e       	mov	r0, r31
    2e12:	f3 e9       	ldi	r31, 0x93	; 147
    2e14:	ef 2e       	mov	r14, r31
    2e16:	f3 e0       	ldi	r31, 0x03	; 3
    2e18:	ff 2e       	mov	r15, r31
    2e1a:	f0 2d       	mov	r31, r0
    2e1c:	00 e2       	ldi	r16, 0x20	; 32
    2e1e:	10 e0       	ldi	r17, 0x00	; 0
    2e20:	24 e0       	ldi	r18, 0x04	; 4
    2e22:	30 e0       	ldi	r19, 0x00	; 0
    2e24:	42 e0       	ldi	r20, 0x02	; 2
    2e26:	50 e0       	ldi	r21, 0x00	; 0
    2e28:	62 e3       	ldi	r22, 0x32	; 50
    2e2a:	70 e0       	ldi	r23, 0x00	; 0
    2e2c:	86 e4       	ldi	r24, 0x46	; 70
    2e2e:	97 e0       	ldi	r25, 0x07	; 7
    2e30:	0e 94 f2 38 	call	0x71e4	; 0x71e4 <_ZN4OLED19OLED_Write_To_BuferEiiiiPKh>
    2e34:	00 c6       	rjmp	.+3072   	; 0x3a36 <_Z5checkv+0xd7c>
    2e36:	00 e2       	ldi	r16, 0x20	; 32
    2e38:	10 e0       	ldi	r17, 0x00	; 0
    2e3a:	24 e0       	ldi	r18, 0x04	; 4
    2e3c:	30 e0       	ldi	r19, 0x00	; 0
    2e3e:	42 e0       	ldi	r20, 0x02	; 2
    2e40:	50 e0       	ldi	r21, 0x00	; 0
    2e42:	62 e3       	ldi	r22, 0x32	; 50
    2e44:	70 e0       	ldi	r23, 0x00	; 0
    2e46:	86 e4       	ldi	r24, 0x46	; 70
    2e48:	97 e0       	ldi	r25, 0x07	; 7
    2e4a:	0e 94 a3 38 	call	0x7146	; 0x7146 <_ZN4OLED21OLED_Clear_Bufer_partEiiii>
    2e4e:	0f 2e       	mov	r0, r31
    2e50:	f3 ea       	ldi	r31, 0xA3	; 163
    2e52:	ef 2e       	mov	r14, r31
    2e54:	f4 e0       	ldi	r31, 0x04	; 4
    2e56:	ff 2e       	mov	r15, r31
    2e58:	f0 2d       	mov	r31, r0
    2e5a:	24 e0       	ldi	r18, 0x04	; 4
    2e5c:	30 e0       	ldi	r19, 0x00	; 0
    2e5e:	42 e0       	ldi	r20, 0x02	; 2
    2e60:	50 e0       	ldi	r21, 0x00	; 0
    2e62:	62 e3       	ldi	r22, 0x32	; 50
    2e64:	70 e0       	ldi	r23, 0x00	; 0
    2e66:	86 e4       	ldi	r24, 0x46	; 70
    2e68:	97 e0       	ldi	r25, 0x07	; 7
    2e6a:	0e 94 f2 38 	call	0x71e4	; 0x71e4 <_ZN4OLED19OLED_Write_To_BuferEiiiiPKh>
    2e6e:	e3 c5       	rjmp	.+3014   	; 0x3a36 <_Z5checkv+0xd7c>
    2e70:	00 e2       	ldi	r16, 0x20	; 32
    2e72:	10 e0       	ldi	r17, 0x00	; 0
    2e74:	24 e0       	ldi	r18, 0x04	; 4
    2e76:	30 e0       	ldi	r19, 0x00	; 0
    2e78:	42 e0       	ldi	r20, 0x02	; 2
    2e7a:	50 e0       	ldi	r21, 0x00	; 0
    2e7c:	62 e3       	ldi	r22, 0x32	; 50
    2e7e:	70 e0       	ldi	r23, 0x00	; 0
    2e80:	86 e4       	ldi	r24, 0x46	; 70
    2e82:	97 e0       	ldi	r25, 0x07	; 7
    2e84:	0e 94 a3 38 	call	0x7146	; 0x7146 <_ZN4OLED21OLED_Clear_Bufer_partEiiii>
    2e88:	0f 2e       	mov	r0, r31
    2e8a:	f3 e1       	ldi	r31, 0x13	; 19
    2e8c:	ef 2e       	mov	r14, r31
    2e8e:	f4 e0       	ldi	r31, 0x04	; 4
    2e90:	ff 2e       	mov	r15, r31
    2e92:	f0 2d       	mov	r31, r0
    2e94:	24 e0       	ldi	r18, 0x04	; 4
    2e96:	30 e0       	ldi	r19, 0x00	; 0
    2e98:	42 e0       	ldi	r20, 0x02	; 2
    2e9a:	50 e0       	ldi	r21, 0x00	; 0
    2e9c:	62 e3       	ldi	r22, 0x32	; 50
    2e9e:	70 e0       	ldi	r23, 0x00	; 0
    2ea0:	86 e4       	ldi	r24, 0x46	; 70
    2ea2:	97 e0       	ldi	r25, 0x07	; 7
    2ea4:	0e 94 f2 38 	call	0x71e4	; 0x71e4 <_ZN4OLED19OLED_Write_To_BuferEiiiiPKh>
    2ea8:	c6 c5       	rjmp	.+2956   	; 0x3a36 <_Z5checkv+0xd7c>
    2eaa:	80 91 44 07 	lds	r24, 0x0744	; 0x800744 <Settings_Menu_Status>
    2eae:	88 23       	and	r24, r24
    2eb0:	09 f4       	brne	.+2      	; 0x2eb4 <_Z5checkv+0x1fa>
    2eb2:	4f c3       	rjmp	.+1694   	; 0x3552 <_Z5checkv+0x898>
    2eb4:	80 91 18 07 	lds	r24, 0x0718	; 0x800718 <sett_menu>
    2eb8:	90 91 19 07 	lds	r25, 0x0719	; 0x800719 <sett_menu+0x1>
    2ebc:	01 97       	sbiw	r24, 0x01	; 1
    2ebe:	12 f0       	brmi	.+4      	; 0x2ec4 <_Z5checkv+0x20a>
    2ec0:	0c 94 5c 29 	jmp	0x52b8	; 0x52b8 <__stack+0x11b9>
    2ec4:	83 e0       	ldi	r24, 0x03	; 3
    2ec6:	90 e0       	ldi	r25, 0x00	; 0
    2ec8:	90 93 19 07 	sts	0x0719, r25	; 0x800719 <sett_menu+0x1>
    2ecc:	80 93 18 07 	sts	0x0718, r24	; 0x800718 <sett_menu>
    2ed0:	1b c3       	rjmp	.+1590   	; 0x3508 <_Z5checkv+0x84e>
    2ed2:	c8 e1       	ldi	r28, 0x18	; 24
    2ed4:	d7 e0       	ldi	r29, 0x07	; 7
    2ed6:	4a 85       	ldd	r20, Y+10	; 0x0a
    2ed8:	5b 85       	ldd	r21, Y+11	; 0x0b
    2eda:	08 e0       	ldi	r16, 0x08	; 8
    2edc:	10 e0       	ldi	r17, 0x00	; 0
    2ede:	20 e1       	ldi	r18, 0x10	; 16
    2ee0:	30 e0       	ldi	r19, 0x00	; 0
    2ee2:	60 e0       	ldi	r22, 0x00	; 0
    2ee4:	70 e0       	ldi	r23, 0x00	; 0
    2ee6:	86 e4       	ldi	r24, 0x46	; 70
    2ee8:	97 e0       	ldi	r25, 0x07	; 7
    2eea:	0e 94 a3 38 	call	0x7146	; 0x7146 <_ZN4OLED21OLED_Clear_Bufer_partEiiii>
    2eee:	4a 85       	ldd	r20, Y+10	; 0x0a
    2ef0:	5b 85       	ldd	r21, Y+11	; 0x0b
    2ef2:	e8 81       	ld	r30, Y
    2ef4:	f9 81       	ldd	r31, Y+1	; 0x01
    2ef6:	ee 0f       	add	r30, r30
    2ef8:	ff 1f       	adc	r31, r31
    2efa:	e6 5e       	subi	r30, 0xE6	; 230
    2efc:	f8 4f       	sbci	r31, 0xF8	; 248
    2efe:	60 81       	ld	r22, Z
    2f00:	71 81       	ldd	r23, Z+1	; 0x01
    2f02:	0f 2e       	mov	r0, r31
    2f04:	fb e9       	ldi	r31, 0x9B	; 155
    2f06:	ef 2e       	mov	r14, r31
    2f08:	f1 e0       	ldi	r31, 0x01	; 1
    2f0a:	ff 2e       	mov	r15, r31
    2f0c:	f0 2d       	mov	r31, r0
    2f0e:	21 e0       	ldi	r18, 0x01	; 1
    2f10:	30 e0       	ldi	r19, 0x00	; 0
    2f12:	86 e4       	ldi	r24, 0x46	; 70
    2f14:	97 e0       	ldi	r25, 0x07	; 7
    2f16:	0e 94 f2 38 	call	0x71e4	; 0x71e4 <_ZN4OLED19OLED_Write_To_BuferEiiiiPKh>
    2f1a:	4a 85       	ldd	r20, Y+10	; 0x0a
    2f1c:	5b 85       	ldd	r21, Y+11	; 0x0b
    2f1e:	e8 81       	ld	r30, Y
    2f20:	f9 81       	ldd	r31, Y+1	; 0x01
    2f22:	ee 0f       	add	r30, r30
    2f24:	ff 1f       	adc	r31, r31
    2f26:	e6 5e       	subi	r30, 0xE6	; 230
    2f28:	f8 4f       	sbci	r31, 0xF8	; 248
    2f2a:	60 81       	ld	r22, Z
    2f2c:	71 81       	ldd	r23, Z+1	; 0x01
    2f2e:	68 5f       	subi	r22, 0xF8	; 248
    2f30:	7f 4f       	sbci	r23, 0xFF	; 255
    2f32:	0f 2e       	mov	r0, r31
    2f34:	fb ef       	ldi	r31, 0xFB	; 251
    2f36:	ef 2e       	mov	r14, r31
    2f38:	f1 e0       	ldi	r31, 0x01	; 1
    2f3a:	ff 2e       	mov	r15, r31
    2f3c:	f0 2d       	mov	r31, r0
    2f3e:	21 e0       	ldi	r18, 0x01	; 1
    2f40:	30 e0       	ldi	r19, 0x00	; 0
    2f42:	86 e4       	ldi	r24, 0x46	; 70
    2f44:	97 e0       	ldi	r25, 0x07	; 7
    2f46:	0e 94 f2 38 	call	0x71e4	; 0x71e4 <_ZN4OLED19OLED_Write_To_BuferEiiiiPKh>
    2f4a:	4a 85       	ldd	r20, Y+10	; 0x0a
    2f4c:	5b 85       	ldd	r21, Y+11	; 0x0b
    2f4e:	e8 81       	ld	r30, Y
    2f50:	f9 81       	ldd	r31, Y+1	; 0x01
    2f52:	ee 0f       	add	r30, r30
    2f54:	ff 1f       	adc	r31, r31
    2f56:	e6 5e       	subi	r30, 0xE6	; 230
    2f58:	f8 4f       	sbci	r31, 0xF8	; 248
    2f5a:	60 81       	ld	r22, Z
    2f5c:	71 81       	ldd	r23, Z+1	; 0x01
    2f5e:	60 5f       	subi	r22, 0xF0	; 240
    2f60:	7f 4f       	sbci	r23, 0xFF	; 255
    2f62:	0f 2e       	mov	r0, r31
    2f64:	f3 e9       	ldi	r31, 0x93	; 147
    2f66:	ef 2e       	mov	r14, r31
    2f68:	f1 e0       	ldi	r31, 0x01	; 1
    2f6a:	ff 2e       	mov	r15, r31
    2f6c:	f0 2d       	mov	r31, r0
    2f6e:	21 e0       	ldi	r18, 0x01	; 1
    2f70:	30 e0       	ldi	r19, 0x00	; 0
    2f72:	86 e4       	ldi	r24, 0x46	; 70
    2f74:	97 e0       	ldi	r25, 0x07	; 7
    2f76:	0e 94 f2 38 	call	0x71e4	; 0x71e4 <_ZN4OLED19OLED_Write_To_BuferEiiiiPKh>
    2f7a:	4a 85       	ldd	r20, Y+10	; 0x0a
    2f7c:	5b 85       	ldd	r21, Y+11	; 0x0b
    2f7e:	e8 81       	ld	r30, Y
    2f80:	f9 81       	ldd	r31, Y+1	; 0x01
    2f82:	ee 0f       	add	r30, r30
    2f84:	ff 1f       	adc	r31, r31
    2f86:	e6 5e       	subi	r30, 0xE6	; 230
    2f88:	f8 4f       	sbci	r31, 0xF8	; 248
    2f8a:	60 81       	ld	r22, Z
    2f8c:	71 81       	ldd	r23, Z+1	; 0x01
    2f8e:	60 5e       	subi	r22, 0xE0	; 224
    2f90:	7f 4f       	sbci	r23, 0xFF	; 255
    2f92:	0f 2e       	mov	r0, r31
    2f94:	f3 e1       	ldi	r31, 0x13	; 19
    2f96:	ef 2e       	mov	r14, r31
    2f98:	f2 e0       	ldi	r31, 0x02	; 2
    2f9a:	ff 2e       	mov	r15, r31
    2f9c:	f0 2d       	mov	r31, r0
    2f9e:	21 e0       	ldi	r18, 0x01	; 1
    2fa0:	30 e0       	ldi	r19, 0x00	; 0
    2fa2:	86 e4       	ldi	r24, 0x46	; 70
    2fa4:	97 e0       	ldi	r25, 0x07	; 7
    2fa6:	0e 94 f2 38 	call	0x71e4	; 0x71e4 <_ZN4OLED19OLED_Write_To_BuferEiiiiPKh>
    2faa:	4a 85       	ldd	r20, Y+10	; 0x0a
    2fac:	5b 85       	ldd	r21, Y+11	; 0x0b
    2fae:	e8 81       	ld	r30, Y
    2fb0:	f9 81       	ldd	r31, Y+1	; 0x01
    2fb2:	ee 0f       	add	r30, r30
    2fb4:	ff 1f       	adc	r31, r31
    2fb6:	e6 5e       	subi	r30, 0xE6	; 230
    2fb8:	f8 4f       	sbci	r31, 0xF8	; 248
    2fba:	60 81       	ld	r22, Z
    2fbc:	71 81       	ldd	r23, Z+1	; 0x01
    2fbe:	68 5d       	subi	r22, 0xD8	; 216
    2fc0:	7f 4f       	sbci	r23, 0xFF	; 255
    2fc2:	0f 2e       	mov	r0, r31
    2fc4:	f3 ea       	ldi	r31, 0xA3	; 163
    2fc6:	ef 2e       	mov	r14, r31
    2fc8:	f1 e0       	ldi	r31, 0x01	; 1
    2fca:	ff 2e       	mov	r15, r31
    2fcc:	f0 2d       	mov	r31, r0
    2fce:	21 e0       	ldi	r18, 0x01	; 1
    2fd0:	30 e0       	ldi	r19, 0x00	; 0
    2fd2:	86 e4       	ldi	r24, 0x46	; 70
    2fd4:	97 e0       	ldi	r25, 0x07	; 7
    2fd6:	0e 94 f2 38 	call	0x71e4	; 0x71e4 <_ZN4OLED19OLED_Write_To_BuferEiiiiPKh>
    2fda:	4a 85       	ldd	r20, Y+10	; 0x0a
    2fdc:	5b 85       	ldd	r21, Y+11	; 0x0b
    2fde:	e8 81       	ld	r30, Y
    2fe0:	f9 81       	ldd	r31, Y+1	; 0x01
    2fe2:	ee 0f       	add	r30, r30
    2fe4:	ff 1f       	adc	r31, r31
    2fe6:	e6 5e       	subi	r30, 0xE6	; 230
    2fe8:	f8 4f       	sbci	r31, 0xF8	; 248
    2fea:	60 81       	ld	r22, Z
    2fec:	71 81       	ldd	r23, Z+1	; 0x01
    2fee:	60 5d       	subi	r22, 0xD0	; 208
    2ff0:	7f 4f       	sbci	r23, 0xFF	; 255
    2ff2:	0f 2e       	mov	r0, r31
    2ff4:	fb ed       	ldi	r31, 0xDB	; 219
    2ff6:	ef 2e       	mov	r14, r31
    2ff8:	f1 e0       	ldi	r31, 0x01	; 1
    2ffa:	ff 2e       	mov	r15, r31
    2ffc:	f0 2d       	mov	r31, r0
    2ffe:	21 e0       	ldi	r18, 0x01	; 1
    3000:	30 e0       	ldi	r19, 0x00	; 0
    3002:	86 e4       	ldi	r24, 0x46	; 70
    3004:	97 e0       	ldi	r25, 0x07	; 7
    3006:	0e 94 f2 38 	call	0x71e4	; 0x71e4 <_ZN4OLED19OLED_Write_To_BuferEiiiiPKh>
    300a:	4a 85       	ldd	r20, Y+10	; 0x0a
    300c:	5b 85       	ldd	r21, Y+11	; 0x0b
    300e:	e8 81       	ld	r30, Y
    3010:	f9 81       	ldd	r31, Y+1	; 0x01
    3012:	ee 0f       	add	r30, r30
    3014:	ff 1f       	adc	r31, r31
    3016:	e6 5e       	subi	r30, 0xE6	; 230
    3018:	f8 4f       	sbci	r31, 0xF8	; 248
    301a:	60 81       	ld	r22, Z
    301c:	71 81       	ldd	r23, Z+1	; 0x01
    301e:	68 5c       	subi	r22, 0xC8	; 200
    3020:	7f 4f       	sbci	r23, 0xFF	; 255
    3022:	0f 2e       	mov	r0, r31
    3024:	fb ee       	ldi	r31, 0xEB	; 235
    3026:	ef 2e       	mov	r14, r31
    3028:	f1 e0       	ldi	r31, 0x01	; 1
    302a:	ff 2e       	mov	r15, r31
    302c:	f0 2d       	mov	r31, r0
    302e:	21 e0       	ldi	r18, 0x01	; 1
    3030:	30 e0       	ldi	r19, 0x00	; 0
    3032:	86 e4       	ldi	r24, 0x46	; 70
    3034:	97 e0       	ldi	r25, 0x07	; 7
    3036:	0e 94 f2 38 	call	0x71e4	; 0x71e4 <_ZN4OLED19OLED_Write_To_BuferEiiiiPKh>
    303a:	4a 85       	ldd	r20, Y+10	; 0x0a
    303c:	5b 85       	ldd	r21, Y+11	; 0x0b
    303e:	e8 81       	ld	r30, Y
    3040:	f9 81       	ldd	r31, Y+1	; 0x01
    3042:	ee 0f       	add	r30, r30
    3044:	ff 1f       	adc	r31, r31
    3046:	e6 5e       	subi	r30, 0xE6	; 230
    3048:	f8 4f       	sbci	r31, 0xF8	; 248
    304a:	60 81       	ld	r22, Z
    304c:	71 81       	ldd	r23, Z+1	; 0x01
    304e:	60 5c       	subi	r22, 0xC0	; 192
    3050:	7f 4f       	sbci	r23, 0xFF	; 255
    3052:	0f 2e       	mov	r0, r31
    3054:	f3 ee       	ldi	r31, 0xE3	; 227
    3056:	ef 2e       	mov	r14, r31
    3058:	f1 e0       	ldi	r31, 0x01	; 1
    305a:	ff 2e       	mov	r15, r31
    305c:	f0 2d       	mov	r31, r0
    305e:	21 e0       	ldi	r18, 0x01	; 1
    3060:	30 e0       	ldi	r19, 0x00	; 0
    3062:	86 e4       	ldi	r24, 0x46	; 70
    3064:	97 e0       	ldi	r25, 0x07	; 7
    3066:	0e 94 f2 38 	call	0x71e4	; 0x71e4 <_ZN4OLED19OLED_Write_To_BuferEiiiiPKh>
    306a:	4a 85       	ldd	r20, Y+10	; 0x0a
    306c:	5b 85       	ldd	r21, Y+11	; 0x0b
    306e:	e8 81       	ld	r30, Y
    3070:	f9 81       	ldd	r31, Y+1	; 0x01
    3072:	ee 0f       	add	r30, r30
    3074:	ff 1f       	adc	r31, r31
    3076:	e6 5e       	subi	r30, 0xE6	; 230
    3078:	f8 4f       	sbci	r31, 0xF8	; 248
    307a:	60 81       	ld	r22, Z
    307c:	71 81       	ldd	r23, Z+1	; 0x01
    307e:	68 5b       	subi	r22, 0xB8	; 184
    3080:	7f 4f       	sbci	r23, 0xFF	; 255
    3082:	0f 2e       	mov	r0, r31
    3084:	f3 e9       	ldi	r31, 0x93	; 147
    3086:	ef 2e       	mov	r14, r31
    3088:	f1 e0       	ldi	r31, 0x01	; 1
    308a:	ff 2e       	mov	r15, r31
    308c:	f0 2d       	mov	r31, r0
    308e:	21 e0       	ldi	r18, 0x01	; 1
    3090:	30 e0       	ldi	r19, 0x00	; 0
    3092:	86 e4       	ldi	r24, 0x46	; 70
    3094:	97 e0       	ldi	r25, 0x07	; 7
    3096:	0e 94 f2 38 	call	0x71e4	; 0x71e4 <_ZN4OLED19OLED_Write_To_BuferEiiiiPKh>
    309a:	4a 85       	ldd	r20, Y+10	; 0x0a
    309c:	5b 85       	ldd	r21, Y+11	; 0x0b
    309e:	e8 81       	ld	r30, Y
    30a0:	f9 81       	ldd	r31, Y+1	; 0x01
    30a2:	ee 0f       	add	r30, r30
    30a4:	ff 1f       	adc	r31, r31
    30a6:	e6 5e       	subi	r30, 0xE6	; 230
    30a8:	f8 4f       	sbci	r31, 0xF8	; 248
    30aa:	60 81       	ld	r22, Z
    30ac:	71 81       	ldd	r23, Z+1	; 0x01
    30ae:	60 5b       	subi	r22, 0xB0	; 176
    30b0:	7f 4f       	sbci	r23, 0xFF	; 255
    30b2:	0f 2e       	mov	r0, r31
    30b4:	f3 eb       	ldi	r31, 0xB3	; 179
    30b6:	ef 2e       	mov	r14, r31
    30b8:	f1 e0       	ldi	r31, 0x01	; 1
    30ba:	ff 2e       	mov	r15, r31
    30bc:	f0 2d       	mov	r31, r0
    30be:	21 e0       	ldi	r18, 0x01	; 1
    30c0:	30 e0       	ldi	r19, 0x00	; 0
    30c2:	86 e4       	ldi	r24, 0x46	; 70
    30c4:	97 e0       	ldi	r25, 0x07	; 7
    30c6:	0e 94 f2 38 	call	0x71e4	; 0x71e4 <_ZN4OLED19OLED_Write_To_BuferEiiiiPKh>
    30ca:	4a 85       	ldd	r20, Y+10	; 0x0a
    30cc:	5b 85       	ldd	r21, Y+11	; 0x0b
    30ce:	e8 81       	ld	r30, Y
    30d0:	f9 81       	ldd	r31, Y+1	; 0x01
    30d2:	ee 0f       	add	r30, r30
    30d4:	ff 1f       	adc	r31, r31
    30d6:	e6 5e       	subi	r30, 0xE6	; 230
    30d8:	f8 4f       	sbci	r31, 0xF8	; 248
    30da:	60 81       	ld	r22, Z
    30dc:	71 81       	ldd	r23, Z+1	; 0x01
    30de:	68 5a       	subi	r22, 0xA8	; 168
    30e0:	7f 4f       	sbci	r23, 0xFF	; 255
    30e2:	0f 2e       	mov	r0, r31
    30e4:	fb ef       	ldi	r31, 0xFB	; 251
    30e6:	ef 2e       	mov	r14, r31
    30e8:	f1 e0       	ldi	r31, 0x01	; 1
    30ea:	ff 2e       	mov	r15, r31
    30ec:	f0 2d       	mov	r31, r0
    30ee:	21 e0       	ldi	r18, 0x01	; 1
    30f0:	30 e0       	ldi	r19, 0x00	; 0
    30f2:	86 e4       	ldi	r24, 0x46	; 70
    30f4:	97 e0       	ldi	r25, 0x07	; 7
    30f6:	0e 94 f2 38 	call	0x71e4	; 0x71e4 <_ZN4OLED19OLED_Write_To_BuferEiiiiPKh>
    30fa:	4a 85       	ldd	r20, Y+10	; 0x0a
    30fc:	5b 85       	ldd	r21, Y+11	; 0x0b
    30fe:	e8 81       	ld	r30, Y
    3100:	f9 81       	ldd	r31, Y+1	; 0x01
    3102:	ee 0f       	add	r30, r30
    3104:	ff 1f       	adc	r31, r31
    3106:	e6 5e       	subi	r30, 0xE6	; 230
    3108:	f8 4f       	sbci	r31, 0xF8	; 248
    310a:	60 81       	ld	r22, Z
    310c:	71 81       	ldd	r23, Z+1	; 0x01
    310e:	60 5a       	subi	r22, 0xA0	; 160
    3110:	7f 4f       	sbci	r23, 0xFF	; 255
    3112:	0f 2e       	mov	r0, r31
    3114:	fb e9       	ldi	r31, 0x9B	; 155
    3116:	ef 2e       	mov	r14, r31
    3118:	f1 e0       	ldi	r31, 0x01	; 1
    311a:	ff 2e       	mov	r15, r31
    311c:	f0 2d       	mov	r31, r0
    311e:	21 e0       	ldi	r18, 0x01	; 1
    3120:	30 e0       	ldi	r19, 0x00	; 0
    3122:	86 e4       	ldi	r24, 0x46	; 70
    3124:	97 e0       	ldi	r25, 0x07	; 7
    3126:	0e 94 f2 38 	call	0x71e4	; 0x71e4 <_ZN4OLED19OLED_Write_To_BuferEiiiiPKh>
    312a:	4a 85       	ldd	r20, Y+10	; 0x0a
    312c:	5b 85       	ldd	r21, Y+11	; 0x0b
    312e:	e8 81       	ld	r30, Y
    3130:	f9 81       	ldd	r31, Y+1	; 0x01
    3132:	ee 0f       	add	r30, r30
    3134:	ff 1f       	adc	r31, r31
    3136:	e6 5e       	subi	r30, 0xE6	; 230
    3138:	f8 4f       	sbci	r31, 0xF8	; 248
    313a:	60 81       	ld	r22, Z
    313c:	71 81       	ldd	r23, Z+1	; 0x01
    313e:	68 59       	subi	r22, 0x98	; 152
    3140:	7f 4f       	sbci	r23, 0xFF	; 255
    3142:	21 e0       	ldi	r18, 0x01	; 1
    3144:	30 e0       	ldi	r19, 0x00	; 0
    3146:	86 e4       	ldi	r24, 0x46	; 70
    3148:	97 e0       	ldi	r25, 0x07	; 7
    314a:	0e 94 f2 38 	call	0x71e4	; 0x71e4 <_ZN4OLED19OLED_Write_To_BuferEiiiiPKh>
    314e:	73 c4       	rjmp	.+2278   	; 0x3a36 <_Z5checkv+0xd7c>
    3150:	c8 e1       	ldi	r28, 0x18	; 24
    3152:	d7 e0       	ldi	r29, 0x07	; 7
    3154:	4a 85       	ldd	r20, Y+10	; 0x0a
    3156:	5b 85       	ldd	r21, Y+11	; 0x0b
    3158:	08 e0       	ldi	r16, 0x08	; 8
    315a:	10 e0       	ldi	r17, 0x00	; 0
    315c:	20 e1       	ldi	r18, 0x10	; 16
    315e:	30 e0       	ldi	r19, 0x00	; 0
    3160:	60 e0       	ldi	r22, 0x00	; 0
    3162:	70 e0       	ldi	r23, 0x00	; 0
    3164:	86 e4       	ldi	r24, 0x46	; 70
    3166:	97 e0       	ldi	r25, 0x07	; 7
    3168:	0e 94 a3 38 	call	0x7146	; 0x7146 <_ZN4OLED21OLED_Clear_Bufer_partEiiii>
    316c:	4a 85       	ldd	r20, Y+10	; 0x0a
    316e:	5b 85       	ldd	r21, Y+11	; 0x0b
    3170:	e8 81       	ld	r30, Y
    3172:	f9 81       	ldd	r31, Y+1	; 0x01
    3174:	ee 0f       	add	r30, r30
    3176:	ff 1f       	adc	r31, r31
    3178:	e6 5e       	subi	r30, 0xE6	; 230
    317a:	f8 4f       	sbci	r31, 0xF8	; 248
    317c:	60 81       	ld	r22, Z
    317e:	71 81       	ldd	r23, Z+1	; 0x01
    3180:	0f 2e       	mov	r0, r31
    3182:	f3 ea       	ldi	r31, 0xA3	; 163
    3184:	ef 2e       	mov	r14, r31
    3186:	f1 e0       	ldi	r31, 0x01	; 1
    3188:	ff 2e       	mov	r15, r31
    318a:	f0 2d       	mov	r31, r0
    318c:	21 e0       	ldi	r18, 0x01	; 1
    318e:	30 e0       	ldi	r19, 0x00	; 0
    3190:	86 e4       	ldi	r24, 0x46	; 70
    3192:	97 e0       	ldi	r25, 0x07	; 7
    3194:	0e 94 f2 38 	call	0x71e4	; 0x71e4 <_ZN4OLED19OLED_Write_To_BuferEiiiiPKh>
    3198:	4a 85       	ldd	r20, Y+10	; 0x0a
    319a:	5b 85       	ldd	r21, Y+11	; 0x0b
    319c:	e8 81       	ld	r30, Y
    319e:	f9 81       	ldd	r31, Y+1	; 0x01
    31a0:	ee 0f       	add	r30, r30
    31a2:	ff 1f       	adc	r31, r31
    31a4:	e6 5e       	subi	r30, 0xE6	; 230
    31a6:	f8 4f       	sbci	r31, 0xF8	; 248
    31a8:	60 81       	ld	r22, Z
    31aa:	71 81       	ldd	r23, Z+1	; 0x01
    31ac:	68 5f       	subi	r22, 0xF8	; 248
    31ae:	7f 4f       	sbci	r23, 0xFF	; 255
    31b0:	0f 2e       	mov	r0, r31
    31b2:	fb ef       	ldi	r31, 0xFB	; 251
    31b4:	ef 2e       	mov	r14, r31
    31b6:	f1 e0       	ldi	r31, 0x01	; 1
    31b8:	ff 2e       	mov	r15, r31
    31ba:	f0 2d       	mov	r31, r0
    31bc:	21 e0       	ldi	r18, 0x01	; 1
    31be:	30 e0       	ldi	r19, 0x00	; 0
    31c0:	86 e4       	ldi	r24, 0x46	; 70
    31c2:	97 e0       	ldi	r25, 0x07	; 7
    31c4:	0e 94 f2 38 	call	0x71e4	; 0x71e4 <_ZN4OLED19OLED_Write_To_BuferEiiiiPKh>
    31c8:	4a 85       	ldd	r20, Y+10	; 0x0a
    31ca:	5b 85       	ldd	r21, Y+11	; 0x0b
    31cc:	e8 81       	ld	r30, Y
    31ce:	f9 81       	ldd	r31, Y+1	; 0x01
    31d0:	ee 0f       	add	r30, r30
    31d2:	ff 1f       	adc	r31, r31
    31d4:	e6 5e       	subi	r30, 0xE6	; 230
    31d6:	f8 4f       	sbci	r31, 0xF8	; 248
    31d8:	60 81       	ld	r22, Z
    31da:	71 81       	ldd	r23, Z+1	; 0x01
    31dc:	60 5f       	subi	r22, 0xF0	; 240
    31de:	7f 4f       	sbci	r23, 0xFF	; 255
    31e0:	0f 2e       	mov	r0, r31
    31e2:	fb e9       	ldi	r31, 0x9B	; 155
    31e4:	ef 2e       	mov	r14, r31
    31e6:	f1 e0       	ldi	r31, 0x01	; 1
    31e8:	ff 2e       	mov	r15, r31
    31ea:	f0 2d       	mov	r31, r0
    31ec:	21 e0       	ldi	r18, 0x01	; 1
    31ee:	30 e0       	ldi	r19, 0x00	; 0
    31f0:	86 e4       	ldi	r24, 0x46	; 70
    31f2:	97 e0       	ldi	r25, 0x07	; 7
    31f4:	0e 94 f2 38 	call	0x71e4	; 0x71e4 <_ZN4OLED19OLED_Write_To_BuferEiiiiPKh>
    31f8:	4a 85       	ldd	r20, Y+10	; 0x0a
    31fa:	5b 85       	ldd	r21, Y+11	; 0x0b
    31fc:	e8 81       	ld	r30, Y
    31fe:	f9 81       	ldd	r31, Y+1	; 0x01
    3200:	ee 0f       	add	r30, r30
    3202:	ff 1f       	adc	r31, r31
    3204:	e6 5e       	subi	r30, 0xE6	; 230
    3206:	f8 4f       	sbci	r31, 0xF8	; 248
    3208:	60 81       	ld	r22, Z
    320a:	71 81       	ldd	r23, Z+1	; 0x01
    320c:	68 5e       	subi	r22, 0xE8	; 232
    320e:	7f 4f       	sbci	r23, 0xFF	; 255
    3210:	0f 2e       	mov	r0, r31
    3212:	fb ef       	ldi	r31, 0xFB	; 251
    3214:	ef 2e       	mov	r14, r31
    3216:	f1 e0       	ldi	r31, 0x01	; 1
    3218:	ff 2e       	mov	r15, r31
    321a:	f0 2d       	mov	r31, r0
    321c:	21 e0       	ldi	r18, 0x01	; 1
    321e:	30 e0       	ldi	r19, 0x00	; 0
    3220:	86 e4       	ldi	r24, 0x46	; 70
    3222:	97 e0       	ldi	r25, 0x07	; 7
    3224:	0e 94 f2 38 	call	0x71e4	; 0x71e4 <_ZN4OLED19OLED_Write_To_BuferEiiiiPKh>
    3228:	4a 85       	ldd	r20, Y+10	; 0x0a
    322a:	5b 85       	ldd	r21, Y+11	; 0x0b
    322c:	e8 81       	ld	r30, Y
    322e:	f9 81       	ldd	r31, Y+1	; 0x01
    3230:	ee 0f       	add	r30, r30
    3232:	ff 1f       	adc	r31, r31
    3234:	e6 5e       	subi	r30, 0xE6	; 230
    3236:	f8 4f       	sbci	r31, 0xF8	; 248
    3238:	60 81       	ld	r22, Z
    323a:	71 81       	ldd	r23, Z+1	; 0x01
    323c:	60 5e       	subi	r22, 0xE0	; 224
    323e:	7f 4f       	sbci	r23, 0xFF	; 255
    3240:	0f 2e       	mov	r0, r31
    3242:	f3 e9       	ldi	r31, 0x93	; 147
    3244:	ef 2e       	mov	r14, r31
    3246:	f1 e0       	ldi	r31, 0x01	; 1
    3248:	ff 2e       	mov	r15, r31
    324a:	f0 2d       	mov	r31, r0
    324c:	21 e0       	ldi	r18, 0x01	; 1
    324e:	30 e0       	ldi	r19, 0x00	; 0
    3250:	86 e4       	ldi	r24, 0x46	; 70
    3252:	97 e0       	ldi	r25, 0x07	; 7
    3254:	0e 94 f2 38 	call	0x71e4	; 0x71e4 <_ZN4OLED19OLED_Write_To_BuferEiiiiPKh>
    3258:	4a 85       	ldd	r20, Y+10	; 0x0a
    325a:	5b 85       	ldd	r21, Y+11	; 0x0b
    325c:	e8 81       	ld	r30, Y
    325e:	f9 81       	ldd	r31, Y+1	; 0x01
    3260:	ee 0f       	add	r30, r30
    3262:	ff 1f       	adc	r31, r31
    3264:	e6 5e       	subi	r30, 0xE6	; 230
    3266:	f8 4f       	sbci	r31, 0xF8	; 248
    3268:	60 81       	ld	r22, Z
    326a:	71 81       	ldd	r23, Z+1	; 0x01
    326c:	60 5d       	subi	r22, 0xD0	; 208
    326e:	7f 4f       	sbci	r23, 0xFF	; 255
    3270:	0f 2e       	mov	r0, r31
    3272:	f3 e0       	ldi	r31, 0x03	; 3
    3274:	ef 2e       	mov	r14, r31
    3276:	f2 e0       	ldi	r31, 0x02	; 2
    3278:	ff 2e       	mov	r15, r31
    327a:	f0 2d       	mov	r31, r0
    327c:	21 e0       	ldi	r18, 0x01	; 1
    327e:	30 e0       	ldi	r19, 0x00	; 0
    3280:	86 e4       	ldi	r24, 0x46	; 70
    3282:	97 e0       	ldi	r25, 0x07	; 7
    3284:	0e 94 f2 38 	call	0x71e4	; 0x71e4 <_ZN4OLED19OLED_Write_To_BuferEiiiiPKh>
    3288:	4a 85       	ldd	r20, Y+10	; 0x0a
    328a:	5b 85       	ldd	r21, Y+11	; 0x0b
    328c:	e8 81       	ld	r30, Y
    328e:	f9 81       	ldd	r31, Y+1	; 0x01
    3290:	ee 0f       	add	r30, r30
    3292:	ff 1f       	adc	r31, r31
    3294:	e6 5e       	subi	r30, 0xE6	; 230
    3296:	f8 4f       	sbci	r31, 0xF8	; 248
    3298:	60 81       	ld	r22, Z
    329a:	71 81       	ldd	r23, Z+1	; 0x01
    329c:	68 5c       	subi	r22, 0xC8	; 200
    329e:	7f 4f       	sbci	r23, 0xFF	; 255
    32a0:	0f 2e       	mov	r0, r31
    32a2:	fb ef       	ldi	r31, 0xFB	; 251
    32a4:	ef 2e       	mov	r14, r31
    32a6:	f1 e0       	ldi	r31, 0x01	; 1
    32a8:	ff 2e       	mov	r15, r31
    32aa:	f0 2d       	mov	r31, r0
    32ac:	21 e0       	ldi	r18, 0x01	; 1
    32ae:	30 e0       	ldi	r19, 0x00	; 0
    32b0:	86 e4       	ldi	r24, 0x46	; 70
    32b2:	97 e0       	ldi	r25, 0x07	; 7
    32b4:	0e 94 f2 38 	call	0x71e4	; 0x71e4 <_ZN4OLED19OLED_Write_To_BuferEiiiiPKh>
    32b8:	4a 85       	ldd	r20, Y+10	; 0x0a
    32ba:	5b 85       	ldd	r21, Y+11	; 0x0b
    32bc:	e8 81       	ld	r30, Y
    32be:	f9 81       	ldd	r31, Y+1	; 0x01
    32c0:	ee 0f       	add	r30, r30
    32c2:	ff 1f       	adc	r31, r31
    32c4:	e6 5e       	subi	r30, 0xE6	; 230
    32c6:	f8 4f       	sbci	r31, 0xF8	; 248
    32c8:	60 81       	ld	r22, Z
    32ca:	71 81       	ldd	r23, Z+1	; 0x01
    32cc:	60 5c       	subi	r22, 0xC0	; 192
    32ce:	7f 4f       	sbci	r23, 0xFF	; 255
    32d0:	0f 2e       	mov	r0, r31
    32d2:	f3 e8       	ldi	r31, 0x83	; 131
    32d4:	ef 2e       	mov	r14, r31
    32d6:	f1 e0       	ldi	r31, 0x01	; 1
    32d8:	ff 2e       	mov	r15, r31
    32da:	f0 2d       	mov	r31, r0
    32dc:	21 e0       	ldi	r18, 0x01	; 1
    32de:	30 e0       	ldi	r19, 0x00	; 0
    32e0:	86 e4       	ldi	r24, 0x46	; 70
    32e2:	97 e0       	ldi	r25, 0x07	; 7
    32e4:	0e 94 f2 38 	call	0x71e4	; 0x71e4 <_ZN4OLED19OLED_Write_To_BuferEiiiiPKh>
    32e8:	4a 85       	ldd	r20, Y+10	; 0x0a
    32ea:	5b 85       	ldd	r21, Y+11	; 0x0b
    32ec:	e8 81       	ld	r30, Y
    32ee:	f9 81       	ldd	r31, Y+1	; 0x01
    32f0:	ee 0f       	add	r30, r30
    32f2:	ff 1f       	adc	r31, r31
    32f4:	e6 5e       	subi	r30, 0xE6	; 230
    32f6:	f8 4f       	sbci	r31, 0xF8	; 248
    32f8:	60 81       	ld	r22, Z
    32fa:	71 81       	ldd	r23, Z+1	; 0x01
    32fc:	68 5b       	subi	r22, 0xB8	; 184
    32fe:	7f 4f       	sbci	r23, 0xFF	; 255
    3300:	0f 2e       	mov	r0, r31
    3302:	fb ed       	ldi	r31, 0xDB	; 219
    3304:	ef 2e       	mov	r14, r31
    3306:	f1 e0       	ldi	r31, 0x01	; 1
    3308:	ff 2e       	mov	r15, r31
    330a:	f0 2d       	mov	r31, r0
    330c:	21 e0       	ldi	r18, 0x01	; 1
    330e:	30 e0       	ldi	r19, 0x00	; 0
    3310:	86 e4       	ldi	r24, 0x46	; 70
    3312:	97 e0       	ldi	r25, 0x07	; 7
    3314:	0e 94 f2 38 	call	0x71e4	; 0x71e4 <_ZN4OLED19OLED_Write_To_BuferEiiiiPKh>
    3318:	4a 85       	ldd	r20, Y+10	; 0x0a
    331a:	5b 85       	ldd	r21, Y+11	; 0x0b
    331c:	e8 81       	ld	r30, Y
    331e:	f9 81       	ldd	r31, Y+1	; 0x01
    3320:	ee 0f       	add	r30, r30
    3322:	ff 1f       	adc	r31, r31
    3324:	e6 5e       	subi	r30, 0xE6	; 230
    3326:	f8 4f       	sbci	r31, 0xF8	; 248
    3328:	60 81       	ld	r22, Z
    332a:	71 81       	ldd	r23, Z+1	; 0x01
    332c:	60 5b       	subi	r22, 0xB0	; 176
    332e:	7f 4f       	sbci	r23, 0xFF	; 255
    3330:	0f 2e       	mov	r0, r31
    3332:	fb e0       	ldi	r31, 0x0B	; 11
    3334:	ef 2e       	mov	r14, r31
    3336:	f2 e0       	ldi	r31, 0x02	; 2
    3338:	ff 2e       	mov	r15, r31
    333a:	f0 2d       	mov	r31, r0
    333c:	21 e0       	ldi	r18, 0x01	; 1
    333e:	30 e0       	ldi	r19, 0x00	; 0
    3340:	86 e4       	ldi	r24, 0x46	; 70
    3342:	97 e0       	ldi	r25, 0x07	; 7
    3344:	0e 94 f2 38 	call	0x71e4	; 0x71e4 <_ZN4OLED19OLED_Write_To_BuferEiiiiPKh>
    3348:	4a 85       	ldd	r20, Y+10	; 0x0a
    334a:	5b 85       	ldd	r21, Y+11	; 0x0b
    334c:	e8 81       	ld	r30, Y
    334e:	f9 81       	ldd	r31, Y+1	; 0x01
    3350:	ee 0f       	add	r30, r30
    3352:	ff 1f       	adc	r31, r31
    3354:	e6 5e       	subi	r30, 0xE6	; 230
    3356:	f8 4f       	sbci	r31, 0xF8	; 248
    3358:	60 81       	ld	r22, Z
    335a:	71 81       	ldd	r23, Z+1	; 0x01
    335c:	68 5a       	subi	r22, 0xA8	; 168
    335e:	7f 4f       	sbci	r23, 0xFF	; 255
    3360:	0f 2e       	mov	r0, r31
    3362:	fb ef       	ldi	r31, 0xFB	; 251
    3364:	ef 2e       	mov	r14, r31
    3366:	f1 e0       	ldi	r31, 0x01	; 1
    3368:	ff 2e       	mov	r15, r31
    336a:	f0 2d       	mov	r31, r0
    336c:	21 e0       	ldi	r18, 0x01	; 1
    336e:	30 e0       	ldi	r19, 0x00	; 0
    3370:	86 e4       	ldi	r24, 0x46	; 70
    3372:	97 e0       	ldi	r25, 0x07	; 7
    3374:	0e 94 f2 38 	call	0x71e4	; 0x71e4 <_ZN4OLED19OLED_Write_To_BuferEiiiiPKh>
    3378:	5e c3       	rjmp	.+1724   	; 0x3a36 <_Z5checkv+0xd7c>
    337a:	c8 e1       	ldi	r28, 0x18	; 24
    337c:	d7 e0       	ldi	r29, 0x07	; 7
    337e:	4a 85       	ldd	r20, Y+10	; 0x0a
    3380:	5b 85       	ldd	r21, Y+11	; 0x0b
    3382:	08 e0       	ldi	r16, 0x08	; 8
    3384:	10 e0       	ldi	r17, 0x00	; 0
    3386:	20 e1       	ldi	r18, 0x10	; 16
    3388:	30 e0       	ldi	r19, 0x00	; 0
    338a:	60 e0       	ldi	r22, 0x00	; 0
    338c:	70 e0       	ldi	r23, 0x00	; 0
    338e:	86 e4       	ldi	r24, 0x46	; 70
    3390:	97 e0       	ldi	r25, 0x07	; 7
    3392:	0e 94 a3 38 	call	0x7146	; 0x7146 <_ZN4OLED21OLED_Clear_Bufer_partEiiii>
    3396:	4a 85       	ldd	r20, Y+10	; 0x0a
    3398:	5b 85       	ldd	r21, Y+11	; 0x0b
    339a:	e8 81       	ld	r30, Y
    339c:	f9 81       	ldd	r31, Y+1	; 0x01
    339e:	ee 0f       	add	r30, r30
    33a0:	ff 1f       	adc	r31, r31
    33a2:	e6 5e       	subi	r30, 0xE6	; 230
    33a4:	f8 4f       	sbci	r31, 0xF8	; 248
    33a6:	60 81       	ld	r22, Z
    33a8:	71 81       	ldd	r23, Z+1	; 0x01
    33aa:	0f 2e       	mov	r0, r31
    33ac:	fb e1       	ldi	r31, 0x1B	; 27
    33ae:	ef 2e       	mov	r14, r31
    33b0:	f2 e0       	ldi	r31, 0x02	; 2
    33b2:	ff 2e       	mov	r15, r31
    33b4:	f0 2d       	mov	r31, r0
    33b6:	21 e0       	ldi	r18, 0x01	; 1
    33b8:	30 e0       	ldi	r19, 0x00	; 0
    33ba:	86 e4       	ldi	r24, 0x46	; 70
    33bc:	97 e0       	ldi	r25, 0x07	; 7
    33be:	0e 94 f2 38 	call	0x71e4	; 0x71e4 <_ZN4OLED19OLED_Write_To_BuferEiiiiPKh>
    33c2:	4a 85       	ldd	r20, Y+10	; 0x0a
    33c4:	5b 85       	ldd	r21, Y+11	; 0x0b
    33c6:	e8 81       	ld	r30, Y
    33c8:	f9 81       	ldd	r31, Y+1	; 0x01
    33ca:	ee 0f       	add	r30, r30
    33cc:	ff 1f       	adc	r31, r31
    33ce:	e6 5e       	subi	r30, 0xE6	; 230
    33d0:	f8 4f       	sbci	r31, 0xF8	; 248
    33d2:	60 81       	ld	r22, Z
    33d4:	71 81       	ldd	r23, Z+1	; 0x01
    33d6:	68 5f       	subi	r22, 0xF8	; 248
    33d8:	7f 4f       	sbci	r23, 0xFF	; 255
    33da:	0f 2e       	mov	r0, r31
    33dc:	f3 e0       	ldi	r31, 0x03	; 3
    33de:	ef 2e       	mov	r14, r31
    33e0:	f2 e0       	ldi	r31, 0x02	; 2
    33e2:	ff 2e       	mov	r15, r31
    33e4:	f0 2d       	mov	r31, r0
    33e6:	21 e0       	ldi	r18, 0x01	; 1
    33e8:	30 e0       	ldi	r19, 0x00	; 0
    33ea:	86 e4       	ldi	r24, 0x46	; 70
    33ec:	97 e0       	ldi	r25, 0x07	; 7
    33ee:	0e 94 f2 38 	call	0x71e4	; 0x71e4 <_ZN4OLED19OLED_Write_To_BuferEiiiiPKh>
    33f2:	4a 85       	ldd	r20, Y+10	; 0x0a
    33f4:	5b 85       	ldd	r21, Y+11	; 0x0b
    33f6:	e8 81       	ld	r30, Y
    33f8:	f9 81       	ldd	r31, Y+1	; 0x01
    33fa:	ee 0f       	add	r30, r30
    33fc:	ff 1f       	adc	r31, r31
    33fe:	e6 5e       	subi	r30, 0xE6	; 230
    3400:	f8 4f       	sbci	r31, 0xF8	; 248
    3402:	60 81       	ld	r22, Z
    3404:	71 81       	ldd	r23, Z+1	; 0x01
    3406:	60 5f       	subi	r22, 0xF0	; 240
    3408:	7f 4f       	sbci	r23, 0xFF	; 255
    340a:	21 e0       	ldi	r18, 0x01	; 1
    340c:	30 e0       	ldi	r19, 0x00	; 0
    340e:	86 e4       	ldi	r24, 0x46	; 70
    3410:	97 e0       	ldi	r25, 0x07	; 7
    3412:	0e 94 f2 38 	call	0x71e4	; 0x71e4 <_ZN4OLED19OLED_Write_To_BuferEiiiiPKh>
    3416:	4a 85       	ldd	r20, Y+10	; 0x0a
    3418:	5b 85       	ldd	r21, Y+11	; 0x0b
    341a:	e8 81       	ld	r30, Y
    341c:	f9 81       	ldd	r31, Y+1	; 0x01
    341e:	ee 0f       	add	r30, r30
    3420:	ff 1f       	adc	r31, r31
    3422:	e6 5e       	subi	r30, 0xE6	; 230
    3424:	f8 4f       	sbci	r31, 0xF8	; 248
    3426:	60 81       	ld	r22, Z
    3428:	71 81       	ldd	r23, Z+1	; 0x01
    342a:	60 5e       	subi	r22, 0xE0	; 224
    342c:	7f 4f       	sbci	r23, 0xFF	; 255
    342e:	0f 2e       	mov	r0, r31
    3430:	fb ea       	ldi	r31, 0xAB	; 171
    3432:	ef 2e       	mov	r14, r31
    3434:	f1 e0       	ldi	r31, 0x01	; 1
    3436:	ff 2e       	mov	r15, r31
    3438:	f0 2d       	mov	r31, r0
    343a:	21 e0       	ldi	r18, 0x01	; 1
    343c:	30 e0       	ldi	r19, 0x00	; 0
    343e:	86 e4       	ldi	r24, 0x46	; 70
    3440:	97 e0       	ldi	r25, 0x07	; 7
    3442:	0e 94 f2 38 	call	0x71e4	; 0x71e4 <_ZN4OLED19OLED_Write_To_BuferEiiiiPKh>
    3446:	4a 85       	ldd	r20, Y+10	; 0x0a
    3448:	5b 85       	ldd	r21, Y+11	; 0x0b
    344a:	e8 81       	ld	r30, Y
    344c:	f9 81       	ldd	r31, Y+1	; 0x01
    344e:	ee 0f       	add	r30, r30
    3450:	ff 1f       	adc	r31, r31
    3452:	e6 5e       	subi	r30, 0xE6	; 230
    3454:	f8 4f       	sbci	r31, 0xF8	; 248
    3456:	60 81       	ld	r22, Z
    3458:	71 81       	ldd	r23, Z+1	; 0x01
    345a:	68 5d       	subi	r22, 0xD8	; 216
    345c:	7f 4f       	sbci	r23, 0xFF	; 255
    345e:	0f 2e       	mov	r0, r31
    3460:	fb e7       	ldi	r31, 0x7B	; 123
    3462:	ef 2e       	mov	r14, r31
    3464:	f1 e0       	ldi	r31, 0x01	; 1
    3466:	ff 2e       	mov	r15, r31
    3468:	f0 2d       	mov	r31, r0
    346a:	21 e0       	ldi	r18, 0x01	; 1
    346c:	30 e0       	ldi	r19, 0x00	; 0
    346e:	86 e4       	ldi	r24, 0x46	; 70
    3470:	97 e0       	ldi	r25, 0x07	; 7
    3472:	0e 94 f2 38 	call	0x71e4	; 0x71e4 <_ZN4OLED19OLED_Write_To_BuferEiiiiPKh>
    3476:	4a 85       	ldd	r20, Y+10	; 0x0a
    3478:	5b 85       	ldd	r21, Y+11	; 0x0b
    347a:	e8 81       	ld	r30, Y
    347c:	f9 81       	ldd	r31, Y+1	; 0x01
    347e:	ee 0f       	add	r30, r30
    3480:	ff 1f       	adc	r31, r31
    3482:	e6 5e       	subi	r30, 0xE6	; 230
    3484:	f8 4f       	sbci	r31, 0xF8	; 248
    3486:	60 81       	ld	r22, Z
    3488:	71 81       	ldd	r23, Z+1	; 0x01
    348a:	60 5d       	subi	r22, 0xD0	; 208
    348c:	7f 4f       	sbci	r23, 0xFF	; 255
    348e:	0f 2e       	mov	r0, r31
    3490:	f3 eb       	ldi	r31, 0xB3	; 179
    3492:	ef 2e       	mov	r14, r31
    3494:	f1 e0       	ldi	r31, 0x01	; 1
    3496:	ff 2e       	mov	r15, r31
    3498:	f0 2d       	mov	r31, r0
    349a:	21 e0       	ldi	r18, 0x01	; 1
    349c:	30 e0       	ldi	r19, 0x00	; 0
    349e:	86 e4       	ldi	r24, 0x46	; 70
    34a0:	97 e0       	ldi	r25, 0x07	; 7
    34a2:	0e 94 f2 38 	call	0x71e4	; 0x71e4 <_ZN4OLED19OLED_Write_To_BuferEiiiiPKh>
    34a6:	4a 85       	ldd	r20, Y+10	; 0x0a
    34a8:	5b 85       	ldd	r21, Y+11	; 0x0b
    34aa:	e8 81       	ld	r30, Y
    34ac:	f9 81       	ldd	r31, Y+1	; 0x01
    34ae:	ee 0f       	add	r30, r30
    34b0:	ff 1f       	adc	r31, r31
    34b2:	e6 5e       	subi	r30, 0xE6	; 230
    34b4:	f8 4f       	sbci	r31, 0xF8	; 248
    34b6:	60 81       	ld	r22, Z
    34b8:	71 81       	ldd	r23, Z+1	; 0x01
    34ba:	68 5c       	subi	r22, 0xC8	; 200
    34bc:	7f 4f       	sbci	r23, 0xFF	; 255
    34be:	0f 2e       	mov	r0, r31
    34c0:	fb ef       	ldi	r31, 0xFB	; 251
    34c2:	ef 2e       	mov	r14, r31
    34c4:	f1 e0       	ldi	r31, 0x01	; 1
    34c6:	ff 2e       	mov	r15, r31
    34c8:	f0 2d       	mov	r31, r0
    34ca:	21 e0       	ldi	r18, 0x01	; 1
    34cc:	30 e0       	ldi	r19, 0x00	; 0
    34ce:	86 e4       	ldi	r24, 0x46	; 70
    34d0:	97 e0       	ldi	r25, 0x07	; 7
    34d2:	0e 94 f2 38 	call	0x71e4	; 0x71e4 <_ZN4OLED19OLED_Write_To_BuferEiiiiPKh>
    34d6:	4a 85       	ldd	r20, Y+10	; 0x0a
    34d8:	5b 85       	ldd	r21, Y+11	; 0x0b
    34da:	e8 81       	ld	r30, Y
    34dc:	f9 81       	ldd	r31, Y+1	; 0x01
    34de:	ee 0f       	add	r30, r30
    34e0:	ff 1f       	adc	r31, r31
    34e2:	e6 5e       	subi	r30, 0xE6	; 230
    34e4:	f8 4f       	sbci	r31, 0xF8	; 248
    34e6:	60 81       	ld	r22, Z
    34e8:	71 81       	ldd	r23, Z+1	; 0x01
    34ea:	60 5c       	subi	r22, 0xC0	; 192
    34ec:	7f 4f       	sbci	r23, 0xFF	; 255
    34ee:	0f 2e       	mov	r0, r31
    34f0:	f3 ea       	ldi	r31, 0xA3	; 163
    34f2:	ef 2e       	mov	r14, r31
    34f4:	f1 e0       	ldi	r31, 0x01	; 1
    34f6:	ff 2e       	mov	r15, r31
    34f8:	f0 2d       	mov	r31, r0
    34fa:	21 e0       	ldi	r18, 0x01	; 1
    34fc:	30 e0       	ldi	r19, 0x00	; 0
    34fe:	86 e4       	ldi	r24, 0x46	; 70
    3500:	97 e0       	ldi	r25, 0x07	; 7
    3502:	0e 94 f2 38 	call	0x71e4	; 0x71e4 <_ZN4OLED19OLED_Write_To_BuferEiiiiPKh>
    3506:	97 c2       	rjmp	.+1326   	; 0x3a36 <_Z5checkv+0xd7c>
    3508:	c8 e1       	ldi	r28, 0x18	; 24
    350a:	d7 e0       	ldi	r29, 0x07	; 7
    350c:	4a 85       	ldd	r20, Y+10	; 0x0a
    350e:	5b 85       	ldd	r21, Y+11	; 0x0b
    3510:	08 e0       	ldi	r16, 0x08	; 8
    3512:	10 e0       	ldi	r17, 0x00	; 0
    3514:	20 e1       	ldi	r18, 0x10	; 16
    3516:	30 e0       	ldi	r19, 0x00	; 0
    3518:	60 e0       	ldi	r22, 0x00	; 0
    351a:	70 e0       	ldi	r23, 0x00	; 0
    351c:	86 e4       	ldi	r24, 0x46	; 70
    351e:	97 e0       	ldi	r25, 0x07	; 7
    3520:	0e 94 a3 38 	call	0x7146	; 0x7146 <_ZN4OLED21OLED_Clear_Bufer_partEiiii>
    3524:	4a 85       	ldd	r20, Y+10	; 0x0a
    3526:	5b 85       	ldd	r21, Y+11	; 0x0b
    3528:	e8 81       	ld	r30, Y
    352a:	f9 81       	ldd	r31, Y+1	; 0x01
    352c:	ee 0f       	add	r30, r30
    352e:	ff 1f       	adc	r31, r31
    3530:	e6 5e       	subi	r30, 0xE6	; 230
    3532:	f8 4f       	sbci	r31, 0xF8	; 248
    3534:	60 81       	ld	r22, Z
    3536:	71 81       	ldd	r23, Z+1	; 0x01
    3538:	0f 2e       	mov	r0, r31
    353a:	f3 e1       	ldi	r31, 0x13	; 19
    353c:	ef 2e       	mov	r14, r31
    353e:	f1 e0       	ldi	r31, 0x01	; 1
    3540:	ff 2e       	mov	r15, r31
    3542:	f0 2d       	mov	r31, r0
    3544:	22 e0       	ldi	r18, 0x02	; 2
    3546:	30 e0       	ldi	r19, 0x00	; 0
    3548:	86 e4       	ldi	r24, 0x46	; 70
    354a:	97 e0       	ldi	r25, 0x07	; 7
    354c:	0e 94 f2 38 	call	0x71e4	; 0x71e4 <_ZN4OLED19OLED_Write_To_BuferEiiiiPKh>
    3550:	72 c2       	rjmp	.+1252   	; 0x3a36 <_Z5checkv+0xd7c>
    3552:	80 91 43 07 	lds	r24, 0x0743	; 0x800743 <Info_Menu_Status>
    3556:	88 23       	and	r24, r24
    3558:	09 f4       	brne	.+2      	; 0x355c <_Z5checkv+0x8a2>
    355a:	fe c1       	rjmp	.+1020   	; 0x3958 <_Z5checkv+0xc9e>
    355c:	80 91 24 07 	lds	r24, 0x0724	; 0x800724 <inf_menu>
    3560:	90 91 25 07 	lds	r25, 0x0725	; 0x800725 <inf_menu+0x1>
    3564:	01 97       	sbiw	r24, 0x01	; 1
    3566:	12 f0       	brmi	.+4      	; 0x356c <_Z5checkv+0x8b2>
    3568:	0c 94 77 29 	jmp	0x52ee	; 0x52ee <__stack+0x11ef>
    356c:	82 e0       	ldi	r24, 0x02	; 2
    356e:	90 e0       	ldi	r25, 0x00	; 0
    3570:	90 93 25 07 	sts	0x0725, r25	; 0x800725 <inf_menu+0x1>
    3574:	80 93 24 07 	sts	0x0724, r24	; 0x800724 <inf_menu>
    3578:	ca c1       	rjmp	.+916    	; 0x390e <_Z5checkv+0xc54>
    357a:	c4 e2       	ldi	r28, 0x24	; 36
    357c:	d7 e0       	ldi	r29, 0x07	; 7
    357e:	48 85       	ldd	r20, Y+8	; 0x08
    3580:	59 85       	ldd	r21, Y+9	; 0x09
    3582:	08 e0       	ldi	r16, 0x08	; 8
    3584:	10 e0       	ldi	r17, 0x00	; 0
    3586:	20 e1       	ldi	r18, 0x10	; 16
    3588:	30 e0       	ldi	r19, 0x00	; 0
    358a:	60 e0       	ldi	r22, 0x00	; 0
    358c:	70 e0       	ldi	r23, 0x00	; 0
    358e:	86 e4       	ldi	r24, 0x46	; 70
    3590:	97 e0       	ldi	r25, 0x07	; 7
    3592:	0e 94 a3 38 	call	0x7146	; 0x7146 <_ZN4OLED21OLED_Clear_Bufer_partEiiii>
    3596:	48 85       	ldd	r20, Y+8	; 0x08
    3598:	59 85       	ldd	r21, Y+9	; 0x09
    359a:	e8 81       	ld	r30, Y
    359c:	f9 81       	ldd	r31, Y+1	; 0x01
    359e:	ee 0f       	add	r30, r30
    35a0:	ff 1f       	adc	r31, r31
    35a2:	ea 5d       	subi	r30, 0xDA	; 218
    35a4:	f8 4f       	sbci	r31, 0xF8	; 248
    35a6:	60 81       	ld	r22, Z
    35a8:	71 81       	ldd	r23, Z+1	; 0x01
    35aa:	0f 2e       	mov	r0, r31
    35ac:	f3 e0       	ldi	r31, 0x03	; 3
    35ae:	ef 2e       	mov	r14, r31
    35b0:	f2 e0       	ldi	r31, 0x02	; 2
    35b2:	ff 2e       	mov	r15, r31
    35b4:	f0 2d       	mov	r31, r0
    35b6:	21 e0       	ldi	r18, 0x01	; 1
    35b8:	30 e0       	ldi	r19, 0x00	; 0
    35ba:	86 e4       	ldi	r24, 0x46	; 70
    35bc:	97 e0       	ldi	r25, 0x07	; 7
    35be:	0e 94 f2 38 	call	0x71e4	; 0x71e4 <_ZN4OLED19OLED_Write_To_BuferEiiiiPKh>
    35c2:	48 85       	ldd	r20, Y+8	; 0x08
    35c4:	59 85       	ldd	r21, Y+9	; 0x09
    35c6:	e8 81       	ld	r30, Y
    35c8:	f9 81       	ldd	r31, Y+1	; 0x01
    35ca:	ee 0f       	add	r30, r30
    35cc:	ff 1f       	adc	r31, r31
    35ce:	ea 5d       	subi	r30, 0xDA	; 218
    35d0:	f8 4f       	sbci	r31, 0xF8	; 248
    35d2:	60 81       	ld	r22, Z
    35d4:	71 81       	ldd	r23, Z+1	; 0x01
    35d6:	68 5f       	subi	r22, 0xF8	; 248
    35d8:	7f 4f       	sbci	r23, 0xFF	; 255
    35da:	0f 2e       	mov	r0, r31
    35dc:	fb ef       	ldi	r31, 0xFB	; 251
    35de:	ef 2e       	mov	r14, r31
    35e0:	f1 e0       	ldi	r31, 0x01	; 1
    35e2:	ff 2e       	mov	r15, r31
    35e4:	f0 2d       	mov	r31, r0
    35e6:	21 e0       	ldi	r18, 0x01	; 1
    35e8:	30 e0       	ldi	r19, 0x00	; 0
    35ea:	86 e4       	ldi	r24, 0x46	; 70
    35ec:	97 e0       	ldi	r25, 0x07	; 7
    35ee:	0e 94 f2 38 	call	0x71e4	; 0x71e4 <_ZN4OLED19OLED_Write_To_BuferEiiiiPKh>
    35f2:	48 85       	ldd	r20, Y+8	; 0x08
    35f4:	59 85       	ldd	r21, Y+9	; 0x09
    35f6:	e8 81       	ld	r30, Y
    35f8:	f9 81       	ldd	r31, Y+1	; 0x01
    35fa:	ee 0f       	add	r30, r30
    35fc:	ff 1f       	adc	r31, r31
    35fe:	ea 5d       	subi	r30, 0xDA	; 218
    3600:	f8 4f       	sbci	r31, 0xF8	; 248
    3602:	60 81       	ld	r22, Z
    3604:	71 81       	ldd	r23, Z+1	; 0x01
    3606:	60 5f       	subi	r22, 0xF0	; 240
    3608:	7f 4f       	sbci	r23, 0xFF	; 255
    360a:	0f 2e       	mov	r0, r31
    360c:	f3 e8       	ldi	r31, 0x83	; 131
    360e:	ef 2e       	mov	r14, r31
    3610:	f1 e0       	ldi	r31, 0x01	; 1
    3612:	ff 2e       	mov	r15, r31
    3614:	f0 2d       	mov	r31, r0
    3616:	21 e0       	ldi	r18, 0x01	; 1
    3618:	30 e0       	ldi	r19, 0x00	; 0
    361a:	86 e4       	ldi	r24, 0x46	; 70
    361c:	97 e0       	ldi	r25, 0x07	; 7
    361e:	0e 94 f2 38 	call	0x71e4	; 0x71e4 <_ZN4OLED19OLED_Write_To_BuferEiiiiPKh>
    3622:	48 85       	ldd	r20, Y+8	; 0x08
    3624:	59 85       	ldd	r21, Y+9	; 0x09
    3626:	e8 81       	ld	r30, Y
    3628:	f9 81       	ldd	r31, Y+1	; 0x01
    362a:	ee 0f       	add	r30, r30
    362c:	ff 1f       	adc	r31, r31
    362e:	ea 5d       	subi	r30, 0xDA	; 218
    3630:	f8 4f       	sbci	r31, 0xF8	; 248
    3632:	60 81       	ld	r22, Z
    3634:	71 81       	ldd	r23, Z+1	; 0x01
    3636:	68 5e       	subi	r22, 0xE8	; 232
    3638:	7f 4f       	sbci	r23, 0xFF	; 255
    363a:	0f 2e       	mov	r0, r31
    363c:	fb ed       	ldi	r31, 0xDB	; 219
    363e:	ef 2e       	mov	r14, r31
    3640:	f1 e0       	ldi	r31, 0x01	; 1
    3642:	ff 2e       	mov	r15, r31
    3644:	f0 2d       	mov	r31, r0
    3646:	21 e0       	ldi	r18, 0x01	; 1
    3648:	30 e0       	ldi	r19, 0x00	; 0
    364a:	86 e4       	ldi	r24, 0x46	; 70
    364c:	97 e0       	ldi	r25, 0x07	; 7
    364e:	0e 94 f2 38 	call	0x71e4	; 0x71e4 <_ZN4OLED19OLED_Write_To_BuferEiiiiPKh>
    3652:	48 85       	ldd	r20, Y+8	; 0x08
    3654:	59 85       	ldd	r21, Y+9	; 0x09
    3656:	e8 81       	ld	r30, Y
    3658:	f9 81       	ldd	r31, Y+1	; 0x01
    365a:	ee 0f       	add	r30, r30
    365c:	ff 1f       	adc	r31, r31
    365e:	ea 5d       	subi	r30, 0xDA	; 218
    3660:	f8 4f       	sbci	r31, 0xF8	; 248
    3662:	60 81       	ld	r22, Z
    3664:	71 81       	ldd	r23, Z+1	; 0x01
    3666:	60 5e       	subi	r22, 0xE0	; 224
    3668:	7f 4f       	sbci	r23, 0xFF	; 255
    366a:	0f 2e       	mov	r0, r31
    366c:	fb e0       	ldi	r31, 0x0B	; 11
    366e:	ef 2e       	mov	r14, r31
    3670:	f2 e0       	ldi	r31, 0x02	; 2
    3672:	ff 2e       	mov	r15, r31
    3674:	f0 2d       	mov	r31, r0
    3676:	21 e0       	ldi	r18, 0x01	; 1
    3678:	30 e0       	ldi	r19, 0x00	; 0
    367a:	86 e4       	ldi	r24, 0x46	; 70
    367c:	97 e0       	ldi	r25, 0x07	; 7
    367e:	0e 94 f2 38 	call	0x71e4	; 0x71e4 <_ZN4OLED19OLED_Write_To_BuferEiiiiPKh>
    3682:	48 85       	ldd	r20, Y+8	; 0x08
    3684:	59 85       	ldd	r21, Y+9	; 0x09
    3686:	e8 81       	ld	r30, Y
    3688:	f9 81       	ldd	r31, Y+1	; 0x01
    368a:	ee 0f       	add	r30, r30
    368c:	ff 1f       	adc	r31, r31
    368e:	ea 5d       	subi	r30, 0xDA	; 218
    3690:	f8 4f       	sbci	r31, 0xF8	; 248
    3692:	60 81       	ld	r22, Z
    3694:	71 81       	ldd	r23, Z+1	; 0x01
    3696:	68 5d       	subi	r22, 0xD8	; 216
    3698:	7f 4f       	sbci	r23, 0xFF	; 255
    369a:	0f 2e       	mov	r0, r31
    369c:	fb ef       	ldi	r31, 0xFB	; 251
    369e:	ef 2e       	mov	r14, r31
    36a0:	f1 e0       	ldi	r31, 0x01	; 1
    36a2:	ff 2e       	mov	r15, r31
    36a4:	f0 2d       	mov	r31, r0
    36a6:	21 e0       	ldi	r18, 0x01	; 1
    36a8:	30 e0       	ldi	r19, 0x00	; 0
    36aa:	86 e4       	ldi	r24, 0x46	; 70
    36ac:	97 e0       	ldi	r25, 0x07	; 7
    36ae:	0e 94 f2 38 	call	0x71e4	; 0x71e4 <_ZN4OLED19OLED_Write_To_BuferEiiiiPKh>
    36b2:	48 85       	ldd	r20, Y+8	; 0x08
    36b4:	59 85       	ldd	r21, Y+9	; 0x09
    36b6:	e8 81       	ld	r30, Y
    36b8:	f9 81       	ldd	r31, Y+1	; 0x01
    36ba:	ee 0f       	add	r30, r30
    36bc:	ff 1f       	adc	r31, r31
    36be:	ea 5d       	subi	r30, 0xDA	; 218
    36c0:	f8 4f       	sbci	r31, 0xF8	; 248
    36c2:	60 81       	ld	r22, Z
    36c4:	71 81       	ldd	r23, Z+1	; 0x01
    36c6:	68 5c       	subi	r22, 0xC8	; 200
    36c8:	7f 4f       	sbci	r23, 0xFF	; 255
    36ca:	0f 2e       	mov	r0, r31
    36cc:	fb ed       	ldi	r31, 0xDB	; 219
    36ce:	ef 2e       	mov	r14, r31
    36d0:	f1 e0       	ldi	r31, 0x01	; 1
    36d2:	ff 2e       	mov	r15, r31
    36d4:	f0 2d       	mov	r31, r0
    36d6:	21 e0       	ldi	r18, 0x01	; 1
    36d8:	30 e0       	ldi	r19, 0x00	; 0
    36da:	86 e4       	ldi	r24, 0x46	; 70
    36dc:	97 e0       	ldi	r25, 0x07	; 7
    36de:	0e 94 f2 38 	call	0x71e4	; 0x71e4 <_ZN4OLED19OLED_Write_To_BuferEiiiiPKh>
    36e2:	48 85       	ldd	r20, Y+8	; 0x08
    36e4:	59 85       	ldd	r21, Y+9	; 0x09
    36e6:	e8 81       	ld	r30, Y
    36e8:	f9 81       	ldd	r31, Y+1	; 0x01
    36ea:	ee 0f       	add	r30, r30
    36ec:	ff 1f       	adc	r31, r31
    36ee:	ea 5d       	subi	r30, 0xDA	; 218
    36f0:	f8 4f       	sbci	r31, 0xF8	; 248
    36f2:	60 81       	ld	r22, Z
    36f4:	71 81       	ldd	r23, Z+1	; 0x01
    36f6:	60 5c       	subi	r22, 0xC0	; 192
    36f8:	7f 4f       	sbci	r23, 0xFF	; 255
    36fa:	0f 2e       	mov	r0, r31
    36fc:	f3 eb       	ldi	r31, 0xB3	; 179
    36fe:	ef 2e       	mov	r14, r31
    3700:	f1 e0       	ldi	r31, 0x01	; 1
    3702:	ff 2e       	mov	r15, r31
    3704:	f0 2d       	mov	r31, r0
    3706:	21 e0       	ldi	r18, 0x01	; 1
    3708:	30 e0       	ldi	r19, 0x00	; 0
    370a:	86 e4       	ldi	r24, 0x46	; 70
    370c:	97 e0       	ldi	r25, 0x07	; 7
    370e:	0e 94 f2 38 	call	0x71e4	; 0x71e4 <_ZN4OLED19OLED_Write_To_BuferEiiiiPKh>
    3712:	48 85       	ldd	r20, Y+8	; 0x08
    3714:	59 85       	ldd	r21, Y+9	; 0x09
    3716:	e8 81       	ld	r30, Y
    3718:	f9 81       	ldd	r31, Y+1	; 0x01
    371a:	ee 0f       	add	r30, r30
    371c:	ff 1f       	adc	r31, r31
    371e:	ea 5d       	subi	r30, 0xDA	; 218
    3720:	f8 4f       	sbci	r31, 0xF8	; 248
    3722:	60 81       	ld	r22, Z
    3724:	71 81       	ldd	r23, Z+1	; 0x01
    3726:	68 5b       	subi	r22, 0xB8	; 184
    3728:	7f 4f       	sbci	r23, 0xFF	; 255
    372a:	0f 2e       	mov	r0, r31
    372c:	f3 ef       	ldi	r31, 0xF3	; 243
    372e:	ef 2e       	mov	r14, r31
    3730:	f1 e0       	ldi	r31, 0x01	; 1
    3732:	ff 2e       	mov	r15, r31
    3734:	f0 2d       	mov	r31, r0
    3736:	21 e0       	ldi	r18, 0x01	; 1
    3738:	30 e0       	ldi	r19, 0x00	; 0
    373a:	86 e4       	ldi	r24, 0x46	; 70
    373c:	97 e0       	ldi	r25, 0x07	; 7
    373e:	0e 94 f2 38 	call	0x71e4	; 0x71e4 <_ZN4OLED19OLED_Write_To_BuferEiiiiPKh>
    3742:	48 85       	ldd	r20, Y+8	; 0x08
    3744:	59 85       	ldd	r21, Y+9	; 0x09
    3746:	e8 81       	ld	r30, Y
    3748:	f9 81       	ldd	r31, Y+1	; 0x01
    374a:	ee 0f       	add	r30, r30
    374c:	ff 1f       	adc	r31, r31
    374e:	ea 5d       	subi	r30, 0xDA	; 218
    3750:	f8 4f       	sbci	r31, 0xF8	; 248
    3752:	60 81       	ld	r22, Z
    3754:	71 81       	ldd	r23, Z+1	; 0x01
    3756:	60 5b       	subi	r22, 0xB0	; 176
    3758:	7f 4f       	sbci	r23, 0xFF	; 255
    375a:	0f 2e       	mov	r0, r31
    375c:	fb ea       	ldi	r31, 0xAB	; 171
    375e:	ef 2e       	mov	r14, r31
    3760:	f1 e0       	ldi	r31, 0x01	; 1
    3762:	ff 2e       	mov	r15, r31
    3764:	f0 2d       	mov	r31, r0
    3766:	21 e0       	ldi	r18, 0x01	; 1
    3768:	30 e0       	ldi	r19, 0x00	; 0
    376a:	86 e4       	ldi	r24, 0x46	; 70
    376c:	97 e0       	ldi	r25, 0x07	; 7
    376e:	0e 94 f2 38 	call	0x71e4	; 0x71e4 <_ZN4OLED19OLED_Write_To_BuferEiiiiPKh>
    3772:	61 c1       	rjmp	.+706    	; 0x3a36 <_Z5checkv+0xd7c>
    3774:	c4 e2       	ldi	r28, 0x24	; 36
    3776:	d7 e0       	ldi	r29, 0x07	; 7
    3778:	48 85       	ldd	r20, Y+8	; 0x08
    377a:	59 85       	ldd	r21, Y+9	; 0x09
    377c:	08 e0       	ldi	r16, 0x08	; 8
    377e:	10 e0       	ldi	r17, 0x00	; 0
    3780:	20 e1       	ldi	r18, 0x10	; 16
    3782:	30 e0       	ldi	r19, 0x00	; 0
    3784:	60 e0       	ldi	r22, 0x00	; 0
    3786:	70 e0       	ldi	r23, 0x00	; 0
    3788:	86 e4       	ldi	r24, 0x46	; 70
    378a:	97 e0       	ldi	r25, 0x07	; 7
    378c:	0e 94 a3 38 	call	0x7146	; 0x7146 <_ZN4OLED21OLED_Clear_Bufer_partEiiii>
    3790:	48 85       	ldd	r20, Y+8	; 0x08
    3792:	59 85       	ldd	r21, Y+9	; 0x09
    3794:	e8 81       	ld	r30, Y
    3796:	f9 81       	ldd	r31, Y+1	; 0x01
    3798:	ee 0f       	add	r30, r30
    379a:	ff 1f       	adc	r31, r31
    379c:	ea 5d       	subi	r30, 0xDA	; 218
    379e:	f8 4f       	sbci	r31, 0xF8	; 248
    37a0:	60 81       	ld	r22, Z
    37a2:	71 81       	ldd	r23, Z+1	; 0x01
    37a4:	0f 2e       	mov	r0, r31
    37a6:	fb e8       	ldi	r31, 0x8B	; 139
    37a8:	ef 2e       	mov	r14, r31
    37aa:	f1 e0       	ldi	r31, 0x01	; 1
    37ac:	ff 2e       	mov	r15, r31
    37ae:	f0 2d       	mov	r31, r0
    37b0:	21 e0       	ldi	r18, 0x01	; 1
    37b2:	30 e0       	ldi	r19, 0x00	; 0
    37b4:	86 e4       	ldi	r24, 0x46	; 70
    37b6:	97 e0       	ldi	r25, 0x07	; 7
    37b8:	0e 94 f2 38 	call	0x71e4	; 0x71e4 <_ZN4OLED19OLED_Write_To_BuferEiiiiPKh>
    37bc:	48 85       	ldd	r20, Y+8	; 0x08
    37be:	59 85       	ldd	r21, Y+9	; 0x09
    37c0:	e8 81       	ld	r30, Y
    37c2:	f9 81       	ldd	r31, Y+1	; 0x01
    37c4:	ee 0f       	add	r30, r30
    37c6:	ff 1f       	adc	r31, r31
    37c8:	ea 5d       	subi	r30, 0xDA	; 218
    37ca:	f8 4f       	sbci	r31, 0xF8	; 248
    37cc:	60 81       	ld	r22, Z
    37ce:	71 81       	ldd	r23, Z+1	; 0x01
    37d0:	68 5f       	subi	r22, 0xF8	; 248
    37d2:	7f 4f       	sbci	r23, 0xFF	; 255
    37d4:	0f 2e       	mov	r0, r31
    37d6:	fb e9       	ldi	r31, 0x9B	; 155
    37d8:	ef 2e       	mov	r14, r31
    37da:	f1 e0       	ldi	r31, 0x01	; 1
    37dc:	ff 2e       	mov	r15, r31
    37de:	f0 2d       	mov	r31, r0
    37e0:	21 e0       	ldi	r18, 0x01	; 1
    37e2:	30 e0       	ldi	r19, 0x00	; 0
    37e4:	86 e4       	ldi	r24, 0x46	; 70
    37e6:	97 e0       	ldi	r25, 0x07	; 7
    37e8:	0e 94 f2 38 	call	0x71e4	; 0x71e4 <_ZN4OLED19OLED_Write_To_BuferEiiiiPKh>
    37ec:	48 85       	ldd	r20, Y+8	; 0x08
    37ee:	59 85       	ldd	r21, Y+9	; 0x09
    37f0:	e8 81       	ld	r30, Y
    37f2:	f9 81       	ldd	r31, Y+1	; 0x01
    37f4:	ee 0f       	add	r30, r30
    37f6:	ff 1f       	adc	r31, r31
    37f8:	ea 5d       	subi	r30, 0xDA	; 218
    37fa:	f8 4f       	sbci	r31, 0xF8	; 248
    37fc:	60 81       	ld	r22, Z
    37fe:	71 81       	ldd	r23, Z+1	; 0x01
    3800:	60 5f       	subi	r22, 0xF0	; 240
    3802:	7f 4f       	sbci	r23, 0xFF	; 255
    3804:	0f 2e       	mov	r0, r31
    3806:	fb ef       	ldi	r31, 0xFB	; 251
    3808:	ef 2e       	mov	r14, r31
    380a:	f1 e0       	ldi	r31, 0x01	; 1
    380c:	ff 2e       	mov	r15, r31
    380e:	f0 2d       	mov	r31, r0
    3810:	21 e0       	ldi	r18, 0x01	; 1
    3812:	30 e0       	ldi	r19, 0x00	; 0
    3814:	86 e4       	ldi	r24, 0x46	; 70
    3816:	97 e0       	ldi	r25, 0x07	; 7
    3818:	0e 94 f2 38 	call	0x71e4	; 0x71e4 <_ZN4OLED19OLED_Write_To_BuferEiiiiPKh>
    381c:	48 85       	ldd	r20, Y+8	; 0x08
    381e:	59 85       	ldd	r21, Y+9	; 0x09
    3820:	e8 81       	ld	r30, Y
    3822:	f9 81       	ldd	r31, Y+1	; 0x01
    3824:	ee 0f       	add	r30, r30
    3826:	ff 1f       	adc	r31, r31
    3828:	ea 5d       	subi	r30, 0xDA	; 218
    382a:	f8 4f       	sbci	r31, 0xF8	; 248
    382c:	60 81       	ld	r22, Z
    382e:	71 81       	ldd	r23, Z+1	; 0x01
    3830:	68 5e       	subi	r22, 0xE8	; 232
    3832:	7f 4f       	sbci	r23, 0xFF	; 255
    3834:	0f 2e       	mov	r0, r31
    3836:	f3 ea       	ldi	r31, 0xA3	; 163
    3838:	ef 2e       	mov	r14, r31
    383a:	f1 e0       	ldi	r31, 0x01	; 1
    383c:	ff 2e       	mov	r15, r31
    383e:	f0 2d       	mov	r31, r0
    3840:	21 e0       	ldi	r18, 0x01	; 1
    3842:	30 e0       	ldi	r19, 0x00	; 0
    3844:	86 e4       	ldi	r24, 0x46	; 70
    3846:	97 e0       	ldi	r25, 0x07	; 7
    3848:	0e 94 f2 38 	call	0x71e4	; 0x71e4 <_ZN4OLED19OLED_Write_To_BuferEiiiiPKh>
    384c:	48 85       	ldd	r20, Y+8	; 0x08
    384e:	59 85       	ldd	r21, Y+9	; 0x09
    3850:	e8 81       	ld	r30, Y
    3852:	f9 81       	ldd	r31, Y+1	; 0x01
    3854:	ee 0f       	add	r30, r30
    3856:	ff 1f       	adc	r31, r31
    3858:	ea 5d       	subi	r30, 0xDA	; 218
    385a:	f8 4f       	sbci	r31, 0xF8	; 248
    385c:	60 81       	ld	r22, Z
    385e:	71 81       	ldd	r23, Z+1	; 0x01
    3860:	68 5d       	subi	r22, 0xD8	; 216
    3862:	7f 4f       	sbci	r23, 0xFF	; 255
    3864:	0f 2e       	mov	r0, r31
    3866:	fb ed       	ldi	r31, 0xDB	; 219
    3868:	ef 2e       	mov	r14, r31
    386a:	f1 e0       	ldi	r31, 0x01	; 1
    386c:	ff 2e       	mov	r15, r31
    386e:	f0 2d       	mov	r31, r0
    3870:	21 e0       	ldi	r18, 0x01	; 1
    3872:	30 e0       	ldi	r19, 0x00	; 0
    3874:	86 e4       	ldi	r24, 0x46	; 70
    3876:	97 e0       	ldi	r25, 0x07	; 7
    3878:	0e 94 f2 38 	call	0x71e4	; 0x71e4 <_ZN4OLED19OLED_Write_To_BuferEiiiiPKh>
    387c:	48 85       	ldd	r20, Y+8	; 0x08
    387e:	59 85       	ldd	r21, Y+9	; 0x09
    3880:	e8 81       	ld	r30, Y
    3882:	f9 81       	ldd	r31, Y+1	; 0x01
    3884:	ee 0f       	add	r30, r30
    3886:	ff 1f       	adc	r31, r31
    3888:	ea 5d       	subi	r30, 0xDA	; 218
    388a:	f8 4f       	sbci	r31, 0xF8	; 248
    388c:	60 81       	ld	r22, Z
    388e:	71 81       	ldd	r23, Z+1	; 0x01
    3890:	60 5d       	subi	r22, 0xD0	; 208
    3892:	7f 4f       	sbci	r23, 0xFF	; 255
    3894:	0f 2e       	mov	r0, r31
    3896:	f3 eb       	ldi	r31, 0xB3	; 179
    3898:	ef 2e       	mov	r14, r31
    389a:	f1 e0       	ldi	r31, 0x01	; 1
    389c:	ff 2e       	mov	r15, r31
    389e:	f0 2d       	mov	r31, r0
    38a0:	21 e0       	ldi	r18, 0x01	; 1
    38a2:	30 e0       	ldi	r19, 0x00	; 0
    38a4:	86 e4       	ldi	r24, 0x46	; 70
    38a6:	97 e0       	ldi	r25, 0x07	; 7
    38a8:	0e 94 f2 38 	call	0x71e4	; 0x71e4 <_ZN4OLED19OLED_Write_To_BuferEiiiiPKh>
    38ac:	48 85       	ldd	r20, Y+8	; 0x08
    38ae:	59 85       	ldd	r21, Y+9	; 0x09
    38b0:	e8 81       	ld	r30, Y
    38b2:	f9 81       	ldd	r31, Y+1	; 0x01
    38b4:	ee 0f       	add	r30, r30
    38b6:	ff 1f       	adc	r31, r31
    38b8:	ea 5d       	subi	r30, 0xDA	; 218
    38ba:	f8 4f       	sbci	r31, 0xF8	; 248
    38bc:	60 81       	ld	r22, Z
    38be:	71 81       	ldd	r23, Z+1	; 0x01
    38c0:	68 5c       	subi	r22, 0xC8	; 200
    38c2:	7f 4f       	sbci	r23, 0xFF	; 255
    38c4:	0f 2e       	mov	r0, r31
    38c6:	f3 ef       	ldi	r31, 0xF3	; 243
    38c8:	ef 2e       	mov	r14, r31
    38ca:	f1 e0       	ldi	r31, 0x01	; 1
    38cc:	ff 2e       	mov	r15, r31
    38ce:	f0 2d       	mov	r31, r0
    38d0:	21 e0       	ldi	r18, 0x01	; 1
    38d2:	30 e0       	ldi	r19, 0x00	; 0
    38d4:	86 e4       	ldi	r24, 0x46	; 70
    38d6:	97 e0       	ldi	r25, 0x07	; 7
    38d8:	0e 94 f2 38 	call	0x71e4	; 0x71e4 <_ZN4OLED19OLED_Write_To_BuferEiiiiPKh>
    38dc:	48 85       	ldd	r20, Y+8	; 0x08
    38de:	59 85       	ldd	r21, Y+9	; 0x09
    38e0:	e8 81       	ld	r30, Y
    38e2:	f9 81       	ldd	r31, Y+1	; 0x01
    38e4:	ee 0f       	add	r30, r30
    38e6:	ff 1f       	adc	r31, r31
    38e8:	ea 5d       	subi	r30, 0xDA	; 218
    38ea:	f8 4f       	sbci	r31, 0xF8	; 248
    38ec:	60 81       	ld	r22, Z
    38ee:	71 81       	ldd	r23, Z+1	; 0x01
    38f0:	60 5c       	subi	r22, 0xC0	; 192
    38f2:	7f 4f       	sbci	r23, 0xFF	; 255
    38f4:	0f 2e       	mov	r0, r31
    38f6:	fb ea       	ldi	r31, 0xAB	; 171
    38f8:	ef 2e       	mov	r14, r31
    38fa:	f1 e0       	ldi	r31, 0x01	; 1
    38fc:	ff 2e       	mov	r15, r31
    38fe:	f0 2d       	mov	r31, r0
    3900:	21 e0       	ldi	r18, 0x01	; 1
    3902:	30 e0       	ldi	r19, 0x00	; 0
    3904:	86 e4       	ldi	r24, 0x46	; 70
    3906:	97 e0       	ldi	r25, 0x07	; 7
    3908:	0e 94 f2 38 	call	0x71e4	; 0x71e4 <_ZN4OLED19OLED_Write_To_BuferEiiiiPKh>
    390c:	94 c0       	rjmp	.+296    	; 0x3a36 <_Z5checkv+0xd7c>
    390e:	c4 e2       	ldi	r28, 0x24	; 36
    3910:	d7 e0       	ldi	r29, 0x07	; 7
    3912:	48 85       	ldd	r20, Y+8	; 0x08
    3914:	59 85       	ldd	r21, Y+9	; 0x09
    3916:	08 e0       	ldi	r16, 0x08	; 8
    3918:	10 e0       	ldi	r17, 0x00	; 0
    391a:	20 e1       	ldi	r18, 0x10	; 16
    391c:	30 e0       	ldi	r19, 0x00	; 0
    391e:	60 e0       	ldi	r22, 0x00	; 0
    3920:	70 e0       	ldi	r23, 0x00	; 0
    3922:	86 e4       	ldi	r24, 0x46	; 70
    3924:	97 e0       	ldi	r25, 0x07	; 7
    3926:	0e 94 a3 38 	call	0x7146	; 0x7146 <_ZN4OLED21OLED_Clear_Bufer_partEiiii>
    392a:	48 85       	ldd	r20, Y+8	; 0x08
    392c:	59 85       	ldd	r21, Y+9	; 0x09
    392e:	e8 81       	ld	r30, Y
    3930:	f9 81       	ldd	r31, Y+1	; 0x01
    3932:	ee 0f       	add	r30, r30
    3934:	ff 1f       	adc	r31, r31
    3936:	ea 5d       	subi	r30, 0xDA	; 218
    3938:	f8 4f       	sbci	r31, 0xF8	; 248
    393a:	60 81       	ld	r22, Z
    393c:	71 81       	ldd	r23, Z+1	; 0x01
    393e:	0f 2e       	mov	r0, r31
    3940:	f3 e1       	ldi	r31, 0x13	; 19
    3942:	ef 2e       	mov	r14, r31
    3944:	f1 e0       	ldi	r31, 0x01	; 1
    3946:	ff 2e       	mov	r15, r31
    3948:	f0 2d       	mov	r31, r0
    394a:	22 e0       	ldi	r18, 0x02	; 2
    394c:	30 e0       	ldi	r19, 0x00	; 0
    394e:	86 e4       	ldi	r24, 0x46	; 70
    3950:	97 e0       	ldi	r25, 0x07	; 7
    3952:	0e 94 f2 38 	call	0x71e4	; 0x71e4 <_ZN4OLED19OLED_Write_To_BuferEiiiiPKh>
    3956:	6f c0       	rjmp	.+222    	; 0x3a36 <_Z5checkv+0xd7c>
    3958:	80 91 42 07 	lds	r24, 0x0742	; 0x800742 <User_Info_Status>
    395c:	88 23       	and	r24, r24
    395e:	71 f0       	breq	.+28     	; 0x397c <_Z5checkv+0xcc2>
    3960:	10 92 fb 06 	sts	0x06FB, r1	; 0x8006fb <us_inf+0x1>
    3964:	10 92 fa 06 	sts	0x06FA, r1	; 0x8006fa <us_inf>
    3968:	10 92 42 07 	sts	0x0742, r1	; 0x800742 <User_Info_Status>
    396c:	81 e0       	ldi	r24, 0x01	; 1
    396e:	80 93 43 07 	sts	0x0743, r24	; 0x800743 <Info_Menu_Status>
    3972:	86 e4       	ldi	r24, 0x46	; 70
    3974:	97 e0       	ldi	r25, 0x07	; 7
    3976:	0e 94 0f 38 	call	0x701e	; 0x701e <_ZN4OLED16OLED_Bufer_ClearEv>
    397a:	5d c0       	rjmp	.+186    	; 0x3a36 <_Z5checkv+0xd7c>
    397c:	80 91 41 07 	lds	r24, 0x0741	; 0x800741 <Device_Info_Status>
    3980:	88 23       	and	r24, r24
    3982:	71 f0       	breq	.+28     	; 0x39a0 <_Z5checkv+0xce6>
    3984:	10 92 f3 06 	sts	0x06F3, r1	; 0x8006f3 <dev_inf+0x3>
    3988:	10 92 f2 06 	sts	0x06F2, r1	; 0x8006f2 <dev_inf+0x2>
    398c:	10 92 41 07 	sts	0x0741, r1	; 0x800741 <Device_Info_Status>
    3990:	81 e0       	ldi	r24, 0x01	; 1
    3992:	80 93 43 07 	sts	0x0743, r24	; 0x800743 <Info_Menu_Status>
    3996:	86 e4       	ldi	r24, 0x46	; 70
    3998:	97 e0       	ldi	r25, 0x07	; 7
    399a:	0e 94 0f 38 	call	0x701e	; 0x701e <_ZN4OLED16OLED_Bufer_ClearEv>
    399e:	4b c0       	rjmp	.+150    	; 0x3a36 <_Z5checkv+0xd7c>
    39a0:	80 91 40 07 	lds	r24, 0x0740	; 0x800740 <User_Add_Status>
    39a4:	88 23       	and	r24, r24
    39a6:	b1 f0       	breq	.+44     	; 0x39d4 <_Z5checkv+0xd1a>
    39a8:	80 91 c2 06 	lds	r24, 0x06C2	; 0x8006c2 <adown+0x2>
    39ac:	90 91 c3 06 	lds	r25, 0x06C3	; 0x8006c3 <adown+0x3>
    39b0:	01 97       	sbiw	r24, 0x01	; 1
    39b2:	2a f0       	brmi	.+10     	; 0x39be <_Z5checkv+0xd04>
    39b4:	90 93 c3 06 	sts	0x06C3, r25	; 0x8006c3 <adown+0x3>
    39b8:	80 93 c2 06 	sts	0x06C2, r24	; 0x8006c2 <adown+0x2>
    39bc:	06 c0       	rjmp	.+12     	; 0x39ca <_Z5checkv+0xd10>
    39be:	8a e0       	ldi	r24, 0x0A	; 10
    39c0:	90 e0       	ldi	r25, 0x00	; 0
    39c2:	90 93 c3 06 	sts	0x06C3, r25	; 0x8006c3 <adown+0x3>
    39c6:	80 93 c2 06 	sts	0x06C2, r24	; 0x8006c2 <adown+0x2>
    39ca:	80 ec       	ldi	r24, 0xC0	; 192
    39cc:	96 e0       	ldi	r25, 0x06	; 6
    39ce:	0e 94 fc 0e 	call	0x1df8	; 0x1df8 <_ZN9Add_Owner7actionsEv>
    39d2:	31 c0       	rjmp	.+98     	; 0x3a36 <_Z5checkv+0xd7c>
    39d4:	80 91 3f 07 	lds	r24, 0x073F	; 0x80073f <Reset_Status>
    39d8:	88 23       	and	r24, r24
    39da:	51 f0       	breq	.+20     	; 0x39f0 <_Z5checkv+0xd36>
    39dc:	10 92 3f 07 	sts	0x073F, r1	; 0x80073f <Reset_Status>
    39e0:	81 e0       	ldi	r24, 0x01	; 1
    39e2:	80 93 44 07 	sts	0x0744, r24	; 0x800744 <Settings_Menu_Status>
    39e6:	86 e4       	ldi	r24, 0x46	; 70
    39e8:	97 e0       	ldi	r25, 0x07	; 7
    39ea:	0e 94 0f 38 	call	0x701e	; 0x701e <_ZN4OLED16OLED_Bufer_ClearEv>
    39ee:	23 c0       	rjmp	.+70     	; 0x3a36 <_Z5checkv+0xd7c>
    39f0:	80 91 3e 07 	lds	r24, 0x073E	; 0x80073e <Brightness_Status>
    39f4:	88 23       	and	r24, r24
    39f6:	f9 f0       	breq	.+62     	; 0x3a36 <_Z5checkv+0xd7c>
    39f8:	80 91 e4 06 	lds	r24, 0x06E4	; 0x8006e4 <brgtns>
    39fc:	90 91 e5 06 	lds	r25, 0x06E5	; 0x8006e5 <brgtns+0x1>
    3a00:	01 97       	sbiw	r24, 0x01	; 1
    3a02:	18 16       	cp	r1, r24
    3a04:	19 06       	cpc	r1, r25
    3a06:	2c f4       	brge	.+10     	; 0x3a12 <_Z5checkv+0xd58>
    3a08:	90 93 e5 06 	sts	0x06E5, r25	; 0x8006e5 <brgtns+0x1>
    3a0c:	80 93 e4 06 	sts	0x06E4, r24	; 0x8006e4 <brgtns>
    3a10:	06 c0       	rjmp	.+12     	; 0x3a1e <_Z5checkv+0xd64>
    3a12:	81 e0       	ldi	r24, 0x01	; 1
    3a14:	90 e0       	ldi	r25, 0x00	; 0
    3a16:	90 93 e5 06 	sts	0x06E5, r25	; 0x8006e5 <brgtns+0x1>
    3a1a:	80 93 e4 06 	sts	0x06E4, r24	; 0x8006e4 <brgtns>
    3a1e:	84 ee       	ldi	r24, 0xE4	; 228
    3a20:	96 e0       	ldi	r25, 0x06	; 6
    3a22:	0e 94 08 0a 	call	0x1410	; 0x1410 <_ZN10Bright_set7actionsEv>
    3a26:	80 91 e4 06 	lds	r24, 0x06E4	; 0x8006e4 <brgtns>
    3a2a:	90 91 e5 06 	lds	r25, 0x06E5	; 0x8006e5 <brgtns+0x1>
    3a2e:	90 93 02 01 	sts	0x0102, r25	; 0x800102 <brigtnesslvl+0x1>
    3a32:	80 93 01 01 	sts	0x0101, r24	; 0x800101 <brigtnesslvl>
    3a36:	81 e0       	ldi	r24, 0x01	; 1
    3a38:	80 93 39 07 	sts	0x0739, r24	; 0x800739 <dreamreset>
    3a3c:	80 91 38 07 	lds	r24, 0x0738	; 0x800738 <newdevice>
    3a40:	88 23       	and	r24, r24
    3a42:	11 f4       	brne	.+4      	; 0x3a48 <_Z5checkv+0xd8e>
    3a44:	0c 94 48 29 	jmp	0x5290	; 0x5290 <__stack+0x1191>
    3a48:	10 92 38 07 	sts	0x0738, r1	; 0x800738 <newdevice>
    3a4c:	81 e0       	ldi	r24, 0x01	; 1
    3a4e:	80 93 00 01 	sts	0x0100, r24	; 0x800100 <Main_Menu_Status>
    3a52:	0c 94 48 29 	jmp	0x5290	; 0x5290 <__stack+0x1191>
    3a56:	87 23       	and	r24, r23
    3a58:	84 23       	and	r24, r20
    3a5a:	86 23       	and	r24, r22
    3a5c:	f8 17       	cp	r31, r24
    3a5e:	08 f0       	brcs	.+2      	; 0x3a62 <_Z5checkv+0xda8>
    3a60:	4a c0       	rjmp	.+148    	; 0x3af6 <_Z5checkv+0xe3c>
    3a62:	80 91 45 07 	lds	r24, 0x0745	; 0x800745 <Password_Menu_Status>
    3a66:	81 11       	cpse	r24, r1
    3a68:	2f c0       	rjmp	.+94     	; 0x3ac8 <_Z5checkv+0xe0e>
    3a6a:	80 91 00 01 	lds	r24, 0x0100	; 0x800100 <Main_Menu_Status>
    3a6e:	81 11       	cpse	r24, r1
    3a70:	2b c0       	rjmp	.+86     	; 0x3ac8 <_Z5checkv+0xe0e>
    3a72:	80 91 44 07 	lds	r24, 0x0744	; 0x800744 <Settings_Menu_Status>
    3a76:	81 11       	cpse	r24, r1
    3a78:	27 c0       	rjmp	.+78     	; 0x3ac8 <_Z5checkv+0xe0e>
    3a7a:	80 91 43 07 	lds	r24, 0x0743	; 0x800743 <Info_Menu_Status>
    3a7e:	81 11       	cpse	r24, r1
    3a80:	23 c0       	rjmp	.+70     	; 0x3ac8 <_Z5checkv+0xe0e>
    3a82:	80 91 42 07 	lds	r24, 0x0742	; 0x800742 <User_Info_Status>
    3a86:	88 23       	and	r24, r24
    3a88:	71 f0       	breq	.+28     	; 0x3aa6 <_Z5checkv+0xdec>
    3a8a:	10 92 fb 06 	sts	0x06FB, r1	; 0x8006fb <us_inf+0x1>
    3a8e:	10 92 fa 06 	sts	0x06FA, r1	; 0x8006fa <us_inf>
    3a92:	10 92 42 07 	sts	0x0742, r1	; 0x800742 <User_Info_Status>
    3a96:	81 e0       	ldi	r24, 0x01	; 1
    3a98:	80 93 43 07 	sts	0x0743, r24	; 0x800743 <Info_Menu_Status>
    3a9c:	86 e4       	ldi	r24, 0x46	; 70
    3a9e:	97 e0       	ldi	r25, 0x07	; 7
    3aa0:	0e 94 0f 38 	call	0x701e	; 0x701e <_ZN4OLED16OLED_Bufer_ClearEv>
    3aa4:	11 c0       	rjmp	.+34     	; 0x3ac8 <_Z5checkv+0xe0e>
    3aa6:	80 91 41 07 	lds	r24, 0x0741	; 0x800741 <Device_Info_Status>
    3aaa:	88 23       	and	r24, r24
    3aac:	69 f0       	breq	.+26     	; 0x3ac8 <_Z5checkv+0xe0e>
    3aae:	10 92 f3 06 	sts	0x06F3, r1	; 0x8006f3 <dev_inf+0x3>
    3ab2:	10 92 f2 06 	sts	0x06F2, r1	; 0x8006f2 <dev_inf+0x2>
    3ab6:	10 92 41 07 	sts	0x0741, r1	; 0x800741 <Device_Info_Status>
    3aba:	81 e0       	ldi	r24, 0x01	; 1
    3abc:	80 93 43 07 	sts	0x0743, r24	; 0x800743 <Info_Menu_Status>
    3ac0:	86 e4       	ldi	r24, 0x46	; 70
    3ac2:	97 e0       	ldi	r25, 0x07	; 7
    3ac4:	0e 94 0f 38 	call	0x701e	; 0x701e <_ZN4OLED16OLED_Bufer_ClearEv>
    3ac8:	80 91 3b 07 	lds	r24, 0x073B	; 0x80073b <locked>
    3acc:	81 11       	cpse	r24, r1
    3ace:	03 c0       	rjmp	.+6      	; 0x3ad6 <_Z5checkv+0xe1c>
    3ad0:	81 e0       	ldi	r24, 0x01	; 1
    3ad2:	80 93 3c 07 	sts	0x073C, r24	; 0x80073c <locktimer>
    3ad6:	81 e0       	ldi	r24, 0x01	; 1
    3ad8:	80 93 39 07 	sts	0x0739, r24	; 0x800739 <dreamreset>
    3adc:	80 91 38 07 	lds	r24, 0x0738	; 0x800738 <newdevice>
    3ae0:	88 23       	and	r24, r24
    3ae2:	11 f4       	brne	.+4      	; 0x3ae8 <_Z5checkv+0xe2e>
    3ae4:	0c 94 48 29 	jmp	0x5290	; 0x5290 <__stack+0x1191>
    3ae8:	10 92 38 07 	sts	0x0738, r1	; 0x800738 <newdevice>
    3aec:	81 e0       	ldi	r24, 0x01	; 1
    3aee:	80 93 00 01 	sts	0x0100, r24	; 0x800100 <Main_Menu_Status>
    3af2:	0c 94 48 29 	jmp	0x5290	; 0x5290 <__stack+0x1191>
    3af6:	23 23       	and	r18, r19
    3af8:	87 2f       	mov	r24, r23
    3afa:	86 23       	and	r24, r22
    3afc:	98 23       	and	r25, r24
    3afe:	92 23       	and	r25, r18
    3b00:	f9 17       	cp	r31, r25
    3b02:	08 f0       	brcs	.+2      	; 0x3b06 <_Z5checkv+0xe4c>
    3b04:	4a c0       	rjmp	.+148    	; 0x3b9a <_Z5checkv+0xee0>
    3b06:	80 91 45 07 	lds	r24, 0x0745	; 0x800745 <Password_Menu_Status>
    3b0a:	81 11       	cpse	r24, r1
    3b0c:	2f c0       	rjmp	.+94     	; 0x3b6c <_Z5checkv+0xeb2>
    3b0e:	80 91 00 01 	lds	r24, 0x0100	; 0x800100 <Main_Menu_Status>
    3b12:	81 11       	cpse	r24, r1
    3b14:	2b c0       	rjmp	.+86     	; 0x3b6c <_Z5checkv+0xeb2>
    3b16:	80 91 44 07 	lds	r24, 0x0744	; 0x800744 <Settings_Menu_Status>
    3b1a:	81 11       	cpse	r24, r1
    3b1c:	27 c0       	rjmp	.+78     	; 0x3b6c <_Z5checkv+0xeb2>
    3b1e:	80 91 43 07 	lds	r24, 0x0743	; 0x800743 <Info_Menu_Status>
    3b22:	81 11       	cpse	r24, r1
    3b24:	23 c0       	rjmp	.+70     	; 0x3b6c <_Z5checkv+0xeb2>
    3b26:	80 91 42 07 	lds	r24, 0x0742	; 0x800742 <User_Info_Status>
    3b2a:	88 23       	and	r24, r24
    3b2c:	71 f0       	breq	.+28     	; 0x3b4a <_Z5checkv+0xe90>
    3b2e:	10 92 fb 06 	sts	0x06FB, r1	; 0x8006fb <us_inf+0x1>
    3b32:	10 92 fa 06 	sts	0x06FA, r1	; 0x8006fa <us_inf>
    3b36:	10 92 42 07 	sts	0x0742, r1	; 0x800742 <User_Info_Status>
    3b3a:	81 e0       	ldi	r24, 0x01	; 1
    3b3c:	80 93 43 07 	sts	0x0743, r24	; 0x800743 <Info_Menu_Status>
    3b40:	86 e4       	ldi	r24, 0x46	; 70
    3b42:	97 e0       	ldi	r25, 0x07	; 7
    3b44:	0e 94 0f 38 	call	0x701e	; 0x701e <_ZN4OLED16OLED_Bufer_ClearEv>
    3b48:	11 c0       	rjmp	.+34     	; 0x3b6c <_Z5checkv+0xeb2>
    3b4a:	80 91 41 07 	lds	r24, 0x0741	; 0x800741 <Device_Info_Status>
    3b4e:	88 23       	and	r24, r24
    3b50:	69 f0       	breq	.+26     	; 0x3b6c <_Z5checkv+0xeb2>
    3b52:	10 92 f3 06 	sts	0x06F3, r1	; 0x8006f3 <dev_inf+0x3>
    3b56:	10 92 f2 06 	sts	0x06F2, r1	; 0x8006f2 <dev_inf+0x2>
    3b5a:	10 92 41 07 	sts	0x0741, r1	; 0x800741 <Device_Info_Status>
    3b5e:	81 e0       	ldi	r24, 0x01	; 1
    3b60:	80 93 43 07 	sts	0x0743, r24	; 0x800743 <Info_Menu_Status>
    3b64:	86 e4       	ldi	r24, 0x46	; 70
    3b66:	97 e0       	ldi	r25, 0x07	; 7
    3b68:	0e 94 0f 38 	call	0x701e	; 0x701e <_ZN4OLED16OLED_Bufer_ClearEv>
    3b6c:	80 91 3b 07 	lds	r24, 0x073B	; 0x80073b <locked>
    3b70:	81 11       	cpse	r24, r1
    3b72:	03 c0       	rjmp	.+6      	; 0x3b7a <_Z5checkv+0xec0>
    3b74:	81 e0       	ldi	r24, 0x01	; 1
    3b76:	80 93 3c 07 	sts	0x073C, r24	; 0x80073c <locktimer>
    3b7a:	81 e0       	ldi	r24, 0x01	; 1
    3b7c:	80 93 39 07 	sts	0x0739, r24	; 0x800739 <dreamreset>
    3b80:	80 91 38 07 	lds	r24, 0x0738	; 0x800738 <newdevice>
    3b84:	88 23       	and	r24, r24
    3b86:	11 f4       	brne	.+4      	; 0x3b8c <_Z5checkv+0xed2>
    3b88:	0c 94 48 29 	jmp	0x5290	; 0x5290 <__stack+0x1191>
    3b8c:	10 92 38 07 	sts	0x0738, r1	; 0x800738 <newdevice>
    3b90:	81 e0       	ldi	r24, 0x01	; 1
    3b92:	80 93 00 01 	sts	0x0100, r24	; 0x800100 <Main_Menu_Status>
    3b96:	0c 94 48 29 	jmp	0x5290	; 0x5290 <__stack+0x1191>
    3b9a:	4b 23       	and	r20, r27
    3b9c:	46 23       	and	r20, r22
    3b9e:	24 23       	and	r18, r20
    3ba0:	f2 17       	cp	r31, r18
    3ba2:	08 f0       	brcs	.+2      	; 0x3ba6 <_Z5checkv+0xeec>
    3ba4:	77 c6       	rjmp	.+3310   	; 0x4894 <__stack+0x795>
    3ba6:	80 91 45 07 	lds	r24, 0x0745	; 0x800745 <Password_Menu_Status>
    3baa:	88 23       	and	r24, r24
    3bac:	b1 f0       	breq	.+44     	; 0x3bda <_Z5checkv+0xf20>
    3bae:	80 91 0a 07 	lds	r24, 0x070A	; 0x80070a <passw_menu+0x2>
    3bb2:	90 91 0b 07 	lds	r25, 0x070B	; 0x80070b <passw_menu+0x3>
    3bb6:	01 96       	adiw	r24, 0x01	; 1
    3bb8:	8b 30       	cpi	r24, 0x0B	; 11
    3bba:	91 05       	cpc	r25, r1
    3bbc:	2c f4       	brge	.+10     	; 0x3bc8 <_Z5checkv+0xf0e>
    3bbe:	90 93 0b 07 	sts	0x070B, r25	; 0x80070b <passw_menu+0x3>
    3bc2:	80 93 0a 07 	sts	0x070A, r24	; 0x80070a <passw_menu+0x2>
    3bc6:	04 c0       	rjmp	.+8      	; 0x3bd0 <_Z5checkv+0xf16>
    3bc8:	10 92 0b 07 	sts	0x070B, r1	; 0x80070b <passw_menu+0x3>
    3bcc:	10 92 0a 07 	sts	0x070A, r1	; 0x80070a <passw_menu+0x2>
    3bd0:	88 e0       	ldi	r24, 0x08	; 8
    3bd2:	97 e0       	ldi	r25, 0x07	; 7
    3bd4:	0e 94 ac 02 	call	0x558	; 0x558 <_ZN13Password_Menu7actionsEv>
    3bd8:	4f c6       	rjmp	.+3230   	; 0x4878 <__stack+0x779>
    3bda:	80 91 00 01 	lds	r24, 0x0100	; 0x800100 <Main_Menu_Status>
    3bde:	88 23       	and	r24, r24
    3be0:	09 f4       	brne	.+2      	; 0x3be4 <_Z5checkv+0xf2a>
    3be2:	89 c0       	rjmp	.+274    	; 0x3cf6 <_Z5checkv+0x103c>
    3be4:	80 91 06 07 	lds	r24, 0x0706	; 0x800706 <menu>
    3be8:	90 91 07 07 	lds	r25, 0x0707	; 0x800707 <menu+0x1>
    3bec:	01 96       	adiw	r24, 0x01	; 1
    3bee:	90 93 07 07 	sts	0x0707, r25	; 0x800707 <menu+0x1>
    3bf2:	80 93 06 07 	sts	0x0706, r24	; 0x800706 <menu>
    3bf6:	83 30       	cpi	r24, 0x03	; 3
    3bf8:	91 05       	cpc	r25, r1
    3bfa:	2c f0       	brlt	.+10     	; 0x3c06 <_Z5checkv+0xf4c>
    3bfc:	10 92 07 07 	sts	0x0707, r1	; 0x800707 <menu+0x1>
    3c00:	10 92 06 07 	sts	0x0706, r1	; 0x800706 <menu>
    3c04:	0a c0       	rjmp	.+20     	; 0x3c1a <_Z5checkv+0xf60>
    3c06:	81 30       	cpi	r24, 0x01	; 1
    3c08:	91 05       	cpc	r25, r1
    3c0a:	d9 f1       	breq	.+118    	; 0x3c82 <_Z5checkv+0xfc8>
    3c0c:	82 30       	cpi	r24, 0x02	; 2
    3c0e:	91 05       	cpc	r25, r1
    3c10:	09 f4       	brne	.+2      	; 0x3c14 <_Z5checkv+0xf5a>
    3c12:	54 c0       	rjmp	.+168    	; 0x3cbc <_Z5checkv+0x1002>
    3c14:	89 2b       	or	r24, r25
    3c16:	09 f0       	breq	.+2      	; 0x3c1a <_Z5checkv+0xf60>
    3c18:	2f c6       	rjmp	.+3166   	; 0x4878 <__stack+0x779>
    3c1a:	00 e2       	ldi	r16, 0x20	; 32
    3c1c:	10 e0       	ldi	r17, 0x00	; 0
    3c1e:	24 e0       	ldi	r18, 0x04	; 4
    3c20:	30 e0       	ldi	r19, 0x00	; 0
    3c22:	42 e0       	ldi	r20, 0x02	; 2
    3c24:	50 e0       	ldi	r21, 0x00	; 0
    3c26:	62 e3       	ldi	r22, 0x32	; 50
    3c28:	70 e0       	ldi	r23, 0x00	; 0
    3c2a:	86 e4       	ldi	r24, 0x46	; 70
    3c2c:	97 e0       	ldi	r25, 0x07	; 7
    3c2e:	0e 94 a3 38 	call	0x7146	; 0x7146 <_ZN4OLED21OLED_Clear_Bufer_partEiiii>
    3c32:	80 91 3b 07 	lds	r24, 0x073B	; 0x80073b <locked>
    3c36:	81 11       	cpse	r24, r1
    3c38:	11 c0       	rjmp	.+34     	; 0x3c5c <_Z5checkv+0xfa2>
    3c3a:	0f 2e       	mov	r0, r31
    3c3c:	f3 e0       	ldi	r31, 0x03	; 3
    3c3e:	ef 2e       	mov	r14, r31
    3c40:	f3 e0       	ldi	r31, 0x03	; 3
    3c42:	ff 2e       	mov	r15, r31
    3c44:	f0 2d       	mov	r31, r0
    3c46:	24 e0       	ldi	r18, 0x04	; 4
    3c48:	30 e0       	ldi	r19, 0x00	; 0
    3c4a:	42 e0       	ldi	r20, 0x02	; 2
    3c4c:	50 e0       	ldi	r21, 0x00	; 0
    3c4e:	62 e3       	ldi	r22, 0x32	; 50
    3c50:	70 e0       	ldi	r23, 0x00	; 0
    3c52:	86 e4       	ldi	r24, 0x46	; 70
    3c54:	97 e0       	ldi	r25, 0x07	; 7
    3c56:	0e 94 f2 38 	call	0x71e4	; 0x71e4 <_ZN4OLED19OLED_Write_To_BuferEiiiiPKh>
    3c5a:	0e c6       	rjmp	.+3100   	; 0x4878 <__stack+0x779>
    3c5c:	0f 2e       	mov	r0, r31
    3c5e:	f3 e9       	ldi	r31, 0x93	; 147
    3c60:	ef 2e       	mov	r14, r31
    3c62:	f3 e0       	ldi	r31, 0x03	; 3
    3c64:	ff 2e       	mov	r15, r31
    3c66:	f0 2d       	mov	r31, r0
    3c68:	00 e2       	ldi	r16, 0x20	; 32
    3c6a:	10 e0       	ldi	r17, 0x00	; 0
    3c6c:	24 e0       	ldi	r18, 0x04	; 4
    3c6e:	30 e0       	ldi	r19, 0x00	; 0
    3c70:	42 e0       	ldi	r20, 0x02	; 2
    3c72:	50 e0       	ldi	r21, 0x00	; 0
    3c74:	62 e3       	ldi	r22, 0x32	; 50
    3c76:	70 e0       	ldi	r23, 0x00	; 0
    3c78:	86 e4       	ldi	r24, 0x46	; 70
    3c7a:	97 e0       	ldi	r25, 0x07	; 7
    3c7c:	0e 94 f2 38 	call	0x71e4	; 0x71e4 <_ZN4OLED19OLED_Write_To_BuferEiiiiPKh>
    3c80:	fb c5       	rjmp	.+3062   	; 0x4878 <__stack+0x779>
    3c82:	00 e2       	ldi	r16, 0x20	; 32
    3c84:	10 e0       	ldi	r17, 0x00	; 0
    3c86:	24 e0       	ldi	r18, 0x04	; 4
    3c88:	30 e0       	ldi	r19, 0x00	; 0
    3c8a:	42 e0       	ldi	r20, 0x02	; 2
    3c8c:	50 e0       	ldi	r21, 0x00	; 0
    3c8e:	62 e3       	ldi	r22, 0x32	; 50
    3c90:	70 e0       	ldi	r23, 0x00	; 0
    3c92:	86 e4       	ldi	r24, 0x46	; 70
    3c94:	97 e0       	ldi	r25, 0x07	; 7
    3c96:	0e 94 a3 38 	call	0x7146	; 0x7146 <_ZN4OLED21OLED_Clear_Bufer_partEiiii>
    3c9a:	0f 2e       	mov	r0, r31
    3c9c:	f3 ea       	ldi	r31, 0xA3	; 163
    3c9e:	ef 2e       	mov	r14, r31
    3ca0:	f4 e0       	ldi	r31, 0x04	; 4
    3ca2:	ff 2e       	mov	r15, r31
    3ca4:	f0 2d       	mov	r31, r0
    3ca6:	24 e0       	ldi	r18, 0x04	; 4
    3ca8:	30 e0       	ldi	r19, 0x00	; 0
    3caa:	42 e0       	ldi	r20, 0x02	; 2
    3cac:	50 e0       	ldi	r21, 0x00	; 0
    3cae:	62 e3       	ldi	r22, 0x32	; 50
    3cb0:	70 e0       	ldi	r23, 0x00	; 0
    3cb2:	86 e4       	ldi	r24, 0x46	; 70
    3cb4:	97 e0       	ldi	r25, 0x07	; 7
    3cb6:	0e 94 f2 38 	call	0x71e4	; 0x71e4 <_ZN4OLED19OLED_Write_To_BuferEiiiiPKh>
    3cba:	de c5       	rjmp	.+3004   	; 0x4878 <__stack+0x779>
    3cbc:	00 e2       	ldi	r16, 0x20	; 32
    3cbe:	10 e0       	ldi	r17, 0x00	; 0
    3cc0:	24 e0       	ldi	r18, 0x04	; 4
    3cc2:	30 e0       	ldi	r19, 0x00	; 0
    3cc4:	42 e0       	ldi	r20, 0x02	; 2
    3cc6:	50 e0       	ldi	r21, 0x00	; 0
    3cc8:	62 e3       	ldi	r22, 0x32	; 50
    3cca:	70 e0       	ldi	r23, 0x00	; 0
    3ccc:	86 e4       	ldi	r24, 0x46	; 70
    3cce:	97 e0       	ldi	r25, 0x07	; 7
    3cd0:	0e 94 a3 38 	call	0x7146	; 0x7146 <_ZN4OLED21OLED_Clear_Bufer_partEiiii>
    3cd4:	0f 2e       	mov	r0, r31
    3cd6:	f3 e1       	ldi	r31, 0x13	; 19
    3cd8:	ef 2e       	mov	r14, r31
    3cda:	f4 e0       	ldi	r31, 0x04	; 4
    3cdc:	ff 2e       	mov	r15, r31
    3cde:	f0 2d       	mov	r31, r0
    3ce0:	24 e0       	ldi	r18, 0x04	; 4
    3ce2:	30 e0       	ldi	r19, 0x00	; 0
    3ce4:	42 e0       	ldi	r20, 0x02	; 2
    3ce6:	50 e0       	ldi	r21, 0x00	; 0
    3ce8:	62 e3       	ldi	r22, 0x32	; 50
    3cea:	70 e0       	ldi	r23, 0x00	; 0
    3cec:	86 e4       	ldi	r24, 0x46	; 70
    3cee:	97 e0       	ldi	r25, 0x07	; 7
    3cf0:	0e 94 f2 38 	call	0x71e4	; 0x71e4 <_ZN4OLED19OLED_Write_To_BuferEiiiiPKh>
    3cf4:	c1 c5       	rjmp	.+2946   	; 0x4878 <__stack+0x779>
    3cf6:	80 91 44 07 	lds	r24, 0x0744	; 0x800744 <Settings_Menu_Status>
    3cfa:	88 23       	and	r24, r24
    3cfc:	09 f4       	brne	.+2      	; 0x3d00 <_Z5checkv+0x1046>
    3cfe:	4e c3       	rjmp	.+1692   	; 0x439c <__stack+0x29d>
    3d00:	80 91 18 07 	lds	r24, 0x0718	; 0x800718 <sett_menu>
    3d04:	90 91 19 07 	lds	r25, 0x0719	; 0x800719 <sett_menu+0x1>
    3d08:	01 96       	adiw	r24, 0x01	; 1
    3d0a:	84 30       	cpi	r24, 0x04	; 4
    3d0c:	91 05       	cpc	r25, r1
    3d0e:	14 f4       	brge	.+4      	; 0x3d14 <_Z5checkv+0x105a>
    3d10:	0c 94 8b 29 	jmp	0x5316	; 0x5316 <__stack+0x1217>
    3d14:	10 92 19 07 	sts	0x0719, r1	; 0x800719 <sett_menu+0x1>
    3d18:	10 92 18 07 	sts	0x0718, r1	; 0x800718 <sett_menu>
    3d1c:	c8 e1       	ldi	r28, 0x18	; 24
    3d1e:	d7 e0       	ldi	r29, 0x07	; 7
    3d20:	4a 85       	ldd	r20, Y+10	; 0x0a
    3d22:	5b 85       	ldd	r21, Y+11	; 0x0b
    3d24:	08 e0       	ldi	r16, 0x08	; 8
    3d26:	10 e0       	ldi	r17, 0x00	; 0
    3d28:	20 e1       	ldi	r18, 0x10	; 16
    3d2a:	30 e0       	ldi	r19, 0x00	; 0
    3d2c:	60 e0       	ldi	r22, 0x00	; 0
    3d2e:	70 e0       	ldi	r23, 0x00	; 0
    3d30:	86 e4       	ldi	r24, 0x46	; 70
    3d32:	97 e0       	ldi	r25, 0x07	; 7
    3d34:	0e 94 a3 38 	call	0x7146	; 0x7146 <_ZN4OLED21OLED_Clear_Bufer_partEiiii>
    3d38:	4a 85       	ldd	r20, Y+10	; 0x0a
    3d3a:	5b 85       	ldd	r21, Y+11	; 0x0b
    3d3c:	e8 81       	ld	r30, Y
    3d3e:	f9 81       	ldd	r31, Y+1	; 0x01
    3d40:	ee 0f       	add	r30, r30
    3d42:	ff 1f       	adc	r31, r31
    3d44:	e6 5e       	subi	r30, 0xE6	; 230
    3d46:	f8 4f       	sbci	r31, 0xF8	; 248
    3d48:	60 81       	ld	r22, Z
    3d4a:	71 81       	ldd	r23, Z+1	; 0x01
    3d4c:	0f 2e       	mov	r0, r31
    3d4e:	fb e9       	ldi	r31, 0x9B	; 155
    3d50:	ef 2e       	mov	r14, r31
    3d52:	f1 e0       	ldi	r31, 0x01	; 1
    3d54:	ff 2e       	mov	r15, r31
    3d56:	f0 2d       	mov	r31, r0
    3d58:	21 e0       	ldi	r18, 0x01	; 1
    3d5a:	30 e0       	ldi	r19, 0x00	; 0
    3d5c:	86 e4       	ldi	r24, 0x46	; 70
    3d5e:	97 e0       	ldi	r25, 0x07	; 7
    3d60:	0e 94 f2 38 	call	0x71e4	; 0x71e4 <_ZN4OLED19OLED_Write_To_BuferEiiiiPKh>
    3d64:	4a 85       	ldd	r20, Y+10	; 0x0a
    3d66:	5b 85       	ldd	r21, Y+11	; 0x0b
    3d68:	e8 81       	ld	r30, Y
    3d6a:	f9 81       	ldd	r31, Y+1	; 0x01
    3d6c:	ee 0f       	add	r30, r30
    3d6e:	ff 1f       	adc	r31, r31
    3d70:	e6 5e       	subi	r30, 0xE6	; 230
    3d72:	f8 4f       	sbci	r31, 0xF8	; 248
    3d74:	60 81       	ld	r22, Z
    3d76:	71 81       	ldd	r23, Z+1	; 0x01
    3d78:	68 5f       	subi	r22, 0xF8	; 248
    3d7a:	7f 4f       	sbci	r23, 0xFF	; 255
    3d7c:	0f 2e       	mov	r0, r31
    3d7e:	fb ef       	ldi	r31, 0xFB	; 251
    3d80:	ef 2e       	mov	r14, r31
    3d82:	f1 e0       	ldi	r31, 0x01	; 1
    3d84:	ff 2e       	mov	r15, r31
    3d86:	f0 2d       	mov	r31, r0
    3d88:	21 e0       	ldi	r18, 0x01	; 1
    3d8a:	30 e0       	ldi	r19, 0x00	; 0
    3d8c:	86 e4       	ldi	r24, 0x46	; 70
    3d8e:	97 e0       	ldi	r25, 0x07	; 7
    3d90:	0e 94 f2 38 	call	0x71e4	; 0x71e4 <_ZN4OLED19OLED_Write_To_BuferEiiiiPKh>
    3d94:	4a 85       	ldd	r20, Y+10	; 0x0a
    3d96:	5b 85       	ldd	r21, Y+11	; 0x0b
    3d98:	e8 81       	ld	r30, Y
    3d9a:	f9 81       	ldd	r31, Y+1	; 0x01
    3d9c:	ee 0f       	add	r30, r30
    3d9e:	ff 1f       	adc	r31, r31
    3da0:	e6 5e       	subi	r30, 0xE6	; 230
    3da2:	f8 4f       	sbci	r31, 0xF8	; 248
    3da4:	60 81       	ld	r22, Z
    3da6:	71 81       	ldd	r23, Z+1	; 0x01
    3da8:	60 5f       	subi	r22, 0xF0	; 240
    3daa:	7f 4f       	sbci	r23, 0xFF	; 255
    3dac:	0f 2e       	mov	r0, r31
    3dae:	f3 e9       	ldi	r31, 0x93	; 147
    3db0:	ef 2e       	mov	r14, r31
    3db2:	f1 e0       	ldi	r31, 0x01	; 1
    3db4:	ff 2e       	mov	r15, r31
    3db6:	f0 2d       	mov	r31, r0
    3db8:	21 e0       	ldi	r18, 0x01	; 1
    3dba:	30 e0       	ldi	r19, 0x00	; 0
    3dbc:	86 e4       	ldi	r24, 0x46	; 70
    3dbe:	97 e0       	ldi	r25, 0x07	; 7
    3dc0:	0e 94 f2 38 	call	0x71e4	; 0x71e4 <_ZN4OLED19OLED_Write_To_BuferEiiiiPKh>
    3dc4:	4a 85       	ldd	r20, Y+10	; 0x0a
    3dc6:	5b 85       	ldd	r21, Y+11	; 0x0b
    3dc8:	e8 81       	ld	r30, Y
    3dca:	f9 81       	ldd	r31, Y+1	; 0x01
    3dcc:	ee 0f       	add	r30, r30
    3dce:	ff 1f       	adc	r31, r31
    3dd0:	e6 5e       	subi	r30, 0xE6	; 230
    3dd2:	f8 4f       	sbci	r31, 0xF8	; 248
    3dd4:	60 81       	ld	r22, Z
    3dd6:	71 81       	ldd	r23, Z+1	; 0x01
    3dd8:	60 5e       	subi	r22, 0xE0	; 224
    3dda:	7f 4f       	sbci	r23, 0xFF	; 255
    3ddc:	0f 2e       	mov	r0, r31
    3dde:	f3 e1       	ldi	r31, 0x13	; 19
    3de0:	ef 2e       	mov	r14, r31
    3de2:	f2 e0       	ldi	r31, 0x02	; 2
    3de4:	ff 2e       	mov	r15, r31
    3de6:	f0 2d       	mov	r31, r0
    3de8:	21 e0       	ldi	r18, 0x01	; 1
    3dea:	30 e0       	ldi	r19, 0x00	; 0
    3dec:	86 e4       	ldi	r24, 0x46	; 70
    3dee:	97 e0       	ldi	r25, 0x07	; 7
    3df0:	0e 94 f2 38 	call	0x71e4	; 0x71e4 <_ZN4OLED19OLED_Write_To_BuferEiiiiPKh>
    3df4:	4a 85       	ldd	r20, Y+10	; 0x0a
    3df6:	5b 85       	ldd	r21, Y+11	; 0x0b
    3df8:	e8 81       	ld	r30, Y
    3dfa:	f9 81       	ldd	r31, Y+1	; 0x01
    3dfc:	ee 0f       	add	r30, r30
    3dfe:	ff 1f       	adc	r31, r31
    3e00:	e6 5e       	subi	r30, 0xE6	; 230
    3e02:	f8 4f       	sbci	r31, 0xF8	; 248
    3e04:	60 81       	ld	r22, Z
    3e06:	71 81       	ldd	r23, Z+1	; 0x01
    3e08:	68 5d       	subi	r22, 0xD8	; 216
    3e0a:	7f 4f       	sbci	r23, 0xFF	; 255
    3e0c:	0f 2e       	mov	r0, r31
    3e0e:	f3 ea       	ldi	r31, 0xA3	; 163
    3e10:	ef 2e       	mov	r14, r31
    3e12:	f1 e0       	ldi	r31, 0x01	; 1
    3e14:	ff 2e       	mov	r15, r31
    3e16:	f0 2d       	mov	r31, r0
    3e18:	21 e0       	ldi	r18, 0x01	; 1
    3e1a:	30 e0       	ldi	r19, 0x00	; 0
    3e1c:	86 e4       	ldi	r24, 0x46	; 70
    3e1e:	97 e0       	ldi	r25, 0x07	; 7
    3e20:	0e 94 f2 38 	call	0x71e4	; 0x71e4 <_ZN4OLED19OLED_Write_To_BuferEiiiiPKh>
    3e24:	4a 85       	ldd	r20, Y+10	; 0x0a
    3e26:	5b 85       	ldd	r21, Y+11	; 0x0b
    3e28:	e8 81       	ld	r30, Y
    3e2a:	f9 81       	ldd	r31, Y+1	; 0x01
    3e2c:	ee 0f       	add	r30, r30
    3e2e:	ff 1f       	adc	r31, r31
    3e30:	e6 5e       	subi	r30, 0xE6	; 230
    3e32:	f8 4f       	sbci	r31, 0xF8	; 248
    3e34:	60 81       	ld	r22, Z
    3e36:	71 81       	ldd	r23, Z+1	; 0x01
    3e38:	60 5d       	subi	r22, 0xD0	; 208
    3e3a:	7f 4f       	sbci	r23, 0xFF	; 255
    3e3c:	0f 2e       	mov	r0, r31
    3e3e:	fb ed       	ldi	r31, 0xDB	; 219
    3e40:	ef 2e       	mov	r14, r31
    3e42:	f1 e0       	ldi	r31, 0x01	; 1
    3e44:	ff 2e       	mov	r15, r31
    3e46:	f0 2d       	mov	r31, r0
    3e48:	21 e0       	ldi	r18, 0x01	; 1
    3e4a:	30 e0       	ldi	r19, 0x00	; 0
    3e4c:	86 e4       	ldi	r24, 0x46	; 70
    3e4e:	97 e0       	ldi	r25, 0x07	; 7
    3e50:	0e 94 f2 38 	call	0x71e4	; 0x71e4 <_ZN4OLED19OLED_Write_To_BuferEiiiiPKh>
    3e54:	4a 85       	ldd	r20, Y+10	; 0x0a
    3e56:	5b 85       	ldd	r21, Y+11	; 0x0b
    3e58:	e8 81       	ld	r30, Y
    3e5a:	f9 81       	ldd	r31, Y+1	; 0x01
    3e5c:	ee 0f       	add	r30, r30
    3e5e:	ff 1f       	adc	r31, r31
    3e60:	e6 5e       	subi	r30, 0xE6	; 230
    3e62:	f8 4f       	sbci	r31, 0xF8	; 248
    3e64:	60 81       	ld	r22, Z
    3e66:	71 81       	ldd	r23, Z+1	; 0x01
    3e68:	68 5c       	subi	r22, 0xC8	; 200
    3e6a:	7f 4f       	sbci	r23, 0xFF	; 255
    3e6c:	0f 2e       	mov	r0, r31
    3e6e:	fb ee       	ldi	r31, 0xEB	; 235
    3e70:	ef 2e       	mov	r14, r31
    3e72:	f1 e0       	ldi	r31, 0x01	; 1
    3e74:	ff 2e       	mov	r15, r31
    3e76:	f0 2d       	mov	r31, r0
    3e78:	21 e0       	ldi	r18, 0x01	; 1
    3e7a:	30 e0       	ldi	r19, 0x00	; 0
    3e7c:	86 e4       	ldi	r24, 0x46	; 70
    3e7e:	97 e0       	ldi	r25, 0x07	; 7
    3e80:	0e 94 f2 38 	call	0x71e4	; 0x71e4 <_ZN4OLED19OLED_Write_To_BuferEiiiiPKh>
    3e84:	4a 85       	ldd	r20, Y+10	; 0x0a
    3e86:	5b 85       	ldd	r21, Y+11	; 0x0b
    3e88:	e8 81       	ld	r30, Y
    3e8a:	f9 81       	ldd	r31, Y+1	; 0x01
    3e8c:	ee 0f       	add	r30, r30
    3e8e:	ff 1f       	adc	r31, r31
    3e90:	e6 5e       	subi	r30, 0xE6	; 230
    3e92:	f8 4f       	sbci	r31, 0xF8	; 248
    3e94:	60 81       	ld	r22, Z
    3e96:	71 81       	ldd	r23, Z+1	; 0x01
    3e98:	60 5c       	subi	r22, 0xC0	; 192
    3e9a:	7f 4f       	sbci	r23, 0xFF	; 255
    3e9c:	0f 2e       	mov	r0, r31
    3e9e:	f3 ee       	ldi	r31, 0xE3	; 227
    3ea0:	ef 2e       	mov	r14, r31
    3ea2:	f1 e0       	ldi	r31, 0x01	; 1
    3ea4:	ff 2e       	mov	r15, r31
    3ea6:	f0 2d       	mov	r31, r0
    3ea8:	21 e0       	ldi	r18, 0x01	; 1
    3eaa:	30 e0       	ldi	r19, 0x00	; 0
    3eac:	86 e4       	ldi	r24, 0x46	; 70
    3eae:	97 e0       	ldi	r25, 0x07	; 7
    3eb0:	0e 94 f2 38 	call	0x71e4	; 0x71e4 <_ZN4OLED19OLED_Write_To_BuferEiiiiPKh>
    3eb4:	4a 85       	ldd	r20, Y+10	; 0x0a
    3eb6:	5b 85       	ldd	r21, Y+11	; 0x0b
    3eb8:	e8 81       	ld	r30, Y
    3eba:	f9 81       	ldd	r31, Y+1	; 0x01
    3ebc:	ee 0f       	add	r30, r30
    3ebe:	ff 1f       	adc	r31, r31
    3ec0:	e6 5e       	subi	r30, 0xE6	; 230
    3ec2:	f8 4f       	sbci	r31, 0xF8	; 248
    3ec4:	60 81       	ld	r22, Z
    3ec6:	71 81       	ldd	r23, Z+1	; 0x01
    3ec8:	68 5b       	subi	r22, 0xB8	; 184
    3eca:	7f 4f       	sbci	r23, 0xFF	; 255
    3ecc:	0f 2e       	mov	r0, r31
    3ece:	f3 e9       	ldi	r31, 0x93	; 147
    3ed0:	ef 2e       	mov	r14, r31
    3ed2:	f1 e0       	ldi	r31, 0x01	; 1
    3ed4:	ff 2e       	mov	r15, r31
    3ed6:	f0 2d       	mov	r31, r0
    3ed8:	21 e0       	ldi	r18, 0x01	; 1
    3eda:	30 e0       	ldi	r19, 0x00	; 0
    3edc:	86 e4       	ldi	r24, 0x46	; 70
    3ede:	97 e0       	ldi	r25, 0x07	; 7
    3ee0:	0e 94 f2 38 	call	0x71e4	; 0x71e4 <_ZN4OLED19OLED_Write_To_BuferEiiiiPKh>
    3ee4:	4a 85       	ldd	r20, Y+10	; 0x0a
    3ee6:	5b 85       	ldd	r21, Y+11	; 0x0b
    3ee8:	e8 81       	ld	r30, Y
    3eea:	f9 81       	ldd	r31, Y+1	; 0x01
    3eec:	ee 0f       	add	r30, r30
    3eee:	ff 1f       	adc	r31, r31
    3ef0:	e6 5e       	subi	r30, 0xE6	; 230
    3ef2:	f8 4f       	sbci	r31, 0xF8	; 248
    3ef4:	60 81       	ld	r22, Z
    3ef6:	71 81       	ldd	r23, Z+1	; 0x01
    3ef8:	60 5b       	subi	r22, 0xB0	; 176
    3efa:	7f 4f       	sbci	r23, 0xFF	; 255
    3efc:	0f 2e       	mov	r0, r31
    3efe:	f3 eb       	ldi	r31, 0xB3	; 179
    3f00:	ef 2e       	mov	r14, r31
    3f02:	f1 e0       	ldi	r31, 0x01	; 1
    3f04:	ff 2e       	mov	r15, r31
    3f06:	f0 2d       	mov	r31, r0
    3f08:	21 e0       	ldi	r18, 0x01	; 1
    3f0a:	30 e0       	ldi	r19, 0x00	; 0
    3f0c:	86 e4       	ldi	r24, 0x46	; 70
    3f0e:	97 e0       	ldi	r25, 0x07	; 7
    3f10:	0e 94 f2 38 	call	0x71e4	; 0x71e4 <_ZN4OLED19OLED_Write_To_BuferEiiiiPKh>
    3f14:	4a 85       	ldd	r20, Y+10	; 0x0a
    3f16:	5b 85       	ldd	r21, Y+11	; 0x0b
    3f18:	e8 81       	ld	r30, Y
    3f1a:	f9 81       	ldd	r31, Y+1	; 0x01
    3f1c:	ee 0f       	add	r30, r30
    3f1e:	ff 1f       	adc	r31, r31
    3f20:	e6 5e       	subi	r30, 0xE6	; 230
    3f22:	f8 4f       	sbci	r31, 0xF8	; 248
    3f24:	60 81       	ld	r22, Z
    3f26:	71 81       	ldd	r23, Z+1	; 0x01
    3f28:	68 5a       	subi	r22, 0xA8	; 168
    3f2a:	7f 4f       	sbci	r23, 0xFF	; 255
    3f2c:	0f 2e       	mov	r0, r31
    3f2e:	fb ef       	ldi	r31, 0xFB	; 251
    3f30:	ef 2e       	mov	r14, r31
    3f32:	f1 e0       	ldi	r31, 0x01	; 1
    3f34:	ff 2e       	mov	r15, r31
    3f36:	f0 2d       	mov	r31, r0
    3f38:	21 e0       	ldi	r18, 0x01	; 1
    3f3a:	30 e0       	ldi	r19, 0x00	; 0
    3f3c:	86 e4       	ldi	r24, 0x46	; 70
    3f3e:	97 e0       	ldi	r25, 0x07	; 7
    3f40:	0e 94 f2 38 	call	0x71e4	; 0x71e4 <_ZN4OLED19OLED_Write_To_BuferEiiiiPKh>
    3f44:	4a 85       	ldd	r20, Y+10	; 0x0a
    3f46:	5b 85       	ldd	r21, Y+11	; 0x0b
    3f48:	e8 81       	ld	r30, Y
    3f4a:	f9 81       	ldd	r31, Y+1	; 0x01
    3f4c:	ee 0f       	add	r30, r30
    3f4e:	ff 1f       	adc	r31, r31
    3f50:	e6 5e       	subi	r30, 0xE6	; 230
    3f52:	f8 4f       	sbci	r31, 0xF8	; 248
    3f54:	60 81       	ld	r22, Z
    3f56:	71 81       	ldd	r23, Z+1	; 0x01
    3f58:	60 5a       	subi	r22, 0xA0	; 160
    3f5a:	7f 4f       	sbci	r23, 0xFF	; 255
    3f5c:	0f 2e       	mov	r0, r31
    3f5e:	fb e9       	ldi	r31, 0x9B	; 155
    3f60:	ef 2e       	mov	r14, r31
    3f62:	f1 e0       	ldi	r31, 0x01	; 1
    3f64:	ff 2e       	mov	r15, r31
    3f66:	f0 2d       	mov	r31, r0
    3f68:	21 e0       	ldi	r18, 0x01	; 1
    3f6a:	30 e0       	ldi	r19, 0x00	; 0
    3f6c:	86 e4       	ldi	r24, 0x46	; 70
    3f6e:	97 e0       	ldi	r25, 0x07	; 7
    3f70:	0e 94 f2 38 	call	0x71e4	; 0x71e4 <_ZN4OLED19OLED_Write_To_BuferEiiiiPKh>
    3f74:	4a 85       	ldd	r20, Y+10	; 0x0a
    3f76:	5b 85       	ldd	r21, Y+11	; 0x0b
    3f78:	e8 81       	ld	r30, Y
    3f7a:	f9 81       	ldd	r31, Y+1	; 0x01
    3f7c:	ee 0f       	add	r30, r30
    3f7e:	ff 1f       	adc	r31, r31
    3f80:	e6 5e       	subi	r30, 0xE6	; 230
    3f82:	f8 4f       	sbci	r31, 0xF8	; 248
    3f84:	60 81       	ld	r22, Z
    3f86:	71 81       	ldd	r23, Z+1	; 0x01
    3f88:	68 59       	subi	r22, 0x98	; 152
    3f8a:	7f 4f       	sbci	r23, 0xFF	; 255
    3f8c:	21 e0       	ldi	r18, 0x01	; 1
    3f8e:	30 e0       	ldi	r19, 0x00	; 0
    3f90:	86 e4       	ldi	r24, 0x46	; 70
    3f92:	97 e0       	ldi	r25, 0x07	; 7
    3f94:	0e 94 f2 38 	call	0x71e4	; 0x71e4 <_ZN4OLED19OLED_Write_To_BuferEiiiiPKh>
    3f98:	6f c4       	rjmp	.+2270   	; 0x4878 <__stack+0x779>
    3f9a:	c8 e1       	ldi	r28, 0x18	; 24
    3f9c:	d7 e0       	ldi	r29, 0x07	; 7
    3f9e:	4a 85       	ldd	r20, Y+10	; 0x0a
    3fa0:	5b 85       	ldd	r21, Y+11	; 0x0b
    3fa2:	08 e0       	ldi	r16, 0x08	; 8
    3fa4:	10 e0       	ldi	r17, 0x00	; 0
    3fa6:	20 e1       	ldi	r18, 0x10	; 16
    3fa8:	30 e0       	ldi	r19, 0x00	; 0
    3faa:	60 e0       	ldi	r22, 0x00	; 0
    3fac:	70 e0       	ldi	r23, 0x00	; 0
    3fae:	86 e4       	ldi	r24, 0x46	; 70
    3fb0:	97 e0       	ldi	r25, 0x07	; 7
    3fb2:	0e 94 a3 38 	call	0x7146	; 0x7146 <_ZN4OLED21OLED_Clear_Bufer_partEiiii>
    3fb6:	4a 85       	ldd	r20, Y+10	; 0x0a
    3fb8:	5b 85       	ldd	r21, Y+11	; 0x0b
    3fba:	e8 81       	ld	r30, Y
    3fbc:	f9 81       	ldd	r31, Y+1	; 0x01
    3fbe:	ee 0f       	add	r30, r30
    3fc0:	ff 1f       	adc	r31, r31
    3fc2:	e6 5e       	subi	r30, 0xE6	; 230
    3fc4:	f8 4f       	sbci	r31, 0xF8	; 248
    3fc6:	60 81       	ld	r22, Z
    3fc8:	71 81       	ldd	r23, Z+1	; 0x01
    3fca:	0f 2e       	mov	r0, r31
    3fcc:	f3 ea       	ldi	r31, 0xA3	; 163
    3fce:	ef 2e       	mov	r14, r31
    3fd0:	f1 e0       	ldi	r31, 0x01	; 1
    3fd2:	ff 2e       	mov	r15, r31
    3fd4:	f0 2d       	mov	r31, r0
    3fd6:	21 e0       	ldi	r18, 0x01	; 1
    3fd8:	30 e0       	ldi	r19, 0x00	; 0
    3fda:	86 e4       	ldi	r24, 0x46	; 70
    3fdc:	97 e0       	ldi	r25, 0x07	; 7
    3fde:	0e 94 f2 38 	call	0x71e4	; 0x71e4 <_ZN4OLED19OLED_Write_To_BuferEiiiiPKh>
    3fe2:	4a 85       	ldd	r20, Y+10	; 0x0a
    3fe4:	5b 85       	ldd	r21, Y+11	; 0x0b
    3fe6:	e8 81       	ld	r30, Y
    3fe8:	f9 81       	ldd	r31, Y+1	; 0x01
    3fea:	ee 0f       	add	r30, r30
    3fec:	ff 1f       	adc	r31, r31
    3fee:	e6 5e       	subi	r30, 0xE6	; 230
    3ff0:	f8 4f       	sbci	r31, 0xF8	; 248
    3ff2:	60 81       	ld	r22, Z
    3ff4:	71 81       	ldd	r23, Z+1	; 0x01
    3ff6:	68 5f       	subi	r22, 0xF8	; 248
    3ff8:	7f 4f       	sbci	r23, 0xFF	; 255
    3ffa:	0f 2e       	mov	r0, r31
    3ffc:	fb ef       	ldi	r31, 0xFB	; 251
    3ffe:	ef 2e       	mov	r14, r31
    4000:	f1 e0       	ldi	r31, 0x01	; 1
    4002:	ff 2e       	mov	r15, r31
    4004:	f0 2d       	mov	r31, r0
    4006:	21 e0       	ldi	r18, 0x01	; 1
    4008:	30 e0       	ldi	r19, 0x00	; 0
    400a:	86 e4       	ldi	r24, 0x46	; 70
    400c:	97 e0       	ldi	r25, 0x07	; 7
    400e:	0e 94 f2 38 	call	0x71e4	; 0x71e4 <_ZN4OLED19OLED_Write_To_BuferEiiiiPKh>
    4012:	4a 85       	ldd	r20, Y+10	; 0x0a
    4014:	5b 85       	ldd	r21, Y+11	; 0x0b
    4016:	e8 81       	ld	r30, Y
    4018:	f9 81       	ldd	r31, Y+1	; 0x01
    401a:	ee 0f       	add	r30, r30
    401c:	ff 1f       	adc	r31, r31
    401e:	e6 5e       	subi	r30, 0xE6	; 230
    4020:	f8 4f       	sbci	r31, 0xF8	; 248
    4022:	60 81       	ld	r22, Z
    4024:	71 81       	ldd	r23, Z+1	; 0x01
    4026:	60 5f       	subi	r22, 0xF0	; 240
    4028:	7f 4f       	sbci	r23, 0xFF	; 255
    402a:	0f 2e       	mov	r0, r31
    402c:	fb e9       	ldi	r31, 0x9B	; 155
    402e:	ef 2e       	mov	r14, r31
    4030:	f1 e0       	ldi	r31, 0x01	; 1
    4032:	ff 2e       	mov	r15, r31
    4034:	f0 2d       	mov	r31, r0
    4036:	21 e0       	ldi	r18, 0x01	; 1
    4038:	30 e0       	ldi	r19, 0x00	; 0
    403a:	86 e4       	ldi	r24, 0x46	; 70
    403c:	97 e0       	ldi	r25, 0x07	; 7
    403e:	0e 94 f2 38 	call	0x71e4	; 0x71e4 <_ZN4OLED19OLED_Write_To_BuferEiiiiPKh>
    4042:	4a 85       	ldd	r20, Y+10	; 0x0a
    4044:	5b 85       	ldd	r21, Y+11	; 0x0b
    4046:	e8 81       	ld	r30, Y
    4048:	f9 81       	ldd	r31, Y+1	; 0x01
    404a:	ee 0f       	add	r30, r30
    404c:	ff 1f       	adc	r31, r31
    404e:	e6 5e       	subi	r30, 0xE6	; 230
    4050:	f8 4f       	sbci	r31, 0xF8	; 248
    4052:	60 81       	ld	r22, Z
    4054:	71 81       	ldd	r23, Z+1	; 0x01
    4056:	68 5e       	subi	r22, 0xE8	; 232
    4058:	7f 4f       	sbci	r23, 0xFF	; 255
    405a:	0f 2e       	mov	r0, r31
    405c:	fb ef       	ldi	r31, 0xFB	; 251
    405e:	ef 2e       	mov	r14, r31
    4060:	f1 e0       	ldi	r31, 0x01	; 1
    4062:	ff 2e       	mov	r15, r31
    4064:	f0 2d       	mov	r31, r0
    4066:	21 e0       	ldi	r18, 0x01	; 1
    4068:	30 e0       	ldi	r19, 0x00	; 0
    406a:	86 e4       	ldi	r24, 0x46	; 70
    406c:	97 e0       	ldi	r25, 0x07	; 7
    406e:	0e 94 f2 38 	call	0x71e4	; 0x71e4 <_ZN4OLED19OLED_Write_To_BuferEiiiiPKh>
    4072:	4a 85       	ldd	r20, Y+10	; 0x0a
    4074:	5b 85       	ldd	r21, Y+11	; 0x0b
    4076:	e8 81       	ld	r30, Y
    4078:	f9 81       	ldd	r31, Y+1	; 0x01
    407a:	ee 0f       	add	r30, r30
    407c:	ff 1f       	adc	r31, r31
    407e:	e6 5e       	subi	r30, 0xE6	; 230
    4080:	f8 4f       	sbci	r31, 0xF8	; 248
    4082:	60 81       	ld	r22, Z
    4084:	71 81       	ldd	r23, Z+1	; 0x01
    4086:	60 5e       	subi	r22, 0xE0	; 224
    4088:	7f 4f       	sbci	r23, 0xFF	; 255
    408a:	0f 2e       	mov	r0, r31
    408c:	f3 e9       	ldi	r31, 0x93	; 147
    408e:	ef 2e       	mov	r14, r31
    4090:	f1 e0       	ldi	r31, 0x01	; 1
    4092:	ff 2e       	mov	r15, r31
    4094:	f0 2d       	mov	r31, r0
    4096:	21 e0       	ldi	r18, 0x01	; 1
    4098:	30 e0       	ldi	r19, 0x00	; 0
    409a:	86 e4       	ldi	r24, 0x46	; 70
    409c:	97 e0       	ldi	r25, 0x07	; 7
    409e:	0e 94 f2 38 	call	0x71e4	; 0x71e4 <_ZN4OLED19OLED_Write_To_BuferEiiiiPKh>
    40a2:	4a 85       	ldd	r20, Y+10	; 0x0a
    40a4:	5b 85       	ldd	r21, Y+11	; 0x0b
    40a6:	e8 81       	ld	r30, Y
    40a8:	f9 81       	ldd	r31, Y+1	; 0x01
    40aa:	ee 0f       	add	r30, r30
    40ac:	ff 1f       	adc	r31, r31
    40ae:	e6 5e       	subi	r30, 0xE6	; 230
    40b0:	f8 4f       	sbci	r31, 0xF8	; 248
    40b2:	60 81       	ld	r22, Z
    40b4:	71 81       	ldd	r23, Z+1	; 0x01
    40b6:	60 5d       	subi	r22, 0xD0	; 208
    40b8:	7f 4f       	sbci	r23, 0xFF	; 255
    40ba:	0f 2e       	mov	r0, r31
    40bc:	f3 e0       	ldi	r31, 0x03	; 3
    40be:	ef 2e       	mov	r14, r31
    40c0:	f2 e0       	ldi	r31, 0x02	; 2
    40c2:	ff 2e       	mov	r15, r31
    40c4:	f0 2d       	mov	r31, r0
    40c6:	21 e0       	ldi	r18, 0x01	; 1
    40c8:	30 e0       	ldi	r19, 0x00	; 0
    40ca:	86 e4       	ldi	r24, 0x46	; 70
    40cc:	97 e0       	ldi	r25, 0x07	; 7
    40ce:	0e 94 f2 38 	call	0x71e4	; 0x71e4 <_ZN4OLED19OLED_Write_To_BuferEiiiiPKh>
    40d2:	4a 85       	ldd	r20, Y+10	; 0x0a
    40d4:	5b 85       	ldd	r21, Y+11	; 0x0b
    40d6:	e8 81       	ld	r30, Y
    40d8:	f9 81       	ldd	r31, Y+1	; 0x01
    40da:	ee 0f       	add	r30, r30
    40dc:	ff 1f       	adc	r31, r31
    40de:	e6 5e       	subi	r30, 0xE6	; 230
    40e0:	f8 4f       	sbci	r31, 0xF8	; 248
    40e2:	60 81       	ld	r22, Z
    40e4:	71 81       	ldd	r23, Z+1	; 0x01
    40e6:	68 5c       	subi	r22, 0xC8	; 200
    40e8:	7f 4f       	sbci	r23, 0xFF	; 255
    40ea:	0f 2e       	mov	r0, r31
    40ec:	fb ef       	ldi	r31, 0xFB	; 251
    40ee:	ef 2e       	mov	r14, r31
    40f0:	f1 e0       	ldi	r31, 0x01	; 1
    40f2:	ff 2e       	mov	r15, r31
    40f4:	f0 2d       	mov	r31, r0
    40f6:	21 e0       	ldi	r18, 0x01	; 1
    40f8:	30 e0       	ldi	r19, 0x00	; 0
    40fa:	86 e4       	ldi	r24, 0x46	; 70
    40fc:	97 e0       	ldi	r25, 0x07	; 7
    40fe:	0e 94 f2 38 	call	0x71e4	; 0x71e4 <_ZN4OLED19OLED_Write_To_BuferEiiiiPKh>
    4102:	4a 85       	ldd	r20, Y+10	; 0x0a
    4104:	5b 85       	ldd	r21, Y+11	; 0x0b
    4106:	e8 81       	ld	r30, Y
    4108:	f9 81       	ldd	r31, Y+1	; 0x01
    410a:	ee 0f       	add	r30, r30
    410c:	ff 1f       	adc	r31, r31
    410e:	e6 5e       	subi	r30, 0xE6	; 230
    4110:	f8 4f       	sbci	r31, 0xF8	; 248
    4112:	60 81       	ld	r22, Z
    4114:	71 81       	ldd	r23, Z+1	; 0x01
    4116:	60 5c       	subi	r22, 0xC0	; 192
    4118:	7f 4f       	sbci	r23, 0xFF	; 255
    411a:	0f 2e       	mov	r0, r31
    411c:	f3 e8       	ldi	r31, 0x83	; 131
    411e:	ef 2e       	mov	r14, r31
    4120:	f1 e0       	ldi	r31, 0x01	; 1
    4122:	ff 2e       	mov	r15, r31
    4124:	f0 2d       	mov	r31, r0
    4126:	21 e0       	ldi	r18, 0x01	; 1
    4128:	30 e0       	ldi	r19, 0x00	; 0
    412a:	86 e4       	ldi	r24, 0x46	; 70
    412c:	97 e0       	ldi	r25, 0x07	; 7
    412e:	0e 94 f2 38 	call	0x71e4	; 0x71e4 <_ZN4OLED19OLED_Write_To_BuferEiiiiPKh>
    4132:	4a 85       	ldd	r20, Y+10	; 0x0a
    4134:	5b 85       	ldd	r21, Y+11	; 0x0b
    4136:	e8 81       	ld	r30, Y
    4138:	f9 81       	ldd	r31, Y+1	; 0x01
    413a:	ee 0f       	add	r30, r30
    413c:	ff 1f       	adc	r31, r31
    413e:	e6 5e       	subi	r30, 0xE6	; 230
    4140:	f8 4f       	sbci	r31, 0xF8	; 248
    4142:	60 81       	ld	r22, Z
    4144:	71 81       	ldd	r23, Z+1	; 0x01
    4146:	68 5b       	subi	r22, 0xB8	; 184
    4148:	7f 4f       	sbci	r23, 0xFF	; 255
    414a:	0f 2e       	mov	r0, r31
    414c:	fb ed       	ldi	r31, 0xDB	; 219
    414e:	ef 2e       	mov	r14, r31
    4150:	f1 e0       	ldi	r31, 0x01	; 1
    4152:	ff 2e       	mov	r15, r31
    4154:	f0 2d       	mov	r31, r0
    4156:	21 e0       	ldi	r18, 0x01	; 1
    4158:	30 e0       	ldi	r19, 0x00	; 0
    415a:	86 e4       	ldi	r24, 0x46	; 70
    415c:	97 e0       	ldi	r25, 0x07	; 7
    415e:	0e 94 f2 38 	call	0x71e4	; 0x71e4 <_ZN4OLED19OLED_Write_To_BuferEiiiiPKh>
    4162:	4a 85       	ldd	r20, Y+10	; 0x0a
    4164:	5b 85       	ldd	r21, Y+11	; 0x0b
    4166:	e8 81       	ld	r30, Y
    4168:	f9 81       	ldd	r31, Y+1	; 0x01
    416a:	ee 0f       	add	r30, r30
    416c:	ff 1f       	adc	r31, r31
    416e:	e6 5e       	subi	r30, 0xE6	; 230
    4170:	f8 4f       	sbci	r31, 0xF8	; 248
    4172:	60 81       	ld	r22, Z
    4174:	71 81       	ldd	r23, Z+1	; 0x01
    4176:	60 5b       	subi	r22, 0xB0	; 176
    4178:	7f 4f       	sbci	r23, 0xFF	; 255
    417a:	0f 2e       	mov	r0, r31
    417c:	fb e0       	ldi	r31, 0x0B	; 11
    417e:	ef 2e       	mov	r14, r31
    4180:	f2 e0       	ldi	r31, 0x02	; 2
    4182:	ff 2e       	mov	r15, r31
    4184:	f0 2d       	mov	r31, r0
    4186:	21 e0       	ldi	r18, 0x01	; 1
    4188:	30 e0       	ldi	r19, 0x00	; 0
    418a:	86 e4       	ldi	r24, 0x46	; 70
    418c:	97 e0       	ldi	r25, 0x07	; 7
    418e:	0e 94 f2 38 	call	0x71e4	; 0x71e4 <_ZN4OLED19OLED_Write_To_BuferEiiiiPKh>
    4192:	4a 85       	ldd	r20, Y+10	; 0x0a
    4194:	5b 85       	ldd	r21, Y+11	; 0x0b
    4196:	e8 81       	ld	r30, Y
    4198:	f9 81       	ldd	r31, Y+1	; 0x01
    419a:	ee 0f       	add	r30, r30
    419c:	ff 1f       	adc	r31, r31
    419e:	e6 5e       	subi	r30, 0xE6	; 230
    41a0:	f8 4f       	sbci	r31, 0xF8	; 248
    41a2:	60 81       	ld	r22, Z
    41a4:	71 81       	ldd	r23, Z+1	; 0x01
    41a6:	68 5a       	subi	r22, 0xA8	; 168
    41a8:	7f 4f       	sbci	r23, 0xFF	; 255
    41aa:	0f 2e       	mov	r0, r31
    41ac:	fb ef       	ldi	r31, 0xFB	; 251
    41ae:	ef 2e       	mov	r14, r31
    41b0:	f1 e0       	ldi	r31, 0x01	; 1
    41b2:	ff 2e       	mov	r15, r31
    41b4:	f0 2d       	mov	r31, r0
    41b6:	21 e0       	ldi	r18, 0x01	; 1
    41b8:	30 e0       	ldi	r19, 0x00	; 0
    41ba:	86 e4       	ldi	r24, 0x46	; 70
    41bc:	97 e0       	ldi	r25, 0x07	; 7
    41be:	0e 94 f2 38 	call	0x71e4	; 0x71e4 <_ZN4OLED19OLED_Write_To_BuferEiiiiPKh>
    41c2:	5a c3       	rjmp	.+1716   	; 0x4878 <__stack+0x779>
    41c4:	c8 e1       	ldi	r28, 0x18	; 24
    41c6:	d7 e0       	ldi	r29, 0x07	; 7
    41c8:	4a 85       	ldd	r20, Y+10	; 0x0a
    41ca:	5b 85       	ldd	r21, Y+11	; 0x0b
    41cc:	08 e0       	ldi	r16, 0x08	; 8
    41ce:	10 e0       	ldi	r17, 0x00	; 0
    41d0:	20 e1       	ldi	r18, 0x10	; 16
    41d2:	30 e0       	ldi	r19, 0x00	; 0
    41d4:	60 e0       	ldi	r22, 0x00	; 0
    41d6:	70 e0       	ldi	r23, 0x00	; 0
    41d8:	86 e4       	ldi	r24, 0x46	; 70
    41da:	97 e0       	ldi	r25, 0x07	; 7
    41dc:	0e 94 a3 38 	call	0x7146	; 0x7146 <_ZN4OLED21OLED_Clear_Bufer_partEiiii>
    41e0:	4a 85       	ldd	r20, Y+10	; 0x0a
    41e2:	5b 85       	ldd	r21, Y+11	; 0x0b
    41e4:	e8 81       	ld	r30, Y
    41e6:	f9 81       	ldd	r31, Y+1	; 0x01
    41e8:	ee 0f       	add	r30, r30
    41ea:	ff 1f       	adc	r31, r31
    41ec:	e6 5e       	subi	r30, 0xE6	; 230
    41ee:	f8 4f       	sbci	r31, 0xF8	; 248
    41f0:	60 81       	ld	r22, Z
    41f2:	71 81       	ldd	r23, Z+1	; 0x01
    41f4:	0f 2e       	mov	r0, r31
    41f6:	fb e1       	ldi	r31, 0x1B	; 27
    41f8:	ef 2e       	mov	r14, r31
    41fa:	f2 e0       	ldi	r31, 0x02	; 2
    41fc:	ff 2e       	mov	r15, r31
    41fe:	f0 2d       	mov	r31, r0
    4200:	21 e0       	ldi	r18, 0x01	; 1
    4202:	30 e0       	ldi	r19, 0x00	; 0
    4204:	86 e4       	ldi	r24, 0x46	; 70
    4206:	97 e0       	ldi	r25, 0x07	; 7
    4208:	0e 94 f2 38 	call	0x71e4	; 0x71e4 <_ZN4OLED19OLED_Write_To_BuferEiiiiPKh>
    420c:	4a 85       	ldd	r20, Y+10	; 0x0a
    420e:	5b 85       	ldd	r21, Y+11	; 0x0b
    4210:	e8 81       	ld	r30, Y
    4212:	f9 81       	ldd	r31, Y+1	; 0x01
    4214:	ee 0f       	add	r30, r30
    4216:	ff 1f       	adc	r31, r31
    4218:	e6 5e       	subi	r30, 0xE6	; 230
    421a:	f8 4f       	sbci	r31, 0xF8	; 248
    421c:	60 81       	ld	r22, Z
    421e:	71 81       	ldd	r23, Z+1	; 0x01
    4220:	68 5f       	subi	r22, 0xF8	; 248
    4222:	7f 4f       	sbci	r23, 0xFF	; 255
    4224:	0f 2e       	mov	r0, r31
    4226:	f3 e0       	ldi	r31, 0x03	; 3
    4228:	ef 2e       	mov	r14, r31
    422a:	f2 e0       	ldi	r31, 0x02	; 2
    422c:	ff 2e       	mov	r15, r31
    422e:	f0 2d       	mov	r31, r0
    4230:	21 e0       	ldi	r18, 0x01	; 1
    4232:	30 e0       	ldi	r19, 0x00	; 0
    4234:	86 e4       	ldi	r24, 0x46	; 70
    4236:	97 e0       	ldi	r25, 0x07	; 7
    4238:	0e 94 f2 38 	call	0x71e4	; 0x71e4 <_ZN4OLED19OLED_Write_To_BuferEiiiiPKh>
    423c:	4a 85       	ldd	r20, Y+10	; 0x0a
    423e:	5b 85       	ldd	r21, Y+11	; 0x0b
    4240:	e8 81       	ld	r30, Y
    4242:	f9 81       	ldd	r31, Y+1	; 0x01
    4244:	ee 0f       	add	r30, r30
    4246:	ff 1f       	adc	r31, r31
    4248:	e6 5e       	subi	r30, 0xE6	; 230
    424a:	f8 4f       	sbci	r31, 0xF8	; 248
    424c:	60 81       	ld	r22, Z
    424e:	71 81       	ldd	r23, Z+1	; 0x01
    4250:	60 5f       	subi	r22, 0xF0	; 240
    4252:	7f 4f       	sbci	r23, 0xFF	; 255
    4254:	21 e0       	ldi	r18, 0x01	; 1
    4256:	30 e0       	ldi	r19, 0x00	; 0
    4258:	86 e4       	ldi	r24, 0x46	; 70
    425a:	97 e0       	ldi	r25, 0x07	; 7
    425c:	0e 94 f2 38 	call	0x71e4	; 0x71e4 <_ZN4OLED19OLED_Write_To_BuferEiiiiPKh>
    4260:	4a 85       	ldd	r20, Y+10	; 0x0a
    4262:	5b 85       	ldd	r21, Y+11	; 0x0b
    4264:	e8 81       	ld	r30, Y
    4266:	f9 81       	ldd	r31, Y+1	; 0x01
    4268:	ee 0f       	add	r30, r30
    426a:	ff 1f       	adc	r31, r31
    426c:	e6 5e       	subi	r30, 0xE6	; 230
    426e:	f8 4f       	sbci	r31, 0xF8	; 248
    4270:	60 81       	ld	r22, Z
    4272:	71 81       	ldd	r23, Z+1	; 0x01
    4274:	60 5e       	subi	r22, 0xE0	; 224
    4276:	7f 4f       	sbci	r23, 0xFF	; 255
    4278:	0f 2e       	mov	r0, r31
    427a:	fb ea       	ldi	r31, 0xAB	; 171
    427c:	ef 2e       	mov	r14, r31
    427e:	f1 e0       	ldi	r31, 0x01	; 1
    4280:	ff 2e       	mov	r15, r31
    4282:	f0 2d       	mov	r31, r0
    4284:	21 e0       	ldi	r18, 0x01	; 1
    4286:	30 e0       	ldi	r19, 0x00	; 0
    4288:	86 e4       	ldi	r24, 0x46	; 70
    428a:	97 e0       	ldi	r25, 0x07	; 7
    428c:	0e 94 f2 38 	call	0x71e4	; 0x71e4 <_ZN4OLED19OLED_Write_To_BuferEiiiiPKh>
    4290:	4a 85       	ldd	r20, Y+10	; 0x0a
    4292:	5b 85       	ldd	r21, Y+11	; 0x0b
    4294:	e8 81       	ld	r30, Y
    4296:	f9 81       	ldd	r31, Y+1	; 0x01
    4298:	ee 0f       	add	r30, r30
    429a:	ff 1f       	adc	r31, r31
    429c:	e6 5e       	subi	r30, 0xE6	; 230
    429e:	f8 4f       	sbci	r31, 0xF8	; 248
    42a0:	60 81       	ld	r22, Z
    42a2:	71 81       	ldd	r23, Z+1	; 0x01
    42a4:	68 5d       	subi	r22, 0xD8	; 216
    42a6:	7f 4f       	sbci	r23, 0xFF	; 255
    42a8:	0f 2e       	mov	r0, r31
    42aa:	fb e7       	ldi	r31, 0x7B	; 123
    42ac:	ef 2e       	mov	r14, r31
    42ae:	f1 e0       	ldi	r31, 0x01	; 1
    42b0:	ff 2e       	mov	r15, r31
    42b2:	f0 2d       	mov	r31, r0
    42b4:	21 e0       	ldi	r18, 0x01	; 1
    42b6:	30 e0       	ldi	r19, 0x00	; 0
    42b8:	86 e4       	ldi	r24, 0x46	; 70
    42ba:	97 e0       	ldi	r25, 0x07	; 7
    42bc:	0e 94 f2 38 	call	0x71e4	; 0x71e4 <_ZN4OLED19OLED_Write_To_BuferEiiiiPKh>
    42c0:	4a 85       	ldd	r20, Y+10	; 0x0a
    42c2:	5b 85       	ldd	r21, Y+11	; 0x0b
    42c4:	e8 81       	ld	r30, Y
    42c6:	f9 81       	ldd	r31, Y+1	; 0x01
    42c8:	ee 0f       	add	r30, r30
    42ca:	ff 1f       	adc	r31, r31
    42cc:	e6 5e       	subi	r30, 0xE6	; 230
    42ce:	f8 4f       	sbci	r31, 0xF8	; 248
    42d0:	60 81       	ld	r22, Z
    42d2:	71 81       	ldd	r23, Z+1	; 0x01
    42d4:	60 5d       	subi	r22, 0xD0	; 208
    42d6:	7f 4f       	sbci	r23, 0xFF	; 255
    42d8:	0f 2e       	mov	r0, r31
    42da:	f3 eb       	ldi	r31, 0xB3	; 179
    42dc:	ef 2e       	mov	r14, r31
    42de:	f1 e0       	ldi	r31, 0x01	; 1
    42e0:	ff 2e       	mov	r15, r31
    42e2:	f0 2d       	mov	r31, r0
    42e4:	21 e0       	ldi	r18, 0x01	; 1
    42e6:	30 e0       	ldi	r19, 0x00	; 0
    42e8:	86 e4       	ldi	r24, 0x46	; 70
    42ea:	97 e0       	ldi	r25, 0x07	; 7
    42ec:	0e 94 f2 38 	call	0x71e4	; 0x71e4 <_ZN4OLED19OLED_Write_To_BuferEiiiiPKh>
    42f0:	4a 85       	ldd	r20, Y+10	; 0x0a
    42f2:	5b 85       	ldd	r21, Y+11	; 0x0b
    42f4:	e8 81       	ld	r30, Y
    42f6:	f9 81       	ldd	r31, Y+1	; 0x01
    42f8:	ee 0f       	add	r30, r30
    42fa:	ff 1f       	adc	r31, r31
    42fc:	e6 5e       	subi	r30, 0xE6	; 230
    42fe:	f8 4f       	sbci	r31, 0xF8	; 248
    4300:	60 81       	ld	r22, Z
    4302:	71 81       	ldd	r23, Z+1	; 0x01
    4304:	68 5c       	subi	r22, 0xC8	; 200
    4306:	7f 4f       	sbci	r23, 0xFF	; 255
    4308:	0f 2e       	mov	r0, r31
    430a:	fb ef       	ldi	r31, 0xFB	; 251
    430c:	ef 2e       	mov	r14, r31
    430e:	f1 e0       	ldi	r31, 0x01	; 1
    4310:	ff 2e       	mov	r15, r31
    4312:	f0 2d       	mov	r31, r0
    4314:	21 e0       	ldi	r18, 0x01	; 1
    4316:	30 e0       	ldi	r19, 0x00	; 0
    4318:	86 e4       	ldi	r24, 0x46	; 70
    431a:	97 e0       	ldi	r25, 0x07	; 7
    431c:	0e 94 f2 38 	call	0x71e4	; 0x71e4 <_ZN4OLED19OLED_Write_To_BuferEiiiiPKh>
    4320:	4a 85       	ldd	r20, Y+10	; 0x0a
    4322:	5b 85       	ldd	r21, Y+11	; 0x0b
    4324:	e8 81       	ld	r30, Y
    4326:	f9 81       	ldd	r31, Y+1	; 0x01
    4328:	ee 0f       	add	r30, r30
    432a:	ff 1f       	adc	r31, r31
    432c:	e6 5e       	subi	r30, 0xE6	; 230
    432e:	f8 4f       	sbci	r31, 0xF8	; 248
    4330:	60 81       	ld	r22, Z
    4332:	71 81       	ldd	r23, Z+1	; 0x01
    4334:	60 5c       	subi	r22, 0xC0	; 192
    4336:	7f 4f       	sbci	r23, 0xFF	; 255
    4338:	0f 2e       	mov	r0, r31
    433a:	f3 ea       	ldi	r31, 0xA3	; 163
    433c:	ef 2e       	mov	r14, r31
    433e:	f1 e0       	ldi	r31, 0x01	; 1
    4340:	ff 2e       	mov	r15, r31
    4342:	f0 2d       	mov	r31, r0
    4344:	21 e0       	ldi	r18, 0x01	; 1
    4346:	30 e0       	ldi	r19, 0x00	; 0
    4348:	86 e4       	ldi	r24, 0x46	; 70
    434a:	97 e0       	ldi	r25, 0x07	; 7
    434c:	0e 94 f2 38 	call	0x71e4	; 0x71e4 <_ZN4OLED19OLED_Write_To_BuferEiiiiPKh>
    4350:	93 c2       	rjmp	.+1318   	; 0x4878 <__stack+0x779>
    4352:	c8 e1       	ldi	r28, 0x18	; 24
    4354:	d7 e0       	ldi	r29, 0x07	; 7
    4356:	4a 85       	ldd	r20, Y+10	; 0x0a
    4358:	5b 85       	ldd	r21, Y+11	; 0x0b
    435a:	08 e0       	ldi	r16, 0x08	; 8
    435c:	10 e0       	ldi	r17, 0x00	; 0
    435e:	20 e1       	ldi	r18, 0x10	; 16
    4360:	30 e0       	ldi	r19, 0x00	; 0
    4362:	60 e0       	ldi	r22, 0x00	; 0
    4364:	70 e0       	ldi	r23, 0x00	; 0
    4366:	86 e4       	ldi	r24, 0x46	; 70
    4368:	97 e0       	ldi	r25, 0x07	; 7
    436a:	0e 94 a3 38 	call	0x7146	; 0x7146 <_ZN4OLED21OLED_Clear_Bufer_partEiiii>
    436e:	4a 85       	ldd	r20, Y+10	; 0x0a
    4370:	5b 85       	ldd	r21, Y+11	; 0x0b
    4372:	e8 81       	ld	r30, Y
    4374:	f9 81       	ldd	r31, Y+1	; 0x01
    4376:	ee 0f       	add	r30, r30
    4378:	ff 1f       	adc	r31, r31
    437a:	e6 5e       	subi	r30, 0xE6	; 230
    437c:	f8 4f       	sbci	r31, 0xF8	; 248
    437e:	60 81       	ld	r22, Z
    4380:	71 81       	ldd	r23, Z+1	; 0x01
    4382:	0f 2e       	mov	r0, r31
    4384:	f3 e1       	ldi	r31, 0x13	; 19
    4386:	ef 2e       	mov	r14, r31
    4388:	f1 e0       	ldi	r31, 0x01	; 1
    438a:	ff 2e       	mov	r15, r31
    438c:	f0 2d       	mov	r31, r0
    438e:	22 e0       	ldi	r18, 0x02	; 2
    4390:	30 e0       	ldi	r19, 0x00	; 0
    4392:	86 e4       	ldi	r24, 0x46	; 70
    4394:	97 e0       	ldi	r25, 0x07	; 7
    4396:	0e 94 f2 38 	call	0x71e4	; 0x71e4 <_ZN4OLED19OLED_Write_To_BuferEiiiiPKh>
    439a:	6e c2       	rjmp	.+1244   	; 0x4878 <__stack+0x779>
    439c:	80 91 43 07 	lds	r24, 0x0743	; 0x800743 <Info_Menu_Status>
    43a0:	88 23       	and	r24, r24
    43a2:	09 f4       	brne	.+2      	; 0x43a6 <__stack+0x2a7>
    43a4:	fc c1       	rjmp	.+1016   	; 0x479e <__stack+0x69f>
    43a6:	80 91 24 07 	lds	r24, 0x0724	; 0x800724 <inf_menu>
    43aa:	90 91 25 07 	lds	r25, 0x0725	; 0x800725 <inf_menu+0x1>
    43ae:	01 96       	adiw	r24, 0x01	; 1
    43b0:	83 30       	cpi	r24, 0x03	; 3
    43b2:	91 05       	cpc	r25, r1
    43b4:	0c f4       	brge	.+2      	; 0x43b8 <__stack+0x2b9>
    43b6:	c7 c7       	rjmp	.+3982   	; 0x5346 <__stack+0x1247>
    43b8:	10 92 25 07 	sts	0x0725, r1	; 0x800725 <inf_menu+0x1>
    43bc:	10 92 24 07 	sts	0x0724, r1	; 0x800724 <inf_menu>
    43c0:	c4 e2       	ldi	r28, 0x24	; 36
    43c2:	d7 e0       	ldi	r29, 0x07	; 7
    43c4:	48 85       	ldd	r20, Y+8	; 0x08
    43c6:	59 85       	ldd	r21, Y+9	; 0x09
    43c8:	08 e0       	ldi	r16, 0x08	; 8
    43ca:	10 e0       	ldi	r17, 0x00	; 0
    43cc:	20 e1       	ldi	r18, 0x10	; 16
    43ce:	30 e0       	ldi	r19, 0x00	; 0
    43d0:	60 e0       	ldi	r22, 0x00	; 0
    43d2:	70 e0       	ldi	r23, 0x00	; 0
    43d4:	86 e4       	ldi	r24, 0x46	; 70
    43d6:	97 e0       	ldi	r25, 0x07	; 7
    43d8:	0e 94 a3 38 	call	0x7146	; 0x7146 <_ZN4OLED21OLED_Clear_Bufer_partEiiii>
    43dc:	48 85       	ldd	r20, Y+8	; 0x08
    43de:	59 85       	ldd	r21, Y+9	; 0x09
    43e0:	e8 81       	ld	r30, Y
    43e2:	f9 81       	ldd	r31, Y+1	; 0x01
    43e4:	ee 0f       	add	r30, r30
    43e6:	ff 1f       	adc	r31, r31
    43e8:	ea 5d       	subi	r30, 0xDA	; 218
    43ea:	f8 4f       	sbci	r31, 0xF8	; 248
    43ec:	60 81       	ld	r22, Z
    43ee:	71 81       	ldd	r23, Z+1	; 0x01
    43f0:	0f 2e       	mov	r0, r31
    43f2:	f3 e0       	ldi	r31, 0x03	; 3
    43f4:	ef 2e       	mov	r14, r31
    43f6:	f2 e0       	ldi	r31, 0x02	; 2
    43f8:	ff 2e       	mov	r15, r31
    43fa:	f0 2d       	mov	r31, r0
    43fc:	21 e0       	ldi	r18, 0x01	; 1
    43fe:	30 e0       	ldi	r19, 0x00	; 0
    4400:	86 e4       	ldi	r24, 0x46	; 70
    4402:	97 e0       	ldi	r25, 0x07	; 7
    4404:	0e 94 f2 38 	call	0x71e4	; 0x71e4 <_ZN4OLED19OLED_Write_To_BuferEiiiiPKh>
    4408:	48 85       	ldd	r20, Y+8	; 0x08
    440a:	59 85       	ldd	r21, Y+9	; 0x09
    440c:	e8 81       	ld	r30, Y
    440e:	f9 81       	ldd	r31, Y+1	; 0x01
    4410:	ee 0f       	add	r30, r30
    4412:	ff 1f       	adc	r31, r31
    4414:	ea 5d       	subi	r30, 0xDA	; 218
    4416:	f8 4f       	sbci	r31, 0xF8	; 248
    4418:	60 81       	ld	r22, Z
    441a:	71 81       	ldd	r23, Z+1	; 0x01
    441c:	68 5f       	subi	r22, 0xF8	; 248
    441e:	7f 4f       	sbci	r23, 0xFF	; 255
    4420:	0f 2e       	mov	r0, r31
    4422:	fb ef       	ldi	r31, 0xFB	; 251
    4424:	ef 2e       	mov	r14, r31
    4426:	f1 e0       	ldi	r31, 0x01	; 1
    4428:	ff 2e       	mov	r15, r31
    442a:	f0 2d       	mov	r31, r0
    442c:	21 e0       	ldi	r18, 0x01	; 1
    442e:	30 e0       	ldi	r19, 0x00	; 0
    4430:	86 e4       	ldi	r24, 0x46	; 70
    4432:	97 e0       	ldi	r25, 0x07	; 7
    4434:	0e 94 f2 38 	call	0x71e4	; 0x71e4 <_ZN4OLED19OLED_Write_To_BuferEiiiiPKh>
    4438:	48 85       	ldd	r20, Y+8	; 0x08
    443a:	59 85       	ldd	r21, Y+9	; 0x09
    443c:	e8 81       	ld	r30, Y
    443e:	f9 81       	ldd	r31, Y+1	; 0x01
    4440:	ee 0f       	add	r30, r30
    4442:	ff 1f       	adc	r31, r31
    4444:	ea 5d       	subi	r30, 0xDA	; 218
    4446:	f8 4f       	sbci	r31, 0xF8	; 248
    4448:	60 81       	ld	r22, Z
    444a:	71 81       	ldd	r23, Z+1	; 0x01
    444c:	60 5f       	subi	r22, 0xF0	; 240
    444e:	7f 4f       	sbci	r23, 0xFF	; 255
    4450:	0f 2e       	mov	r0, r31
    4452:	f3 e8       	ldi	r31, 0x83	; 131
    4454:	ef 2e       	mov	r14, r31
    4456:	f1 e0       	ldi	r31, 0x01	; 1
    4458:	ff 2e       	mov	r15, r31
    445a:	f0 2d       	mov	r31, r0
    445c:	21 e0       	ldi	r18, 0x01	; 1
    445e:	30 e0       	ldi	r19, 0x00	; 0
    4460:	86 e4       	ldi	r24, 0x46	; 70
    4462:	97 e0       	ldi	r25, 0x07	; 7
    4464:	0e 94 f2 38 	call	0x71e4	; 0x71e4 <_ZN4OLED19OLED_Write_To_BuferEiiiiPKh>
    4468:	48 85       	ldd	r20, Y+8	; 0x08
    446a:	59 85       	ldd	r21, Y+9	; 0x09
    446c:	e8 81       	ld	r30, Y
    446e:	f9 81       	ldd	r31, Y+1	; 0x01
    4470:	ee 0f       	add	r30, r30
    4472:	ff 1f       	adc	r31, r31
    4474:	ea 5d       	subi	r30, 0xDA	; 218
    4476:	f8 4f       	sbci	r31, 0xF8	; 248
    4478:	60 81       	ld	r22, Z
    447a:	71 81       	ldd	r23, Z+1	; 0x01
    447c:	68 5e       	subi	r22, 0xE8	; 232
    447e:	7f 4f       	sbci	r23, 0xFF	; 255
    4480:	0f 2e       	mov	r0, r31
    4482:	fb ed       	ldi	r31, 0xDB	; 219
    4484:	ef 2e       	mov	r14, r31
    4486:	f1 e0       	ldi	r31, 0x01	; 1
    4488:	ff 2e       	mov	r15, r31
    448a:	f0 2d       	mov	r31, r0
    448c:	21 e0       	ldi	r18, 0x01	; 1
    448e:	30 e0       	ldi	r19, 0x00	; 0
    4490:	86 e4       	ldi	r24, 0x46	; 70
    4492:	97 e0       	ldi	r25, 0x07	; 7
    4494:	0e 94 f2 38 	call	0x71e4	; 0x71e4 <_ZN4OLED19OLED_Write_To_BuferEiiiiPKh>
    4498:	48 85       	ldd	r20, Y+8	; 0x08
    449a:	59 85       	ldd	r21, Y+9	; 0x09
    449c:	e8 81       	ld	r30, Y
    449e:	f9 81       	ldd	r31, Y+1	; 0x01
    44a0:	ee 0f       	add	r30, r30
    44a2:	ff 1f       	adc	r31, r31
    44a4:	ea 5d       	subi	r30, 0xDA	; 218
    44a6:	f8 4f       	sbci	r31, 0xF8	; 248
    44a8:	60 81       	ld	r22, Z
    44aa:	71 81       	ldd	r23, Z+1	; 0x01
    44ac:	60 5e       	subi	r22, 0xE0	; 224
    44ae:	7f 4f       	sbci	r23, 0xFF	; 255
    44b0:	0f 2e       	mov	r0, r31
    44b2:	fb e0       	ldi	r31, 0x0B	; 11
    44b4:	ef 2e       	mov	r14, r31
    44b6:	f2 e0       	ldi	r31, 0x02	; 2
    44b8:	ff 2e       	mov	r15, r31
    44ba:	f0 2d       	mov	r31, r0
    44bc:	21 e0       	ldi	r18, 0x01	; 1
    44be:	30 e0       	ldi	r19, 0x00	; 0
    44c0:	86 e4       	ldi	r24, 0x46	; 70
    44c2:	97 e0       	ldi	r25, 0x07	; 7
    44c4:	0e 94 f2 38 	call	0x71e4	; 0x71e4 <_ZN4OLED19OLED_Write_To_BuferEiiiiPKh>
    44c8:	48 85       	ldd	r20, Y+8	; 0x08
    44ca:	59 85       	ldd	r21, Y+9	; 0x09
    44cc:	e8 81       	ld	r30, Y
    44ce:	f9 81       	ldd	r31, Y+1	; 0x01
    44d0:	ee 0f       	add	r30, r30
    44d2:	ff 1f       	adc	r31, r31
    44d4:	ea 5d       	subi	r30, 0xDA	; 218
    44d6:	f8 4f       	sbci	r31, 0xF8	; 248
    44d8:	60 81       	ld	r22, Z
    44da:	71 81       	ldd	r23, Z+1	; 0x01
    44dc:	68 5d       	subi	r22, 0xD8	; 216
    44de:	7f 4f       	sbci	r23, 0xFF	; 255
    44e0:	0f 2e       	mov	r0, r31
    44e2:	fb ef       	ldi	r31, 0xFB	; 251
    44e4:	ef 2e       	mov	r14, r31
    44e6:	f1 e0       	ldi	r31, 0x01	; 1
    44e8:	ff 2e       	mov	r15, r31
    44ea:	f0 2d       	mov	r31, r0
    44ec:	21 e0       	ldi	r18, 0x01	; 1
    44ee:	30 e0       	ldi	r19, 0x00	; 0
    44f0:	86 e4       	ldi	r24, 0x46	; 70
    44f2:	97 e0       	ldi	r25, 0x07	; 7
    44f4:	0e 94 f2 38 	call	0x71e4	; 0x71e4 <_ZN4OLED19OLED_Write_To_BuferEiiiiPKh>
    44f8:	48 85       	ldd	r20, Y+8	; 0x08
    44fa:	59 85       	ldd	r21, Y+9	; 0x09
    44fc:	e8 81       	ld	r30, Y
    44fe:	f9 81       	ldd	r31, Y+1	; 0x01
    4500:	ee 0f       	add	r30, r30
    4502:	ff 1f       	adc	r31, r31
    4504:	ea 5d       	subi	r30, 0xDA	; 218
    4506:	f8 4f       	sbci	r31, 0xF8	; 248
    4508:	60 81       	ld	r22, Z
    450a:	71 81       	ldd	r23, Z+1	; 0x01
    450c:	68 5c       	subi	r22, 0xC8	; 200
    450e:	7f 4f       	sbci	r23, 0xFF	; 255
    4510:	0f 2e       	mov	r0, r31
    4512:	fb ed       	ldi	r31, 0xDB	; 219
    4514:	ef 2e       	mov	r14, r31
    4516:	f1 e0       	ldi	r31, 0x01	; 1
    4518:	ff 2e       	mov	r15, r31
    451a:	f0 2d       	mov	r31, r0
    451c:	21 e0       	ldi	r18, 0x01	; 1
    451e:	30 e0       	ldi	r19, 0x00	; 0
    4520:	86 e4       	ldi	r24, 0x46	; 70
    4522:	97 e0       	ldi	r25, 0x07	; 7
    4524:	0e 94 f2 38 	call	0x71e4	; 0x71e4 <_ZN4OLED19OLED_Write_To_BuferEiiiiPKh>
    4528:	48 85       	ldd	r20, Y+8	; 0x08
    452a:	59 85       	ldd	r21, Y+9	; 0x09
    452c:	e8 81       	ld	r30, Y
    452e:	f9 81       	ldd	r31, Y+1	; 0x01
    4530:	ee 0f       	add	r30, r30
    4532:	ff 1f       	adc	r31, r31
    4534:	ea 5d       	subi	r30, 0xDA	; 218
    4536:	f8 4f       	sbci	r31, 0xF8	; 248
    4538:	60 81       	ld	r22, Z
    453a:	71 81       	ldd	r23, Z+1	; 0x01
    453c:	60 5c       	subi	r22, 0xC0	; 192
    453e:	7f 4f       	sbci	r23, 0xFF	; 255
    4540:	0f 2e       	mov	r0, r31
    4542:	f3 eb       	ldi	r31, 0xB3	; 179
    4544:	ef 2e       	mov	r14, r31
    4546:	f1 e0       	ldi	r31, 0x01	; 1
    4548:	ff 2e       	mov	r15, r31
    454a:	f0 2d       	mov	r31, r0
    454c:	21 e0       	ldi	r18, 0x01	; 1
    454e:	30 e0       	ldi	r19, 0x00	; 0
    4550:	86 e4       	ldi	r24, 0x46	; 70
    4552:	97 e0       	ldi	r25, 0x07	; 7
    4554:	0e 94 f2 38 	call	0x71e4	; 0x71e4 <_ZN4OLED19OLED_Write_To_BuferEiiiiPKh>
    4558:	48 85       	ldd	r20, Y+8	; 0x08
    455a:	59 85       	ldd	r21, Y+9	; 0x09
    455c:	e8 81       	ld	r30, Y
    455e:	f9 81       	ldd	r31, Y+1	; 0x01
    4560:	ee 0f       	add	r30, r30
    4562:	ff 1f       	adc	r31, r31
    4564:	ea 5d       	subi	r30, 0xDA	; 218
    4566:	f8 4f       	sbci	r31, 0xF8	; 248
    4568:	60 81       	ld	r22, Z
    456a:	71 81       	ldd	r23, Z+1	; 0x01
    456c:	68 5b       	subi	r22, 0xB8	; 184
    456e:	7f 4f       	sbci	r23, 0xFF	; 255
    4570:	0f 2e       	mov	r0, r31
    4572:	f3 ef       	ldi	r31, 0xF3	; 243
    4574:	ef 2e       	mov	r14, r31
    4576:	f1 e0       	ldi	r31, 0x01	; 1
    4578:	ff 2e       	mov	r15, r31
    457a:	f0 2d       	mov	r31, r0
    457c:	21 e0       	ldi	r18, 0x01	; 1
    457e:	30 e0       	ldi	r19, 0x00	; 0
    4580:	86 e4       	ldi	r24, 0x46	; 70
    4582:	97 e0       	ldi	r25, 0x07	; 7
    4584:	0e 94 f2 38 	call	0x71e4	; 0x71e4 <_ZN4OLED19OLED_Write_To_BuferEiiiiPKh>
    4588:	48 85       	ldd	r20, Y+8	; 0x08
    458a:	59 85       	ldd	r21, Y+9	; 0x09
    458c:	e8 81       	ld	r30, Y
    458e:	f9 81       	ldd	r31, Y+1	; 0x01
    4590:	ee 0f       	add	r30, r30
    4592:	ff 1f       	adc	r31, r31
    4594:	ea 5d       	subi	r30, 0xDA	; 218
    4596:	f8 4f       	sbci	r31, 0xF8	; 248
    4598:	60 81       	ld	r22, Z
    459a:	71 81       	ldd	r23, Z+1	; 0x01
    459c:	60 5b       	subi	r22, 0xB0	; 176
    459e:	7f 4f       	sbci	r23, 0xFF	; 255
    45a0:	0f 2e       	mov	r0, r31
    45a2:	fb ea       	ldi	r31, 0xAB	; 171
    45a4:	ef 2e       	mov	r14, r31
    45a6:	f1 e0       	ldi	r31, 0x01	; 1
    45a8:	ff 2e       	mov	r15, r31
    45aa:	f0 2d       	mov	r31, r0
    45ac:	21 e0       	ldi	r18, 0x01	; 1
    45ae:	30 e0       	ldi	r19, 0x00	; 0
    45b0:	86 e4       	ldi	r24, 0x46	; 70
    45b2:	97 e0       	ldi	r25, 0x07	; 7
    45b4:	0e 94 f2 38 	call	0x71e4	; 0x71e4 <_ZN4OLED19OLED_Write_To_BuferEiiiiPKh>
    45b8:	5f c1       	rjmp	.+702    	; 0x4878 <__stack+0x779>
    45ba:	c4 e2       	ldi	r28, 0x24	; 36
    45bc:	d7 e0       	ldi	r29, 0x07	; 7
    45be:	48 85       	ldd	r20, Y+8	; 0x08
    45c0:	59 85       	ldd	r21, Y+9	; 0x09
    45c2:	08 e0       	ldi	r16, 0x08	; 8
    45c4:	10 e0       	ldi	r17, 0x00	; 0
    45c6:	20 e1       	ldi	r18, 0x10	; 16
    45c8:	30 e0       	ldi	r19, 0x00	; 0
    45ca:	60 e0       	ldi	r22, 0x00	; 0
    45cc:	70 e0       	ldi	r23, 0x00	; 0
    45ce:	86 e4       	ldi	r24, 0x46	; 70
    45d0:	97 e0       	ldi	r25, 0x07	; 7
    45d2:	0e 94 a3 38 	call	0x7146	; 0x7146 <_ZN4OLED21OLED_Clear_Bufer_partEiiii>
    45d6:	48 85       	ldd	r20, Y+8	; 0x08
    45d8:	59 85       	ldd	r21, Y+9	; 0x09
    45da:	e8 81       	ld	r30, Y
    45dc:	f9 81       	ldd	r31, Y+1	; 0x01
    45de:	ee 0f       	add	r30, r30
    45e0:	ff 1f       	adc	r31, r31
    45e2:	ea 5d       	subi	r30, 0xDA	; 218
    45e4:	f8 4f       	sbci	r31, 0xF8	; 248
    45e6:	60 81       	ld	r22, Z
    45e8:	71 81       	ldd	r23, Z+1	; 0x01
    45ea:	0f 2e       	mov	r0, r31
    45ec:	fb e8       	ldi	r31, 0x8B	; 139
    45ee:	ef 2e       	mov	r14, r31
    45f0:	f1 e0       	ldi	r31, 0x01	; 1
    45f2:	ff 2e       	mov	r15, r31
    45f4:	f0 2d       	mov	r31, r0
    45f6:	21 e0       	ldi	r18, 0x01	; 1
    45f8:	30 e0       	ldi	r19, 0x00	; 0
    45fa:	86 e4       	ldi	r24, 0x46	; 70
    45fc:	97 e0       	ldi	r25, 0x07	; 7
    45fe:	0e 94 f2 38 	call	0x71e4	; 0x71e4 <_ZN4OLED19OLED_Write_To_BuferEiiiiPKh>
    4602:	48 85       	ldd	r20, Y+8	; 0x08
    4604:	59 85       	ldd	r21, Y+9	; 0x09
    4606:	e8 81       	ld	r30, Y
    4608:	f9 81       	ldd	r31, Y+1	; 0x01
    460a:	ee 0f       	add	r30, r30
    460c:	ff 1f       	adc	r31, r31
    460e:	ea 5d       	subi	r30, 0xDA	; 218
    4610:	f8 4f       	sbci	r31, 0xF8	; 248
    4612:	60 81       	ld	r22, Z
    4614:	71 81       	ldd	r23, Z+1	; 0x01
    4616:	68 5f       	subi	r22, 0xF8	; 248
    4618:	7f 4f       	sbci	r23, 0xFF	; 255
    461a:	0f 2e       	mov	r0, r31
    461c:	fb e9       	ldi	r31, 0x9B	; 155
    461e:	ef 2e       	mov	r14, r31
    4620:	f1 e0       	ldi	r31, 0x01	; 1
    4622:	ff 2e       	mov	r15, r31
    4624:	f0 2d       	mov	r31, r0
    4626:	21 e0       	ldi	r18, 0x01	; 1
    4628:	30 e0       	ldi	r19, 0x00	; 0
    462a:	86 e4       	ldi	r24, 0x46	; 70
    462c:	97 e0       	ldi	r25, 0x07	; 7
    462e:	0e 94 f2 38 	call	0x71e4	; 0x71e4 <_ZN4OLED19OLED_Write_To_BuferEiiiiPKh>
    4632:	48 85       	ldd	r20, Y+8	; 0x08
    4634:	59 85       	ldd	r21, Y+9	; 0x09
    4636:	e8 81       	ld	r30, Y
    4638:	f9 81       	ldd	r31, Y+1	; 0x01
    463a:	ee 0f       	add	r30, r30
    463c:	ff 1f       	adc	r31, r31
    463e:	ea 5d       	subi	r30, 0xDA	; 218
    4640:	f8 4f       	sbci	r31, 0xF8	; 248
    4642:	60 81       	ld	r22, Z
    4644:	71 81       	ldd	r23, Z+1	; 0x01
    4646:	60 5f       	subi	r22, 0xF0	; 240
    4648:	7f 4f       	sbci	r23, 0xFF	; 255
    464a:	0f 2e       	mov	r0, r31
    464c:	fb ef       	ldi	r31, 0xFB	; 251
    464e:	ef 2e       	mov	r14, r31
    4650:	f1 e0       	ldi	r31, 0x01	; 1
    4652:	ff 2e       	mov	r15, r31
    4654:	f0 2d       	mov	r31, r0
    4656:	21 e0       	ldi	r18, 0x01	; 1
    4658:	30 e0       	ldi	r19, 0x00	; 0
    465a:	86 e4       	ldi	r24, 0x46	; 70
    465c:	97 e0       	ldi	r25, 0x07	; 7
    465e:	0e 94 f2 38 	call	0x71e4	; 0x71e4 <_ZN4OLED19OLED_Write_To_BuferEiiiiPKh>
    4662:	48 85       	ldd	r20, Y+8	; 0x08
    4664:	59 85       	ldd	r21, Y+9	; 0x09
    4666:	e8 81       	ld	r30, Y
    4668:	f9 81       	ldd	r31, Y+1	; 0x01
    466a:	ee 0f       	add	r30, r30
    466c:	ff 1f       	adc	r31, r31
    466e:	ea 5d       	subi	r30, 0xDA	; 218
    4670:	f8 4f       	sbci	r31, 0xF8	; 248
    4672:	60 81       	ld	r22, Z
    4674:	71 81       	ldd	r23, Z+1	; 0x01
    4676:	68 5e       	subi	r22, 0xE8	; 232
    4678:	7f 4f       	sbci	r23, 0xFF	; 255
    467a:	0f 2e       	mov	r0, r31
    467c:	f3 ea       	ldi	r31, 0xA3	; 163
    467e:	ef 2e       	mov	r14, r31
    4680:	f1 e0       	ldi	r31, 0x01	; 1
    4682:	ff 2e       	mov	r15, r31
    4684:	f0 2d       	mov	r31, r0
    4686:	21 e0       	ldi	r18, 0x01	; 1
    4688:	30 e0       	ldi	r19, 0x00	; 0
    468a:	86 e4       	ldi	r24, 0x46	; 70
    468c:	97 e0       	ldi	r25, 0x07	; 7
    468e:	0e 94 f2 38 	call	0x71e4	; 0x71e4 <_ZN4OLED19OLED_Write_To_BuferEiiiiPKh>
    4692:	48 85       	ldd	r20, Y+8	; 0x08
    4694:	59 85       	ldd	r21, Y+9	; 0x09
    4696:	e8 81       	ld	r30, Y
    4698:	f9 81       	ldd	r31, Y+1	; 0x01
    469a:	ee 0f       	add	r30, r30
    469c:	ff 1f       	adc	r31, r31
    469e:	ea 5d       	subi	r30, 0xDA	; 218
    46a0:	f8 4f       	sbci	r31, 0xF8	; 248
    46a2:	60 81       	ld	r22, Z
    46a4:	71 81       	ldd	r23, Z+1	; 0x01
    46a6:	68 5d       	subi	r22, 0xD8	; 216
    46a8:	7f 4f       	sbci	r23, 0xFF	; 255
    46aa:	0f 2e       	mov	r0, r31
    46ac:	fb ed       	ldi	r31, 0xDB	; 219
    46ae:	ef 2e       	mov	r14, r31
    46b0:	f1 e0       	ldi	r31, 0x01	; 1
    46b2:	ff 2e       	mov	r15, r31
    46b4:	f0 2d       	mov	r31, r0
    46b6:	21 e0       	ldi	r18, 0x01	; 1
    46b8:	30 e0       	ldi	r19, 0x00	; 0
    46ba:	86 e4       	ldi	r24, 0x46	; 70
    46bc:	97 e0       	ldi	r25, 0x07	; 7
    46be:	0e 94 f2 38 	call	0x71e4	; 0x71e4 <_ZN4OLED19OLED_Write_To_BuferEiiiiPKh>
    46c2:	48 85       	ldd	r20, Y+8	; 0x08
    46c4:	59 85       	ldd	r21, Y+9	; 0x09
    46c6:	e8 81       	ld	r30, Y
    46c8:	f9 81       	ldd	r31, Y+1	; 0x01
    46ca:	ee 0f       	add	r30, r30
    46cc:	ff 1f       	adc	r31, r31
    46ce:	ea 5d       	subi	r30, 0xDA	; 218
    46d0:	f8 4f       	sbci	r31, 0xF8	; 248
    46d2:	60 81       	ld	r22, Z
    46d4:	71 81       	ldd	r23, Z+1	; 0x01
    46d6:	60 5d       	subi	r22, 0xD0	; 208
    46d8:	7f 4f       	sbci	r23, 0xFF	; 255
    46da:	0f 2e       	mov	r0, r31
    46dc:	f3 eb       	ldi	r31, 0xB3	; 179
    46de:	ef 2e       	mov	r14, r31
    46e0:	f1 e0       	ldi	r31, 0x01	; 1
    46e2:	ff 2e       	mov	r15, r31
    46e4:	f0 2d       	mov	r31, r0
    46e6:	21 e0       	ldi	r18, 0x01	; 1
    46e8:	30 e0       	ldi	r19, 0x00	; 0
    46ea:	86 e4       	ldi	r24, 0x46	; 70
    46ec:	97 e0       	ldi	r25, 0x07	; 7
    46ee:	0e 94 f2 38 	call	0x71e4	; 0x71e4 <_ZN4OLED19OLED_Write_To_BuferEiiiiPKh>
    46f2:	48 85       	ldd	r20, Y+8	; 0x08
    46f4:	59 85       	ldd	r21, Y+9	; 0x09
    46f6:	e8 81       	ld	r30, Y
    46f8:	f9 81       	ldd	r31, Y+1	; 0x01
    46fa:	ee 0f       	add	r30, r30
    46fc:	ff 1f       	adc	r31, r31
    46fe:	ea 5d       	subi	r30, 0xDA	; 218
    4700:	f8 4f       	sbci	r31, 0xF8	; 248
    4702:	60 81       	ld	r22, Z
    4704:	71 81       	ldd	r23, Z+1	; 0x01
    4706:	68 5c       	subi	r22, 0xC8	; 200
    4708:	7f 4f       	sbci	r23, 0xFF	; 255
    470a:	0f 2e       	mov	r0, r31
    470c:	f3 ef       	ldi	r31, 0xF3	; 243
    470e:	ef 2e       	mov	r14, r31
    4710:	f1 e0       	ldi	r31, 0x01	; 1
    4712:	ff 2e       	mov	r15, r31
    4714:	f0 2d       	mov	r31, r0
    4716:	21 e0       	ldi	r18, 0x01	; 1
    4718:	30 e0       	ldi	r19, 0x00	; 0
    471a:	86 e4       	ldi	r24, 0x46	; 70
    471c:	97 e0       	ldi	r25, 0x07	; 7
    471e:	0e 94 f2 38 	call	0x71e4	; 0x71e4 <_ZN4OLED19OLED_Write_To_BuferEiiiiPKh>
    4722:	48 85       	ldd	r20, Y+8	; 0x08
    4724:	59 85       	ldd	r21, Y+9	; 0x09
    4726:	e8 81       	ld	r30, Y
    4728:	f9 81       	ldd	r31, Y+1	; 0x01
    472a:	ee 0f       	add	r30, r30
    472c:	ff 1f       	adc	r31, r31
    472e:	ea 5d       	subi	r30, 0xDA	; 218
    4730:	f8 4f       	sbci	r31, 0xF8	; 248
    4732:	60 81       	ld	r22, Z
    4734:	71 81       	ldd	r23, Z+1	; 0x01
    4736:	60 5c       	subi	r22, 0xC0	; 192
    4738:	7f 4f       	sbci	r23, 0xFF	; 255
    473a:	0f 2e       	mov	r0, r31
    473c:	fb ea       	ldi	r31, 0xAB	; 171
    473e:	ef 2e       	mov	r14, r31
    4740:	f1 e0       	ldi	r31, 0x01	; 1
    4742:	ff 2e       	mov	r15, r31
    4744:	f0 2d       	mov	r31, r0
    4746:	21 e0       	ldi	r18, 0x01	; 1
    4748:	30 e0       	ldi	r19, 0x00	; 0
    474a:	86 e4       	ldi	r24, 0x46	; 70
    474c:	97 e0       	ldi	r25, 0x07	; 7
    474e:	0e 94 f2 38 	call	0x71e4	; 0x71e4 <_ZN4OLED19OLED_Write_To_BuferEiiiiPKh>
    4752:	92 c0       	rjmp	.+292    	; 0x4878 <__stack+0x779>
    4754:	c4 e2       	ldi	r28, 0x24	; 36
    4756:	d7 e0       	ldi	r29, 0x07	; 7
    4758:	48 85       	ldd	r20, Y+8	; 0x08
    475a:	59 85       	ldd	r21, Y+9	; 0x09
    475c:	08 e0       	ldi	r16, 0x08	; 8
    475e:	10 e0       	ldi	r17, 0x00	; 0
    4760:	20 e1       	ldi	r18, 0x10	; 16
    4762:	30 e0       	ldi	r19, 0x00	; 0
    4764:	60 e0       	ldi	r22, 0x00	; 0
    4766:	70 e0       	ldi	r23, 0x00	; 0
    4768:	86 e4       	ldi	r24, 0x46	; 70
    476a:	97 e0       	ldi	r25, 0x07	; 7
    476c:	0e 94 a3 38 	call	0x7146	; 0x7146 <_ZN4OLED21OLED_Clear_Bufer_partEiiii>
    4770:	48 85       	ldd	r20, Y+8	; 0x08
    4772:	59 85       	ldd	r21, Y+9	; 0x09
    4774:	e8 81       	ld	r30, Y
    4776:	f9 81       	ldd	r31, Y+1	; 0x01
    4778:	ee 0f       	add	r30, r30
    477a:	ff 1f       	adc	r31, r31
    477c:	ea 5d       	subi	r30, 0xDA	; 218
    477e:	f8 4f       	sbci	r31, 0xF8	; 248
    4780:	60 81       	ld	r22, Z
    4782:	71 81       	ldd	r23, Z+1	; 0x01
    4784:	0f 2e       	mov	r0, r31
    4786:	f3 e1       	ldi	r31, 0x13	; 19
    4788:	ef 2e       	mov	r14, r31
    478a:	f1 e0       	ldi	r31, 0x01	; 1
    478c:	ff 2e       	mov	r15, r31
    478e:	f0 2d       	mov	r31, r0
    4790:	22 e0       	ldi	r18, 0x02	; 2
    4792:	30 e0       	ldi	r19, 0x00	; 0
    4794:	86 e4       	ldi	r24, 0x46	; 70
    4796:	97 e0       	ldi	r25, 0x07	; 7
    4798:	0e 94 f2 38 	call	0x71e4	; 0x71e4 <_ZN4OLED19OLED_Write_To_BuferEiiiiPKh>
    479c:	6d c0       	rjmp	.+218    	; 0x4878 <__stack+0x779>
    479e:	80 91 42 07 	lds	r24, 0x0742	; 0x800742 <User_Info_Status>
    47a2:	88 23       	and	r24, r24
    47a4:	71 f0       	breq	.+28     	; 0x47c2 <__stack+0x6c3>
    47a6:	10 92 fb 06 	sts	0x06FB, r1	; 0x8006fb <us_inf+0x1>
    47aa:	10 92 fa 06 	sts	0x06FA, r1	; 0x8006fa <us_inf>
    47ae:	10 92 42 07 	sts	0x0742, r1	; 0x800742 <User_Info_Status>
    47b2:	81 e0       	ldi	r24, 0x01	; 1
    47b4:	80 93 43 07 	sts	0x0743, r24	; 0x800743 <Info_Menu_Status>
    47b8:	86 e4       	ldi	r24, 0x46	; 70
    47ba:	97 e0       	ldi	r25, 0x07	; 7
    47bc:	0e 94 0f 38 	call	0x701e	; 0x701e <_ZN4OLED16OLED_Bufer_ClearEv>
    47c0:	5b c0       	rjmp	.+182    	; 0x4878 <__stack+0x779>
    47c2:	80 91 41 07 	lds	r24, 0x0741	; 0x800741 <Device_Info_Status>
    47c6:	88 23       	and	r24, r24
    47c8:	71 f0       	breq	.+28     	; 0x47e6 <__stack+0x6e7>
    47ca:	10 92 f3 06 	sts	0x06F3, r1	; 0x8006f3 <dev_inf+0x3>
    47ce:	10 92 f2 06 	sts	0x06F2, r1	; 0x8006f2 <dev_inf+0x2>
    47d2:	10 92 41 07 	sts	0x0741, r1	; 0x800741 <Device_Info_Status>
    47d6:	81 e0       	ldi	r24, 0x01	; 1
    47d8:	80 93 43 07 	sts	0x0743, r24	; 0x800743 <Info_Menu_Status>
    47dc:	86 e4       	ldi	r24, 0x46	; 70
    47de:	97 e0       	ldi	r25, 0x07	; 7
    47e0:	0e 94 0f 38 	call	0x701e	; 0x701e <_ZN4OLED16OLED_Bufer_ClearEv>
    47e4:	49 c0       	rjmp	.+146    	; 0x4878 <__stack+0x779>
    47e6:	80 91 40 07 	lds	r24, 0x0740	; 0x800740 <User_Add_Status>
    47ea:	88 23       	and	r24, r24
    47ec:	b1 f0       	breq	.+44     	; 0x481a <__stack+0x71b>
    47ee:	80 91 c2 06 	lds	r24, 0x06C2	; 0x8006c2 <adown+0x2>
    47f2:	90 91 c3 06 	lds	r25, 0x06C3	; 0x8006c3 <adown+0x3>
    47f6:	01 96       	adiw	r24, 0x01	; 1
    47f8:	8b 30       	cpi	r24, 0x0B	; 11
    47fa:	91 05       	cpc	r25, r1
    47fc:	2c f4       	brge	.+10     	; 0x4808 <__stack+0x709>
    47fe:	90 93 c3 06 	sts	0x06C3, r25	; 0x8006c3 <adown+0x3>
    4802:	80 93 c2 06 	sts	0x06C2, r24	; 0x8006c2 <adown+0x2>
    4806:	04 c0       	rjmp	.+8      	; 0x4810 <__stack+0x711>
    4808:	10 92 c3 06 	sts	0x06C3, r1	; 0x8006c3 <adown+0x3>
    480c:	10 92 c2 06 	sts	0x06C2, r1	; 0x8006c2 <adown+0x2>
    4810:	80 ec       	ldi	r24, 0xC0	; 192
    4812:	96 e0       	ldi	r25, 0x06	; 6
    4814:	0e 94 fc 0e 	call	0x1df8	; 0x1df8 <_ZN9Add_Owner7actionsEv>
    4818:	2f c0       	rjmp	.+94     	; 0x4878 <__stack+0x779>
    481a:	80 91 3f 07 	lds	r24, 0x073F	; 0x80073f <Reset_Status>
    481e:	88 23       	and	r24, r24
    4820:	41 f0       	breq	.+16     	; 0x4832 <__stack+0x733>
    4822:	81 e0       	ldi	r24, 0x01	; 1
    4824:	80 93 38 07 	sts	0x0738, r24	; 0x800738 <newdevice>
    4828:	10 92 3f 07 	sts	0x073F, r1	; 0x80073f <Reset_Status>
    482c:	0c 94 00 00 	jmp	0	; 0x0 <__vectors>
    4830:	23 c0       	rjmp	.+70     	; 0x4878 <__stack+0x779>
    4832:	80 91 3e 07 	lds	r24, 0x073E	; 0x80073e <Brightness_Status>
    4836:	88 23       	and	r24, r24
    4838:	f9 f0       	breq	.+62     	; 0x4878 <__stack+0x779>
    483a:	80 91 e4 06 	lds	r24, 0x06E4	; 0x8006e4 <brgtns>
    483e:	90 91 e5 06 	lds	r25, 0x06E5	; 0x8006e5 <brgtns+0x1>
    4842:	01 96       	adiw	r24, 0x01	; 1
    4844:	8c 30       	cpi	r24, 0x0C	; 12
    4846:	91 05       	cpc	r25, r1
    4848:	2c f4       	brge	.+10     	; 0x4854 <__stack+0x755>
    484a:	90 93 e5 06 	sts	0x06E5, r25	; 0x8006e5 <brgtns+0x1>
    484e:	80 93 e4 06 	sts	0x06E4, r24	; 0x8006e4 <brgtns>
    4852:	06 c0       	rjmp	.+12     	; 0x4860 <__stack+0x761>
    4854:	8b e0       	ldi	r24, 0x0B	; 11
    4856:	90 e0       	ldi	r25, 0x00	; 0
    4858:	90 93 e5 06 	sts	0x06E5, r25	; 0x8006e5 <brgtns+0x1>
    485c:	80 93 e4 06 	sts	0x06E4, r24	; 0x8006e4 <brgtns>
    4860:	84 ee       	ldi	r24, 0xE4	; 228
    4862:	96 e0       	ldi	r25, 0x06	; 6
    4864:	0e 94 08 0a 	call	0x1410	; 0x1410 <_ZN10Bright_set7actionsEv>
    4868:	80 91 e4 06 	lds	r24, 0x06E4	; 0x8006e4 <brgtns>
    486c:	90 91 e5 06 	lds	r25, 0x06E5	; 0x8006e5 <brgtns+0x1>
    4870:	90 93 02 01 	sts	0x0102, r25	; 0x800102 <brigtnesslvl+0x1>
    4874:	80 93 01 01 	sts	0x0101, r24	; 0x800101 <brigtnesslvl>
    4878:	81 e0       	ldi	r24, 0x01	; 1
    487a:	80 93 39 07 	sts	0x0739, r24	; 0x800739 <dreamreset>
    487e:	80 91 38 07 	lds	r24, 0x0738	; 0x800738 <newdevice>
    4882:	88 23       	and	r24, r24
    4884:	09 f4       	brne	.+2      	; 0x4888 <__stack+0x789>
    4886:	04 c5       	rjmp	.+2568   	; 0x5290 <__stack+0x1191>
    4888:	10 92 38 07 	sts	0x0738, r1	; 0x800738 <newdevice>
    488c:	81 e0       	ldi	r24, 0x01	; 1
    488e:	80 93 00 01 	sts	0x0100, r24	; 0x800100 <Main_Menu_Status>
    4892:	fe c4       	rjmp	.+2556   	; 0x5290 <__stack+0x1191>
    4894:	37 23       	and	r19, r23
    4896:	e3 23       	and	r30, r19
    4898:	fe 17       	cp	r31, r30
    489a:	08 f0       	brcs	.+2      	; 0x489e <__stack+0x79f>
    489c:	48 c0       	rjmp	.+144    	; 0x492e <__stack+0x82f>
    489e:	80 91 45 07 	lds	r24, 0x0745	; 0x800745 <Password_Menu_Status>
    48a2:	81 11       	cpse	r24, r1
    48a4:	2f c0       	rjmp	.+94     	; 0x4904 <__stack+0x805>
    48a6:	80 91 00 01 	lds	r24, 0x0100	; 0x800100 <Main_Menu_Status>
    48aa:	81 11       	cpse	r24, r1
    48ac:	2b c0       	rjmp	.+86     	; 0x4904 <__stack+0x805>
    48ae:	80 91 44 07 	lds	r24, 0x0744	; 0x800744 <Settings_Menu_Status>
    48b2:	81 11       	cpse	r24, r1
    48b4:	27 c0       	rjmp	.+78     	; 0x4904 <__stack+0x805>
    48b6:	80 91 43 07 	lds	r24, 0x0743	; 0x800743 <Info_Menu_Status>
    48ba:	81 11       	cpse	r24, r1
    48bc:	23 c0       	rjmp	.+70     	; 0x4904 <__stack+0x805>
    48be:	80 91 42 07 	lds	r24, 0x0742	; 0x800742 <User_Info_Status>
    48c2:	88 23       	and	r24, r24
    48c4:	71 f0       	breq	.+28     	; 0x48e2 <__stack+0x7e3>
    48c6:	10 92 fb 06 	sts	0x06FB, r1	; 0x8006fb <us_inf+0x1>
    48ca:	10 92 fa 06 	sts	0x06FA, r1	; 0x8006fa <us_inf>
    48ce:	10 92 42 07 	sts	0x0742, r1	; 0x800742 <User_Info_Status>
    48d2:	81 e0       	ldi	r24, 0x01	; 1
    48d4:	80 93 43 07 	sts	0x0743, r24	; 0x800743 <Info_Menu_Status>
    48d8:	86 e4       	ldi	r24, 0x46	; 70
    48da:	97 e0       	ldi	r25, 0x07	; 7
    48dc:	0e 94 0f 38 	call	0x701e	; 0x701e <_ZN4OLED16OLED_Bufer_ClearEv>
    48e0:	11 c0       	rjmp	.+34     	; 0x4904 <__stack+0x805>
    48e2:	80 91 41 07 	lds	r24, 0x0741	; 0x800741 <Device_Info_Status>
    48e6:	88 23       	and	r24, r24
    48e8:	69 f0       	breq	.+26     	; 0x4904 <__stack+0x805>
    48ea:	10 92 f3 06 	sts	0x06F3, r1	; 0x8006f3 <dev_inf+0x3>
    48ee:	10 92 f2 06 	sts	0x06F2, r1	; 0x8006f2 <dev_inf+0x2>
    48f2:	10 92 41 07 	sts	0x0741, r1	; 0x800741 <Device_Info_Status>
    48f6:	81 e0       	ldi	r24, 0x01	; 1
    48f8:	80 93 43 07 	sts	0x0743, r24	; 0x800743 <Info_Menu_Status>
    48fc:	86 e4       	ldi	r24, 0x46	; 70
    48fe:	97 e0       	ldi	r25, 0x07	; 7
    4900:	0e 94 0f 38 	call	0x701e	; 0x701e <_ZN4OLED16OLED_Bufer_ClearEv>
    4904:	80 91 3b 07 	lds	r24, 0x073B	; 0x80073b <locked>
    4908:	81 11       	cpse	r24, r1
    490a:	03 c0       	rjmp	.+6      	; 0x4912 <__stack+0x813>
    490c:	81 e0       	ldi	r24, 0x01	; 1
    490e:	80 93 3c 07 	sts	0x073C, r24	; 0x80073c <locktimer>
    4912:	81 e0       	ldi	r24, 0x01	; 1
    4914:	80 93 39 07 	sts	0x0739, r24	; 0x800739 <dreamreset>
    4918:	80 91 38 07 	lds	r24, 0x0738	; 0x800738 <newdevice>
    491c:	88 23       	and	r24, r24
    491e:	09 f4       	brne	.+2      	; 0x4922 <__stack+0x823>
    4920:	b7 c4       	rjmp	.+2414   	; 0x5290 <__stack+0x1191>
    4922:	10 92 38 07 	sts	0x0738, r1	; 0x800738 <newdevice>
    4926:	81 e0       	ldi	r24, 0x01	; 1
    4928:	80 93 00 01 	sts	0x0100, r24	; 0x800100 <Main_Menu_Status>
    492c:	b1 c4       	rjmp	.+2402   	; 0x5290 <__stack+0x1191>
    492e:	6a 23       	and	r22, r26
    4930:	09 f4       	brne	.+2      	; 0x4934 <__stack+0x835>
    4932:	ae c4       	rjmp	.+2396   	; 0x5290 <__stack+0x1191>
    4934:	ff 23       	and	r31, r31
    4936:	09 f4       	brne	.+2      	; 0x493a <__stack+0x83b>
    4938:	ab c4       	rjmp	.+2390   	; 0x5290 <__stack+0x1191>
    493a:	80 91 45 07 	lds	r24, 0x0745	; 0x800745 <Password_Menu_Status>
    493e:	88 23       	and	r24, r24
    4940:	09 f4       	brne	.+2      	; 0x4944 <__stack+0x845>
    4942:	a8 c3       	rjmp	.+1872   	; 0x5094 <__stack+0xf95>
    4944:	e0 91 0a 07 	lds	r30, 0x070A	; 0x80070a <passw_menu+0x2>
    4948:	f0 91 0b 07 	lds	r31, 0x070B	; 0x80070b <passw_menu+0x3>
    494c:	eb 30       	cpi	r30, 0x0B	; 11
    494e:	f1 05       	cpc	r31, r1
    4950:	08 f0       	brcs	.+2      	; 0x4954 <__stack+0x855>
    4952:	d9 c2       	rjmp	.+1458   	; 0x4f06 <__stack+0xe07>
    4954:	ee 58       	subi	r30, 0x8E	; 142
    4956:	ff 4f       	sbci	r31, 0xFF	; 255
    4958:	0c 94 ba 39 	jmp	0x7374	; 0x7374 <__tablejump2__>
    495c:	e8 e0       	ldi	r30, 0x08	; 8
    495e:	f7 e0       	ldi	r31, 0x07	; 7
    4960:	80 81       	ld	r24, Z
    4962:	91 81       	ldd	r25, Z+1	; 0x01
    4964:	01 96       	adiw	r24, 0x01	; 1
    4966:	91 83       	std	Z+1, r25	; 0x01
    4968:	80 83       	st	Z, r24
    496a:	18 16       	cp	r1, r24
    496c:	19 06       	cpc	r1, r25
    496e:	0c f0       	brlt	.+2      	; 0x4972 <__stack+0x873>
    4970:	ca c2       	rjmp	.+1428   	; 0x4f06 <__stack+0xe07>
    4972:	0f 2e       	mov	r0, r31
    4974:	fc e0       	ldi	r31, 0x0C	; 12
    4976:	cf 2e       	mov	r12, r31
    4978:	f7 e0       	ldi	r31, 0x07	; 7
    497a:	df 2e       	mov	r13, r31
    497c:	f0 2d       	mov	r31, r0
    497e:	e1 2c       	mov	r14, r1
    4980:	f1 2c       	mov	r15, r1
    4982:	ef 01       	movw	r28, r30
    4984:	56 01       	movw	r10, r12
    4986:	4e 85       	ldd	r20, Y+14	; 0x0e
    4988:	5f 85       	ldd	r21, Y+15	; 0x0f
    498a:	4e 5f       	subi	r20, 0xFE	; 254
    498c:	5f 4f       	sbci	r21, 0xFF	; 255
    498e:	f6 01       	movw	r30, r12
    4990:	61 91       	ld	r22, Z+
    4992:	71 91       	ld	r23, Z+
    4994:	6f 01       	movw	r12, r30
    4996:	08 e0       	ldi	r16, 0x08	; 8
    4998:	10 e0       	ldi	r17, 0x00	; 0
    499a:	21 e0       	ldi	r18, 0x01	; 1
    499c:	30 e0       	ldi	r19, 0x00	; 0
    499e:	86 e4       	ldi	r24, 0x46	; 70
    49a0:	97 e0       	ldi	r25, 0x07	; 7
    49a2:	0e 94 a3 38 	call	0x7146	; 0x7146 <_ZN4OLED21OLED_Clear_Bufer_partEiiii>
    49a6:	4e 85       	ldd	r20, Y+14	; 0x0e
    49a8:	5f 85       	ldd	r21, Y+15	; 0x0f
    49aa:	41 50       	subi	r20, 0x01	; 1
    49ac:	51 09       	sbc	r21, r1
    49ae:	f5 01       	movw	r30, r10
    49b0:	60 81       	ld	r22, Z
    49b2:	71 81       	ldd	r23, Z+1	; 0x01
    49b4:	21 e0       	ldi	r18, 0x01	; 1
    49b6:	30 e0       	ldi	r19, 0x00	; 0
    49b8:	86 e4       	ldi	r24, 0x46	; 70
    49ba:	97 e0       	ldi	r25, 0x07	; 7
    49bc:	0e 94 a3 38 	call	0x7146	; 0x7146 <_ZN4OLED21OLED_Clear_Bufer_partEiiii>
    49c0:	88 81       	ld	r24, Y
    49c2:	99 81       	ldd	r25, Y+1	; 0x01
    49c4:	fc 01       	movw	r30, r24
    49c6:	e3 5d       	subi	r30, 0xD3	; 211
    49c8:	f8 4f       	sbci	r31, 0xF8	; 248
    49ca:	2a 81       	ldd	r18, Y+2	; 0x02
    49cc:	20 83       	st	Z, r18
    49ce:	ff ef       	ldi	r31, 0xFF	; 255
    49d0:	ef 1a       	sub	r14, r31
    49d2:	ff 0a       	sbc	r15, r31
    49d4:	e8 16       	cp	r14, r24
    49d6:	f9 06       	cpc	r15, r25
    49d8:	ac f2       	brlt	.-86     	; 0x4984 <__stack+0x885>
    49da:	95 c2       	rjmp	.+1322   	; 0x4f06 <__stack+0xe07>
    49dc:	e8 e0       	ldi	r30, 0x08	; 8
    49de:	f7 e0       	ldi	r31, 0x07	; 7
    49e0:	80 81       	ld	r24, Z
    49e2:	91 81       	ldd	r25, Z+1	; 0x01
    49e4:	01 96       	adiw	r24, 0x01	; 1
    49e6:	91 83       	std	Z+1, r25	; 0x01
    49e8:	80 83       	st	Z, r24
    49ea:	18 16       	cp	r1, r24
    49ec:	19 06       	cpc	r1, r25
    49ee:	0c f0       	brlt	.+2      	; 0x49f2 <__stack+0x8f3>
    49f0:	8a c2       	rjmp	.+1300   	; 0x4f06 <__stack+0xe07>
    49f2:	0f 2e       	mov	r0, r31
    49f4:	fc e0       	ldi	r31, 0x0C	; 12
    49f6:	cf 2e       	mov	r12, r31
    49f8:	f7 e0       	ldi	r31, 0x07	; 7
    49fa:	df 2e       	mov	r13, r31
    49fc:	f0 2d       	mov	r31, r0
    49fe:	e1 2c       	mov	r14, r1
    4a00:	f1 2c       	mov	r15, r1
    4a02:	ef 01       	movw	r28, r30
    4a04:	56 01       	movw	r10, r12
    4a06:	4e 85       	ldd	r20, Y+14	; 0x0e
    4a08:	5f 85       	ldd	r21, Y+15	; 0x0f
    4a0a:	4e 5f       	subi	r20, 0xFE	; 254
    4a0c:	5f 4f       	sbci	r21, 0xFF	; 255
    4a0e:	f6 01       	movw	r30, r12
    4a10:	61 91       	ld	r22, Z+
    4a12:	71 91       	ld	r23, Z+
    4a14:	6f 01       	movw	r12, r30
    4a16:	08 e0       	ldi	r16, 0x08	; 8
    4a18:	10 e0       	ldi	r17, 0x00	; 0
    4a1a:	21 e0       	ldi	r18, 0x01	; 1
    4a1c:	30 e0       	ldi	r19, 0x00	; 0
    4a1e:	86 e4       	ldi	r24, 0x46	; 70
    4a20:	97 e0       	ldi	r25, 0x07	; 7
    4a22:	0e 94 a3 38 	call	0x7146	; 0x7146 <_ZN4OLED21OLED_Clear_Bufer_partEiiii>
    4a26:	4e 85       	ldd	r20, Y+14	; 0x0e
    4a28:	5f 85       	ldd	r21, Y+15	; 0x0f
    4a2a:	41 50       	subi	r20, 0x01	; 1
    4a2c:	51 09       	sbc	r21, r1
    4a2e:	f5 01       	movw	r30, r10
    4a30:	60 81       	ld	r22, Z
    4a32:	71 81       	ldd	r23, Z+1	; 0x01
    4a34:	21 e0       	ldi	r18, 0x01	; 1
    4a36:	30 e0       	ldi	r19, 0x00	; 0
    4a38:	86 e4       	ldi	r24, 0x46	; 70
    4a3a:	97 e0       	ldi	r25, 0x07	; 7
    4a3c:	0e 94 a3 38 	call	0x7146	; 0x7146 <_ZN4OLED21OLED_Clear_Bufer_partEiiii>
    4a40:	88 81       	ld	r24, Y
    4a42:	99 81       	ldd	r25, Y+1	; 0x01
    4a44:	fc 01       	movw	r30, r24
    4a46:	e3 5d       	subi	r30, 0xD3	; 211
    4a48:	f8 4f       	sbci	r31, 0xF8	; 248
    4a4a:	2a 81       	ldd	r18, Y+2	; 0x02
    4a4c:	20 83       	st	Z, r18
    4a4e:	ff ef       	ldi	r31, 0xFF	; 255
    4a50:	ef 1a       	sub	r14, r31
    4a52:	ff 0a       	sbc	r15, r31
    4a54:	e8 16       	cp	r14, r24
    4a56:	f9 06       	cpc	r15, r25
    4a58:	ac f2       	brlt	.-86     	; 0x4a04 <__stack+0x905>
    4a5a:	55 c2       	rjmp	.+1194   	; 0x4f06 <__stack+0xe07>
    4a5c:	e8 e0       	ldi	r30, 0x08	; 8
    4a5e:	f7 e0       	ldi	r31, 0x07	; 7
    4a60:	80 81       	ld	r24, Z
    4a62:	91 81       	ldd	r25, Z+1	; 0x01
    4a64:	01 96       	adiw	r24, 0x01	; 1
    4a66:	91 83       	std	Z+1, r25	; 0x01
    4a68:	80 83       	st	Z, r24
    4a6a:	18 16       	cp	r1, r24
    4a6c:	19 06       	cpc	r1, r25
    4a6e:	0c f0       	brlt	.+2      	; 0x4a72 <__stack+0x973>
    4a70:	4a c2       	rjmp	.+1172   	; 0x4f06 <__stack+0xe07>
    4a72:	0f 2e       	mov	r0, r31
    4a74:	fc e0       	ldi	r31, 0x0C	; 12
    4a76:	cf 2e       	mov	r12, r31
    4a78:	f7 e0       	ldi	r31, 0x07	; 7
    4a7a:	df 2e       	mov	r13, r31
    4a7c:	f0 2d       	mov	r31, r0
    4a7e:	e1 2c       	mov	r14, r1
    4a80:	f1 2c       	mov	r15, r1
    4a82:	ef 01       	movw	r28, r30
    4a84:	56 01       	movw	r10, r12
    4a86:	4e 85       	ldd	r20, Y+14	; 0x0e
    4a88:	5f 85       	ldd	r21, Y+15	; 0x0f
    4a8a:	4e 5f       	subi	r20, 0xFE	; 254
    4a8c:	5f 4f       	sbci	r21, 0xFF	; 255
    4a8e:	f6 01       	movw	r30, r12
    4a90:	61 91       	ld	r22, Z+
    4a92:	71 91       	ld	r23, Z+
    4a94:	6f 01       	movw	r12, r30
    4a96:	08 e0       	ldi	r16, 0x08	; 8
    4a98:	10 e0       	ldi	r17, 0x00	; 0
    4a9a:	21 e0       	ldi	r18, 0x01	; 1
    4a9c:	30 e0       	ldi	r19, 0x00	; 0
    4a9e:	86 e4       	ldi	r24, 0x46	; 70
    4aa0:	97 e0       	ldi	r25, 0x07	; 7
    4aa2:	0e 94 a3 38 	call	0x7146	; 0x7146 <_ZN4OLED21OLED_Clear_Bufer_partEiiii>
    4aa6:	4e 85       	ldd	r20, Y+14	; 0x0e
    4aa8:	5f 85       	ldd	r21, Y+15	; 0x0f
    4aaa:	41 50       	subi	r20, 0x01	; 1
    4aac:	51 09       	sbc	r21, r1
    4aae:	f5 01       	movw	r30, r10
    4ab0:	60 81       	ld	r22, Z
    4ab2:	71 81       	ldd	r23, Z+1	; 0x01
    4ab4:	21 e0       	ldi	r18, 0x01	; 1
    4ab6:	30 e0       	ldi	r19, 0x00	; 0
    4ab8:	86 e4       	ldi	r24, 0x46	; 70
    4aba:	97 e0       	ldi	r25, 0x07	; 7
    4abc:	0e 94 a3 38 	call	0x7146	; 0x7146 <_ZN4OLED21OLED_Clear_Bufer_partEiiii>
    4ac0:	88 81       	ld	r24, Y
    4ac2:	99 81       	ldd	r25, Y+1	; 0x01
    4ac4:	fc 01       	movw	r30, r24
    4ac6:	e3 5d       	subi	r30, 0xD3	; 211
    4ac8:	f8 4f       	sbci	r31, 0xF8	; 248
    4aca:	2a 81       	ldd	r18, Y+2	; 0x02
    4acc:	20 83       	st	Z, r18
    4ace:	ff ef       	ldi	r31, 0xFF	; 255
    4ad0:	ef 1a       	sub	r14, r31
    4ad2:	ff 0a       	sbc	r15, r31
    4ad4:	e8 16       	cp	r14, r24
    4ad6:	f9 06       	cpc	r15, r25
    4ad8:	ac f2       	brlt	.-86     	; 0x4a84 <__stack+0x985>
    4ada:	15 c2       	rjmp	.+1066   	; 0x4f06 <__stack+0xe07>
    4adc:	e8 e0       	ldi	r30, 0x08	; 8
    4ade:	f7 e0       	ldi	r31, 0x07	; 7
    4ae0:	80 81       	ld	r24, Z
    4ae2:	91 81       	ldd	r25, Z+1	; 0x01
    4ae4:	01 96       	adiw	r24, 0x01	; 1
    4ae6:	91 83       	std	Z+1, r25	; 0x01
    4ae8:	80 83       	st	Z, r24
    4aea:	18 16       	cp	r1, r24
    4aec:	19 06       	cpc	r1, r25
    4aee:	0c f0       	brlt	.+2      	; 0x4af2 <__stack+0x9f3>
    4af0:	0a c2       	rjmp	.+1044   	; 0x4f06 <__stack+0xe07>
    4af2:	0f 2e       	mov	r0, r31
    4af4:	fc e0       	ldi	r31, 0x0C	; 12
    4af6:	cf 2e       	mov	r12, r31
    4af8:	f7 e0       	ldi	r31, 0x07	; 7
    4afa:	df 2e       	mov	r13, r31
    4afc:	f0 2d       	mov	r31, r0
    4afe:	e1 2c       	mov	r14, r1
    4b00:	f1 2c       	mov	r15, r1
    4b02:	ef 01       	movw	r28, r30
    4b04:	56 01       	movw	r10, r12
    4b06:	4e 85       	ldd	r20, Y+14	; 0x0e
    4b08:	5f 85       	ldd	r21, Y+15	; 0x0f
    4b0a:	4e 5f       	subi	r20, 0xFE	; 254
    4b0c:	5f 4f       	sbci	r21, 0xFF	; 255
    4b0e:	f6 01       	movw	r30, r12
    4b10:	61 91       	ld	r22, Z+
    4b12:	71 91       	ld	r23, Z+
    4b14:	6f 01       	movw	r12, r30
    4b16:	08 e0       	ldi	r16, 0x08	; 8
    4b18:	10 e0       	ldi	r17, 0x00	; 0
    4b1a:	21 e0       	ldi	r18, 0x01	; 1
    4b1c:	30 e0       	ldi	r19, 0x00	; 0
    4b1e:	86 e4       	ldi	r24, 0x46	; 70
    4b20:	97 e0       	ldi	r25, 0x07	; 7
    4b22:	0e 94 a3 38 	call	0x7146	; 0x7146 <_ZN4OLED21OLED_Clear_Bufer_partEiiii>
    4b26:	4e 85       	ldd	r20, Y+14	; 0x0e
    4b28:	5f 85       	ldd	r21, Y+15	; 0x0f
    4b2a:	41 50       	subi	r20, 0x01	; 1
    4b2c:	51 09       	sbc	r21, r1
    4b2e:	f5 01       	movw	r30, r10
    4b30:	60 81       	ld	r22, Z
    4b32:	71 81       	ldd	r23, Z+1	; 0x01
    4b34:	21 e0       	ldi	r18, 0x01	; 1
    4b36:	30 e0       	ldi	r19, 0x00	; 0
    4b38:	86 e4       	ldi	r24, 0x46	; 70
    4b3a:	97 e0       	ldi	r25, 0x07	; 7
    4b3c:	0e 94 a3 38 	call	0x7146	; 0x7146 <_ZN4OLED21OLED_Clear_Bufer_partEiiii>
    4b40:	88 81       	ld	r24, Y
    4b42:	99 81       	ldd	r25, Y+1	; 0x01
    4b44:	fc 01       	movw	r30, r24
    4b46:	e3 5d       	subi	r30, 0xD3	; 211
    4b48:	f8 4f       	sbci	r31, 0xF8	; 248
    4b4a:	2a 81       	ldd	r18, Y+2	; 0x02
    4b4c:	20 83       	st	Z, r18
    4b4e:	ff ef       	ldi	r31, 0xFF	; 255
    4b50:	ef 1a       	sub	r14, r31
    4b52:	ff 0a       	sbc	r15, r31
    4b54:	e8 16       	cp	r14, r24
    4b56:	f9 06       	cpc	r15, r25
    4b58:	ac f2       	brlt	.-86     	; 0x4b04 <__stack+0xa05>
    4b5a:	d5 c1       	rjmp	.+938    	; 0x4f06 <__stack+0xe07>
    4b5c:	e8 e0       	ldi	r30, 0x08	; 8
    4b5e:	f7 e0       	ldi	r31, 0x07	; 7
    4b60:	80 81       	ld	r24, Z
    4b62:	91 81       	ldd	r25, Z+1	; 0x01
    4b64:	01 96       	adiw	r24, 0x01	; 1
    4b66:	91 83       	std	Z+1, r25	; 0x01
    4b68:	80 83       	st	Z, r24
    4b6a:	18 16       	cp	r1, r24
    4b6c:	19 06       	cpc	r1, r25
    4b6e:	0c f0       	brlt	.+2      	; 0x4b72 <__stack+0xa73>
    4b70:	ca c1       	rjmp	.+916    	; 0x4f06 <__stack+0xe07>
    4b72:	0f 2e       	mov	r0, r31
    4b74:	fc e0       	ldi	r31, 0x0C	; 12
    4b76:	cf 2e       	mov	r12, r31
    4b78:	f7 e0       	ldi	r31, 0x07	; 7
    4b7a:	df 2e       	mov	r13, r31
    4b7c:	f0 2d       	mov	r31, r0
    4b7e:	e1 2c       	mov	r14, r1
    4b80:	f1 2c       	mov	r15, r1
    4b82:	ef 01       	movw	r28, r30
    4b84:	56 01       	movw	r10, r12
    4b86:	4e 85       	ldd	r20, Y+14	; 0x0e
    4b88:	5f 85       	ldd	r21, Y+15	; 0x0f
    4b8a:	4e 5f       	subi	r20, 0xFE	; 254
    4b8c:	5f 4f       	sbci	r21, 0xFF	; 255
    4b8e:	f6 01       	movw	r30, r12
    4b90:	61 91       	ld	r22, Z+
    4b92:	71 91       	ld	r23, Z+
    4b94:	6f 01       	movw	r12, r30
    4b96:	08 e0       	ldi	r16, 0x08	; 8
    4b98:	10 e0       	ldi	r17, 0x00	; 0
    4b9a:	21 e0       	ldi	r18, 0x01	; 1
    4b9c:	30 e0       	ldi	r19, 0x00	; 0
    4b9e:	86 e4       	ldi	r24, 0x46	; 70
    4ba0:	97 e0       	ldi	r25, 0x07	; 7
    4ba2:	0e 94 a3 38 	call	0x7146	; 0x7146 <_ZN4OLED21OLED_Clear_Bufer_partEiiii>
    4ba6:	4e 85       	ldd	r20, Y+14	; 0x0e
    4ba8:	5f 85       	ldd	r21, Y+15	; 0x0f
    4baa:	41 50       	subi	r20, 0x01	; 1
    4bac:	51 09       	sbc	r21, r1
    4bae:	f5 01       	movw	r30, r10
    4bb0:	60 81       	ld	r22, Z
    4bb2:	71 81       	ldd	r23, Z+1	; 0x01
    4bb4:	21 e0       	ldi	r18, 0x01	; 1
    4bb6:	30 e0       	ldi	r19, 0x00	; 0
    4bb8:	86 e4       	ldi	r24, 0x46	; 70
    4bba:	97 e0       	ldi	r25, 0x07	; 7
    4bbc:	0e 94 a3 38 	call	0x7146	; 0x7146 <_ZN4OLED21OLED_Clear_Bufer_partEiiii>
    4bc0:	88 81       	ld	r24, Y
    4bc2:	99 81       	ldd	r25, Y+1	; 0x01
    4bc4:	fc 01       	movw	r30, r24
    4bc6:	e3 5d       	subi	r30, 0xD3	; 211
    4bc8:	f8 4f       	sbci	r31, 0xF8	; 248
    4bca:	2a 81       	ldd	r18, Y+2	; 0x02
    4bcc:	20 83       	st	Z, r18
    4bce:	ff ef       	ldi	r31, 0xFF	; 255
    4bd0:	ef 1a       	sub	r14, r31
    4bd2:	ff 0a       	sbc	r15, r31
    4bd4:	e8 16       	cp	r14, r24
    4bd6:	f9 06       	cpc	r15, r25
    4bd8:	ac f2       	brlt	.-86     	; 0x4b84 <__stack+0xa85>
    4bda:	95 c1       	rjmp	.+810    	; 0x4f06 <__stack+0xe07>
    4bdc:	e8 e0       	ldi	r30, 0x08	; 8
    4bde:	f7 e0       	ldi	r31, 0x07	; 7
    4be0:	80 81       	ld	r24, Z
    4be2:	91 81       	ldd	r25, Z+1	; 0x01
    4be4:	01 96       	adiw	r24, 0x01	; 1
    4be6:	91 83       	std	Z+1, r25	; 0x01
    4be8:	80 83       	st	Z, r24
    4bea:	18 16       	cp	r1, r24
    4bec:	19 06       	cpc	r1, r25
    4bee:	0c f0       	brlt	.+2      	; 0x4bf2 <__stack+0xaf3>
    4bf0:	8a c1       	rjmp	.+788    	; 0x4f06 <__stack+0xe07>
    4bf2:	0f 2e       	mov	r0, r31
    4bf4:	fc e0       	ldi	r31, 0x0C	; 12
    4bf6:	cf 2e       	mov	r12, r31
    4bf8:	f7 e0       	ldi	r31, 0x07	; 7
    4bfa:	df 2e       	mov	r13, r31
    4bfc:	f0 2d       	mov	r31, r0
    4bfe:	e1 2c       	mov	r14, r1
    4c00:	f1 2c       	mov	r15, r1
    4c02:	ef 01       	movw	r28, r30
    4c04:	56 01       	movw	r10, r12
    4c06:	4e 85       	ldd	r20, Y+14	; 0x0e
    4c08:	5f 85       	ldd	r21, Y+15	; 0x0f
    4c0a:	4e 5f       	subi	r20, 0xFE	; 254
    4c0c:	5f 4f       	sbci	r21, 0xFF	; 255
    4c0e:	f6 01       	movw	r30, r12
    4c10:	61 91       	ld	r22, Z+
    4c12:	71 91       	ld	r23, Z+
    4c14:	6f 01       	movw	r12, r30
    4c16:	08 e0       	ldi	r16, 0x08	; 8
    4c18:	10 e0       	ldi	r17, 0x00	; 0
    4c1a:	21 e0       	ldi	r18, 0x01	; 1
    4c1c:	30 e0       	ldi	r19, 0x00	; 0
    4c1e:	86 e4       	ldi	r24, 0x46	; 70
    4c20:	97 e0       	ldi	r25, 0x07	; 7
    4c22:	0e 94 a3 38 	call	0x7146	; 0x7146 <_ZN4OLED21OLED_Clear_Bufer_partEiiii>
    4c26:	4e 85       	ldd	r20, Y+14	; 0x0e
    4c28:	5f 85       	ldd	r21, Y+15	; 0x0f
    4c2a:	41 50       	subi	r20, 0x01	; 1
    4c2c:	51 09       	sbc	r21, r1
    4c2e:	f5 01       	movw	r30, r10
    4c30:	60 81       	ld	r22, Z
    4c32:	71 81       	ldd	r23, Z+1	; 0x01
    4c34:	21 e0       	ldi	r18, 0x01	; 1
    4c36:	30 e0       	ldi	r19, 0x00	; 0
    4c38:	86 e4       	ldi	r24, 0x46	; 70
    4c3a:	97 e0       	ldi	r25, 0x07	; 7
    4c3c:	0e 94 a3 38 	call	0x7146	; 0x7146 <_ZN4OLED21OLED_Clear_Bufer_partEiiii>
    4c40:	88 81       	ld	r24, Y
    4c42:	99 81       	ldd	r25, Y+1	; 0x01
    4c44:	fc 01       	movw	r30, r24
    4c46:	e3 5d       	subi	r30, 0xD3	; 211
    4c48:	f8 4f       	sbci	r31, 0xF8	; 248
    4c4a:	2a 81       	ldd	r18, Y+2	; 0x02
    4c4c:	20 83       	st	Z, r18
    4c4e:	ff ef       	ldi	r31, 0xFF	; 255
    4c50:	ef 1a       	sub	r14, r31
    4c52:	ff 0a       	sbc	r15, r31
    4c54:	e8 16       	cp	r14, r24
    4c56:	f9 06       	cpc	r15, r25
    4c58:	ac f2       	brlt	.-86     	; 0x4c04 <__stack+0xb05>
    4c5a:	55 c1       	rjmp	.+682    	; 0x4f06 <__stack+0xe07>
    4c5c:	e8 e0       	ldi	r30, 0x08	; 8
    4c5e:	f7 e0       	ldi	r31, 0x07	; 7
    4c60:	80 81       	ld	r24, Z
    4c62:	91 81       	ldd	r25, Z+1	; 0x01
    4c64:	01 96       	adiw	r24, 0x01	; 1
    4c66:	91 83       	std	Z+1, r25	; 0x01
    4c68:	80 83       	st	Z, r24
    4c6a:	18 16       	cp	r1, r24
    4c6c:	19 06       	cpc	r1, r25
    4c6e:	0c f0       	brlt	.+2      	; 0x4c72 <__stack+0xb73>
    4c70:	4a c1       	rjmp	.+660    	; 0x4f06 <__stack+0xe07>
    4c72:	0f 2e       	mov	r0, r31
    4c74:	fc e0       	ldi	r31, 0x0C	; 12
    4c76:	cf 2e       	mov	r12, r31
    4c78:	f7 e0       	ldi	r31, 0x07	; 7
    4c7a:	df 2e       	mov	r13, r31
    4c7c:	f0 2d       	mov	r31, r0
    4c7e:	e1 2c       	mov	r14, r1
    4c80:	f1 2c       	mov	r15, r1
    4c82:	ef 01       	movw	r28, r30
    4c84:	56 01       	movw	r10, r12
    4c86:	4e 85       	ldd	r20, Y+14	; 0x0e
    4c88:	5f 85       	ldd	r21, Y+15	; 0x0f
    4c8a:	4e 5f       	subi	r20, 0xFE	; 254
    4c8c:	5f 4f       	sbci	r21, 0xFF	; 255
    4c8e:	f6 01       	movw	r30, r12
    4c90:	61 91       	ld	r22, Z+
    4c92:	71 91       	ld	r23, Z+
    4c94:	6f 01       	movw	r12, r30
    4c96:	08 e0       	ldi	r16, 0x08	; 8
    4c98:	10 e0       	ldi	r17, 0x00	; 0
    4c9a:	21 e0       	ldi	r18, 0x01	; 1
    4c9c:	30 e0       	ldi	r19, 0x00	; 0
    4c9e:	86 e4       	ldi	r24, 0x46	; 70
    4ca0:	97 e0       	ldi	r25, 0x07	; 7
    4ca2:	0e 94 a3 38 	call	0x7146	; 0x7146 <_ZN4OLED21OLED_Clear_Bufer_partEiiii>
    4ca6:	4e 85       	ldd	r20, Y+14	; 0x0e
    4ca8:	5f 85       	ldd	r21, Y+15	; 0x0f
    4caa:	41 50       	subi	r20, 0x01	; 1
    4cac:	51 09       	sbc	r21, r1
    4cae:	f5 01       	movw	r30, r10
    4cb0:	60 81       	ld	r22, Z
    4cb2:	71 81       	ldd	r23, Z+1	; 0x01
    4cb4:	21 e0       	ldi	r18, 0x01	; 1
    4cb6:	30 e0       	ldi	r19, 0x00	; 0
    4cb8:	86 e4       	ldi	r24, 0x46	; 70
    4cba:	97 e0       	ldi	r25, 0x07	; 7
    4cbc:	0e 94 a3 38 	call	0x7146	; 0x7146 <_ZN4OLED21OLED_Clear_Bufer_partEiiii>
    4cc0:	88 81       	ld	r24, Y
    4cc2:	99 81       	ldd	r25, Y+1	; 0x01
    4cc4:	fc 01       	movw	r30, r24
    4cc6:	e3 5d       	subi	r30, 0xD3	; 211
    4cc8:	f8 4f       	sbci	r31, 0xF8	; 248
    4cca:	2a 81       	ldd	r18, Y+2	; 0x02
    4ccc:	20 83       	st	Z, r18
    4cce:	ff ef       	ldi	r31, 0xFF	; 255
    4cd0:	ef 1a       	sub	r14, r31
    4cd2:	ff 0a       	sbc	r15, r31
    4cd4:	e8 16       	cp	r14, r24
    4cd6:	f9 06       	cpc	r15, r25
    4cd8:	ac f2       	brlt	.-86     	; 0x4c84 <__stack+0xb85>
    4cda:	15 c1       	rjmp	.+554    	; 0x4f06 <__stack+0xe07>
    4cdc:	e8 e0       	ldi	r30, 0x08	; 8
    4cde:	f7 e0       	ldi	r31, 0x07	; 7
    4ce0:	80 81       	ld	r24, Z
    4ce2:	91 81       	ldd	r25, Z+1	; 0x01
    4ce4:	01 96       	adiw	r24, 0x01	; 1
    4ce6:	91 83       	std	Z+1, r25	; 0x01
    4ce8:	80 83       	st	Z, r24
    4cea:	18 16       	cp	r1, r24
    4cec:	19 06       	cpc	r1, r25
    4cee:	0c f0       	brlt	.+2      	; 0x4cf2 <__stack+0xbf3>
    4cf0:	0a c1       	rjmp	.+532    	; 0x4f06 <__stack+0xe07>
    4cf2:	0f 2e       	mov	r0, r31
    4cf4:	fc e0       	ldi	r31, 0x0C	; 12
    4cf6:	cf 2e       	mov	r12, r31
    4cf8:	f7 e0       	ldi	r31, 0x07	; 7
    4cfa:	df 2e       	mov	r13, r31
    4cfc:	f0 2d       	mov	r31, r0
    4cfe:	e1 2c       	mov	r14, r1
    4d00:	f1 2c       	mov	r15, r1
    4d02:	ef 01       	movw	r28, r30
    4d04:	56 01       	movw	r10, r12
    4d06:	4e 85       	ldd	r20, Y+14	; 0x0e
    4d08:	5f 85       	ldd	r21, Y+15	; 0x0f
    4d0a:	4e 5f       	subi	r20, 0xFE	; 254
    4d0c:	5f 4f       	sbci	r21, 0xFF	; 255
    4d0e:	f6 01       	movw	r30, r12
    4d10:	61 91       	ld	r22, Z+
    4d12:	71 91       	ld	r23, Z+
    4d14:	6f 01       	movw	r12, r30
    4d16:	08 e0       	ldi	r16, 0x08	; 8
    4d18:	10 e0       	ldi	r17, 0x00	; 0
    4d1a:	21 e0       	ldi	r18, 0x01	; 1
    4d1c:	30 e0       	ldi	r19, 0x00	; 0
    4d1e:	86 e4       	ldi	r24, 0x46	; 70
    4d20:	97 e0       	ldi	r25, 0x07	; 7
    4d22:	0e 94 a3 38 	call	0x7146	; 0x7146 <_ZN4OLED21OLED_Clear_Bufer_partEiiii>
    4d26:	4e 85       	ldd	r20, Y+14	; 0x0e
    4d28:	5f 85       	ldd	r21, Y+15	; 0x0f
    4d2a:	41 50       	subi	r20, 0x01	; 1
    4d2c:	51 09       	sbc	r21, r1
    4d2e:	f5 01       	movw	r30, r10
    4d30:	60 81       	ld	r22, Z
    4d32:	71 81       	ldd	r23, Z+1	; 0x01
    4d34:	21 e0       	ldi	r18, 0x01	; 1
    4d36:	30 e0       	ldi	r19, 0x00	; 0
    4d38:	86 e4       	ldi	r24, 0x46	; 70
    4d3a:	97 e0       	ldi	r25, 0x07	; 7
    4d3c:	0e 94 a3 38 	call	0x7146	; 0x7146 <_ZN4OLED21OLED_Clear_Bufer_partEiiii>
    4d40:	88 81       	ld	r24, Y
    4d42:	99 81       	ldd	r25, Y+1	; 0x01
    4d44:	fc 01       	movw	r30, r24
    4d46:	e3 5d       	subi	r30, 0xD3	; 211
    4d48:	f8 4f       	sbci	r31, 0xF8	; 248
    4d4a:	2a 81       	ldd	r18, Y+2	; 0x02
    4d4c:	20 83       	st	Z, r18
    4d4e:	ff ef       	ldi	r31, 0xFF	; 255
    4d50:	ef 1a       	sub	r14, r31
    4d52:	ff 0a       	sbc	r15, r31
    4d54:	e8 16       	cp	r14, r24
    4d56:	f9 06       	cpc	r15, r25
    4d58:	ac f2       	brlt	.-86     	; 0x4d04 <__stack+0xc05>
    4d5a:	d5 c0       	rjmp	.+426    	; 0x4f06 <__stack+0xe07>
    4d5c:	e8 e0       	ldi	r30, 0x08	; 8
    4d5e:	f7 e0       	ldi	r31, 0x07	; 7
    4d60:	80 81       	ld	r24, Z
    4d62:	91 81       	ldd	r25, Z+1	; 0x01
    4d64:	01 96       	adiw	r24, 0x01	; 1
    4d66:	91 83       	std	Z+1, r25	; 0x01
    4d68:	80 83       	st	Z, r24
    4d6a:	18 16       	cp	r1, r24
    4d6c:	19 06       	cpc	r1, r25
    4d6e:	0c f0       	brlt	.+2      	; 0x4d72 <__stack+0xc73>
    4d70:	ca c0       	rjmp	.+404    	; 0x4f06 <__stack+0xe07>
    4d72:	0f 2e       	mov	r0, r31
    4d74:	fc e0       	ldi	r31, 0x0C	; 12
    4d76:	cf 2e       	mov	r12, r31
    4d78:	f7 e0       	ldi	r31, 0x07	; 7
    4d7a:	df 2e       	mov	r13, r31
    4d7c:	f0 2d       	mov	r31, r0
    4d7e:	e1 2c       	mov	r14, r1
    4d80:	f1 2c       	mov	r15, r1
    4d82:	ef 01       	movw	r28, r30
    4d84:	56 01       	movw	r10, r12
    4d86:	4e 85       	ldd	r20, Y+14	; 0x0e
    4d88:	5f 85       	ldd	r21, Y+15	; 0x0f
    4d8a:	4e 5f       	subi	r20, 0xFE	; 254
    4d8c:	5f 4f       	sbci	r21, 0xFF	; 255
    4d8e:	f6 01       	movw	r30, r12
    4d90:	61 91       	ld	r22, Z+
    4d92:	71 91       	ld	r23, Z+
    4d94:	6f 01       	movw	r12, r30
    4d96:	08 e0       	ldi	r16, 0x08	; 8
    4d98:	10 e0       	ldi	r17, 0x00	; 0
    4d9a:	21 e0       	ldi	r18, 0x01	; 1
    4d9c:	30 e0       	ldi	r19, 0x00	; 0
    4d9e:	86 e4       	ldi	r24, 0x46	; 70
    4da0:	97 e0       	ldi	r25, 0x07	; 7
    4da2:	0e 94 a3 38 	call	0x7146	; 0x7146 <_ZN4OLED21OLED_Clear_Bufer_partEiiii>
    4da6:	4e 85       	ldd	r20, Y+14	; 0x0e
    4da8:	5f 85       	ldd	r21, Y+15	; 0x0f
    4daa:	41 50       	subi	r20, 0x01	; 1
    4dac:	51 09       	sbc	r21, r1
    4dae:	f5 01       	movw	r30, r10
    4db0:	60 81       	ld	r22, Z
    4db2:	71 81       	ldd	r23, Z+1	; 0x01
    4db4:	21 e0       	ldi	r18, 0x01	; 1
    4db6:	30 e0       	ldi	r19, 0x00	; 0
    4db8:	86 e4       	ldi	r24, 0x46	; 70
    4dba:	97 e0       	ldi	r25, 0x07	; 7
    4dbc:	0e 94 a3 38 	call	0x7146	; 0x7146 <_ZN4OLED21OLED_Clear_Bufer_partEiiii>
    4dc0:	88 81       	ld	r24, Y
    4dc2:	99 81       	ldd	r25, Y+1	; 0x01
    4dc4:	fc 01       	movw	r30, r24
    4dc6:	e3 5d       	subi	r30, 0xD3	; 211
    4dc8:	f8 4f       	sbci	r31, 0xF8	; 248
    4dca:	2a 81       	ldd	r18, Y+2	; 0x02
    4dcc:	20 83       	st	Z, r18
    4dce:	ff ef       	ldi	r31, 0xFF	; 255
    4dd0:	ef 1a       	sub	r14, r31
    4dd2:	ff 0a       	sbc	r15, r31
    4dd4:	e8 16       	cp	r14, r24
    4dd6:	f9 06       	cpc	r15, r25
    4dd8:	ac f2       	brlt	.-86     	; 0x4d84 <__stack+0xc85>
    4dda:	95 c0       	rjmp	.+298    	; 0x4f06 <__stack+0xe07>
    4ddc:	e8 e0       	ldi	r30, 0x08	; 8
    4dde:	f7 e0       	ldi	r31, 0x07	; 7
    4de0:	80 81       	ld	r24, Z
    4de2:	91 81       	ldd	r25, Z+1	; 0x01
    4de4:	01 96       	adiw	r24, 0x01	; 1
    4de6:	91 83       	std	Z+1, r25	; 0x01
    4de8:	80 83       	st	Z, r24
    4dea:	18 16       	cp	r1, r24
    4dec:	19 06       	cpc	r1, r25
    4dee:	0c f0       	brlt	.+2      	; 0x4df2 <__stack+0xcf3>
    4df0:	8a c0       	rjmp	.+276    	; 0x4f06 <__stack+0xe07>
    4df2:	0f 2e       	mov	r0, r31
    4df4:	fc e0       	ldi	r31, 0x0C	; 12
    4df6:	cf 2e       	mov	r12, r31
    4df8:	f7 e0       	ldi	r31, 0x07	; 7
    4dfa:	df 2e       	mov	r13, r31
    4dfc:	f0 2d       	mov	r31, r0
    4dfe:	e1 2c       	mov	r14, r1
    4e00:	f1 2c       	mov	r15, r1
    4e02:	ef 01       	movw	r28, r30
    4e04:	56 01       	movw	r10, r12
    4e06:	4e 85       	ldd	r20, Y+14	; 0x0e
    4e08:	5f 85       	ldd	r21, Y+15	; 0x0f
    4e0a:	4e 5f       	subi	r20, 0xFE	; 254
    4e0c:	5f 4f       	sbci	r21, 0xFF	; 255
    4e0e:	f6 01       	movw	r30, r12
    4e10:	61 91       	ld	r22, Z+
    4e12:	71 91       	ld	r23, Z+
    4e14:	6f 01       	movw	r12, r30
    4e16:	08 e0       	ldi	r16, 0x08	; 8
    4e18:	10 e0       	ldi	r17, 0x00	; 0
    4e1a:	21 e0       	ldi	r18, 0x01	; 1
    4e1c:	30 e0       	ldi	r19, 0x00	; 0
    4e1e:	86 e4       	ldi	r24, 0x46	; 70
    4e20:	97 e0       	ldi	r25, 0x07	; 7
    4e22:	0e 94 a3 38 	call	0x7146	; 0x7146 <_ZN4OLED21OLED_Clear_Bufer_partEiiii>
    4e26:	4e 85       	ldd	r20, Y+14	; 0x0e
    4e28:	5f 85       	ldd	r21, Y+15	; 0x0f
    4e2a:	41 50       	subi	r20, 0x01	; 1
    4e2c:	51 09       	sbc	r21, r1
    4e2e:	f5 01       	movw	r30, r10
    4e30:	60 81       	ld	r22, Z
    4e32:	71 81       	ldd	r23, Z+1	; 0x01
    4e34:	21 e0       	ldi	r18, 0x01	; 1
    4e36:	30 e0       	ldi	r19, 0x00	; 0
    4e38:	86 e4       	ldi	r24, 0x46	; 70
    4e3a:	97 e0       	ldi	r25, 0x07	; 7
    4e3c:	0e 94 a3 38 	call	0x7146	; 0x7146 <_ZN4OLED21OLED_Clear_Bufer_partEiiii>
    4e40:	88 81       	ld	r24, Y
    4e42:	99 81       	ldd	r25, Y+1	; 0x01
    4e44:	fc 01       	movw	r30, r24
    4e46:	e3 5d       	subi	r30, 0xD3	; 211
    4e48:	f8 4f       	sbci	r31, 0xF8	; 248
    4e4a:	2a 81       	ldd	r18, Y+2	; 0x02
    4e4c:	20 83       	st	Z, r18
    4e4e:	ff ef       	ldi	r31, 0xFF	; 255
    4e50:	ef 1a       	sub	r14, r31
    4e52:	ff 0a       	sbc	r15, r31
    4e54:	e8 16       	cp	r14, r24
    4e56:	f9 06       	cpc	r15, r25
    4e58:	ac f2       	brlt	.-86     	; 0x4e04 <__stack+0xd05>
    4e5a:	55 c0       	rjmp	.+170    	; 0x4f06 <__stack+0xe07>
    4e5c:	c8 e0       	ldi	r28, 0x08	; 8
    4e5e:	d7 e0       	ldi	r29, 0x07	; 7
    4e60:	4e 85       	ldd	r20, Y+14	; 0x0e
    4e62:	5f 85       	ldd	r21, Y+15	; 0x0f
    4e64:	e8 81       	ld	r30, Y
    4e66:	f9 81       	ldd	r31, Y+1	; 0x01
    4e68:	ee 0f       	add	r30, r30
    4e6a:	ff 1f       	adc	r31, r31
    4e6c:	e4 5f       	subi	r30, 0xF4	; 244
    4e6e:	f8 4f       	sbci	r31, 0xF8	; 248
    4e70:	60 81       	ld	r22, Z
    4e72:	71 81       	ldd	r23, Z+1	; 0x01
    4e74:	08 e0       	ldi	r16, 0x08	; 8
    4e76:	10 e0       	ldi	r17, 0x00	; 0
    4e78:	21 e0       	ldi	r18, 0x01	; 1
    4e7a:	30 e0       	ldi	r19, 0x00	; 0
    4e7c:	86 e4       	ldi	r24, 0x46	; 70
    4e7e:	97 e0       	ldi	r25, 0x07	; 7
    4e80:	0e 94 a3 38 	call	0x7146	; 0x7146 <_ZN4OLED21OLED_Clear_Bufer_partEiiii>
    4e84:	4e 85       	ldd	r20, Y+14	; 0x0e
    4e86:	5f 85       	ldd	r21, Y+15	; 0x0f
    4e88:	4e 5f       	subi	r20, 0xFE	; 254
    4e8a:	5f 4f       	sbci	r21, 0xFF	; 255
    4e8c:	e8 81       	ld	r30, Y
    4e8e:	f9 81       	ldd	r31, Y+1	; 0x01
    4e90:	ee 0f       	add	r30, r30
    4e92:	ff 1f       	adc	r31, r31
    4e94:	e4 5f       	subi	r30, 0xF4	; 244
    4e96:	f8 4f       	sbci	r31, 0xF8	; 248
    4e98:	60 81       	ld	r22, Z
    4e9a:	71 81       	ldd	r23, Z+1	; 0x01
    4e9c:	21 e0       	ldi	r18, 0x01	; 1
    4e9e:	30 e0       	ldi	r19, 0x00	; 0
    4ea0:	86 e4       	ldi	r24, 0x46	; 70
    4ea2:	97 e0       	ldi	r25, 0x07	; 7
    4ea4:	0e 94 a3 38 	call	0x7146	; 0x7146 <_ZN4OLED21OLED_Clear_Bufer_partEiiii>
    4ea8:	4e 85       	ldd	r20, Y+14	; 0x0e
    4eaa:	5f 85       	ldd	r21, Y+15	; 0x0f
    4eac:	41 50       	subi	r20, 0x01	; 1
    4eae:	51 09       	sbc	r21, r1
    4eb0:	e8 81       	ld	r30, Y
    4eb2:	f9 81       	ldd	r31, Y+1	; 0x01
    4eb4:	ee 0f       	add	r30, r30
    4eb6:	ff 1f       	adc	r31, r31
    4eb8:	e4 5f       	subi	r30, 0xF4	; 244
    4eba:	f8 4f       	sbci	r31, 0xF8	; 248
    4ebc:	60 81       	ld	r22, Z
    4ebe:	71 81       	ldd	r23, Z+1	; 0x01
    4ec0:	21 e0       	ldi	r18, 0x01	; 1
    4ec2:	30 e0       	ldi	r19, 0x00	; 0
    4ec4:	86 e4       	ldi	r24, 0x46	; 70
    4ec6:	97 e0       	ldi	r25, 0x07	; 7
    4ec8:	0e 94 a3 38 	call	0x7146	; 0x7146 <_ZN4OLED21OLED_Clear_Bufer_partEiiii>
    4ecc:	88 81       	ld	r24, Y
    4ece:	99 81       	ldd	r25, Y+1	; 0x01
    4ed0:	01 97       	sbiw	r24, 0x01	; 1
    4ed2:	99 83       	std	Y+1, r25	; 0x01
    4ed4:	88 83       	st	Y, r24
    4ed6:	99 23       	and	r25, r25
    4ed8:	94 f4       	brge	.+36     	; 0x4efe <__stack+0xdff>
    4eda:	10 92 45 07 	sts	0x0745, r1	; 0x800745 <Password_Menu_Status>
    4ede:	81 e0       	ldi	r24, 0x01	; 1
    4ee0:	80 93 00 01 	sts	0x0100, r24	; 0x800100 <Main_Menu_Status>
    4ee4:	19 82       	std	Y+1, r1	; 0x01
    4ee6:	18 82       	st	Y, r1
    4ee8:	1b 82       	std	Y+3, r1	; 0x03
    4eea:	1a 82       	std	Y+2, r1	; 0x02
    4eec:	86 e4       	ldi	r24, 0x46	; 70
    4eee:	97 e0       	ldi	r25, 0x07	; 7
    4ef0:	0e 94 0f 38 	call	0x701e	; 0x701e <_ZN4OLED16OLED_Bufer_ClearEv>
    4ef4:	19 82       	std	Y+1, r1	; 0x01
    4ef6:	18 82       	st	Y, r1
    4ef8:	80 e0       	ldi	r24, 0x00	; 0
    4efa:	90 e0       	ldi	r25, 0x00	; 0
    4efc:	68 c0       	rjmp	.+208    	; 0x4fce <__stack+0xecf>
    4efe:	88 e0       	ldi	r24, 0x08	; 8
    4f00:	97 e0       	ldi	r25, 0x07	; 7
    4f02:	0e 94 ac 02 	call	0x558	; 0x558 <_ZN13Password_Menu7actionsEv>
    4f06:	80 91 08 07 	lds	r24, 0x0708	; 0x800708 <passw_menu>
    4f0a:	90 91 09 07 	lds	r25, 0x0709	; 0x800709 <passw_menu+0x1>
    4f0e:	85 30       	cpi	r24, 0x05	; 5
    4f10:	91 05       	cpc	r25, r1
    4f12:	0c f4       	brge	.+2      	; 0x4f16 <__stack+0xe17>
    4f14:	5c c0       	rjmp	.+184    	; 0x4fce <__stack+0xecf>
    4f16:	80 91 3b 07 	lds	r24, 0x073B	; 0x80073b <locked>
    4f1a:	81 11       	cpse	r24, r1
    4f1c:	1e c0       	rjmp	.+60     	; 0x4f5a <__stack+0xe5b>
    4f1e:	a3 e3       	ldi	r26, 0x33	; 51
    4f20:	b7 e0       	ldi	r27, 0x07	; 7
    4f22:	ee e2       	ldi	r30, 0x2E	; 46
    4f24:	f7 e0       	ldi	r31, 0x07	; 7
    4f26:	80 81       	ld	r24, Z
    4f28:	8c 93       	st	X, r24
    4f2a:	81 81       	ldd	r24, Z+1	; 0x01
    4f2c:	11 96       	adiw	r26, 0x01	; 1
    4f2e:	8c 93       	st	X, r24
    4f30:	11 97       	sbiw	r26, 0x01	; 1
    4f32:	82 81       	ldd	r24, Z+2	; 0x02
    4f34:	12 96       	adiw	r26, 0x02	; 2
    4f36:	8c 93       	st	X, r24
    4f38:	12 97       	sbiw	r26, 0x02	; 2
    4f3a:	83 81       	ldd	r24, Z+3	; 0x03
    4f3c:	13 96       	adiw	r26, 0x03	; 3
    4f3e:	8c 93       	st	X, r24
    4f40:	13 97       	sbiw	r26, 0x03	; 3
    4f42:	84 81       	ldd	r24, Z+4	; 0x04
    4f44:	14 96       	adiw	r26, 0x04	; 4
    4f46:	8c 93       	st	X, r24
    4f48:	10 82       	st	Z, r1
    4f4a:	11 82       	std	Z+1, r1	; 0x01
    4f4c:	12 82       	std	Z+2, r1	; 0x02
    4f4e:	13 82       	std	Z+3, r1	; 0x03
    4f50:	14 82       	std	Z+4, r1	; 0x04
    4f52:	81 e0       	ldi	r24, 0x01	; 1
    4f54:	80 93 3b 07 	sts	0x073B, r24	; 0x80073b <locked>
    4f58:	2a c0       	rjmp	.+84     	; 0x4fae <__stack+0xeaf>
    4f5a:	91 e0       	ldi	r25, 0x01	; 1
    4f5c:	20 91 33 07 	lds	r18, 0x0733	; 0x800733 <password>
    4f60:	80 91 2e 07 	lds	r24, 0x072E	; 0x80072e <passwin>
    4f64:	28 13       	cpse	r18, r24
    4f66:	90 e0       	ldi	r25, 0x00	; 0
    4f68:	81 e0       	ldi	r24, 0x01	; 1
    4f6a:	30 91 34 07 	lds	r19, 0x0734	; 0x800734 <password+0x1>
    4f6e:	20 91 2f 07 	lds	r18, 0x072F	; 0x80072f <passwin+0x1>
    4f72:	32 13       	cpse	r19, r18
    4f74:	80 e0       	ldi	r24, 0x00	; 0
    4f76:	98 23       	and	r25, r24
    4f78:	81 e0       	ldi	r24, 0x01	; 1
    4f7a:	30 91 35 07 	lds	r19, 0x0735	; 0x800735 <password+0x2>
    4f7e:	20 91 30 07 	lds	r18, 0x0730	; 0x800730 <passwin+0x2>
    4f82:	32 13       	cpse	r19, r18
    4f84:	80 e0       	ldi	r24, 0x00	; 0
    4f86:	98 23       	and	r25, r24
    4f88:	81 e0       	ldi	r24, 0x01	; 1
    4f8a:	30 91 36 07 	lds	r19, 0x0736	; 0x800736 <password+0x3>
    4f8e:	20 91 31 07 	lds	r18, 0x0731	; 0x800731 <passwin+0x3>
    4f92:	32 13       	cpse	r19, r18
    4f94:	80 e0       	ldi	r24, 0x00	; 0
    4f96:	89 23       	and	r24, r25
    4f98:	51 f0       	breq	.+20     	; 0x4fae <__stack+0xeaf>
    4f9a:	81 e0       	ldi	r24, 0x01	; 1
    4f9c:	20 91 37 07 	lds	r18, 0x0737	; 0x800737 <password+0x4>
    4fa0:	90 91 32 07 	lds	r25, 0x0732	; 0x800732 <passwin+0x4>
    4fa4:	29 13       	cpse	r18, r25
    4fa6:	80 e0       	ldi	r24, 0x00	; 0
    4fa8:	81 11       	cpse	r24, r1
    4faa:	10 92 3b 07 	sts	0x073B, r1	; 0x80073b <locked>
    4fae:	81 e0       	ldi	r24, 0x01	; 1
    4fb0:	80 93 00 01 	sts	0x0100, r24	; 0x800100 <Main_Menu_Status>
    4fb4:	10 92 45 07 	sts	0x0745, r1	; 0x800745 <Password_Menu_Status>
    4fb8:	e8 e0       	ldi	r30, 0x08	; 8
    4fba:	f7 e0       	ldi	r31, 0x07	; 7
    4fbc:	11 82       	std	Z+1, r1	; 0x01
    4fbe:	10 82       	st	Z, r1
    4fc0:	13 82       	std	Z+3, r1	; 0x03
    4fc2:	12 82       	std	Z+2, r1	; 0x02
    4fc4:	86 e4       	ldi	r24, 0x46	; 70
    4fc6:	97 e0       	ldi	r25, 0x07	; 7
    4fc8:	0e 94 0f 38 	call	0x701e	; 0x701e <_ZN4OLED16OLED_Bufer_ClearEv>
    4fcc:	55 c1       	rjmp	.+682    	; 0x5278 <__stack+0x1179>
    4fce:	10 92 0b 07 	sts	0x070B, r1	; 0x80070b <passw_menu+0x3>
    4fd2:	10 92 0a 07 	sts	0x070A, r1	; 0x80070a <passw_menu+0x2>
    4fd6:	20 91 45 07 	lds	r18, 0x0745	; 0x800745 <Password_Menu_Status>
    4fda:	22 23       	and	r18, r18
    4fdc:	09 f4       	brne	.+2      	; 0x4fe0 <__stack+0xee1>
    4fde:	4c c1       	rjmp	.+664    	; 0x5278 <__stack+0x1179>
    4fe0:	c8 e0       	ldi	r28, 0x08	; 8
    4fe2:	d7 e0       	ldi	r29, 0x07	; 7
    4fe4:	4e 85       	ldd	r20, Y+14	; 0x0e
    4fe6:	5f 85       	ldd	r21, Y+15	; 0x0f
    4fe8:	88 0f       	add	r24, r24
    4fea:	99 1f       	adc	r25, r25
    4fec:	fc 01       	movw	r30, r24
    4fee:	e4 5f       	subi	r30, 0xF4	; 244
    4ff0:	f8 4f       	sbci	r31, 0xF8	; 248
    4ff2:	60 81       	ld	r22, Z
    4ff4:	71 81       	ldd	r23, Z+1	; 0x01
    4ff6:	08 e0       	ldi	r16, 0x08	; 8
    4ff8:	10 e0       	ldi	r17, 0x00	; 0
    4ffa:	21 e0       	ldi	r18, 0x01	; 1
    4ffc:	30 e0       	ldi	r19, 0x00	; 0
    4ffe:	86 e4       	ldi	r24, 0x46	; 70
    5000:	97 e0       	ldi	r25, 0x07	; 7
    5002:	0e 94 a3 38 	call	0x7146	; 0x7146 <_ZN4OLED21OLED_Clear_Bufer_partEiiii>
    5006:	4e 85       	ldd	r20, Y+14	; 0x0e
    5008:	5f 85       	ldd	r21, Y+15	; 0x0f
    500a:	e8 81       	ld	r30, Y
    500c:	f9 81       	ldd	r31, Y+1	; 0x01
    500e:	ee 0f       	add	r30, r30
    5010:	ff 1f       	adc	r31, r31
    5012:	e4 5f       	subi	r30, 0xF4	; 244
    5014:	f8 4f       	sbci	r31, 0xF8	; 248
    5016:	60 81       	ld	r22, Z
    5018:	71 81       	ldd	r23, Z+1	; 0x01
    501a:	0f 2e       	mov	r0, r31
    501c:	fb e9       	ldi	r31, 0x9B	; 155
    501e:	ef 2e       	mov	r14, r31
    5020:	f5 e0       	ldi	r31, 0x05	; 5
    5022:	ff 2e       	mov	r15, r31
    5024:	f0 2d       	mov	r31, r0
    5026:	21 e0       	ldi	r18, 0x01	; 1
    5028:	30 e0       	ldi	r19, 0x00	; 0
    502a:	86 e4       	ldi	r24, 0x46	; 70
    502c:	97 e0       	ldi	r25, 0x07	; 7
    502e:	0e 94 f2 38 	call	0x71e4	; 0x71e4 <_ZN4OLED19OLED_Write_To_BuferEiiiiPKh>
    5032:	4e 85       	ldd	r20, Y+14	; 0x0e
    5034:	5f 85       	ldd	r21, Y+15	; 0x0f
    5036:	4e 5f       	subi	r20, 0xFE	; 254
    5038:	5f 4f       	sbci	r21, 0xFF	; 255
    503a:	e8 81       	ld	r30, Y
    503c:	f9 81       	ldd	r31, Y+1	; 0x01
    503e:	ee 0f       	add	r30, r30
    5040:	ff 1f       	adc	r31, r31
    5042:	e4 5f       	subi	r30, 0xF4	; 244
    5044:	f8 4f       	sbci	r31, 0xF8	; 248
    5046:	60 81       	ld	r22, Z
    5048:	71 81       	ldd	r23, Z+1	; 0x01
    504a:	0f 2e       	mov	r0, r31
    504c:	f3 e3       	ldi	r31, 0x33	; 51
    504e:	ef 2e       	mov	r14, r31
    5050:	f5 e0       	ldi	r31, 0x05	; 5
    5052:	ff 2e       	mov	r15, r31
    5054:	f0 2d       	mov	r31, r0
    5056:	21 e0       	ldi	r18, 0x01	; 1
    5058:	30 e0       	ldi	r19, 0x00	; 0
    505a:	86 e4       	ldi	r24, 0x46	; 70
    505c:	97 e0       	ldi	r25, 0x07	; 7
    505e:	0e 94 f2 38 	call	0x71e4	; 0x71e4 <_ZN4OLED19OLED_Write_To_BuferEiiiiPKh>
    5062:	4e 85       	ldd	r20, Y+14	; 0x0e
    5064:	5f 85       	ldd	r21, Y+15	; 0x0f
    5066:	41 50       	subi	r20, 0x01	; 1
    5068:	51 09       	sbc	r21, r1
    506a:	e8 81       	ld	r30, Y
    506c:	f9 81       	ldd	r31, Y+1	; 0x01
    506e:	ee 0f       	add	r30, r30
    5070:	ff 1f       	adc	r31, r31
    5072:	e4 5f       	subi	r30, 0xF4	; 244
    5074:	f8 4f       	sbci	r31, 0xF8	; 248
    5076:	60 81       	ld	r22, Z
    5078:	71 81       	ldd	r23, Z+1	; 0x01
    507a:	0f 2e       	mov	r0, r31
    507c:	fb e3       	ldi	r31, 0x3B	; 59
    507e:	ef 2e       	mov	r14, r31
    5080:	f5 e0       	ldi	r31, 0x05	; 5
    5082:	ff 2e       	mov	r15, r31
    5084:	f0 2d       	mov	r31, r0
    5086:	21 e0       	ldi	r18, 0x01	; 1
    5088:	30 e0       	ldi	r19, 0x00	; 0
    508a:	86 e4       	ldi	r24, 0x46	; 70
    508c:	97 e0       	ldi	r25, 0x07	; 7
    508e:	0e 94 f2 38 	call	0x71e4	; 0x71e4 <_ZN4OLED19OLED_Write_To_BuferEiiiiPKh>
    5092:	f2 c0       	rjmp	.+484    	; 0x5278 <__stack+0x1179>
    5094:	80 91 00 01 	lds	r24, 0x0100	; 0x800100 <Main_Menu_Status>
    5098:	88 23       	and	r24, r24
    509a:	59 f1       	breq	.+86     	; 0x50f2 <__stack+0xff3>
    509c:	80 91 06 07 	lds	r24, 0x0706	; 0x800706 <menu>
    50a0:	90 91 07 07 	lds	r25, 0x0707	; 0x800707 <menu+0x1>
    50a4:	81 30       	cpi	r24, 0x01	; 1
    50a6:	91 05       	cpc	r25, r1
    50a8:	81 f0       	breq	.+32     	; 0x50ca <__stack+0xfcb>
    50aa:	82 30       	cpi	r24, 0x02	; 2
    50ac:	91 05       	cpc	r25, r1
    50ae:	b9 f0       	breq	.+46     	; 0x50de <__stack+0xfdf>
    50b0:	89 2b       	or	r24, r25
    50b2:	09 f0       	breq	.+2      	; 0x50b6 <__stack+0xfb7>
    50b4:	e1 c0       	rjmp	.+450    	; 0x5278 <__stack+0x1179>
    50b6:	10 92 00 01 	sts	0x0100, r1	; 0x800100 <Main_Menu_Status>
    50ba:	81 e0       	ldi	r24, 0x01	; 1
    50bc:	80 93 45 07 	sts	0x0745, r24	; 0x800745 <Password_Menu_Status>
    50c0:	86 e4       	ldi	r24, 0x46	; 70
    50c2:	97 e0       	ldi	r25, 0x07	; 7
    50c4:	0e 94 0f 38 	call	0x701e	; 0x701e <_ZN4OLED16OLED_Bufer_ClearEv>
    50c8:	d7 c0       	rjmp	.+430    	; 0x5278 <__stack+0x1179>
    50ca:	10 92 00 01 	sts	0x0100, r1	; 0x800100 <Main_Menu_Status>
    50ce:	81 e0       	ldi	r24, 0x01	; 1
    50d0:	80 93 44 07 	sts	0x0744, r24	; 0x800744 <Settings_Menu_Status>
    50d4:	86 e4       	ldi	r24, 0x46	; 70
    50d6:	97 e0       	ldi	r25, 0x07	; 7
    50d8:	0e 94 0f 38 	call	0x701e	; 0x701e <_ZN4OLED16OLED_Bufer_ClearEv>
    50dc:	cd c0       	rjmp	.+410    	; 0x5278 <__stack+0x1179>
    50de:	10 92 00 01 	sts	0x0100, r1	; 0x800100 <Main_Menu_Status>
    50e2:	81 e0       	ldi	r24, 0x01	; 1
    50e4:	80 93 43 07 	sts	0x0743, r24	; 0x800743 <Info_Menu_Status>
    50e8:	86 e4       	ldi	r24, 0x46	; 70
    50ea:	97 e0       	ldi	r25, 0x07	; 7
    50ec:	0e 94 0f 38 	call	0x701e	; 0x701e <_ZN4OLED16OLED_Bufer_ClearEv>
    50f0:	c3 c0       	rjmp	.+390    	; 0x5278 <__stack+0x1179>
    50f2:	80 91 44 07 	lds	r24, 0x0744	; 0x800744 <Settings_Menu_Status>
    50f6:	88 23       	and	r24, r24
    50f8:	09 f4       	brne	.+2      	; 0x50fc <__stack+0xffd>
    50fa:	3f c0       	rjmp	.+126    	; 0x517a <__stack+0x107b>
    50fc:	80 91 18 07 	lds	r24, 0x0718	; 0x800718 <sett_menu>
    5100:	90 91 19 07 	lds	r25, 0x0719	; 0x800719 <sett_menu+0x1>
    5104:	81 30       	cpi	r24, 0x01	; 1
    5106:	91 05       	cpc	r25, r1
    5108:	a1 f0       	breq	.+40     	; 0x5132 <__stack+0x1033>
    510a:	1c f4       	brge	.+6      	; 0x5112 <__stack+0x1013>
    510c:	89 2b       	or	r24, r25
    510e:	39 f0       	breq	.+14     	; 0x511e <__stack+0x101f>
    5110:	b3 c0       	rjmp	.+358    	; 0x5278 <__stack+0x1179>
    5112:	82 30       	cpi	r24, 0x02	; 2
    5114:	91 05       	cpc	r25, r1
    5116:	b9 f0       	breq	.+46     	; 0x5146 <__stack+0x1047>
    5118:	03 97       	sbiw	r24, 0x03	; 3
    511a:	f9 f0       	breq	.+62     	; 0x515a <__stack+0x105b>
    511c:	ad c0       	rjmp	.+346    	; 0x5278 <__stack+0x1179>
    511e:	10 92 44 07 	sts	0x0744, r1	; 0x800744 <Settings_Menu_Status>
    5122:	81 e0       	ldi	r24, 0x01	; 1
    5124:	80 93 3e 07 	sts	0x073E, r24	; 0x80073e <Brightness_Status>
    5128:	86 e4       	ldi	r24, 0x46	; 70
    512a:	97 e0       	ldi	r25, 0x07	; 7
    512c:	0e 94 0f 38 	call	0x701e	; 0x701e <_ZN4OLED16OLED_Bufer_ClearEv>
    5130:	a3 c0       	rjmp	.+326    	; 0x5278 <__stack+0x1179>
    5132:	10 92 44 07 	sts	0x0744, r1	; 0x800744 <Settings_Menu_Status>
    5136:	81 e0       	ldi	r24, 0x01	; 1
    5138:	80 93 3f 07 	sts	0x073F, r24	; 0x80073f <Reset_Status>
    513c:	86 e4       	ldi	r24, 0x46	; 70
    513e:	97 e0       	ldi	r25, 0x07	; 7
    5140:	0e 94 0f 38 	call	0x701e	; 0x701e <_ZN4OLED16OLED_Bufer_ClearEv>
    5144:	99 c0       	rjmp	.+306    	; 0x5278 <__stack+0x1179>
    5146:	10 92 44 07 	sts	0x0744, r1	; 0x800744 <Settings_Menu_Status>
    514a:	81 e0       	ldi	r24, 0x01	; 1
    514c:	80 93 40 07 	sts	0x0740, r24	; 0x800740 <User_Add_Status>
    5150:	86 e4       	ldi	r24, 0x46	; 70
    5152:	97 e0       	ldi	r25, 0x07	; 7
    5154:	0e 94 0f 38 	call	0x701e	; 0x701e <_ZN4OLED16OLED_Bufer_ClearEv>
    5158:	8f c0       	rjmp	.+286    	; 0x5278 <__stack+0x1179>
    515a:	c8 e1       	ldi	r28, 0x18	; 24
    515c:	d7 e0       	ldi	r29, 0x07	; 7
    515e:	19 82       	std	Y+1, r1	; 0x01
    5160:	18 82       	st	Y, r1
    5162:	10 92 44 07 	sts	0x0744, r1	; 0x800744 <Settings_Menu_Status>
    5166:	81 e0       	ldi	r24, 0x01	; 1
    5168:	80 93 00 01 	sts	0x0100, r24	; 0x800100 <Main_Menu_Status>
    516c:	86 e4       	ldi	r24, 0x46	; 70
    516e:	97 e0       	ldi	r25, 0x07	; 7
    5170:	0e 94 0f 38 	call	0x701e	; 0x701e <_ZN4OLED16OLED_Bufer_ClearEv>
    5174:	19 82       	std	Y+1, r1	; 0x01
    5176:	18 82       	st	Y, r1
    5178:	7f c0       	rjmp	.+254    	; 0x5278 <__stack+0x1179>
    517a:	80 91 43 07 	lds	r24, 0x0743	; 0x800743 <Info_Menu_Status>
    517e:	88 23       	and	r24, r24
    5180:	89 f1       	breq	.+98     	; 0x51e4 <__stack+0x10e5>
    5182:	80 91 24 07 	lds	r24, 0x0724	; 0x800724 <inf_menu>
    5186:	90 91 25 07 	lds	r25, 0x0725	; 0x800725 <inf_menu+0x1>
    518a:	81 30       	cpi	r24, 0x01	; 1
    518c:	91 05       	cpc	r25, r1
    518e:	81 f0       	breq	.+32     	; 0x51b0 <__stack+0x10b1>
    5190:	82 30       	cpi	r24, 0x02	; 2
    5192:	91 05       	cpc	r25, r1
    5194:	b9 f0       	breq	.+46     	; 0x51c4 <__stack+0x10c5>
    5196:	89 2b       	or	r24, r25
    5198:	09 f0       	breq	.+2      	; 0x519c <__stack+0x109d>
    519a:	6e c0       	rjmp	.+220    	; 0x5278 <__stack+0x1179>
    519c:	10 92 43 07 	sts	0x0743, r1	; 0x800743 <Info_Menu_Status>
    51a0:	81 e0       	ldi	r24, 0x01	; 1
    51a2:	80 93 41 07 	sts	0x0741, r24	; 0x800741 <Device_Info_Status>
    51a6:	86 e4       	ldi	r24, 0x46	; 70
    51a8:	97 e0       	ldi	r25, 0x07	; 7
    51aa:	0e 94 0f 38 	call	0x701e	; 0x701e <_ZN4OLED16OLED_Bufer_ClearEv>
    51ae:	64 c0       	rjmp	.+200    	; 0x5278 <__stack+0x1179>
    51b0:	10 92 43 07 	sts	0x0743, r1	; 0x800743 <Info_Menu_Status>
    51b4:	81 e0       	ldi	r24, 0x01	; 1
    51b6:	80 93 42 07 	sts	0x0742, r24	; 0x800742 <User_Info_Status>
    51ba:	86 e4       	ldi	r24, 0x46	; 70
    51bc:	97 e0       	ldi	r25, 0x07	; 7
    51be:	0e 94 0f 38 	call	0x701e	; 0x701e <_ZN4OLED16OLED_Bufer_ClearEv>
    51c2:	5a c0       	rjmp	.+180    	; 0x5278 <__stack+0x1179>
    51c4:	c4 e2       	ldi	r28, 0x24	; 36
    51c6:	d7 e0       	ldi	r29, 0x07	; 7
    51c8:	19 82       	std	Y+1, r1	; 0x01
    51ca:	18 82       	st	Y, r1
    51cc:	10 92 43 07 	sts	0x0743, r1	; 0x800743 <Info_Menu_Status>
    51d0:	81 e0       	ldi	r24, 0x01	; 1
    51d2:	80 93 00 01 	sts	0x0100, r24	; 0x800100 <Main_Menu_Status>
    51d6:	86 e4       	ldi	r24, 0x46	; 70
    51d8:	97 e0       	ldi	r25, 0x07	; 7
    51da:	0e 94 0f 38 	call	0x701e	; 0x701e <_ZN4OLED16OLED_Bufer_ClearEv>
    51de:	19 82       	std	Y+1, r1	; 0x01
    51e0:	18 82       	st	Y, r1
    51e2:	4a c0       	rjmp	.+148    	; 0x5278 <__stack+0x1179>
    51e4:	80 91 42 07 	lds	r24, 0x0742	; 0x800742 <User_Info_Status>
    51e8:	88 23       	and	r24, r24
    51ea:	71 f0       	breq	.+28     	; 0x5208 <__stack+0x1109>
    51ec:	10 92 fb 06 	sts	0x06FB, r1	; 0x8006fb <us_inf+0x1>
    51f0:	10 92 fa 06 	sts	0x06FA, r1	; 0x8006fa <us_inf>
    51f4:	10 92 42 07 	sts	0x0742, r1	; 0x800742 <User_Info_Status>
    51f8:	81 e0       	ldi	r24, 0x01	; 1
    51fa:	80 93 43 07 	sts	0x0743, r24	; 0x800743 <Info_Menu_Status>
    51fe:	86 e4       	ldi	r24, 0x46	; 70
    5200:	97 e0       	ldi	r25, 0x07	; 7
    5202:	0e 94 0f 38 	call	0x701e	; 0x701e <_ZN4OLED16OLED_Bufer_ClearEv>
    5206:	38 c0       	rjmp	.+112    	; 0x5278 <__stack+0x1179>
    5208:	80 91 41 07 	lds	r24, 0x0741	; 0x800741 <Device_Info_Status>
    520c:	88 23       	and	r24, r24
    520e:	71 f0       	breq	.+28     	; 0x522c <__stack+0x112d>
    5210:	10 92 f3 06 	sts	0x06F3, r1	; 0x8006f3 <dev_inf+0x3>
    5214:	10 92 f2 06 	sts	0x06F2, r1	; 0x8006f2 <dev_inf+0x2>
    5218:	10 92 41 07 	sts	0x0741, r1	; 0x800741 <Device_Info_Status>
    521c:	81 e0       	ldi	r24, 0x01	; 1
    521e:	80 93 43 07 	sts	0x0743, r24	; 0x800743 <Info_Menu_Status>
    5222:	86 e4       	ldi	r24, 0x46	; 70
    5224:	97 e0       	ldi	r25, 0x07	; 7
    5226:	0e 94 0f 38 	call	0x701e	; 0x701e <_ZN4OLED16OLED_Bufer_ClearEv>
    522a:	26 c0       	rjmp	.+76     	; 0x5278 <__stack+0x1179>
    522c:	80 91 40 07 	lds	r24, 0x0740	; 0x800740 <User_Add_Status>
    5230:	88 23       	and	r24, r24
    5232:	29 f0       	breq	.+10     	; 0x523e <__stack+0x113f>
    5234:	80 ec       	ldi	r24, 0xC0	; 192
    5236:	96 e0       	ldi	r25, 0x06	; 6
    5238:	0e 94 17 13 	call	0x262e	; 0x262e <_ZN9Add_Owner6choiseEv>
    523c:	1d c0       	rjmp	.+58     	; 0x5278 <__stack+0x1179>
    523e:	80 91 3f 07 	lds	r24, 0x073F	; 0x80073f <Reset_Status>
    5242:	81 11       	cpse	r24, r1
    5244:	19 c0       	rjmp	.+50     	; 0x5278 <__stack+0x1179>
    5246:	80 91 3e 07 	lds	r24, 0x073E	; 0x80073e <Brightness_Status>
    524a:	88 23       	and	r24, r24
    524c:	a9 f0       	breq	.+42     	; 0x5278 <__stack+0x1179>
    524e:	e4 ee       	ldi	r30, 0xE4	; 228
    5250:	f6 e0       	ldi	r31, 0x06	; 6
    5252:	80 81       	ld	r24, Z
    5254:	91 81       	ldd	r25, Z+1	; 0x01
    5256:	90 93 02 01 	sts	0x0102, r25	; 0x800102 <brigtnesslvl+0x1>
    525a:	80 93 01 01 	sts	0x0101, r24	; 0x800101 <brigtnesslvl>
    525e:	0c 94 00 00 	jmp	0	; 0x0 <__vectors>
    5262:	11 82       	std	Z+1, r1	; 0x01
    5264:	10 82       	st	Z, r1
    5266:	81 e0       	ldi	r24, 0x01	; 1
    5268:	80 93 44 07 	sts	0x0744, r24	; 0x800744 <Settings_Menu_Status>
    526c:	10 92 3e 07 	sts	0x073E, r1	; 0x80073e <Brightness_Status>
    5270:	86 e4       	ldi	r24, 0x46	; 70
    5272:	97 e0       	ldi	r25, 0x07	; 7
    5274:	0e 94 0f 38 	call	0x701e	; 0x701e <_ZN4OLED16OLED_Bufer_ClearEv>
    5278:	81 e0       	ldi	r24, 0x01	; 1
    527a:	80 93 39 07 	sts	0x0739, r24	; 0x800739 <dreamreset>
    527e:	80 91 38 07 	lds	r24, 0x0738	; 0x800738 <newdevice>
    5282:	88 23       	and	r24, r24
    5284:	29 f0       	breq	.+10     	; 0x5290 <__stack+0x1191>
    5286:	10 92 38 07 	sts	0x0738, r1	; 0x800738 <newdevice>
    528a:	81 e0       	ldi	r24, 0x01	; 1
    528c:	80 93 00 01 	sts	0x0100, r24	; 0x800100 <Main_Menu_Status>
    5290:	10 92 bf 06 	sts	0x06BF, r1	; 0x8006bf <btn0>
    5294:	10 92 be 06 	sts	0x06BE, r1	; 0x8006be <btn1>
    5298:	10 92 bd 06 	sts	0x06BD, r1	; 0x8006bd <btn2>
    529c:	10 92 bc 06 	sts	0x06BC, r1	; 0x8006bc <btn3>
    52a0:	10 92 bb 06 	sts	0x06BB, r1	; 0x8006bb <btn03>
    52a4:	10 92 ba 06 	sts	0x06BA, r1	; 0x8006ba <btn12>
    52a8:	78 94       	sei
    52aa:	5d c0       	rjmp	.+186    	; 0x5366 <__stack+0x1267>
    52ac:	e0 91 ba 06 	lds	r30, 0x06BA	; 0x8006ba <btn12>
    52b0:	61 e0       	ldi	r22, 0x01	; 1
    52b2:	6e 27       	eor	r22, r30
    52b4:	0c 94 7b 1d 	jmp	0x3af6	; 0x3af6 <_Z5checkv+0xe3c>
    52b8:	90 93 19 07 	sts	0x0719, r25	; 0x800719 <sett_menu+0x1>
    52bc:	80 93 18 07 	sts	0x0718, r24	; 0x800718 <sett_menu>
    52c0:	81 30       	cpi	r24, 0x01	; 1
    52c2:	91 05       	cpc	r25, r1
    52c4:	11 f4       	brne	.+4      	; 0x52ca <__stack+0x11cb>
    52c6:	0c 94 a8 18 	jmp	0x3150	; 0x3150 <_Z5checkv+0x496>
    52ca:	34 f4       	brge	.+12     	; 0x52d8 <__stack+0x11d9>
    52cc:	89 2b       	or	r24, r25
    52ce:	11 f4       	brne	.+4      	; 0x52d4 <__stack+0x11d5>
    52d0:	0c 94 69 17 	jmp	0x2ed2	; 0x2ed2 <_Z5checkv+0x218>
    52d4:	0c 94 1b 1d 	jmp	0x3a36	; 0x3a36 <_Z5checkv+0xd7c>
    52d8:	82 30       	cpi	r24, 0x02	; 2
    52da:	91 05       	cpc	r25, r1
    52dc:	11 f4       	brne	.+4      	; 0x52e2 <__stack+0x11e3>
    52de:	0c 94 bd 19 	jmp	0x337a	; 0x337a <_Z5checkv+0x6c0>
    52e2:	03 97       	sbiw	r24, 0x03	; 3
    52e4:	11 f0       	breq	.+4      	; 0x52ea <__stack+0x11eb>
    52e6:	0c 94 1b 1d 	jmp	0x3a36	; 0x3a36 <_Z5checkv+0xd7c>
    52ea:	0c 94 84 1a 	jmp	0x3508	; 0x3508 <_Z5checkv+0x84e>
    52ee:	90 93 25 07 	sts	0x0725, r25	; 0x800725 <inf_menu+0x1>
    52f2:	80 93 24 07 	sts	0x0724, r24	; 0x800724 <inf_menu>
    52f6:	81 30       	cpi	r24, 0x01	; 1
    52f8:	91 05       	cpc	r25, r1
    52fa:	11 f4       	brne	.+4      	; 0x5300 <__stack+0x1201>
    52fc:	0c 94 ba 1b 	jmp	0x3774	; 0x3774 <_Z5checkv+0xaba>
    5300:	82 30       	cpi	r24, 0x02	; 2
    5302:	91 05       	cpc	r25, r1
    5304:	11 f4       	brne	.+4      	; 0x530a <__stack+0x120b>
    5306:	0c 94 87 1c 	jmp	0x390e	; 0x390e <_Z5checkv+0xc54>
    530a:	89 2b       	or	r24, r25
    530c:	11 f4       	brne	.+4      	; 0x5312 <__stack+0x1213>
    530e:	0c 94 bd 1a 	jmp	0x357a	; 0x357a <_Z5checkv+0x8c0>
    5312:	0c 94 1b 1d 	jmp	0x3a36	; 0x3a36 <_Z5checkv+0xd7c>
    5316:	90 93 19 07 	sts	0x0719, r25	; 0x800719 <sett_menu+0x1>
    531a:	80 93 18 07 	sts	0x0718, r24	; 0x800718 <sett_menu>
    531e:	81 30       	cpi	r24, 0x01	; 1
    5320:	91 05       	cpc	r25, r1
    5322:	11 f4       	brne	.+4      	; 0x5328 <__stack+0x1229>
    5324:	0c 94 cd 1f 	jmp	0x3f9a	; 0x3f9a <_Z5checkv+0x12e0>
    5328:	2c f4       	brge	.+10     	; 0x5334 <__stack+0x1235>
    532a:	89 2b       	or	r24, r25
    532c:	09 f0       	breq	.+2      	; 0x5330 <__stack+0x1231>
    532e:	a4 ca       	rjmp	.-2744   	; 0x4878 <__stack+0x779>
    5330:	0c 94 8e 1e 	jmp	0x3d1c	; 0x3d1c <_Z5checkv+0x1062>
    5334:	82 30       	cpi	r24, 0x02	; 2
    5336:	91 05       	cpc	r25, r1
    5338:	11 f4       	brne	.+4      	; 0x533e <__stack+0x123f>
    533a:	0c 94 e2 20 	jmp	0x41c4	; 0x41c4 <__stack+0xc5>
    533e:	03 97       	sbiw	r24, 0x03	; 3
    5340:	09 f4       	brne	.+2      	; 0x5344 <__stack+0x1245>
    5342:	07 c8       	rjmp	.-4082   	; 0x4352 <__stack+0x253>
    5344:	99 ca       	rjmp	.-2766   	; 0x4878 <__stack+0x779>
    5346:	90 93 25 07 	sts	0x0725, r25	; 0x800725 <inf_menu+0x1>
    534a:	80 93 24 07 	sts	0x0724, r24	; 0x800724 <inf_menu>
    534e:	81 30       	cpi	r24, 0x01	; 1
    5350:	91 05       	cpc	r25, r1
    5352:	09 f4       	brne	.+2      	; 0x5356 <__stack+0x1257>
    5354:	32 c9       	rjmp	.-3484   	; 0x45ba <__stack+0x4bb>
    5356:	82 30       	cpi	r24, 0x02	; 2
    5358:	91 05       	cpc	r25, r1
    535a:	09 f4       	brne	.+2      	; 0x535e <__stack+0x125f>
    535c:	fb c9       	rjmp	.-3082   	; 0x4754 <__stack+0x655>
    535e:	89 2b       	or	r24, r25
    5360:	09 f0       	breq	.+2      	; 0x5364 <__stack+0x1265>
    5362:	8a ca       	rjmp	.-2796   	; 0x4878 <__stack+0x779>
    5364:	2d c8       	rjmp	.-4006   	; 0x43c0 <__stack+0x2c1>
    5366:	df 91       	pop	r29
    5368:	cf 91       	pop	r28
    536a:	1f 91       	pop	r17
    536c:	0f 91       	pop	r16
    536e:	ff 90       	pop	r15
    5370:	ef 90       	pop	r14
    5372:	df 90       	pop	r13
    5374:	cf 90       	pop	r12
    5376:	bf 90       	pop	r11
    5378:	af 90       	pop	r10
    537a:	08 95       	ret

0000537c <_Z9send_Uartc>:
    537c:	e0 ec       	ldi	r30, 0xC0	; 192
    537e:	f0 e0       	ldi	r31, 0x00	; 0
    5380:	90 81       	ld	r25, Z
    5382:	95 ff       	sbrs	r25, 5
    5384:	fd cf       	rjmp	.-6      	; 0x5380 <_Z9send_Uartc+0x4>
    5386:	80 93 c6 00 	sts	0x00C6, r24	; 0x8000c6 <__TEXT_REGION_LENGTH__+0x7e00c6>
    538a:	08 95       	ret

0000538c <_Z13send_Uart_strPKc>:
    538c:	cf 93       	push	r28
    538e:	df 93       	push	r29
    5390:	ec 01       	movw	r28, r24
    5392:	88 81       	ld	r24, Y
    5394:	88 23       	and	r24, r24
    5396:	29 f0       	breq	.+10     	; 0x53a2 <_Z13send_Uart_strPKc+0x16>
    5398:	21 96       	adiw	r28, 0x01	; 1
    539a:	f0 df       	rcall	.-32     	; 0x537c <_Z9send_Uartc>
    539c:	89 91       	ld	r24, Y+
    539e:	81 11       	cpse	r24, r1
    53a0:	fc cf       	rjmp	.-8      	; 0x539a <_Z13send_Uart_strPKc+0xe>
    53a2:	df 91       	pop	r29
    53a4:	cf 91       	pop	r28
    53a6:	08 95       	ret

000053a8 <_Z10USART_Initv>:
    53a8:	83 e1       	ldi	r24, 0x13	; 19
    53aa:	80 93 c4 00 	sts	0x00C4, r24	; 0x8000c4 <__TEXT_REGION_LENGTH__+0x7e00c4>
    53ae:	10 92 c5 00 	sts	0x00C5, r1	; 0x8000c5 <__TEXT_REGION_LENGTH__+0x7e00c5>
    53b2:	e1 ec       	ldi	r30, 0xC1	; 193
    53b4:	f0 e0       	ldi	r31, 0x00	; 0
    53b6:	80 81       	ld	r24, Z
    53b8:	88 69       	ori	r24, 0x98	; 152
    53ba:	80 83       	st	Z, r24
    53bc:	86 e0       	ldi	r24, 0x06	; 6
    53be:	80 93 c2 00 	sts	0x00C2, r24	; 0x8000c2 <__TEXT_REGION_LENGTH__+0x7e00c2>
    53c2:	87 ea       	ldi	r24, 0xA7	; 167
    53c4:	91 e6       	ldi	r25, 0x61	; 97
    53c6:	01 97       	sbiw	r24, 0x01	; 1
    53c8:	f1 f7       	brne	.-4      	; 0x53c6 <_Z10USART_Initv+0x1e>
    53ca:	00 c0       	rjmp	.+0      	; 0x53cc <_Z10USART_Initv+0x24>
    53cc:	00 00       	nop
    53ce:	87 ee       	ldi	r24, 0xE7	; 231
    53d0:	95 e0       	ldi	r25, 0x05	; 5
    53d2:	dc df       	rcall	.-72     	; 0x538c <_Z13send_Uart_strPKc>
    53d4:	8d e0       	ldi	r24, 0x0D	; 13
    53d6:	d2 df       	rcall	.-92     	; 0x537c <_Z9send_Uartc>
    53d8:	87 ea       	ldi	r24, 0xA7	; 167
    53da:	91 e6       	ldi	r25, 0x61	; 97
    53dc:	01 97       	sbiw	r24, 0x01	; 1
    53de:	f1 f7       	brne	.-4      	; 0x53dc <_Z10USART_Initv+0x34>
    53e0:	00 c0       	rjmp	.+0      	; 0x53e2 <_Z10USART_Initv+0x3a>
    53e2:	00 00       	nop
    53e4:	8a ee       	ldi	r24, 0xEA	; 234
    53e6:	95 e0       	ldi	r25, 0x05	; 5
    53e8:	d1 df       	rcall	.-94     	; 0x538c <_Z13send_Uart_strPKc>
    53ea:	8d e0       	ldi	r24, 0x0D	; 13
    53ec:	c7 df       	rcall	.-114    	; 0x537c <_Z9send_Uartc>
    53ee:	87 ea       	ldi	r24, 0xA7	; 167
    53f0:	91 e6       	ldi	r25, 0x61	; 97
    53f2:	01 97       	sbiw	r24, 0x01	; 1
    53f4:	f1 f7       	brne	.-4      	; 0x53f2 <_Z10USART_Initv+0x4a>
    53f6:	00 c0       	rjmp	.+0      	; 0x53f8 <_Z10USART_Initv+0x50>
    53f8:	00 00       	nop
    53fa:	8f ee       	ldi	r24, 0xEF	; 239
    53fc:	95 e0       	ldi	r25, 0x05	; 5
    53fe:	c6 df       	rcall	.-116    	; 0x538c <_Z13send_Uart_strPKc>
    5400:	8d e0       	ldi	r24, 0x0D	; 13
    5402:	bc df       	rcall	.-136    	; 0x537c <_Z9send_Uartc>
    5404:	87 ea       	ldi	r24, 0xA7	; 167
    5406:	91 e6       	ldi	r25, 0x61	; 97
    5408:	01 97       	sbiw	r24, 0x01	; 1
    540a:	f1 f7       	brne	.-4      	; 0x5408 <_Z10USART_Initv+0x60>
    540c:	00 c0       	rjmp	.+0      	; 0x540e <_Z10USART_Initv+0x66>
    540e:	00 00       	nop
    5410:	08 95       	ret

00005412 <__vector_20>:
    5412:	1f 92       	push	r1
    5414:	0f 92       	push	r0
    5416:	0f b6       	in	r0, 0x3f	; 63
    5418:	0f 92       	push	r0
    541a:	11 24       	eor	r1, r1
    541c:	0b b6       	in	r0, 0x3b	; 59
    541e:	0f 92       	push	r0
    5420:	2f 93       	push	r18
    5422:	8f 93       	push	r24
    5424:	9f 93       	push	r25
    5426:	af 93       	push	r26
    5428:	bf 93       	push	r27
    542a:	ef 93       	push	r30
    542c:	ff 93       	push	r31
    542e:	e0 ec       	ldi	r30, 0xC0	; 192
    5430:	f0 e0       	ldi	r31, 0x00	; 0
    5432:	80 81       	ld	r24, Z
    5434:	88 23       	and	r24, r24
    5436:	ec f7       	brge	.-6      	; 0x5432 <__vector_20+0x20>
    5438:	e1 ec       	ldi	r30, 0xC1	; 193
    543a:	f0 e0       	ldi	r31, 0x00	; 0
    543c:	80 81       	ld	r24, Z
    543e:	80 83       	st	Z, r24
    5440:	80 91 50 06 	lds	r24, 0x0650	; 0x800650 <count>
    5444:	90 91 51 06 	lds	r25, 0x0651	; 0x800651 <count+0x1>
    5448:	20 91 c6 00 	lds	r18, 0x00C6	; 0x8000c6 <__TEXT_REGION_LENGTH__+0x7e00c6>
    544c:	dc 01       	movw	r26, r24
    544e:	ae 5a       	subi	r26, 0xAE	; 174
    5450:	b9 4f       	sbci	r27, 0xF9	; 249
    5452:	2c 93       	st	X, r18
    5454:	01 96       	adiw	r24, 0x01	; 1
    5456:	90 93 51 06 	sts	0x0651, r25	; 0x800651 <count+0x1>
    545a:	80 93 50 06 	sts	0x0650, r24	; 0x800650 <count>
    545e:	80 81       	ld	r24, Z
    5460:	80 69       	ori	r24, 0x90	; 144
    5462:	80 83       	st	Z, r24
    5464:	ff 91       	pop	r31
    5466:	ef 91       	pop	r30
    5468:	bf 91       	pop	r27
    546a:	af 91       	pop	r26
    546c:	9f 91       	pop	r25
    546e:	8f 91       	pop	r24
    5470:	2f 91       	pop	r18
    5472:	0f 90       	pop	r0
    5474:	0b be       	out	0x3b, r0	; 59
    5476:	0f 90       	pop	r0
    5478:	0f be       	out	0x3f, r0	; 63
    547a:	0f 90       	pop	r0
    547c:	1f 90       	pop	r1
    547e:	18 95       	reti

00005480 <__vector_13>:
    5480:	1f 92       	push	r1
    5482:	0f 92       	push	r0
    5484:	0f b6       	in	r0, 0x3f	; 63
    5486:	0f 92       	push	r0
    5488:	11 24       	eor	r1, r1
    548a:	0b b6       	in	r0, 0x3b	; 59
    548c:	0f 92       	push	r0
    548e:	0f 93       	push	r16
    5490:	1f 93       	push	r17
    5492:	2f 93       	push	r18
    5494:	3f 93       	push	r19
    5496:	4f 93       	push	r20
    5498:	5f 93       	push	r21
    549a:	6f 93       	push	r22
    549c:	7f 93       	push	r23
    549e:	8f 93       	push	r24
    54a0:	9f 93       	push	r25
    54a2:	af 93       	push	r26
    54a4:	bf 93       	push	r27
    54a6:	ef 93       	push	r30
    54a8:	ff 93       	push	r31
    54aa:	80 91 3c 07 	lds	r24, 0x073C	; 0x80073c <locktimer>
    54ae:	88 23       	and	r24, r24
    54b0:	d1 f1       	breq	.+116    	; 0x5526 <__vector_13+0xa6>
    54b2:	80 91 4c 06 	lds	r24, 0x064C	; 0x80064c <z>
    54b6:	90 91 4d 06 	lds	r25, 0x064D	; 0x80064d <z+0x1>
    54ba:	84 36       	cpi	r24, 0x64	; 100
    54bc:	91 05       	cpc	r25, r1
    54be:	34 f4       	brge	.+12     	; 0x54cc <__vector_13+0x4c>
    54c0:	01 96       	adiw	r24, 0x01	; 1
    54c2:	90 93 4d 06 	sts	0x064D, r25	; 0x80064d <z+0x1>
    54c6:	80 93 4c 06 	sts	0x064C, r24	; 0x80064c <z>
    54ca:	33 c0       	rjmp	.+102    	; 0x5532 <__vector_13+0xb2>
    54cc:	80 91 4e 06 	lds	r24, 0x064E	; 0x80064e <test>
    54d0:	88 23       	and	r24, r24
    54d2:	81 f0       	breq	.+32     	; 0x54f4 <__vector_13+0x74>
    54d4:	08 e0       	ldi	r16, 0x08	; 8
    54d6:	10 e0       	ldi	r17, 0x00	; 0
    54d8:	21 e0       	ldi	r18, 0x01	; 1
    54da:	30 e0       	ldi	r19, 0x00	; 0
    54dc:	40 e0       	ldi	r20, 0x00	; 0
    54de:	50 e0       	ldi	r21, 0x00	; 0
    54e0:	68 e0       	ldi	r22, 0x08	; 8
    54e2:	70 e0       	ldi	r23, 0x00	; 0
    54e4:	86 e4       	ldi	r24, 0x46	; 70
    54e6:	97 e0       	ldi	r25, 0x07	; 7
    54e8:	0e 94 a3 38 	call	0x7146	; 0x7146 <_ZN4OLED21OLED_Clear_Bufer_partEiiii>
    54ec:	1b b8       	out	0x0b, r1	; 11
    54ee:	10 92 3c 07 	sts	0x073C, r1	; 0x80073c <locktimer>
    54f2:	0e c0       	rjmp	.+28     	; 0x5510 <__vector_13+0x90>
    54f4:	08 e0       	ldi	r16, 0x08	; 8
    54f6:	10 e0       	ldi	r17, 0x00	; 0
    54f8:	21 e0       	ldi	r18, 0x01	; 1
    54fa:	30 e0       	ldi	r19, 0x00	; 0
    54fc:	40 e0       	ldi	r20, 0x00	; 0
    54fe:	50 e0       	ldi	r21, 0x00	; 0
    5500:	68 e0       	ldi	r22, 0x08	; 8
    5502:	70 e0       	ldi	r23, 0x00	; 0
    5504:	86 e4       	ldi	r24, 0x46	; 70
    5506:	97 e0       	ldi	r25, 0x07	; 7
    5508:	0e 94 a3 38 	call	0x7146	; 0x7146 <_ZN4OLED21OLED_Clear_Bufer_partEiiii>
    550c:	80 e8       	ldi	r24, 0x80	; 128
    550e:	8b b9       	out	0x0b, r24	; 11
    5510:	90 91 4e 06 	lds	r25, 0x064E	; 0x80064e <test>
    5514:	81 e0       	ldi	r24, 0x01	; 1
    5516:	89 27       	eor	r24, r25
    5518:	80 93 4e 06 	sts	0x064E, r24	; 0x80064e <test>
    551c:	10 92 4d 06 	sts	0x064D, r1	; 0x80064d <z+0x1>
    5520:	10 92 4c 06 	sts	0x064C, r1	; 0x80064c <z>
    5524:	06 c0       	rjmp	.+12     	; 0x5532 <__vector_13+0xb2>
    5526:	84 e6       	ldi	r24, 0x64	; 100
    5528:	90 e0       	ldi	r25, 0x00	; 0
    552a:	90 93 4d 06 	sts	0x064D, r25	; 0x80064d <z+0x1>
    552e:	80 93 4c 06 	sts	0x064C, r24	; 0x80064c <z>
    5532:	80 91 3a 07 	lds	r24, 0x073A	; 0x80073a <dream>
    5536:	81 11       	cpse	r24, r1
    5538:	28 c0       	rjmp	.+80     	; 0x558a <__vector_13+0x10a>
    553a:	80 91 4a 06 	lds	r24, 0x064A	; 0x80064a <__data_end>
    553e:	90 91 4b 06 	lds	r25, 0x064B	; 0x80064b <__data_end+0x1>
    5542:	82 33       	cpi	r24, 0x32	; 50
    5544:	91 05       	cpc	r25, r1
    5546:	94 f4       	brge	.+36     	; 0x556c <__vector_13+0xec>
    5548:	01 96       	adiw	r24, 0x01	; 1
    554a:	90 93 4b 06 	sts	0x064B, r25	; 0x80064b <__data_end+0x1>
    554e:	80 93 4a 06 	sts	0x064A, r24	; 0x80064a <__data_end>
    5552:	08 e0       	ldi	r16, 0x08	; 8
    5554:	10 e0       	ldi	r17, 0x00	; 0
    5556:	21 e0       	ldi	r18, 0x01	; 1
    5558:	30 e0       	ldi	r19, 0x00	; 0
    555a:	40 e0       	ldi	r20, 0x00	; 0
    555c:	50 e0       	ldi	r21, 0x00	; 0
    555e:	60 e1       	ldi	r22, 0x10	; 16
    5560:	70 e0       	ldi	r23, 0x00	; 0
    5562:	86 e4       	ldi	r24, 0x46	; 70
    5564:	97 e0       	ldi	r25, 0x07	; 7
    5566:	0e 94 a3 38 	call	0x7146	; 0x7146 <_ZN4OLED21OLED_Clear_Bufer_partEiiii>
    556a:	0f c0       	rjmp	.+30     	; 0x558a <__vector_13+0x10a>
    556c:	08 e0       	ldi	r16, 0x08	; 8
    556e:	10 e0       	ldi	r17, 0x00	; 0
    5570:	21 e0       	ldi	r18, 0x01	; 1
    5572:	30 e0       	ldi	r19, 0x00	; 0
    5574:	40 e0       	ldi	r20, 0x00	; 0
    5576:	50 e0       	ldi	r21, 0x00	; 0
    5578:	60 e1       	ldi	r22, 0x10	; 16
    557a:	70 e0       	ldi	r23, 0x00	; 0
    557c:	86 e4       	ldi	r24, 0x46	; 70
    557e:	97 e0       	ldi	r25, 0x07	; 7
    5580:	0e 94 a3 38 	call	0x7146	; 0x7146 <_ZN4OLED21OLED_Clear_Bufer_partEiiii>
    5584:	81 e0       	ldi	r24, 0x01	; 1
    5586:	80 93 3a 07 	sts	0x073A, r24	; 0x80073a <dream>
    558a:	80 91 39 07 	lds	r24, 0x0739	; 0x800739 <dreamreset>
    558e:	88 23       	and	r24, r24
    5590:	41 f0       	breq	.+16     	; 0x55a2 <__vector_13+0x122>
    5592:	10 92 4b 06 	sts	0x064B, r1	; 0x80064b <__data_end+0x1>
    5596:	10 92 4a 06 	sts	0x064A, r1	; 0x80064a <__data_end>
    559a:	10 92 39 07 	sts	0x0739, r1	; 0x800739 <dreamreset>
    559e:	10 92 3a 07 	sts	0x073A, r1	; 0x80073a <dream>
    55a2:	ff 91       	pop	r31
    55a4:	ef 91       	pop	r30
    55a6:	bf 91       	pop	r27
    55a8:	af 91       	pop	r26
    55aa:	9f 91       	pop	r25
    55ac:	8f 91       	pop	r24
    55ae:	7f 91       	pop	r23
    55b0:	6f 91       	pop	r22
    55b2:	5f 91       	pop	r21
    55b4:	4f 91       	pop	r20
    55b6:	3f 91       	pop	r19
    55b8:	2f 91       	pop	r18
    55ba:	1f 91       	pop	r17
    55bc:	0f 91       	pop	r16
    55be:	0f 90       	pop	r0
    55c0:	0b be       	out	0x3b, r0	; 59
    55c2:	0f 90       	pop	r0
    55c4:	0f be       	out	0x3f, r0	; 63
    55c6:	0f 90       	pop	r0
    55c8:	1f 90       	pop	r1
    55ca:	18 95       	reti

000055cc <main>:

 

int main(void){

		sei();
    55cc:	78 94       	sei
		oled.OLED_Write_To_Bufer(48,2,4,16,SL);
    55ce:	0f 2e       	mov	r0, r31
    55d0:	f3 e2       	ldi	r31, 0x23	; 35
    55d2:	ef 2e       	mov	r14, r31
    55d4:	f1 e0       	ldi	r31, 0x01	; 1
    55d6:	ff 2e       	mov	r15, r31
    55d8:	f0 2d       	mov	r31, r0
    55da:	00 e1       	ldi	r16, 0x10	; 16
    55dc:	10 e0       	ldi	r17, 0x00	; 0
    55de:	24 e0       	ldi	r18, 0x04	; 4
    55e0:	30 e0       	ldi	r19, 0x00	; 0
    55e2:	42 e0       	ldi	r20, 0x02	; 2
    55e4:	50 e0       	ldi	r21, 0x00	; 0
    55e6:	60 e3       	ldi	r22, 0x30	; 48
    55e8:	70 e0       	ldi	r23, 0x00	; 0
    55ea:	86 e4       	ldi	r24, 0x46	; 70
    55ec:	97 e0       	ldi	r25, 0x07	; 7
    55ee:	0e 94 f2 38 	call	0x71e4	; 0x71e4 <_ZN4OLED19OLED_Write_To_BuferEiiiiPKh>
		oled.OLED_Write_To_Bufer(24,6,1,8,L);
    55f2:	0f 2e       	mov	r0, r31
    55f4:	f3 ec       	ldi	r31, 0xC3	; 195
    55f6:	ef 2e       	mov	r14, r31
    55f8:	f1 e0       	ldi	r31, 0x01	; 1
    55fa:	ff 2e       	mov	r15, r31
    55fc:	f0 2d       	mov	r31, r0
    55fe:	08 e0       	ldi	r16, 0x08	; 8
    5600:	10 e0       	ldi	r17, 0x00	; 0
    5602:	21 e0       	ldi	r18, 0x01	; 1
    5604:	30 e0       	ldi	r19, 0x00	; 0
    5606:	46 e0       	ldi	r20, 0x06	; 6
    5608:	50 e0       	ldi	r21, 0x00	; 0
    560a:	68 e1       	ldi	r22, 0x18	; 24
    560c:	70 e0       	ldi	r23, 0x00	; 0
    560e:	86 e4       	ldi	r24, 0x46	; 70
    5610:	97 e0       	ldi	r25, 0x07	; 7
    5612:	0e 94 f2 38 	call	0x71e4	; 0x71e4 <_ZN4OLED19OLED_Write_To_BuferEiiiiPKh>
		oled.OLED_Write_To_Bufer(32,6,1,8,O);
    5616:	0f 2e       	mov	r0, r31
    5618:	fb ea       	ldi	r31, 0xAB	; 171
    561a:	ef 2e       	mov	r14, r31
    561c:	f1 e0       	ldi	r31, 0x01	; 1
    561e:	ff 2e       	mov	r15, r31
    5620:	f0 2d       	mov	r31, r0
    5622:	21 e0       	ldi	r18, 0x01	; 1
    5624:	30 e0       	ldi	r19, 0x00	; 0
    5626:	46 e0       	ldi	r20, 0x06	; 6
    5628:	50 e0       	ldi	r21, 0x00	; 0
    562a:	60 e2       	ldi	r22, 0x20	; 32
    562c:	70 e0       	ldi	r23, 0x00	; 0
    562e:	86 e4       	ldi	r24, 0x46	; 70
    5630:	97 e0       	ldi	r25, 0x07	; 7
    5632:	0e 94 f2 38 	call	0x71e4	; 0x71e4 <_ZN4OLED19OLED_Write_To_BuferEiiiiPKh>
		oled.OLED_Write_To_Bufer(40,6,1,8,A);
    5636:	0f 2e       	mov	r0, r31
    5638:	fb e1       	ldi	r31, 0x1B	; 27
    563a:	ef 2e       	mov	r14, r31
    563c:	f2 e0       	ldi	r31, 0x02	; 2
    563e:	ff 2e       	mov	r15, r31
    5640:	f0 2d       	mov	r31, r0
    5642:	21 e0       	ldi	r18, 0x01	; 1
    5644:	30 e0       	ldi	r19, 0x00	; 0
    5646:	46 e0       	ldi	r20, 0x06	; 6
    5648:	50 e0       	ldi	r21, 0x00	; 0
    564a:	68 e2       	ldi	r22, 0x28	; 40
    564c:	70 e0       	ldi	r23, 0x00	; 0
    564e:	86 e4       	ldi	r24, 0x46	; 70
    5650:	97 e0       	ldi	r25, 0x07	; 7
    5652:	0e 94 f2 38 	call	0x71e4	; 0x71e4 <_ZN4OLED19OLED_Write_To_BuferEiiiiPKh>
		oled.OLED_Write_To_Bufer(48,6,1,8,D);
    5656:	0f 2e       	mov	r0, r31
    5658:	f3 e0       	ldi	r31, 0x03	; 3
    565a:	ef 2e       	mov	r14, r31
    565c:	f2 e0       	ldi	r31, 0x02	; 2
    565e:	ff 2e       	mov	r15, r31
    5660:	f0 2d       	mov	r31, r0
    5662:	21 e0       	ldi	r18, 0x01	; 1
    5664:	30 e0       	ldi	r19, 0x00	; 0
    5666:	46 e0       	ldi	r20, 0x06	; 6
    5668:	50 e0       	ldi	r21, 0x00	; 0
    566a:	60 e3       	ldi	r22, 0x30	; 48
    566c:	70 e0       	ldi	r23, 0x00	; 0
    566e:	86 e4       	ldi	r24, 0x46	; 70
    5670:	97 e0       	ldi	r25, 0x07	; 7
    5672:	0e 94 f2 38 	call	0x71e4	; 0x71e4 <_ZN4OLED19OLED_Write_To_BuferEiiiiPKh>
		oled.OLED_Write_To_Bufer(56,6,1,8,I);
    5676:	0f 2e       	mov	r0, r31
    5678:	fb ed       	ldi	r31, 0xDB	; 219
    567a:	ef 2e       	mov	r14, r31
    567c:	f1 e0       	ldi	r31, 0x01	; 1
    567e:	ff 2e       	mov	r15, r31
    5680:	f0 2d       	mov	r31, r0
    5682:	21 e0       	ldi	r18, 0x01	; 1
    5684:	30 e0       	ldi	r19, 0x00	; 0
    5686:	46 e0       	ldi	r20, 0x06	; 6
    5688:	50 e0       	ldi	r21, 0x00	; 0
    568a:	68 e3       	ldi	r22, 0x38	; 56
    568c:	70 e0       	ldi	r23, 0x00	; 0
    568e:	86 e4       	ldi	r24, 0x46	; 70
    5690:	97 e0       	ldi	r25, 0x07	; 7
    5692:	0e 94 f2 38 	call	0x71e4	; 0x71e4 <_ZN4OLED19OLED_Write_To_BuferEiiiiPKh>
		oled.OLED_Write_To_Bufer(64,6,1,8,N);
    5696:	0f 2e       	mov	r0, r31
    5698:	f3 eb       	ldi	r31, 0xB3	; 179
    569a:	ef 2e       	mov	r14, r31
    569c:	f1 e0       	ldi	r31, 0x01	; 1
    569e:	ff 2e       	mov	r15, r31
    56a0:	f0 2d       	mov	r31, r0
    56a2:	21 e0       	ldi	r18, 0x01	; 1
    56a4:	30 e0       	ldi	r19, 0x00	; 0
    56a6:	46 e0       	ldi	r20, 0x06	; 6
    56a8:	50 e0       	ldi	r21, 0x00	; 0
    56aa:	60 e4       	ldi	r22, 0x40	; 64
    56ac:	70 e0       	ldi	r23, 0x00	; 0
    56ae:	86 e4       	ldi	r24, 0x46	; 70
    56b0:	97 e0       	ldi	r25, 0x07	; 7
    56b2:	0e 94 f2 38 	call	0x71e4	; 0x71e4 <_ZN4OLED19OLED_Write_To_BuferEiiiiPKh>
		oled.OLED_Write_To_Bufer(72,6,1,8,G);
    56b6:	0f 2e       	mov	r0, r31
    56b8:	fb ee       	ldi	r31, 0xEB	; 235
    56ba:	ef 2e       	mov	r14, r31
    56bc:	f1 e0       	ldi	r31, 0x01	; 1
    56be:	ff 2e       	mov	r15, r31
    56c0:	f0 2d       	mov	r31, r0
    56c2:	21 e0       	ldi	r18, 0x01	; 1
    56c4:	30 e0       	ldi	r19, 0x00	; 0
    56c6:	46 e0       	ldi	r20, 0x06	; 6
    56c8:	50 e0       	ldi	r21, 0x00	; 0
    56ca:	68 e4       	ldi	r22, 0x48	; 72
    56cc:	70 e0       	ldi	r23, 0x00	; 0
    56ce:	86 e4       	ldi	r24, 0x46	; 70
    56d0:	97 e0       	ldi	r25, 0x07	; 7
    56d2:	0e 94 f2 38 	call	0x71e4	; 0x71e4 <_ZN4OLED19OLED_Write_To_BuferEiiiiPKh>
		oled.OLED_Write_To_Bufer(80,6,1,8,dot);
    56d6:	0f 2e       	mov	r0, r31
    56d8:	f3 e6       	ldi	r31, 0x63	; 99
    56da:	ef 2e       	mov	r14, r31
    56dc:	f1 e0       	ldi	r31, 0x01	; 1
    56de:	ff 2e       	mov	r15, r31
    56e0:	f0 2d       	mov	r31, r0
    56e2:	21 e0       	ldi	r18, 0x01	; 1
    56e4:	30 e0       	ldi	r19, 0x00	; 0
    56e6:	46 e0       	ldi	r20, 0x06	; 6
    56e8:	50 e0       	ldi	r21, 0x00	; 0
    56ea:	60 e5       	ldi	r22, 0x50	; 80
    56ec:	70 e0       	ldi	r23, 0x00	; 0
    56ee:	86 e4       	ldi	r24, 0x46	; 70
    56f0:	97 e0       	ldi	r25, 0x07	; 7
    56f2:	0e 94 f2 38 	call	0x71e4	; 0x71e4 <_ZN4OLED19OLED_Write_To_BuferEiiiiPKh>
		oled.OLED_Write_To_Bufer(88,6,1,8,dot);
    56f6:	21 e0       	ldi	r18, 0x01	; 1
    56f8:	30 e0       	ldi	r19, 0x00	; 0
    56fa:	46 e0       	ldi	r20, 0x06	; 6
    56fc:	50 e0       	ldi	r21, 0x00	; 0
    56fe:	68 e5       	ldi	r22, 0x58	; 88
    5700:	70 e0       	ldi	r23, 0x00	; 0
    5702:	86 e4       	ldi	r24, 0x46	; 70
    5704:	97 e0       	ldi	r25, 0x07	; 7
    5706:	0e 94 f2 38 	call	0x71e4	; 0x71e4 <_ZN4OLED19OLED_Write_To_BuferEiiiiPKh>
		oled.OLED_Write_To_Bufer(96,6,1,8,dot);
    570a:	21 e0       	ldi	r18, 0x01	; 1
    570c:	30 e0       	ldi	r19, 0x00	; 0
    570e:	46 e0       	ldi	r20, 0x06	; 6
    5710:	50 e0       	ldi	r21, 0x00	; 0
    5712:	60 e6       	ldi	r22, 0x60	; 96
    5714:	70 e0       	ldi	r23, 0x00	; 0
    5716:	86 e4       	ldi	r24, 0x46	; 70
    5718:	97 e0       	ldi	r25, 0x07	; 7
    571a:	0e 94 f2 38 	call	0x71e4	; 0x71e4 <_ZN4OLED19OLED_Write_To_BuferEiiiiPKh>
		oled.OLED_Write_Bufer();
    571e:	86 e4       	ldi	r24, 0x46	; 70
    5720:	97 e0       	ldi	r25, 0x07	; 7
    5722:	0e 94 f6 37 	call	0x6fec	; 0x6fec <_ZN4OLED16OLED_Write_BuferEv>
		oled.OLED_Bufer_Clear();
    5726:	86 e4       	ldi	r24, 0x46	; 70
    5728:	97 e0       	ldi	r25, 0x07	; 7
    572a:	0e 94 0f 38 	call	0x701e	; 0x701e <_ZN4OLED16OLED_Bufer_ClearEv>
	
		DDRD = 0b10000000;
    572e:	80 e8       	ldi	r24, 0x80	; 128
    5730:	8a b9       	out	0x0a, r24	; 10
		
		PCICR|=0b00000001;
    5732:	e8 e6       	ldi	r30, 0x68	; 104
    5734:	f0 e0       	ldi	r31, 0x00	; 0
    5736:	80 81       	ld	r24, Z
    5738:	81 60       	ori	r24, 0x01	; 1
    573a:	80 83       	st	Z, r24
		PCMSK0=0b00111100;
    573c:	8c e3       	ldi	r24, 0x3C	; 60
    573e:	80 93 6b 00 	sts	0x006B, r24	; 0x80006b <__TEXT_REGION_LENGTH__+0x7e006b>
		
		TCCR1A = 0;                     
    5742:	10 92 80 00 	sts	0x0080, r1	; 0x800080 <__TEXT_REGION_LENGTH__+0x7e0080>
		TCCR1B = (1<<WGM12)|(5<<CS10);  
    5746:	8d e0       	ldi	r24, 0x0D	; 13
    5748:	80 93 81 00 	sts	0x0081, r24	; 0x800081 <__TEXT_REGION_LENGTH__+0x7e0081>
		OCR1A = 0b11111111;     
    574c:	8f ef       	ldi	r24, 0xFF	; 255
    574e:	90 e0       	ldi	r25, 0x00	; 0
    5750:	90 93 89 00 	sts	0x0089, r25	; 0x800089 <__TEXT_REGION_LENGTH__+0x7e0089>
    5754:	80 93 88 00 	sts	0x0088, r24	; 0x800088 <__TEXT_REGION_LENGTH__+0x7e0088>
		TIMSK1 |= (1<<OCIE1A);         
    5758:	ef e6       	ldi	r30, 0x6F	; 111
    575a:	f0 e0       	ldi	r31, 0x00	; 0
    575c:	80 81       	ld	r24, Z
    575e:	82 60       	ori	r24, 0x02	; 2
    5760:	80 83       	st	Z, r24
		TIFR1 = (1<<OCF1A);            
    5762:	82 e0       	ldi	r24, 0x02	; 2
    5764:	86 bb       	out	0x16, r24	; 22
	#else
		//round up by default
		__ticks_dc = (uint32_t)(ceil(fabs(__tmp)));
	#endif

	__builtin_avr_delay_cycles(__ticks_dc);
    5766:	2f e7       	ldi	r18, 0x7F	; 127
    5768:	8d e8       	ldi	r24, 0x8D	; 141
    576a:	9b e5       	ldi	r25, 0x5B	; 91
    576c:	21 50       	subi	r18, 0x01	; 1
    576e:	80 40       	sbci	r24, 0x00	; 0
    5770:	90 40       	sbci	r25, 0x00	; 0
    5772:	e1 f7       	brne	.-8      	; 0x576c <main+0x1a0>
    5774:	00 c0       	rjmp	.+0      	; 0x5776 <main+0x1aa>
    5776:	00 00       	nop
		_delay_ms(30000);
		//_delay_ms(1000);
		USART_Init();
    5778:	17 de       	rcall	.-978    	; 0x53a8 <_Z10USART_Initv>
    577a:	a3 e2       	ldi	r26, 0x23	; 35
    577c:	b4 ef       	ldi	r27, 0xF4	; 244
    577e:	11 97       	sbiw	r26, 0x01	; 1
    5780:	f1 f7       	brne	.-4      	; 0x577e <main+0x1b2>
    5782:	00 c0       	rjmp	.+0      	; 0x5784 <main+0x1b8>
    5784:	00 00       	nop
				sei();
				sleep_mode();
				cli();
			}*/
		sei();
		if ((count>0)&(!(UCSR0A &(1<<RXC0)))) {
    5786:	0f 2e       	mov	r0, r31
    5788:	f0 ec       	ldi	r31, 0xC0	; 192
    578a:	6f 2e       	mov	r6, r31
    578c:	71 2c       	mov	r7, r1
    578e:	f0 2d       	mov	r31, r0
    5790:	55 24       	eor	r5, r5
    5792:	53 94       	inc	r5
    5794:	41 2c       	mov	r4, r1
				if((data_in[j]=='C') & (data_in[j+1]=='M') & (data_in[j+2]=='T') & (data_in[j+3]=='I'))
				{
					readinginprocess=true;
					//oled.OLED_Write_To_Bufer((i++)*8,1,1,8,C);
					//readfirst();
					count=1;
    5796:	aa 24       	eor	r10, r10
    5798:	a3 94       	inc	r10
    579a:	b1 2c       	mov	r11, r1

	};
	
	void Default() 
	{
		oled.OLED_Write_To_Bufer(56,y+2,2,8,downwd);
    579c:	0f 2e       	mov	r0, r31
    579e:	f4 e2       	ldi	r31, 0x24	; 36
    57a0:	2f 2e       	mov	r2, r31
    57a2:	f7 e0       	ldi	r31, 0x07	; 7
    57a4:	3f 2e       	mov	r3, r31
    57a6:	f0 2d       	mov	r31, r0

	};
	
	void Default() 
	{
		oled.OLED_Write_To_Bufer(56,y+2,2,8,downwd);
    57a8:	0f 2e       	mov	r0, r31
    57aa:	f8 e1       	ldi	r31, 0x18	; 24
    57ac:	8f 2e       	mov	r8, r31
    57ae:	f7 e0       	ldi	r31, 0x07	; 7
    57b0:	9f 2e       	mov	r9, r31
    57b2:	f0 2d       	mov	r31, r0

	};
	
	void Default() 
	{
		oled.OLED_Write_To_Bufer(x[0],y+1,1,8,line);
    57b4:	c8 e0       	ldi	r28, 0x08	; 8
    57b6:	d7 e0       	ldi	r29, 0x07	; 7
				set_sleep_mode(SLEEP_MODE_PWR_DOWN);
				sei();
				sleep_mode();
				cli();
			}*/
		sei();
    57b8:	78 94       	sei
		if ((count>0)&(!(UCSR0A &(1<<RXC0)))) {
    57ba:	80 91 50 06 	lds	r24, 0x0650	; 0x800650 <count>
    57be:	90 91 51 06 	lds	r25, 0x0651	; 0x800651 <count+0x1>
    57c2:	f3 01       	movw	r30, r6
    57c4:	30 81       	ld	r19, Z
    57c6:	25 2d       	mov	r18, r5
    57c8:	18 16       	cp	r1, r24
    57ca:	19 06       	cpc	r1, r25
    57cc:	0c f0       	brlt	.+2      	; 0x57d0 <main+0x204>
    57ce:	24 2d       	mov	r18, r4
    57d0:	22 23       	and	r18, r18
    57d2:	09 f4       	brne	.+2      	; 0x57d6 <main+0x20a>
    57d4:	53 c0       	rjmp	.+166    	; 0x587c <main+0x2b0>
    57d6:	33 23       	and	r19, r19
    57d8:	0c f4       	brge	.+2      	; 0x57dc <main+0x210>
    57da:	50 c0       	rjmp	.+160    	; 0x587c <main+0x2b0>
			//oled.OLED_Clear_Bufer_part((j)*8,1,1,8);
			//asciitoimg((j)*8,1,1,8,data_in[j]);
			if(count-j>3)
    57dc:	20 91 b6 06 	lds	r18, 0x06B6	; 0x8006b6 <j>
    57e0:	30 91 b7 06 	lds	r19, 0x06B7	; 0x8006b7 <j+0x1>
    57e4:	82 1b       	sub	r24, r18
    57e6:	93 0b       	sbc	r25, r19
    57e8:	04 97       	sbiw	r24, 0x04	; 4
    57ea:	b4 f1       	brlt	.+108    	; 0x5858 <main+0x28c>
			{
				if((data_in[j]=='C') & (data_in[j+1]=='M') & (data_in[j+2]=='T') & (data_in[j+3]=='I'))
    57ec:	95 2d       	mov	r25, r5
    57ee:	f9 01       	movw	r30, r18
    57f0:	ee 5a       	subi	r30, 0xAE	; 174
    57f2:	f9 4f       	sbci	r31, 0xF9	; 249
    57f4:	81 81       	ldd	r24, Z+1	; 0x01
    57f6:	8d 34       	cpi	r24, 0x4D	; 77
    57f8:	09 f0       	breq	.+2      	; 0x57fc <main+0x230>
    57fa:	94 2d       	mov	r25, r4
    57fc:	85 2d       	mov	r24, r5
    57fe:	f9 01       	movw	r30, r18
    5800:	ee 5a       	subi	r30, 0xAE	; 174
    5802:	f9 4f       	sbci	r31, 0xF9	; 249
    5804:	42 81       	ldd	r20, Z+2	; 0x02
    5806:	44 35       	cpi	r20, 0x54	; 84
    5808:	09 f0       	breq	.+2      	; 0x580c <main+0x240>
    580a:	84 2d       	mov	r24, r4
    580c:	98 23       	and	r25, r24
    580e:	85 2d       	mov	r24, r5
    5810:	f9 01       	movw	r30, r18
    5812:	ee 5a       	subi	r30, 0xAE	; 174
    5814:	f9 4f       	sbci	r31, 0xF9	; 249
    5816:	40 81       	ld	r20, Z
    5818:	43 34       	cpi	r20, 0x43	; 67
    581a:	09 f0       	breq	.+2      	; 0x581e <main+0x252>
    581c:	84 2d       	mov	r24, r4
    581e:	89 23       	and	r24, r25
    5820:	d9 f0       	breq	.+54     	; 0x5858 <main+0x28c>
    5822:	f9 01       	movw	r30, r18
    5824:	ee 5a       	subi	r30, 0xAE	; 174
    5826:	f9 4f       	sbci	r31, 0xF9	; 249
    5828:	85 2d       	mov	r24, r5
    582a:	93 81       	ldd	r25, Z+3	; 0x03
    582c:	99 34       	cpi	r25, 0x49	; 73
    582e:	09 f0       	breq	.+2      	; 0x5832 <main+0x266>
    5830:	84 2d       	mov	r24, r4
    5832:	88 23       	and	r24, r24
    5834:	89 f0       	breq	.+34     	; 0x5858 <main+0x28c>
				{
					readinginprocess=true;
    5836:	50 92 4f 06 	sts	0x064F, r5	; 0x80064f <readinginprocess>
					//oled.OLED_Write_To_Bufer((i++)*8,1,1,8,C);
					//readfirst();
					count=1;
    583a:	b0 92 51 06 	sts	0x0651, r11	; 0x800651 <count+0x1>
    583e:	a0 92 50 06 	sts	0x0650, r10	; 0x800650 <count>
					j=-1;
    5842:	8f ef       	ldi	r24, 0xFF	; 255
    5844:	9f ef       	ldi	r25, 0xFF	; 255
    5846:	90 93 b7 06 	sts	0x06B7, r25	; 0x8006b7 <j+0x1>
    584a:	80 93 b6 06 	sts	0x06B6, r24	; 0x8006b6 <j>
				//	deleteall();
				//	send_SMS("Device status changed",owner_number);
				//PORTD=0b10000000;
				locked=!locked;
    584e:	80 91 3b 07 	lds	r24, 0x073B	; 0x80073b <locked>
    5852:	85 25       	eor	r24, r5
    5854:	80 93 3b 07 	sts	0x073B, r24	; 0x80073b <locked>
				}
			}
			j++;
    5858:	80 91 b6 06 	lds	r24, 0x06B6	; 0x8006b6 <j>
    585c:	90 91 b7 06 	lds	r25, 0x06B7	; 0x8006b7 <j+0x1>
    5860:	01 96       	adiw	r24, 0x01	; 1
    5862:	90 93 b7 06 	sts	0x06B7, r25	; 0x8006b7 <j+0x1>
    5866:	80 93 b6 06 	sts	0x06B6, r24	; 0x8006b6 <j>
			count--;
    586a:	80 91 50 06 	lds	r24, 0x0650	; 0x800650 <count>
    586e:	90 91 51 06 	lds	r25, 0x0651	; 0x800651 <count+0x1>
    5872:	01 97       	sbiw	r24, 0x01	; 1
    5874:	90 93 51 06 	sts	0x0651, r25	; 0x800651 <count+0x1>
    5878:	80 93 50 06 	sts	0x0650, r24	; 0x800650 <count>
		}
	if(count==0){
    587c:	80 91 50 06 	lds	r24, 0x0650	; 0x800650 <count>
    5880:	90 91 51 06 	lds	r25, 0x0651	; 0x800651 <count+0x1>
    5884:	89 2b       	or	r24, r25
    5886:	21 f4       	brne	.+8      	; 0x5890 <main+0x2c4>
	j=0;
    5888:	10 92 b7 06 	sts	0x06B7, r1	; 0x8006b7 <j+0x1>
    588c:	10 92 b6 06 	sts	0x06B6, r1	; 0x8006b6 <j>
		}
		
		
		check();
    5890:	0e 94 5d 16 	call	0x2cba	; 0x2cba <_Z5checkv>
		if (Password_Menu_Status)
    5894:	80 91 45 07 	lds	r24, 0x0745	; 0x800745 <Password_Menu_Status>
    5898:	88 23       	and	r24, r24
    589a:	09 f4       	brne	.+2      	; 0x589e <main+0x2d2>
    589c:	44 c0       	rjmp	.+136    	; 0x5926 <main+0x35a>

	};
	
	void Default() 
	{
		oled.OLED_Write_To_Bufer(x[0],y+1,1,8,line);
    589e:	4e 85       	ldd	r20, Y+14	; 0x0e
    58a0:	5f 85       	ldd	r21, Y+15	; 0x0f
    58a2:	4f 5f       	subi	r20, 0xFF	; 255
    58a4:	5f 4f       	sbci	r21, 0xFF	; 255
    58a6:	6c 81       	ldd	r22, Y+4	; 0x04
    58a8:	7d 81       	ldd	r23, Y+5	; 0x05
    58aa:	0f 2e       	mov	r0, r31
    58ac:	fb e4       	ldi	r31, 0x4B	; 75
    58ae:	ef 2e       	mov	r14, r31
    58b0:	f5 e0       	ldi	r31, 0x05	; 5
    58b2:	ff 2e       	mov	r15, r31
    58b4:	f0 2d       	mov	r31, r0
    58b6:	08 e0       	ldi	r16, 0x08	; 8
    58b8:	10 e0       	ldi	r17, 0x00	; 0
    58ba:	95 01       	movw	r18, r10
    58bc:	86 e4       	ldi	r24, 0x46	; 70
    58be:	97 e0       	ldi	r25, 0x07	; 7
    58c0:	0e 94 f2 38 	call	0x71e4	; 0x71e4 <_ZN4OLED19OLED_Write_To_BuferEiiiiPKh>
		oled.OLED_Write_To_Bufer(x[1],y+1,1,8,line);
    58c4:	4e 85       	ldd	r20, Y+14	; 0x0e
    58c6:	5f 85       	ldd	r21, Y+15	; 0x0f
    58c8:	4f 5f       	subi	r20, 0xFF	; 255
    58ca:	5f 4f       	sbci	r21, 0xFF	; 255
    58cc:	6e 81       	ldd	r22, Y+6	; 0x06
    58ce:	7f 81       	ldd	r23, Y+7	; 0x07
    58d0:	95 01       	movw	r18, r10
    58d2:	86 e4       	ldi	r24, 0x46	; 70
    58d4:	97 e0       	ldi	r25, 0x07	; 7
    58d6:	0e 94 f2 38 	call	0x71e4	; 0x71e4 <_ZN4OLED19OLED_Write_To_BuferEiiiiPKh>
		oled.OLED_Write_To_Bufer(x[2],y+1,1,8,line);
    58da:	4e 85       	ldd	r20, Y+14	; 0x0e
    58dc:	5f 85       	ldd	r21, Y+15	; 0x0f
    58de:	4f 5f       	subi	r20, 0xFF	; 255
    58e0:	5f 4f       	sbci	r21, 0xFF	; 255
    58e2:	68 85       	ldd	r22, Y+8	; 0x08
    58e4:	79 85       	ldd	r23, Y+9	; 0x09
    58e6:	95 01       	movw	r18, r10
    58e8:	86 e4       	ldi	r24, 0x46	; 70
    58ea:	97 e0       	ldi	r25, 0x07	; 7
    58ec:	0e 94 f2 38 	call	0x71e4	; 0x71e4 <_ZN4OLED19OLED_Write_To_BuferEiiiiPKh>
		oled.OLED_Write_To_Bufer(x[3],y+1,1,8,line);
    58f0:	4e 85       	ldd	r20, Y+14	; 0x0e
    58f2:	5f 85       	ldd	r21, Y+15	; 0x0f
    58f4:	4f 5f       	subi	r20, 0xFF	; 255
    58f6:	5f 4f       	sbci	r21, 0xFF	; 255
    58f8:	6a 85       	ldd	r22, Y+10	; 0x0a
    58fa:	7b 85       	ldd	r23, Y+11	; 0x0b
    58fc:	95 01       	movw	r18, r10
    58fe:	86 e4       	ldi	r24, 0x46	; 70
    5900:	97 e0       	ldi	r25, 0x07	; 7
    5902:	0e 94 f2 38 	call	0x71e4	; 0x71e4 <_ZN4OLED19OLED_Write_To_BuferEiiiiPKh>
		oled.OLED_Write_To_Bufer(x[4],y+1,1,8,line);
    5906:	4e 85       	ldd	r20, Y+14	; 0x0e
    5908:	5f 85       	ldd	r21, Y+15	; 0x0f
    590a:	4f 5f       	subi	r20, 0xFF	; 255
    590c:	5f 4f       	sbci	r21, 0xFF	; 255
    590e:	6c 85       	ldd	r22, Y+12	; 0x0c
    5910:	7d 85       	ldd	r23, Y+13	; 0x0d
    5912:	95 01       	movw	r18, r10
    5914:	86 e4       	ldi	r24, 0x46	; 70
    5916:	97 e0       	ldi	r25, 0x07	; 7
    5918:	0e 94 f2 38 	call	0x71e4	; 0x71e4 <_ZN4OLED19OLED_Write_To_BuferEiiiiPKh>
	
	void refresh() 
	{
				//oled.OLED_Bufer_Clear();
				Default();
				actions();
    591c:	ce 01       	movw	r24, r28
    591e:	0e 94 ac 02 	call	0x558	; 0x558 <_ZN13Password_Menu7actionsEv>
    5922:	0c 94 91 36 	jmp	0x6d22	; 0x6d22 <main+0x1756>
		check();
		if (Password_Menu_Status)
		{
			passw_menu.refresh();
		}
		else if (Main_Menu_Status)
    5926:	80 91 00 01 	lds	r24, 0x0100	; 0x800100 <Main_Menu_Status>
    592a:	88 23       	and	r24, r24
    592c:	09 f4       	brne	.+2      	; 0x5930 <main+0x364>
    592e:	a1 c0       	rjmp	.+322    	; 0x5a72 <main+0x4a6>

	};
	
    void Default() 
    {
		oled.OLED_Write_To_Bufer(MAIN_MENU_IMG_X-28,MAIN_MENU_IMG_Y+1,1,16,lt);
    5930:	0f 2e       	mov	r0, r31
    5932:	f3 ef       	ldi	r31, 0xF3	; 243
    5934:	ef 2e       	mov	r14, r31
    5936:	f2 e0       	ldi	r31, 0x02	; 2
    5938:	ff 2e       	mov	r15, r31
    593a:	f0 2d       	mov	r31, r0
    593c:	00 e1       	ldi	r16, 0x10	; 16
    593e:	10 e0       	ldi	r17, 0x00	; 0
    5940:	95 01       	movw	r18, r10
    5942:	43 e0       	ldi	r20, 0x03	; 3
    5944:	50 e0       	ldi	r21, 0x00	; 0
    5946:	66 e1       	ldi	r22, 0x16	; 22
    5948:	70 e0       	ldi	r23, 0x00	; 0
    594a:	86 e4       	ldi	r24, 0x46	; 70
    594c:	97 e0       	ldi	r25, 0x07	; 7
    594e:	0e 94 f2 38 	call	0x71e4	; 0x71e4 <_ZN4OLED19OLED_Write_To_BuferEiiiiPKh>
		oled.OLED_Write_To_Bufer(MAIN_MENU_IMG_X+52,MAIN_MENU_IMG_Y+1,1,16,rt);
    5952:	0f 2e       	mov	r0, r31
    5954:	f3 e8       	ldi	r31, 0x83	; 131
    5956:	ef 2e       	mov	r14, r31
    5958:	f3 e0       	ldi	r31, 0x03	; 3
    595a:	ff 2e       	mov	r15, r31
    595c:	f0 2d       	mov	r31, r0
    595e:	95 01       	movw	r18, r10
    5960:	43 e0       	ldi	r20, 0x03	; 3
    5962:	50 e0       	ldi	r21, 0x00	; 0
    5964:	66 e6       	ldi	r22, 0x66	; 102
    5966:	70 e0       	ldi	r23, 0x00	; 0
    5968:	86 e4       	ldi	r24, 0x46	; 70
    596a:	97 e0       	ldi	r25, 0x07	; 7
    596c:	0e 94 f2 38 	call	0x71e4	; 0x71e4 <_ZN4OLED19OLED_Write_To_BuferEiiiiPKh>
		
	};
	
	void actions()
	{
		switch(pointer)
    5970:	80 91 06 07 	lds	r24, 0x0706	; 0x800706 <menu>
    5974:	90 91 07 07 	lds	r25, 0x0707	; 0x800707 <menu+0x1>
    5978:	81 30       	cpi	r24, 0x01	; 1
    597a:	91 05       	cpc	r25, r1
    597c:	f1 f1       	breq	.+124    	; 0x59fa <main+0x42e>
    597e:	82 30       	cpi	r24, 0x02	; 2
    5980:	91 05       	cpc	r25, r1
    5982:	09 f4       	brne	.+2      	; 0x5986 <main+0x3ba>
    5984:	58 c0       	rjmp	.+176    	; 0x5a36 <main+0x46a>
    5986:	89 2b       	or	r24, r25
    5988:	11 f0       	breq	.+4      	; 0x598e <main+0x3c2>
    598a:	0c 94 91 36 	jmp	0x6d22	; 0x6d22 <main+0x1756>
		{
			case 0:
			{
				oled.OLED_Clear_Bufer_part(MAIN_MENU_IMG_X,MAIN_MENU_IMG_Y,4,32);
    598e:	00 e2       	ldi	r16, 0x20	; 32
    5990:	10 e0       	ldi	r17, 0x00	; 0
    5992:	24 e0       	ldi	r18, 0x04	; 4
    5994:	30 e0       	ldi	r19, 0x00	; 0
    5996:	42 e0       	ldi	r20, 0x02	; 2
    5998:	50 e0       	ldi	r21, 0x00	; 0
    599a:	62 e3       	ldi	r22, 0x32	; 50
    599c:	70 e0       	ldi	r23, 0x00	; 0
    599e:	86 e4       	ldi	r24, 0x46	; 70
    59a0:	97 e0       	ldi	r25, 0x07	; 7
    59a2:	0e 94 a3 38 	call	0x7146	; 0x7146 <_ZN4OLED21OLED_Clear_Bufer_partEiiii>
				if(!locked) oled.OLED_Write_To_Bufer(MAIN_MENU_IMG_X,MAIN_MENU_IMG_Y,4,32,unlock);
    59a6:	80 91 3b 07 	lds	r24, 0x073B	; 0x80073b <locked>
    59aa:	81 11       	cpse	r24, r1
    59ac:	12 c0       	rjmp	.+36     	; 0x59d2 <main+0x406>
    59ae:	0f 2e       	mov	r0, r31
    59b0:	f3 e0       	ldi	r31, 0x03	; 3
    59b2:	ef 2e       	mov	r14, r31
    59b4:	f3 e0       	ldi	r31, 0x03	; 3
    59b6:	ff 2e       	mov	r15, r31
    59b8:	f0 2d       	mov	r31, r0
    59ba:	24 e0       	ldi	r18, 0x04	; 4
    59bc:	30 e0       	ldi	r19, 0x00	; 0
    59be:	42 e0       	ldi	r20, 0x02	; 2
    59c0:	50 e0       	ldi	r21, 0x00	; 0
    59c2:	62 e3       	ldi	r22, 0x32	; 50
    59c4:	70 e0       	ldi	r23, 0x00	; 0
    59c6:	86 e4       	ldi	r24, 0x46	; 70
    59c8:	97 e0       	ldi	r25, 0x07	; 7
    59ca:	0e 94 f2 38 	call	0x71e4	; 0x71e4 <_ZN4OLED19OLED_Write_To_BuferEiiiiPKh>
    59ce:	0c 94 91 36 	jmp	0x6d22	; 0x6d22 <main+0x1756>
				else oled.OLED_Write_To_Bufer(MAIN_MENU_IMG_X,MAIN_MENU_IMG_Y,4,32,lock);
    59d2:	0f 2e       	mov	r0, r31
    59d4:	f3 e9       	ldi	r31, 0x93	; 147
    59d6:	ef 2e       	mov	r14, r31
    59d8:	f3 e0       	ldi	r31, 0x03	; 3
    59da:	ff 2e       	mov	r15, r31
    59dc:	f0 2d       	mov	r31, r0
    59de:	00 e2       	ldi	r16, 0x20	; 32
    59e0:	10 e0       	ldi	r17, 0x00	; 0
    59e2:	24 e0       	ldi	r18, 0x04	; 4
    59e4:	30 e0       	ldi	r19, 0x00	; 0
    59e6:	42 e0       	ldi	r20, 0x02	; 2
    59e8:	50 e0       	ldi	r21, 0x00	; 0
    59ea:	62 e3       	ldi	r22, 0x32	; 50
    59ec:	70 e0       	ldi	r23, 0x00	; 0
    59ee:	86 e4       	ldi	r24, 0x46	; 70
    59f0:	97 e0       	ldi	r25, 0x07	; 7
    59f2:	0e 94 f2 38 	call	0x71e4	; 0x71e4 <_ZN4OLED19OLED_Write_To_BuferEiiiiPKh>
    59f6:	0c 94 91 36 	jmp	0x6d22	; 0x6d22 <main+0x1756>
				break;
			}
			case 1:
			{
				oled.OLED_Clear_Bufer_part(MAIN_MENU_IMG_X,MAIN_MENU_IMG_Y,4,32);
    59fa:	00 e2       	ldi	r16, 0x20	; 32
    59fc:	10 e0       	ldi	r17, 0x00	; 0
    59fe:	24 e0       	ldi	r18, 0x04	; 4
    5a00:	30 e0       	ldi	r19, 0x00	; 0
    5a02:	42 e0       	ldi	r20, 0x02	; 2
    5a04:	50 e0       	ldi	r21, 0x00	; 0
    5a06:	62 e3       	ldi	r22, 0x32	; 50
    5a08:	70 e0       	ldi	r23, 0x00	; 0
    5a0a:	86 e4       	ldi	r24, 0x46	; 70
    5a0c:	97 e0       	ldi	r25, 0x07	; 7
    5a0e:	0e 94 a3 38 	call	0x7146	; 0x7146 <_ZN4OLED21OLED_Clear_Bufer_partEiiii>
				oled.OLED_Write_To_Bufer(MAIN_MENU_IMG_X,MAIN_MENU_IMG_Y,4,32,gear);
    5a12:	0f 2e       	mov	r0, r31
    5a14:	f3 ea       	ldi	r31, 0xA3	; 163
    5a16:	ef 2e       	mov	r14, r31
    5a18:	f4 e0       	ldi	r31, 0x04	; 4
    5a1a:	ff 2e       	mov	r15, r31
    5a1c:	f0 2d       	mov	r31, r0
    5a1e:	24 e0       	ldi	r18, 0x04	; 4
    5a20:	30 e0       	ldi	r19, 0x00	; 0
    5a22:	42 e0       	ldi	r20, 0x02	; 2
    5a24:	50 e0       	ldi	r21, 0x00	; 0
    5a26:	62 e3       	ldi	r22, 0x32	; 50
    5a28:	70 e0       	ldi	r23, 0x00	; 0
    5a2a:	86 e4       	ldi	r24, 0x46	; 70
    5a2c:	97 e0       	ldi	r25, 0x07	; 7
    5a2e:	0e 94 f2 38 	call	0x71e4	; 0x71e4 <_ZN4OLED19OLED_Write_To_BuferEiiiiPKh>
    5a32:	0c 94 91 36 	jmp	0x6d22	; 0x6d22 <main+0x1756>
				break;
			}
			case 2:
			{
				oled.OLED_Clear_Bufer_part(MAIN_MENU_IMG_X,MAIN_MENU_IMG_Y,4,32);
    5a36:	00 e2       	ldi	r16, 0x20	; 32
    5a38:	10 e0       	ldi	r17, 0x00	; 0
    5a3a:	24 e0       	ldi	r18, 0x04	; 4
    5a3c:	30 e0       	ldi	r19, 0x00	; 0
    5a3e:	42 e0       	ldi	r20, 0x02	; 2
    5a40:	50 e0       	ldi	r21, 0x00	; 0
    5a42:	62 e3       	ldi	r22, 0x32	; 50
    5a44:	70 e0       	ldi	r23, 0x00	; 0
    5a46:	86 e4       	ldi	r24, 0x46	; 70
    5a48:	97 e0       	ldi	r25, 0x07	; 7
    5a4a:	0e 94 a3 38 	call	0x7146	; 0x7146 <_ZN4OLED21OLED_Clear_Bufer_partEiiii>
				oled.OLED_Write_To_Bufer(MAIN_MENU_IMG_X,MAIN_MENU_IMG_Y,4,32,info);
    5a4e:	0f 2e       	mov	r0, r31
    5a50:	f3 e1       	ldi	r31, 0x13	; 19
    5a52:	ef 2e       	mov	r14, r31
    5a54:	f4 e0       	ldi	r31, 0x04	; 4
    5a56:	ff 2e       	mov	r15, r31
    5a58:	f0 2d       	mov	r31, r0
    5a5a:	24 e0       	ldi	r18, 0x04	; 4
    5a5c:	30 e0       	ldi	r19, 0x00	; 0
    5a5e:	42 e0       	ldi	r20, 0x02	; 2
    5a60:	50 e0       	ldi	r21, 0x00	; 0
    5a62:	62 e3       	ldi	r22, 0x32	; 50
    5a64:	70 e0       	ldi	r23, 0x00	; 0
    5a66:	86 e4       	ldi	r24, 0x46	; 70
    5a68:	97 e0       	ldi	r25, 0x07	; 7
    5a6a:	0e 94 f2 38 	call	0x71e4	; 0x71e4 <_ZN4OLED19OLED_Write_To_BuferEiiiiPKh>
    5a6e:	0c 94 91 36 	jmp	0x6d22	; 0x6d22 <main+0x1756>
		}
		else if (Main_Menu_Status)
		{
			menu.refresh();
		}
		else if (Settings_Menu_Status)
    5a72:	80 91 44 07 	lds	r24, 0x0744	; 0x800744 <Settings_Menu_Status>
    5a76:	88 23       	and	r24, r24
    5a78:	09 f4       	brne	.+2      	; 0x5a7c <main+0x4b0>
    5a7a:	b5 c3       	rjmp	.+1898   	; 0x61e6 <main+0xc1a>

	};
	
	void Default() 
	{
		oled.OLED_Write_To_Bufer(56,y+2,2,8,downwd);
    5a7c:	d4 01       	movw	r26, r8
    5a7e:	1a 96       	adiw	r26, 0x0a	; 10
    5a80:	4d 91       	ld	r20, X+
    5a82:	5c 91       	ld	r21, X
    5a84:	1b 97       	sbiw	r26, 0x0b	; 11
    5a86:	4e 5f       	subi	r20, 0xFE	; 254
    5a88:	5f 4f       	sbci	r21, 0xFF	; 255
    5a8a:	0f 2e       	mov	r0, r31
    5a8c:	f3 ed       	ldi	r31, 0xD3	; 211
    5a8e:	ef 2e       	mov	r14, r31
    5a90:	f2 e0       	ldi	r31, 0x02	; 2
    5a92:	ff 2e       	mov	r15, r31
    5a94:	f0 2d       	mov	r31, r0
    5a96:	08 e0       	ldi	r16, 0x08	; 8
    5a98:	10 e0       	ldi	r17, 0x00	; 0
    5a9a:	22 e0       	ldi	r18, 0x02	; 2
    5a9c:	30 e0       	ldi	r19, 0x00	; 0
    5a9e:	68 e3       	ldi	r22, 0x38	; 56
    5aa0:	70 e0       	ldi	r23, 0x00	; 0
    5aa2:	86 e4       	ldi	r24, 0x46	; 70
    5aa4:	97 e0       	ldi	r25, 0x07	; 7
    5aa6:	0e 94 f2 38 	call	0x71e4	; 0x71e4 <_ZN4OLED19OLED_Write_To_BuferEiiiiPKh>
		oled.OLED_Write_To_Bufer(56,y-2,2,8,upwd);
    5aaa:	f4 01       	movw	r30, r8
    5aac:	42 85       	ldd	r20, Z+10	; 0x0a
    5aae:	53 85       	ldd	r21, Z+11	; 0x0b
    5ab0:	42 50       	subi	r20, 0x02	; 2
    5ab2:	51 09       	sbc	r21, r1
    5ab4:	0f 2e       	mov	r0, r31
    5ab6:	f3 ee       	ldi	r31, 0xE3	; 227
    5ab8:	ef 2e       	mov	r14, r31
    5aba:	f2 e0       	ldi	r31, 0x02	; 2
    5abc:	ff 2e       	mov	r15, r31
    5abe:	f0 2d       	mov	r31, r0
    5ac0:	22 e0       	ldi	r18, 0x02	; 2
    5ac2:	30 e0       	ldi	r19, 0x00	; 0
    5ac4:	68 e3       	ldi	r22, 0x38	; 56
    5ac6:	70 e0       	ldi	r23, 0x00	; 0
    5ac8:	86 e4       	ldi	r24, 0x46	; 70
    5aca:	97 e0       	ldi	r25, 0x07	; 7
    5acc:	0e 94 f2 38 	call	0x71e4	; 0x71e4 <_ZN4OLED19OLED_Write_To_BuferEiiiiPKh>
		
	};
	
	void actions()
	{
		if(Settings_Menu_Status){
    5ad0:	80 91 44 07 	lds	r24, 0x0744	; 0x800744 <Settings_Menu_Status>
    5ad4:	88 23       	and	r24, r24
    5ad6:	11 f4       	brne	.+4      	; 0x5adc <main+0x510>
    5ad8:	0c 94 91 36 	jmp	0x6d22	; 0x6d22 <main+0x1756>
			switch(pointer)
    5adc:	d4 01       	movw	r26, r8
    5ade:	8d 91       	ld	r24, X+
    5ae0:	9c 91       	ld	r25, X
    5ae2:	81 30       	cpi	r24, 0x01	; 1
    5ae4:	91 05       	cpc	r25, r1
    5ae6:	09 f4       	brne	.+2      	; 0x5aea <main+0x51e>
    5ae8:	60 c1       	rjmp	.+704    	; 0x5daa <main+0x7de>
    5aea:	24 f4       	brge	.+8      	; 0x5af4 <main+0x528>
    5aec:	89 2b       	or	r24, r25
    5aee:	59 f0       	breq	.+22     	; 0x5b06 <main+0x53a>
    5af0:	0c 94 91 36 	jmp	0x6d22	; 0x6d22 <main+0x1756>
    5af4:	82 30       	cpi	r24, 0x02	; 2
    5af6:	91 05       	cpc	r25, r1
    5af8:	09 f4       	brne	.+2      	; 0x5afc <main+0x530>
    5afa:	7c c2       	rjmp	.+1272   	; 0x5ff4 <main+0xa28>
    5afc:	03 97       	sbiw	r24, 0x03	; 3
    5afe:	09 f4       	brne	.+2      	; 0x5b02 <main+0x536>
    5b00:	4b c3       	rjmp	.+1686   	; 0x6198 <main+0xbcc>
    5b02:	0c 94 91 36 	jmp	0x6d22	; 0x6d22 <main+0x1756>
			{
				case 0:
				{
					oled.OLED_Clear_Bufer_part(0,y,16,8);
    5b06:	f4 01       	movw	r30, r8
    5b08:	42 85       	ldd	r20, Z+10	; 0x0a
    5b0a:	53 85       	ldd	r21, Z+11	; 0x0b
    5b0c:	08 e0       	ldi	r16, 0x08	; 8
    5b0e:	10 e0       	ldi	r17, 0x00	; 0
    5b10:	20 e1       	ldi	r18, 0x10	; 16
    5b12:	30 e0       	ldi	r19, 0x00	; 0
    5b14:	60 e0       	ldi	r22, 0x00	; 0
    5b16:	70 e0       	ldi	r23, 0x00	; 0
    5b18:	86 e4       	ldi	r24, 0x46	; 70
    5b1a:	97 e0       	ldi	r25, 0x07	; 7
    5b1c:	0e 94 a3 38 	call	0x7146	; 0x7146 <_ZN4OLED21OLED_Clear_Bufer_partEiiii>
					oled.OLED_Write_To_Bufer(x[pointer]+0,y,1,8,S);
    5b20:	d4 01       	movw	r26, r8
    5b22:	1a 96       	adiw	r26, 0x0a	; 10
    5b24:	4d 91       	ld	r20, X+
    5b26:	5c 91       	ld	r21, X
    5b28:	1b 97       	sbiw	r26, 0x0b	; 11
    5b2a:	ed 91       	ld	r30, X+
    5b2c:	fc 91       	ld	r31, X
    5b2e:	ee 0f       	add	r30, r30
    5b30:	ff 1f       	adc	r31, r31
    5b32:	e6 5e       	subi	r30, 0xE6	; 230
    5b34:	f8 4f       	sbci	r31, 0xF8	; 248
    5b36:	60 81       	ld	r22, Z
    5b38:	71 81       	ldd	r23, Z+1	; 0x01
    5b3a:	0f 2e       	mov	r0, r31
    5b3c:	fb e9       	ldi	r31, 0x9B	; 155
    5b3e:	ef 2e       	mov	r14, r31
    5b40:	f1 e0       	ldi	r31, 0x01	; 1
    5b42:	ff 2e       	mov	r15, r31
    5b44:	f0 2d       	mov	r31, r0
    5b46:	95 01       	movw	r18, r10
    5b48:	86 e4       	ldi	r24, 0x46	; 70
    5b4a:	97 e0       	ldi	r25, 0x07	; 7
    5b4c:	0e 94 f2 38 	call	0x71e4	; 0x71e4 <_ZN4OLED19OLED_Write_To_BuferEiiiiPKh>
					oled.OLED_Write_To_Bufer(x[pointer]+8,y,1,8,E);
    5b50:	f4 01       	movw	r30, r8
    5b52:	42 85       	ldd	r20, Z+10	; 0x0a
    5b54:	53 85       	ldd	r21, Z+11	; 0x0b
    5b56:	01 90       	ld	r0, Z+
    5b58:	f0 81       	ld	r31, Z
    5b5a:	e0 2d       	mov	r30, r0
    5b5c:	ee 0f       	add	r30, r30
    5b5e:	ff 1f       	adc	r31, r31
    5b60:	e6 5e       	subi	r30, 0xE6	; 230
    5b62:	f8 4f       	sbci	r31, 0xF8	; 248
    5b64:	60 81       	ld	r22, Z
    5b66:	71 81       	ldd	r23, Z+1	; 0x01
    5b68:	68 5f       	subi	r22, 0xF8	; 248
    5b6a:	7f 4f       	sbci	r23, 0xFF	; 255
    5b6c:	0f 2e       	mov	r0, r31
    5b6e:	fb ef       	ldi	r31, 0xFB	; 251
    5b70:	ef 2e       	mov	r14, r31
    5b72:	f1 e0       	ldi	r31, 0x01	; 1
    5b74:	ff 2e       	mov	r15, r31
    5b76:	f0 2d       	mov	r31, r0
    5b78:	95 01       	movw	r18, r10
    5b7a:	86 e4       	ldi	r24, 0x46	; 70
    5b7c:	97 e0       	ldi	r25, 0x07	; 7
    5b7e:	0e 94 f2 38 	call	0x71e4	; 0x71e4 <_ZN4OLED19OLED_Write_To_BuferEiiiiPKh>
					oled.OLED_Write_To_Bufer(x[pointer]+16,y,1,8,T);
    5b82:	d4 01       	movw	r26, r8
    5b84:	1a 96       	adiw	r26, 0x0a	; 10
    5b86:	4d 91       	ld	r20, X+
    5b88:	5c 91       	ld	r21, X
    5b8a:	1b 97       	sbiw	r26, 0x0b	; 11
    5b8c:	ed 91       	ld	r30, X+
    5b8e:	fc 91       	ld	r31, X
    5b90:	ee 0f       	add	r30, r30
    5b92:	ff 1f       	adc	r31, r31
    5b94:	e6 5e       	subi	r30, 0xE6	; 230
    5b96:	f8 4f       	sbci	r31, 0xF8	; 248
    5b98:	60 81       	ld	r22, Z
    5b9a:	71 81       	ldd	r23, Z+1	; 0x01
    5b9c:	60 5f       	subi	r22, 0xF0	; 240
    5b9e:	7f 4f       	sbci	r23, 0xFF	; 255
    5ba0:	0f 2e       	mov	r0, r31
    5ba2:	f3 e9       	ldi	r31, 0x93	; 147
    5ba4:	ef 2e       	mov	r14, r31
    5ba6:	f1 e0       	ldi	r31, 0x01	; 1
    5ba8:	ff 2e       	mov	r15, r31
    5baa:	f0 2d       	mov	r31, r0
    5bac:	95 01       	movw	r18, r10
    5bae:	86 e4       	ldi	r24, 0x46	; 70
    5bb0:	97 e0       	ldi	r25, 0x07	; 7
    5bb2:	0e 94 f2 38 	call	0x71e4	; 0x71e4 <_ZN4OLED19OLED_Write_To_BuferEiiiiPKh>
					oled.OLED_Write_To_Bufer(x[pointer]+32,y,1,8,B);
    5bb6:	f4 01       	movw	r30, r8
    5bb8:	42 85       	ldd	r20, Z+10	; 0x0a
    5bba:	53 85       	ldd	r21, Z+11	; 0x0b
    5bbc:	01 90       	ld	r0, Z+
    5bbe:	f0 81       	ld	r31, Z
    5bc0:	e0 2d       	mov	r30, r0
    5bc2:	ee 0f       	add	r30, r30
    5bc4:	ff 1f       	adc	r31, r31
    5bc6:	e6 5e       	subi	r30, 0xE6	; 230
    5bc8:	f8 4f       	sbci	r31, 0xF8	; 248
    5bca:	60 81       	ld	r22, Z
    5bcc:	71 81       	ldd	r23, Z+1	; 0x01
    5bce:	60 5e       	subi	r22, 0xE0	; 224
    5bd0:	7f 4f       	sbci	r23, 0xFF	; 255
    5bd2:	0f 2e       	mov	r0, r31
    5bd4:	f3 e1       	ldi	r31, 0x13	; 19
    5bd6:	ef 2e       	mov	r14, r31
    5bd8:	f2 e0       	ldi	r31, 0x02	; 2
    5bda:	ff 2e       	mov	r15, r31
    5bdc:	f0 2d       	mov	r31, r0
    5bde:	95 01       	movw	r18, r10
    5be0:	86 e4       	ldi	r24, 0x46	; 70
    5be2:	97 e0       	ldi	r25, 0x07	; 7
    5be4:	0e 94 f2 38 	call	0x71e4	; 0x71e4 <_ZN4OLED19OLED_Write_To_BuferEiiiiPKh>
					oled.OLED_Write_To_Bufer(x[pointer]+40,y,1,8,R);
    5be8:	d4 01       	movw	r26, r8
    5bea:	1a 96       	adiw	r26, 0x0a	; 10
    5bec:	4d 91       	ld	r20, X+
    5bee:	5c 91       	ld	r21, X
    5bf0:	1b 97       	sbiw	r26, 0x0b	; 11
    5bf2:	ed 91       	ld	r30, X+
    5bf4:	fc 91       	ld	r31, X
    5bf6:	ee 0f       	add	r30, r30
    5bf8:	ff 1f       	adc	r31, r31
    5bfa:	e6 5e       	subi	r30, 0xE6	; 230
    5bfc:	f8 4f       	sbci	r31, 0xF8	; 248
    5bfe:	60 81       	ld	r22, Z
    5c00:	71 81       	ldd	r23, Z+1	; 0x01
    5c02:	68 5d       	subi	r22, 0xD8	; 216
    5c04:	7f 4f       	sbci	r23, 0xFF	; 255
    5c06:	0f 2e       	mov	r0, r31
    5c08:	f3 ea       	ldi	r31, 0xA3	; 163
    5c0a:	ef 2e       	mov	r14, r31
    5c0c:	f1 e0       	ldi	r31, 0x01	; 1
    5c0e:	ff 2e       	mov	r15, r31
    5c10:	f0 2d       	mov	r31, r0
    5c12:	95 01       	movw	r18, r10
    5c14:	86 e4       	ldi	r24, 0x46	; 70
    5c16:	97 e0       	ldi	r25, 0x07	; 7
    5c18:	0e 94 f2 38 	call	0x71e4	; 0x71e4 <_ZN4OLED19OLED_Write_To_BuferEiiiiPKh>
					oled.OLED_Write_To_Bufer(x[pointer]+48,y,1,8,I);
    5c1c:	f4 01       	movw	r30, r8
    5c1e:	42 85       	ldd	r20, Z+10	; 0x0a
    5c20:	53 85       	ldd	r21, Z+11	; 0x0b
    5c22:	01 90       	ld	r0, Z+
    5c24:	f0 81       	ld	r31, Z
    5c26:	e0 2d       	mov	r30, r0
    5c28:	ee 0f       	add	r30, r30
    5c2a:	ff 1f       	adc	r31, r31
    5c2c:	e6 5e       	subi	r30, 0xE6	; 230
    5c2e:	f8 4f       	sbci	r31, 0xF8	; 248
    5c30:	60 81       	ld	r22, Z
    5c32:	71 81       	ldd	r23, Z+1	; 0x01
    5c34:	60 5d       	subi	r22, 0xD0	; 208
    5c36:	7f 4f       	sbci	r23, 0xFF	; 255
    5c38:	0f 2e       	mov	r0, r31
    5c3a:	fb ed       	ldi	r31, 0xDB	; 219
    5c3c:	ef 2e       	mov	r14, r31
    5c3e:	f1 e0       	ldi	r31, 0x01	; 1
    5c40:	ff 2e       	mov	r15, r31
    5c42:	f0 2d       	mov	r31, r0
    5c44:	95 01       	movw	r18, r10
    5c46:	86 e4       	ldi	r24, 0x46	; 70
    5c48:	97 e0       	ldi	r25, 0x07	; 7
    5c4a:	0e 94 f2 38 	call	0x71e4	; 0x71e4 <_ZN4OLED19OLED_Write_To_BuferEiiiiPKh>
					oled.OLED_Write_To_Bufer(x[pointer]+56,y,1,8,G);
    5c4e:	d4 01       	movw	r26, r8
    5c50:	1a 96       	adiw	r26, 0x0a	; 10
    5c52:	4d 91       	ld	r20, X+
    5c54:	5c 91       	ld	r21, X
    5c56:	1b 97       	sbiw	r26, 0x0b	; 11
    5c58:	ed 91       	ld	r30, X+
    5c5a:	fc 91       	ld	r31, X
    5c5c:	ee 0f       	add	r30, r30
    5c5e:	ff 1f       	adc	r31, r31
    5c60:	e6 5e       	subi	r30, 0xE6	; 230
    5c62:	f8 4f       	sbci	r31, 0xF8	; 248
    5c64:	60 81       	ld	r22, Z
    5c66:	71 81       	ldd	r23, Z+1	; 0x01
    5c68:	68 5c       	subi	r22, 0xC8	; 200
    5c6a:	7f 4f       	sbci	r23, 0xFF	; 255
    5c6c:	0f 2e       	mov	r0, r31
    5c6e:	fb ee       	ldi	r31, 0xEB	; 235
    5c70:	ef 2e       	mov	r14, r31
    5c72:	f1 e0       	ldi	r31, 0x01	; 1
    5c74:	ff 2e       	mov	r15, r31
    5c76:	f0 2d       	mov	r31, r0
    5c78:	95 01       	movw	r18, r10
    5c7a:	86 e4       	ldi	r24, 0x46	; 70
    5c7c:	97 e0       	ldi	r25, 0x07	; 7
    5c7e:	0e 94 f2 38 	call	0x71e4	; 0x71e4 <_ZN4OLED19OLED_Write_To_BuferEiiiiPKh>
					oled.OLED_Write_To_Bufer(x[pointer]+64,y,1,8,H);
    5c82:	f4 01       	movw	r30, r8
    5c84:	42 85       	ldd	r20, Z+10	; 0x0a
    5c86:	53 85       	ldd	r21, Z+11	; 0x0b
    5c88:	01 90       	ld	r0, Z+
    5c8a:	f0 81       	ld	r31, Z
    5c8c:	e0 2d       	mov	r30, r0
    5c8e:	ee 0f       	add	r30, r30
    5c90:	ff 1f       	adc	r31, r31
    5c92:	e6 5e       	subi	r30, 0xE6	; 230
    5c94:	f8 4f       	sbci	r31, 0xF8	; 248
    5c96:	60 81       	ld	r22, Z
    5c98:	71 81       	ldd	r23, Z+1	; 0x01
    5c9a:	60 5c       	subi	r22, 0xC0	; 192
    5c9c:	7f 4f       	sbci	r23, 0xFF	; 255
    5c9e:	0f 2e       	mov	r0, r31
    5ca0:	f3 ee       	ldi	r31, 0xE3	; 227
    5ca2:	ef 2e       	mov	r14, r31
    5ca4:	f1 e0       	ldi	r31, 0x01	; 1
    5ca6:	ff 2e       	mov	r15, r31
    5ca8:	f0 2d       	mov	r31, r0
    5caa:	95 01       	movw	r18, r10
    5cac:	86 e4       	ldi	r24, 0x46	; 70
    5cae:	97 e0       	ldi	r25, 0x07	; 7
    5cb0:	0e 94 f2 38 	call	0x71e4	; 0x71e4 <_ZN4OLED19OLED_Write_To_BuferEiiiiPKh>
					oled.OLED_Write_To_Bufer(x[pointer]+72,y,1,8,T);
    5cb4:	d4 01       	movw	r26, r8
    5cb6:	1a 96       	adiw	r26, 0x0a	; 10
    5cb8:	4d 91       	ld	r20, X+
    5cba:	5c 91       	ld	r21, X
    5cbc:	1b 97       	sbiw	r26, 0x0b	; 11
    5cbe:	ed 91       	ld	r30, X+
    5cc0:	fc 91       	ld	r31, X
    5cc2:	ee 0f       	add	r30, r30
    5cc4:	ff 1f       	adc	r31, r31
    5cc6:	e6 5e       	subi	r30, 0xE6	; 230
    5cc8:	f8 4f       	sbci	r31, 0xF8	; 248
    5cca:	60 81       	ld	r22, Z
    5ccc:	71 81       	ldd	r23, Z+1	; 0x01
    5cce:	68 5b       	subi	r22, 0xB8	; 184
    5cd0:	7f 4f       	sbci	r23, 0xFF	; 255
    5cd2:	0f 2e       	mov	r0, r31
    5cd4:	f3 e9       	ldi	r31, 0x93	; 147
    5cd6:	ef 2e       	mov	r14, r31
    5cd8:	f1 e0       	ldi	r31, 0x01	; 1
    5cda:	ff 2e       	mov	r15, r31
    5cdc:	f0 2d       	mov	r31, r0
    5cde:	95 01       	movw	r18, r10
    5ce0:	86 e4       	ldi	r24, 0x46	; 70
    5ce2:	97 e0       	ldi	r25, 0x07	; 7
    5ce4:	0e 94 f2 38 	call	0x71e4	; 0x71e4 <_ZN4OLED19OLED_Write_To_BuferEiiiiPKh>
					oled.OLED_Write_To_Bufer(x[pointer]+80,y,1,8,N);
    5ce8:	f4 01       	movw	r30, r8
    5cea:	42 85       	ldd	r20, Z+10	; 0x0a
    5cec:	53 85       	ldd	r21, Z+11	; 0x0b
    5cee:	01 90       	ld	r0, Z+
    5cf0:	f0 81       	ld	r31, Z
    5cf2:	e0 2d       	mov	r30, r0
    5cf4:	ee 0f       	add	r30, r30
    5cf6:	ff 1f       	adc	r31, r31
    5cf8:	e6 5e       	subi	r30, 0xE6	; 230
    5cfa:	f8 4f       	sbci	r31, 0xF8	; 248
    5cfc:	60 81       	ld	r22, Z
    5cfe:	71 81       	ldd	r23, Z+1	; 0x01
    5d00:	60 5b       	subi	r22, 0xB0	; 176
    5d02:	7f 4f       	sbci	r23, 0xFF	; 255
    5d04:	0f 2e       	mov	r0, r31
    5d06:	f3 eb       	ldi	r31, 0xB3	; 179
    5d08:	ef 2e       	mov	r14, r31
    5d0a:	f1 e0       	ldi	r31, 0x01	; 1
    5d0c:	ff 2e       	mov	r15, r31
    5d0e:	f0 2d       	mov	r31, r0
    5d10:	95 01       	movw	r18, r10
    5d12:	86 e4       	ldi	r24, 0x46	; 70
    5d14:	97 e0       	ldi	r25, 0x07	; 7
    5d16:	0e 94 f2 38 	call	0x71e4	; 0x71e4 <_ZN4OLED19OLED_Write_To_BuferEiiiiPKh>
					oled.OLED_Write_To_Bufer(x[pointer]+88,y,1,8,E);
    5d1a:	d4 01       	movw	r26, r8
    5d1c:	1a 96       	adiw	r26, 0x0a	; 10
    5d1e:	4d 91       	ld	r20, X+
    5d20:	5c 91       	ld	r21, X
    5d22:	1b 97       	sbiw	r26, 0x0b	; 11
    5d24:	ed 91       	ld	r30, X+
    5d26:	fc 91       	ld	r31, X
    5d28:	ee 0f       	add	r30, r30
    5d2a:	ff 1f       	adc	r31, r31
    5d2c:	e6 5e       	subi	r30, 0xE6	; 230
    5d2e:	f8 4f       	sbci	r31, 0xF8	; 248
    5d30:	60 81       	ld	r22, Z
    5d32:	71 81       	ldd	r23, Z+1	; 0x01
    5d34:	68 5a       	subi	r22, 0xA8	; 168
    5d36:	7f 4f       	sbci	r23, 0xFF	; 255
    5d38:	0f 2e       	mov	r0, r31
    5d3a:	fb ef       	ldi	r31, 0xFB	; 251
    5d3c:	ef 2e       	mov	r14, r31
    5d3e:	f1 e0       	ldi	r31, 0x01	; 1
    5d40:	ff 2e       	mov	r15, r31
    5d42:	f0 2d       	mov	r31, r0
    5d44:	95 01       	movw	r18, r10
    5d46:	86 e4       	ldi	r24, 0x46	; 70
    5d48:	97 e0       	ldi	r25, 0x07	; 7
    5d4a:	0e 94 f2 38 	call	0x71e4	; 0x71e4 <_ZN4OLED19OLED_Write_To_BuferEiiiiPKh>
					oled.OLED_Write_To_Bufer(x[pointer]+96,y,1,8,S);
    5d4e:	f4 01       	movw	r30, r8
    5d50:	42 85       	ldd	r20, Z+10	; 0x0a
    5d52:	53 85       	ldd	r21, Z+11	; 0x0b
    5d54:	01 90       	ld	r0, Z+
    5d56:	f0 81       	ld	r31, Z
    5d58:	e0 2d       	mov	r30, r0
    5d5a:	ee 0f       	add	r30, r30
    5d5c:	ff 1f       	adc	r31, r31
    5d5e:	e6 5e       	subi	r30, 0xE6	; 230
    5d60:	f8 4f       	sbci	r31, 0xF8	; 248
    5d62:	60 81       	ld	r22, Z
    5d64:	71 81       	ldd	r23, Z+1	; 0x01
    5d66:	60 5a       	subi	r22, 0xA0	; 160
    5d68:	7f 4f       	sbci	r23, 0xFF	; 255
    5d6a:	0f 2e       	mov	r0, r31
    5d6c:	fb e9       	ldi	r31, 0x9B	; 155
    5d6e:	ef 2e       	mov	r14, r31
    5d70:	f1 e0       	ldi	r31, 0x01	; 1
    5d72:	ff 2e       	mov	r15, r31
    5d74:	f0 2d       	mov	r31, r0
    5d76:	95 01       	movw	r18, r10
    5d78:	86 e4       	ldi	r24, 0x46	; 70
    5d7a:	97 e0       	ldi	r25, 0x07	; 7
    5d7c:	0e 94 f2 38 	call	0x71e4	; 0x71e4 <_ZN4OLED19OLED_Write_To_BuferEiiiiPKh>
					oled.OLED_Write_To_Bufer(x[pointer]+104,y,1,8,S);
    5d80:	d4 01       	movw	r26, r8
    5d82:	1a 96       	adiw	r26, 0x0a	; 10
    5d84:	4d 91       	ld	r20, X+
    5d86:	5c 91       	ld	r21, X
    5d88:	1b 97       	sbiw	r26, 0x0b	; 11
    5d8a:	ed 91       	ld	r30, X+
    5d8c:	fc 91       	ld	r31, X
    5d8e:	ee 0f       	add	r30, r30
    5d90:	ff 1f       	adc	r31, r31
    5d92:	e6 5e       	subi	r30, 0xE6	; 230
    5d94:	f8 4f       	sbci	r31, 0xF8	; 248
    5d96:	60 81       	ld	r22, Z
    5d98:	71 81       	ldd	r23, Z+1	; 0x01
    5d9a:	68 59       	subi	r22, 0x98	; 152
    5d9c:	7f 4f       	sbci	r23, 0xFF	; 255
    5d9e:	95 01       	movw	r18, r10
    5da0:	86 e4       	ldi	r24, 0x46	; 70
    5da2:	97 e0       	ldi	r25, 0x07	; 7
    5da4:	0e 94 f2 38 	call	0x71e4	; 0x71e4 <_ZN4OLED19OLED_Write_To_BuferEiiiiPKh>
    5da8:	bc c7       	rjmp	.+3960   	; 0x6d22 <main+0x1756>
					break;
				}
				case 1:
				{
					oled.OLED_Clear_Bufer_part(0,y,16,8);
    5daa:	f4 01       	movw	r30, r8
    5dac:	42 85       	ldd	r20, Z+10	; 0x0a
    5dae:	53 85       	ldd	r21, Z+11	; 0x0b
    5db0:	08 e0       	ldi	r16, 0x08	; 8
    5db2:	10 e0       	ldi	r17, 0x00	; 0
    5db4:	20 e1       	ldi	r18, 0x10	; 16
    5db6:	30 e0       	ldi	r19, 0x00	; 0
    5db8:	60 e0       	ldi	r22, 0x00	; 0
    5dba:	70 e0       	ldi	r23, 0x00	; 0
    5dbc:	86 e4       	ldi	r24, 0x46	; 70
    5dbe:	97 e0       	ldi	r25, 0x07	; 7
    5dc0:	0e 94 a3 38 	call	0x7146	; 0x7146 <_ZN4OLED21OLED_Clear_Bufer_partEiiii>
					oled.OLED_Write_To_Bufer(x[pointer]+0,y,1,8,R);
    5dc4:	d4 01       	movw	r26, r8
    5dc6:	1a 96       	adiw	r26, 0x0a	; 10
    5dc8:	4d 91       	ld	r20, X+
    5dca:	5c 91       	ld	r21, X
    5dcc:	1b 97       	sbiw	r26, 0x0b	; 11
    5dce:	ed 91       	ld	r30, X+
    5dd0:	fc 91       	ld	r31, X
    5dd2:	ee 0f       	add	r30, r30
    5dd4:	ff 1f       	adc	r31, r31
    5dd6:	e6 5e       	subi	r30, 0xE6	; 230
    5dd8:	f8 4f       	sbci	r31, 0xF8	; 248
    5dda:	60 81       	ld	r22, Z
    5ddc:	71 81       	ldd	r23, Z+1	; 0x01
    5dde:	0f 2e       	mov	r0, r31
    5de0:	f3 ea       	ldi	r31, 0xA3	; 163
    5de2:	ef 2e       	mov	r14, r31
    5de4:	f1 e0       	ldi	r31, 0x01	; 1
    5de6:	ff 2e       	mov	r15, r31
    5de8:	f0 2d       	mov	r31, r0
    5dea:	95 01       	movw	r18, r10
    5dec:	86 e4       	ldi	r24, 0x46	; 70
    5dee:	97 e0       	ldi	r25, 0x07	; 7
    5df0:	0e 94 f2 38 	call	0x71e4	; 0x71e4 <_ZN4OLED19OLED_Write_To_BuferEiiiiPKh>
					oled.OLED_Write_To_Bufer(x[pointer]+8,y,1,8,E);
    5df4:	f4 01       	movw	r30, r8
    5df6:	42 85       	ldd	r20, Z+10	; 0x0a
    5df8:	53 85       	ldd	r21, Z+11	; 0x0b
    5dfa:	01 90       	ld	r0, Z+
    5dfc:	f0 81       	ld	r31, Z
    5dfe:	e0 2d       	mov	r30, r0
    5e00:	ee 0f       	add	r30, r30
    5e02:	ff 1f       	adc	r31, r31
    5e04:	e6 5e       	subi	r30, 0xE6	; 230
    5e06:	f8 4f       	sbci	r31, 0xF8	; 248
    5e08:	60 81       	ld	r22, Z
    5e0a:	71 81       	ldd	r23, Z+1	; 0x01
    5e0c:	68 5f       	subi	r22, 0xF8	; 248
    5e0e:	7f 4f       	sbci	r23, 0xFF	; 255
    5e10:	0f 2e       	mov	r0, r31
    5e12:	fb ef       	ldi	r31, 0xFB	; 251
    5e14:	ef 2e       	mov	r14, r31
    5e16:	f1 e0       	ldi	r31, 0x01	; 1
    5e18:	ff 2e       	mov	r15, r31
    5e1a:	f0 2d       	mov	r31, r0
    5e1c:	95 01       	movw	r18, r10
    5e1e:	86 e4       	ldi	r24, 0x46	; 70
    5e20:	97 e0       	ldi	r25, 0x07	; 7
    5e22:	0e 94 f2 38 	call	0x71e4	; 0x71e4 <_ZN4OLED19OLED_Write_To_BuferEiiiiPKh>
					oled.OLED_Write_To_Bufer(x[pointer]+16,y,1,8,S);
    5e26:	d4 01       	movw	r26, r8
    5e28:	1a 96       	adiw	r26, 0x0a	; 10
    5e2a:	4d 91       	ld	r20, X+
    5e2c:	5c 91       	ld	r21, X
    5e2e:	1b 97       	sbiw	r26, 0x0b	; 11
    5e30:	ed 91       	ld	r30, X+
    5e32:	fc 91       	ld	r31, X
    5e34:	ee 0f       	add	r30, r30
    5e36:	ff 1f       	adc	r31, r31
    5e38:	e6 5e       	subi	r30, 0xE6	; 230
    5e3a:	f8 4f       	sbci	r31, 0xF8	; 248
    5e3c:	60 81       	ld	r22, Z
    5e3e:	71 81       	ldd	r23, Z+1	; 0x01
    5e40:	60 5f       	subi	r22, 0xF0	; 240
    5e42:	7f 4f       	sbci	r23, 0xFF	; 255
    5e44:	0f 2e       	mov	r0, r31
    5e46:	fb e9       	ldi	r31, 0x9B	; 155
    5e48:	ef 2e       	mov	r14, r31
    5e4a:	f1 e0       	ldi	r31, 0x01	; 1
    5e4c:	ff 2e       	mov	r15, r31
    5e4e:	f0 2d       	mov	r31, r0
    5e50:	95 01       	movw	r18, r10
    5e52:	86 e4       	ldi	r24, 0x46	; 70
    5e54:	97 e0       	ldi	r25, 0x07	; 7
    5e56:	0e 94 f2 38 	call	0x71e4	; 0x71e4 <_ZN4OLED19OLED_Write_To_BuferEiiiiPKh>
					oled.OLED_Write_To_Bufer(x[pointer]+24,y,1,8,E);
    5e5a:	f4 01       	movw	r30, r8
    5e5c:	42 85       	ldd	r20, Z+10	; 0x0a
    5e5e:	53 85       	ldd	r21, Z+11	; 0x0b
    5e60:	01 90       	ld	r0, Z+
    5e62:	f0 81       	ld	r31, Z
    5e64:	e0 2d       	mov	r30, r0
    5e66:	ee 0f       	add	r30, r30
    5e68:	ff 1f       	adc	r31, r31
    5e6a:	e6 5e       	subi	r30, 0xE6	; 230
    5e6c:	f8 4f       	sbci	r31, 0xF8	; 248
    5e6e:	60 81       	ld	r22, Z
    5e70:	71 81       	ldd	r23, Z+1	; 0x01
    5e72:	68 5e       	subi	r22, 0xE8	; 232
    5e74:	7f 4f       	sbci	r23, 0xFF	; 255
    5e76:	0f 2e       	mov	r0, r31
    5e78:	fb ef       	ldi	r31, 0xFB	; 251
    5e7a:	ef 2e       	mov	r14, r31
    5e7c:	f1 e0       	ldi	r31, 0x01	; 1
    5e7e:	ff 2e       	mov	r15, r31
    5e80:	f0 2d       	mov	r31, r0
    5e82:	95 01       	movw	r18, r10
    5e84:	86 e4       	ldi	r24, 0x46	; 70
    5e86:	97 e0       	ldi	r25, 0x07	; 7
    5e88:	0e 94 f2 38 	call	0x71e4	; 0x71e4 <_ZN4OLED19OLED_Write_To_BuferEiiiiPKh>
					oled.OLED_Write_To_Bufer(x[pointer]+32,y,1,8,T);
    5e8c:	d4 01       	movw	r26, r8
    5e8e:	1a 96       	adiw	r26, 0x0a	; 10
    5e90:	4d 91       	ld	r20, X+
    5e92:	5c 91       	ld	r21, X
    5e94:	1b 97       	sbiw	r26, 0x0b	; 11
    5e96:	ed 91       	ld	r30, X+
    5e98:	fc 91       	ld	r31, X
    5e9a:	ee 0f       	add	r30, r30
    5e9c:	ff 1f       	adc	r31, r31
    5e9e:	e6 5e       	subi	r30, 0xE6	; 230
    5ea0:	f8 4f       	sbci	r31, 0xF8	; 248
    5ea2:	60 81       	ld	r22, Z
    5ea4:	71 81       	ldd	r23, Z+1	; 0x01
    5ea6:	60 5e       	subi	r22, 0xE0	; 224
    5ea8:	7f 4f       	sbci	r23, 0xFF	; 255
    5eaa:	0f 2e       	mov	r0, r31
    5eac:	f3 e9       	ldi	r31, 0x93	; 147
    5eae:	ef 2e       	mov	r14, r31
    5eb0:	f1 e0       	ldi	r31, 0x01	; 1
    5eb2:	ff 2e       	mov	r15, r31
    5eb4:	f0 2d       	mov	r31, r0
    5eb6:	95 01       	movw	r18, r10
    5eb8:	86 e4       	ldi	r24, 0x46	; 70
    5eba:	97 e0       	ldi	r25, 0x07	; 7
    5ebc:	0e 94 f2 38 	call	0x71e4	; 0x71e4 <_ZN4OLED19OLED_Write_To_BuferEiiiiPKh>
					oled.OLED_Write_To_Bufer(x[pointer]+48,y,1,8,D);
    5ec0:	f4 01       	movw	r30, r8
    5ec2:	42 85       	ldd	r20, Z+10	; 0x0a
    5ec4:	53 85       	ldd	r21, Z+11	; 0x0b
    5ec6:	01 90       	ld	r0, Z+
    5ec8:	f0 81       	ld	r31, Z
    5eca:	e0 2d       	mov	r30, r0
    5ecc:	ee 0f       	add	r30, r30
    5ece:	ff 1f       	adc	r31, r31
    5ed0:	e6 5e       	subi	r30, 0xE6	; 230
    5ed2:	f8 4f       	sbci	r31, 0xF8	; 248
    5ed4:	60 81       	ld	r22, Z
    5ed6:	71 81       	ldd	r23, Z+1	; 0x01
    5ed8:	60 5d       	subi	r22, 0xD0	; 208
    5eda:	7f 4f       	sbci	r23, 0xFF	; 255
    5edc:	0f 2e       	mov	r0, r31
    5ede:	f3 e0       	ldi	r31, 0x03	; 3
    5ee0:	ef 2e       	mov	r14, r31
    5ee2:	f2 e0       	ldi	r31, 0x02	; 2
    5ee4:	ff 2e       	mov	r15, r31
    5ee6:	f0 2d       	mov	r31, r0
    5ee8:	95 01       	movw	r18, r10
    5eea:	86 e4       	ldi	r24, 0x46	; 70
    5eec:	97 e0       	ldi	r25, 0x07	; 7
    5eee:	0e 94 f2 38 	call	0x71e4	; 0x71e4 <_ZN4OLED19OLED_Write_To_BuferEiiiiPKh>
					oled.OLED_Write_To_Bufer(x[pointer]+56,y,1,8,E);
    5ef2:	d4 01       	movw	r26, r8
    5ef4:	1a 96       	adiw	r26, 0x0a	; 10
    5ef6:	4d 91       	ld	r20, X+
    5ef8:	5c 91       	ld	r21, X
    5efa:	1b 97       	sbiw	r26, 0x0b	; 11
    5efc:	ed 91       	ld	r30, X+
    5efe:	fc 91       	ld	r31, X
    5f00:	ee 0f       	add	r30, r30
    5f02:	ff 1f       	adc	r31, r31
    5f04:	e6 5e       	subi	r30, 0xE6	; 230
    5f06:	f8 4f       	sbci	r31, 0xF8	; 248
    5f08:	60 81       	ld	r22, Z
    5f0a:	71 81       	ldd	r23, Z+1	; 0x01
    5f0c:	68 5c       	subi	r22, 0xC8	; 200
    5f0e:	7f 4f       	sbci	r23, 0xFF	; 255
    5f10:	0f 2e       	mov	r0, r31
    5f12:	fb ef       	ldi	r31, 0xFB	; 251
    5f14:	ef 2e       	mov	r14, r31
    5f16:	f1 e0       	ldi	r31, 0x01	; 1
    5f18:	ff 2e       	mov	r15, r31
    5f1a:	f0 2d       	mov	r31, r0
    5f1c:	95 01       	movw	r18, r10
    5f1e:	86 e4       	ldi	r24, 0x46	; 70
    5f20:	97 e0       	ldi	r25, 0x07	; 7
    5f22:	0e 94 f2 38 	call	0x71e4	; 0x71e4 <_ZN4OLED19OLED_Write_To_BuferEiiiiPKh>
					oled.OLED_Write_To_Bufer(x[pointer]+64,y,1,8,V);
    5f26:	f4 01       	movw	r30, r8
    5f28:	42 85       	ldd	r20, Z+10	; 0x0a
    5f2a:	53 85       	ldd	r21, Z+11	; 0x0b
    5f2c:	01 90       	ld	r0, Z+
    5f2e:	f0 81       	ld	r31, Z
    5f30:	e0 2d       	mov	r30, r0
    5f32:	ee 0f       	add	r30, r30
    5f34:	ff 1f       	adc	r31, r31
    5f36:	e6 5e       	subi	r30, 0xE6	; 230
    5f38:	f8 4f       	sbci	r31, 0xF8	; 248
    5f3a:	60 81       	ld	r22, Z
    5f3c:	71 81       	ldd	r23, Z+1	; 0x01
    5f3e:	60 5c       	subi	r22, 0xC0	; 192
    5f40:	7f 4f       	sbci	r23, 0xFF	; 255
    5f42:	0f 2e       	mov	r0, r31
    5f44:	f3 e8       	ldi	r31, 0x83	; 131
    5f46:	ef 2e       	mov	r14, r31
    5f48:	f1 e0       	ldi	r31, 0x01	; 1
    5f4a:	ff 2e       	mov	r15, r31
    5f4c:	f0 2d       	mov	r31, r0
    5f4e:	95 01       	movw	r18, r10
    5f50:	86 e4       	ldi	r24, 0x46	; 70
    5f52:	97 e0       	ldi	r25, 0x07	; 7
    5f54:	0e 94 f2 38 	call	0x71e4	; 0x71e4 <_ZN4OLED19OLED_Write_To_BuferEiiiiPKh>
					oled.OLED_Write_To_Bufer(x[pointer]+72,y,1,8,I);
    5f58:	d4 01       	movw	r26, r8
    5f5a:	1a 96       	adiw	r26, 0x0a	; 10
    5f5c:	4d 91       	ld	r20, X+
    5f5e:	5c 91       	ld	r21, X
    5f60:	1b 97       	sbiw	r26, 0x0b	; 11
    5f62:	ed 91       	ld	r30, X+
    5f64:	fc 91       	ld	r31, X
    5f66:	ee 0f       	add	r30, r30
    5f68:	ff 1f       	adc	r31, r31
    5f6a:	e6 5e       	subi	r30, 0xE6	; 230
    5f6c:	f8 4f       	sbci	r31, 0xF8	; 248
    5f6e:	60 81       	ld	r22, Z
    5f70:	71 81       	ldd	r23, Z+1	; 0x01
    5f72:	68 5b       	subi	r22, 0xB8	; 184
    5f74:	7f 4f       	sbci	r23, 0xFF	; 255
    5f76:	0f 2e       	mov	r0, r31
    5f78:	fb ed       	ldi	r31, 0xDB	; 219
    5f7a:	ef 2e       	mov	r14, r31
    5f7c:	f1 e0       	ldi	r31, 0x01	; 1
    5f7e:	ff 2e       	mov	r15, r31
    5f80:	f0 2d       	mov	r31, r0
    5f82:	95 01       	movw	r18, r10
    5f84:	86 e4       	ldi	r24, 0x46	; 70
    5f86:	97 e0       	ldi	r25, 0x07	; 7
    5f88:	0e 94 f2 38 	call	0x71e4	; 0x71e4 <_ZN4OLED19OLED_Write_To_BuferEiiiiPKh>
					oled.OLED_Write_To_Bufer(x[pointer]+80,y,1,8,C);
    5f8c:	f4 01       	movw	r30, r8
    5f8e:	42 85       	ldd	r20, Z+10	; 0x0a
    5f90:	53 85       	ldd	r21, Z+11	; 0x0b
    5f92:	01 90       	ld	r0, Z+
    5f94:	f0 81       	ld	r31, Z
    5f96:	e0 2d       	mov	r30, r0
    5f98:	ee 0f       	add	r30, r30
    5f9a:	ff 1f       	adc	r31, r31
    5f9c:	e6 5e       	subi	r30, 0xE6	; 230
    5f9e:	f8 4f       	sbci	r31, 0xF8	; 248
    5fa0:	60 81       	ld	r22, Z
    5fa2:	71 81       	ldd	r23, Z+1	; 0x01
    5fa4:	60 5b       	subi	r22, 0xB0	; 176
    5fa6:	7f 4f       	sbci	r23, 0xFF	; 255
    5fa8:	0f 2e       	mov	r0, r31
    5faa:	fb e0       	ldi	r31, 0x0B	; 11
    5fac:	ef 2e       	mov	r14, r31
    5fae:	f2 e0       	ldi	r31, 0x02	; 2
    5fb0:	ff 2e       	mov	r15, r31
    5fb2:	f0 2d       	mov	r31, r0
    5fb4:	95 01       	movw	r18, r10
    5fb6:	86 e4       	ldi	r24, 0x46	; 70
    5fb8:	97 e0       	ldi	r25, 0x07	; 7
    5fba:	0e 94 f2 38 	call	0x71e4	; 0x71e4 <_ZN4OLED19OLED_Write_To_BuferEiiiiPKh>
					oled.OLED_Write_To_Bufer(x[pointer]+88,y,1,8,E);
    5fbe:	d4 01       	movw	r26, r8
    5fc0:	1a 96       	adiw	r26, 0x0a	; 10
    5fc2:	4d 91       	ld	r20, X+
    5fc4:	5c 91       	ld	r21, X
    5fc6:	1b 97       	sbiw	r26, 0x0b	; 11
    5fc8:	ed 91       	ld	r30, X+
    5fca:	fc 91       	ld	r31, X
    5fcc:	ee 0f       	add	r30, r30
    5fce:	ff 1f       	adc	r31, r31
    5fd0:	e6 5e       	subi	r30, 0xE6	; 230
    5fd2:	f8 4f       	sbci	r31, 0xF8	; 248
    5fd4:	60 81       	ld	r22, Z
    5fd6:	71 81       	ldd	r23, Z+1	; 0x01
    5fd8:	68 5a       	subi	r22, 0xA8	; 168
    5fda:	7f 4f       	sbci	r23, 0xFF	; 255
    5fdc:	0f 2e       	mov	r0, r31
    5fde:	fb ef       	ldi	r31, 0xFB	; 251
    5fe0:	ef 2e       	mov	r14, r31
    5fe2:	f1 e0       	ldi	r31, 0x01	; 1
    5fe4:	ff 2e       	mov	r15, r31
    5fe6:	f0 2d       	mov	r31, r0
    5fe8:	95 01       	movw	r18, r10
    5fea:	86 e4       	ldi	r24, 0x46	; 70
    5fec:	97 e0       	ldi	r25, 0x07	; 7
    5fee:	0e 94 f2 38 	call	0x71e4	; 0x71e4 <_ZN4OLED19OLED_Write_To_BuferEiiiiPKh>
    5ff2:	97 c6       	rjmp	.+3374   	; 0x6d22 <main+0x1756>
					break;
				}
				case 2:
				{
					oled.OLED_Clear_Bufer_part(0,y,16,8);
    5ff4:	f4 01       	movw	r30, r8
    5ff6:	42 85       	ldd	r20, Z+10	; 0x0a
    5ff8:	53 85       	ldd	r21, Z+11	; 0x0b
    5ffa:	08 e0       	ldi	r16, 0x08	; 8
    5ffc:	10 e0       	ldi	r17, 0x00	; 0
    5ffe:	20 e1       	ldi	r18, 0x10	; 16
    6000:	30 e0       	ldi	r19, 0x00	; 0
    6002:	60 e0       	ldi	r22, 0x00	; 0
    6004:	70 e0       	ldi	r23, 0x00	; 0
    6006:	86 e4       	ldi	r24, 0x46	; 70
    6008:	97 e0       	ldi	r25, 0x07	; 7
    600a:	0e 94 a3 38 	call	0x7146	; 0x7146 <_ZN4OLED21OLED_Clear_Bufer_partEiiii>
					oled.OLED_Write_To_Bufer(x[pointer]+0,y,1,8,A);
    600e:	d4 01       	movw	r26, r8
    6010:	1a 96       	adiw	r26, 0x0a	; 10
    6012:	4d 91       	ld	r20, X+
    6014:	5c 91       	ld	r21, X
    6016:	1b 97       	sbiw	r26, 0x0b	; 11
    6018:	ed 91       	ld	r30, X+
    601a:	fc 91       	ld	r31, X
    601c:	ee 0f       	add	r30, r30
    601e:	ff 1f       	adc	r31, r31
    6020:	e6 5e       	subi	r30, 0xE6	; 230
    6022:	f8 4f       	sbci	r31, 0xF8	; 248
    6024:	60 81       	ld	r22, Z
    6026:	71 81       	ldd	r23, Z+1	; 0x01
    6028:	0f 2e       	mov	r0, r31
    602a:	fb e1       	ldi	r31, 0x1B	; 27
    602c:	ef 2e       	mov	r14, r31
    602e:	f2 e0       	ldi	r31, 0x02	; 2
    6030:	ff 2e       	mov	r15, r31
    6032:	f0 2d       	mov	r31, r0
    6034:	95 01       	movw	r18, r10
    6036:	86 e4       	ldi	r24, 0x46	; 70
    6038:	97 e0       	ldi	r25, 0x07	; 7
    603a:	0e 94 f2 38 	call	0x71e4	; 0x71e4 <_ZN4OLED19OLED_Write_To_BuferEiiiiPKh>
					oled.OLED_Write_To_Bufer(x[pointer]+8,y,1,8,D);
    603e:	f4 01       	movw	r30, r8
    6040:	42 85       	ldd	r20, Z+10	; 0x0a
    6042:	53 85       	ldd	r21, Z+11	; 0x0b
    6044:	01 90       	ld	r0, Z+
    6046:	f0 81       	ld	r31, Z
    6048:	e0 2d       	mov	r30, r0
    604a:	ee 0f       	add	r30, r30
    604c:	ff 1f       	adc	r31, r31
    604e:	e6 5e       	subi	r30, 0xE6	; 230
    6050:	f8 4f       	sbci	r31, 0xF8	; 248
    6052:	60 81       	ld	r22, Z
    6054:	71 81       	ldd	r23, Z+1	; 0x01
    6056:	68 5f       	subi	r22, 0xF8	; 248
    6058:	7f 4f       	sbci	r23, 0xFF	; 255
    605a:	0f 2e       	mov	r0, r31
    605c:	f3 e0       	ldi	r31, 0x03	; 3
    605e:	ef 2e       	mov	r14, r31
    6060:	f2 e0       	ldi	r31, 0x02	; 2
    6062:	ff 2e       	mov	r15, r31
    6064:	f0 2d       	mov	r31, r0
    6066:	95 01       	movw	r18, r10
    6068:	86 e4       	ldi	r24, 0x46	; 70
    606a:	97 e0       	ldi	r25, 0x07	; 7
    606c:	0e 94 f2 38 	call	0x71e4	; 0x71e4 <_ZN4OLED19OLED_Write_To_BuferEiiiiPKh>
					oled.OLED_Write_To_Bufer(x[pointer]+16,y,1,8,D);
    6070:	d4 01       	movw	r26, r8
    6072:	1a 96       	adiw	r26, 0x0a	; 10
    6074:	4d 91       	ld	r20, X+
    6076:	5c 91       	ld	r21, X
    6078:	1b 97       	sbiw	r26, 0x0b	; 11
    607a:	ed 91       	ld	r30, X+
    607c:	fc 91       	ld	r31, X
    607e:	ee 0f       	add	r30, r30
    6080:	ff 1f       	adc	r31, r31
    6082:	e6 5e       	subi	r30, 0xE6	; 230
    6084:	f8 4f       	sbci	r31, 0xF8	; 248
    6086:	60 81       	ld	r22, Z
    6088:	71 81       	ldd	r23, Z+1	; 0x01
    608a:	60 5f       	subi	r22, 0xF0	; 240
    608c:	7f 4f       	sbci	r23, 0xFF	; 255
    608e:	95 01       	movw	r18, r10
    6090:	86 e4       	ldi	r24, 0x46	; 70
    6092:	97 e0       	ldi	r25, 0x07	; 7
    6094:	0e 94 f2 38 	call	0x71e4	; 0x71e4 <_ZN4OLED19OLED_Write_To_BuferEiiiiPKh>
					oled.OLED_Write_To_Bufer(x[pointer]+32,y,1,8,O);
    6098:	f4 01       	movw	r30, r8
    609a:	42 85       	ldd	r20, Z+10	; 0x0a
    609c:	53 85       	ldd	r21, Z+11	; 0x0b
    609e:	01 90       	ld	r0, Z+
    60a0:	f0 81       	ld	r31, Z
    60a2:	e0 2d       	mov	r30, r0
    60a4:	ee 0f       	add	r30, r30
    60a6:	ff 1f       	adc	r31, r31
    60a8:	e6 5e       	subi	r30, 0xE6	; 230
    60aa:	f8 4f       	sbci	r31, 0xF8	; 248
    60ac:	60 81       	ld	r22, Z
    60ae:	71 81       	ldd	r23, Z+1	; 0x01
    60b0:	60 5e       	subi	r22, 0xE0	; 224
    60b2:	7f 4f       	sbci	r23, 0xFF	; 255
    60b4:	0f 2e       	mov	r0, r31
    60b6:	fb ea       	ldi	r31, 0xAB	; 171
    60b8:	ef 2e       	mov	r14, r31
    60ba:	f1 e0       	ldi	r31, 0x01	; 1
    60bc:	ff 2e       	mov	r15, r31
    60be:	f0 2d       	mov	r31, r0
    60c0:	95 01       	movw	r18, r10
    60c2:	86 e4       	ldi	r24, 0x46	; 70
    60c4:	97 e0       	ldi	r25, 0x07	; 7
    60c6:	0e 94 f2 38 	call	0x71e4	; 0x71e4 <_ZN4OLED19OLED_Write_To_BuferEiiiiPKh>
					oled.OLED_Write_To_Bufer(x[pointer]+40,y,1,8,W);
    60ca:	d4 01       	movw	r26, r8
    60cc:	1a 96       	adiw	r26, 0x0a	; 10
    60ce:	4d 91       	ld	r20, X+
    60d0:	5c 91       	ld	r21, X
    60d2:	1b 97       	sbiw	r26, 0x0b	; 11
    60d4:	ed 91       	ld	r30, X+
    60d6:	fc 91       	ld	r31, X
    60d8:	ee 0f       	add	r30, r30
    60da:	ff 1f       	adc	r31, r31
    60dc:	e6 5e       	subi	r30, 0xE6	; 230
    60de:	f8 4f       	sbci	r31, 0xF8	; 248
    60e0:	60 81       	ld	r22, Z
    60e2:	71 81       	ldd	r23, Z+1	; 0x01
    60e4:	68 5d       	subi	r22, 0xD8	; 216
    60e6:	7f 4f       	sbci	r23, 0xFF	; 255
    60e8:	0f 2e       	mov	r0, r31
    60ea:	fb e7       	ldi	r31, 0x7B	; 123
    60ec:	ef 2e       	mov	r14, r31
    60ee:	f1 e0       	ldi	r31, 0x01	; 1
    60f0:	ff 2e       	mov	r15, r31
    60f2:	f0 2d       	mov	r31, r0
    60f4:	95 01       	movw	r18, r10
    60f6:	86 e4       	ldi	r24, 0x46	; 70
    60f8:	97 e0       	ldi	r25, 0x07	; 7
    60fa:	0e 94 f2 38 	call	0x71e4	; 0x71e4 <_ZN4OLED19OLED_Write_To_BuferEiiiiPKh>
					oled.OLED_Write_To_Bufer(x[pointer]+48,y,1,8,N);
    60fe:	f4 01       	movw	r30, r8
    6100:	42 85       	ldd	r20, Z+10	; 0x0a
    6102:	53 85       	ldd	r21, Z+11	; 0x0b
    6104:	01 90       	ld	r0, Z+
    6106:	f0 81       	ld	r31, Z
    6108:	e0 2d       	mov	r30, r0
    610a:	ee 0f       	add	r30, r30
    610c:	ff 1f       	adc	r31, r31
    610e:	e6 5e       	subi	r30, 0xE6	; 230
    6110:	f8 4f       	sbci	r31, 0xF8	; 248
    6112:	60 81       	ld	r22, Z
    6114:	71 81       	ldd	r23, Z+1	; 0x01
    6116:	60 5d       	subi	r22, 0xD0	; 208
    6118:	7f 4f       	sbci	r23, 0xFF	; 255
    611a:	0f 2e       	mov	r0, r31
    611c:	f3 eb       	ldi	r31, 0xB3	; 179
    611e:	ef 2e       	mov	r14, r31
    6120:	f1 e0       	ldi	r31, 0x01	; 1
    6122:	ff 2e       	mov	r15, r31
    6124:	f0 2d       	mov	r31, r0
    6126:	95 01       	movw	r18, r10
    6128:	86 e4       	ldi	r24, 0x46	; 70
    612a:	97 e0       	ldi	r25, 0x07	; 7
    612c:	0e 94 f2 38 	call	0x71e4	; 0x71e4 <_ZN4OLED19OLED_Write_To_BuferEiiiiPKh>
					oled.OLED_Write_To_Bufer(x[pointer]+56,y,1,8,E);
    6130:	d4 01       	movw	r26, r8
    6132:	1a 96       	adiw	r26, 0x0a	; 10
    6134:	4d 91       	ld	r20, X+
    6136:	5c 91       	ld	r21, X
    6138:	1b 97       	sbiw	r26, 0x0b	; 11
    613a:	ed 91       	ld	r30, X+
    613c:	fc 91       	ld	r31, X
    613e:	ee 0f       	add	r30, r30
    6140:	ff 1f       	adc	r31, r31
    6142:	e6 5e       	subi	r30, 0xE6	; 230
    6144:	f8 4f       	sbci	r31, 0xF8	; 248
    6146:	60 81       	ld	r22, Z
    6148:	71 81       	ldd	r23, Z+1	; 0x01
    614a:	68 5c       	subi	r22, 0xC8	; 200
    614c:	7f 4f       	sbci	r23, 0xFF	; 255
    614e:	0f 2e       	mov	r0, r31
    6150:	fb ef       	ldi	r31, 0xFB	; 251
    6152:	ef 2e       	mov	r14, r31
    6154:	f1 e0       	ldi	r31, 0x01	; 1
    6156:	ff 2e       	mov	r15, r31
    6158:	f0 2d       	mov	r31, r0
    615a:	95 01       	movw	r18, r10
    615c:	86 e4       	ldi	r24, 0x46	; 70
    615e:	97 e0       	ldi	r25, 0x07	; 7
    6160:	0e 94 f2 38 	call	0x71e4	; 0x71e4 <_ZN4OLED19OLED_Write_To_BuferEiiiiPKh>
					oled.OLED_Write_To_Bufer(x[pointer]+64,y,1,8,R);
    6164:	f4 01       	movw	r30, r8
    6166:	42 85       	ldd	r20, Z+10	; 0x0a
    6168:	53 85       	ldd	r21, Z+11	; 0x0b
    616a:	01 90       	ld	r0, Z+
    616c:	f0 81       	ld	r31, Z
    616e:	e0 2d       	mov	r30, r0
    6170:	ee 0f       	add	r30, r30
    6172:	ff 1f       	adc	r31, r31
    6174:	e6 5e       	subi	r30, 0xE6	; 230
    6176:	f8 4f       	sbci	r31, 0xF8	; 248
    6178:	60 81       	ld	r22, Z
    617a:	71 81       	ldd	r23, Z+1	; 0x01
    617c:	60 5c       	subi	r22, 0xC0	; 192
    617e:	7f 4f       	sbci	r23, 0xFF	; 255
    6180:	0f 2e       	mov	r0, r31
    6182:	f3 ea       	ldi	r31, 0xA3	; 163
    6184:	ef 2e       	mov	r14, r31
    6186:	f1 e0       	ldi	r31, 0x01	; 1
    6188:	ff 2e       	mov	r15, r31
    618a:	f0 2d       	mov	r31, r0
    618c:	95 01       	movw	r18, r10
    618e:	86 e4       	ldi	r24, 0x46	; 70
    6190:	97 e0       	ldi	r25, 0x07	; 7
    6192:	0e 94 f2 38 	call	0x71e4	; 0x71e4 <_ZN4OLED19OLED_Write_To_BuferEiiiiPKh>
    6196:	c5 c5       	rjmp	.+2954   	; 0x6d22 <main+0x1756>
					break;
				}
				case 3:
				{
					//oled.OLED_Clear_Bufer_part(x[pointer],y,1,8);
					oled.OLED_Clear_Bufer_part(0,y,16,8);
    6198:	d4 01       	movw	r26, r8
    619a:	1a 96       	adiw	r26, 0x0a	; 10
    619c:	4d 91       	ld	r20, X+
    619e:	5c 91       	ld	r21, X
    61a0:	1b 97       	sbiw	r26, 0x0b	; 11
    61a2:	08 e0       	ldi	r16, 0x08	; 8
    61a4:	10 e0       	ldi	r17, 0x00	; 0
    61a6:	20 e1       	ldi	r18, 0x10	; 16
    61a8:	30 e0       	ldi	r19, 0x00	; 0
    61aa:	60 e0       	ldi	r22, 0x00	; 0
    61ac:	70 e0       	ldi	r23, 0x00	; 0
    61ae:	86 e4       	ldi	r24, 0x46	; 70
    61b0:	97 e0       	ldi	r25, 0x07	; 7
    61b2:	c9 d7       	rcall	.+3986   	; 0x7146 <_ZN4OLED21OLED_Clear_Bufer_partEiiii>
					oled.OLED_Write_To_Bufer(x[pointer],y,2,8,backk);
    61b4:	f4 01       	movw	r30, r8
    61b6:	42 85       	ldd	r20, Z+10	; 0x0a
    61b8:	53 85       	ldd	r21, Z+11	; 0x0b
    61ba:	01 90       	ld	r0, Z+
    61bc:	f0 81       	ld	r31, Z
    61be:	e0 2d       	mov	r30, r0
    61c0:	ee 0f       	add	r30, r30
    61c2:	ff 1f       	adc	r31, r31
    61c4:	e6 5e       	subi	r30, 0xE6	; 230
    61c6:	f8 4f       	sbci	r31, 0xF8	; 248
    61c8:	60 81       	ld	r22, Z
    61ca:	71 81       	ldd	r23, Z+1	; 0x01
    61cc:	0f 2e       	mov	r0, r31
    61ce:	f3 e1       	ldi	r31, 0x13	; 19
    61d0:	ef 2e       	mov	r14, r31
    61d2:	f1 e0       	ldi	r31, 0x01	; 1
    61d4:	ff 2e       	mov	r15, r31
    61d6:	f0 2d       	mov	r31, r0
    61d8:	22 e0       	ldi	r18, 0x02	; 2
    61da:	30 e0       	ldi	r19, 0x00	; 0
    61dc:	86 e4       	ldi	r24, 0x46	; 70
    61de:	97 e0       	ldi	r25, 0x07	; 7
    61e0:	0e 94 f2 38 	call	0x71e4	; 0x71e4 <_ZN4OLED19OLED_Write_To_BuferEiiiiPKh>
    61e4:	9e c5       	rjmp	.+2876   	; 0x6d22 <main+0x1756>
		}
		else if (Settings_Menu_Status)
		{
			sett_menu.refresh();	
		}
		else if (Info_Menu_Status)
    61e6:	80 91 43 07 	lds	r24, 0x0743	; 0x800743 <Info_Menu_Status>
    61ea:	88 23       	and	r24, r24
    61ec:	09 f4       	brne	.+2      	; 0x61f0 <main+0xc24>
    61ee:	30 c2       	rjmp	.+1120   	; 0x6650 <main+0x1084>

	};
	
	void Default() 
	{
		oled.OLED_Write_To_Bufer(56,y+2,2,8,downwd);
    61f0:	d1 01       	movw	r26, r2
    61f2:	18 96       	adiw	r26, 0x08	; 8
    61f4:	4d 91       	ld	r20, X+
    61f6:	5c 91       	ld	r21, X
    61f8:	19 97       	sbiw	r26, 0x09	; 9
    61fa:	4e 5f       	subi	r20, 0xFE	; 254
    61fc:	5f 4f       	sbci	r21, 0xFF	; 255
    61fe:	0f 2e       	mov	r0, r31
    6200:	f3 ed       	ldi	r31, 0xD3	; 211
    6202:	ef 2e       	mov	r14, r31
    6204:	f2 e0       	ldi	r31, 0x02	; 2
    6206:	ff 2e       	mov	r15, r31
    6208:	f0 2d       	mov	r31, r0
    620a:	08 e0       	ldi	r16, 0x08	; 8
    620c:	10 e0       	ldi	r17, 0x00	; 0
    620e:	22 e0       	ldi	r18, 0x02	; 2
    6210:	30 e0       	ldi	r19, 0x00	; 0
    6212:	68 e3       	ldi	r22, 0x38	; 56
    6214:	70 e0       	ldi	r23, 0x00	; 0
    6216:	86 e4       	ldi	r24, 0x46	; 70
    6218:	97 e0       	ldi	r25, 0x07	; 7
    621a:	e4 d7       	rcall	.+4040   	; 0x71e4 <_ZN4OLED19OLED_Write_To_BuferEiiiiPKh>
		oled.OLED_Write_To_Bufer(56,y-2,2,8,upwd);
    621c:	f1 01       	movw	r30, r2
    621e:	40 85       	ldd	r20, Z+8	; 0x08
    6220:	51 85       	ldd	r21, Z+9	; 0x09
    6222:	42 50       	subi	r20, 0x02	; 2
    6224:	51 09       	sbc	r21, r1
    6226:	0f 2e       	mov	r0, r31
    6228:	f3 ee       	ldi	r31, 0xE3	; 227
    622a:	ef 2e       	mov	r14, r31
    622c:	f2 e0       	ldi	r31, 0x02	; 2
    622e:	ff 2e       	mov	r15, r31
    6230:	f0 2d       	mov	r31, r0
    6232:	22 e0       	ldi	r18, 0x02	; 2
    6234:	30 e0       	ldi	r19, 0x00	; 0
    6236:	68 e3       	ldi	r22, 0x38	; 56
    6238:	70 e0       	ldi	r23, 0x00	; 0
    623a:	86 e4       	ldi	r24, 0x46	; 70
    623c:	97 e0       	ldi	r25, 0x07	; 7
    623e:	d2 d7       	rcall	.+4004   	; 0x71e4 <_ZN4OLED19OLED_Write_To_BuferEiiiiPKh>
		
	};
	
	void actions()
	{
		if(Info_Menu_Status){
    6240:	80 91 43 07 	lds	r24, 0x0743	; 0x800743 <Info_Menu_Status>
    6244:	88 23       	and	r24, r24
    6246:	09 f4       	brne	.+2      	; 0x624a <main+0xc7e>
    6248:	6c c5       	rjmp	.+2776   	; 0x6d22 <main+0x1756>
			switch(pointer)
    624a:	d1 01       	movw	r26, r2
    624c:	8d 91       	ld	r24, X+
    624e:	9c 91       	ld	r25, X
    6250:	11 97       	sbiw	r26, 0x01	; 1
    6252:	81 30       	cpi	r24, 0x01	; 1
    6254:	91 05       	cpc	r25, r1
    6256:	09 f4       	brne	.+2      	; 0x625a <main+0xc8e>
    6258:	06 c1       	rjmp	.+524    	; 0x6466 <main+0xe9a>
    625a:	82 30       	cpi	r24, 0x02	; 2
    625c:	91 05       	cpc	r25, r1
    625e:	09 f4       	brne	.+2      	; 0x6262 <main+0xc96>
    6260:	d1 c1       	rjmp	.+930    	; 0x6604 <main+0x1038>
    6262:	89 2b       	or	r24, r25
    6264:	09 f0       	breq	.+2      	; 0x6268 <main+0xc9c>
    6266:	5d c5       	rjmp	.+2746   	; 0x6d22 <main+0x1756>
			{
				case 0:
				{
					oled.OLED_Clear_Bufer_part(0,y,16,8);
    6268:	18 96       	adiw	r26, 0x08	; 8
    626a:	4d 91       	ld	r20, X+
    626c:	5c 91       	ld	r21, X
    626e:	19 97       	sbiw	r26, 0x09	; 9
    6270:	20 e1       	ldi	r18, 0x10	; 16
    6272:	30 e0       	ldi	r19, 0x00	; 0
    6274:	60 e0       	ldi	r22, 0x00	; 0
    6276:	70 e0       	ldi	r23, 0x00	; 0
    6278:	86 e4       	ldi	r24, 0x46	; 70
    627a:	97 e0       	ldi	r25, 0x07	; 7
    627c:	64 d7       	rcall	.+3784   	; 0x7146 <_ZN4OLED21OLED_Clear_Bufer_partEiiii>
					oled.OLED_Write_To_Bufer(x[pointer]+0,y,1,8,D);
    627e:	f1 01       	movw	r30, r2
    6280:	40 85       	ldd	r20, Z+8	; 0x08
    6282:	51 85       	ldd	r21, Z+9	; 0x09
    6284:	01 90       	ld	r0, Z+
    6286:	f0 81       	ld	r31, Z
    6288:	e0 2d       	mov	r30, r0
    628a:	ee 0f       	add	r30, r30
    628c:	ff 1f       	adc	r31, r31
    628e:	ea 5d       	subi	r30, 0xDA	; 218
    6290:	f8 4f       	sbci	r31, 0xF8	; 248
    6292:	60 81       	ld	r22, Z
    6294:	71 81       	ldd	r23, Z+1	; 0x01
    6296:	0f 2e       	mov	r0, r31
    6298:	f3 e0       	ldi	r31, 0x03	; 3
    629a:	ef 2e       	mov	r14, r31
    629c:	f2 e0       	ldi	r31, 0x02	; 2
    629e:	ff 2e       	mov	r15, r31
    62a0:	f0 2d       	mov	r31, r0
    62a2:	95 01       	movw	r18, r10
    62a4:	86 e4       	ldi	r24, 0x46	; 70
    62a6:	97 e0       	ldi	r25, 0x07	; 7
    62a8:	9d d7       	rcall	.+3898   	; 0x71e4 <_ZN4OLED19OLED_Write_To_BuferEiiiiPKh>
					oled.OLED_Write_To_Bufer(x[pointer]+8,y,1,8,E);
    62aa:	d1 01       	movw	r26, r2
    62ac:	18 96       	adiw	r26, 0x08	; 8
    62ae:	4d 91       	ld	r20, X+
    62b0:	5c 91       	ld	r21, X
    62b2:	19 97       	sbiw	r26, 0x09	; 9
    62b4:	ed 91       	ld	r30, X+
    62b6:	fc 91       	ld	r31, X
    62b8:	ee 0f       	add	r30, r30
    62ba:	ff 1f       	adc	r31, r31
    62bc:	ea 5d       	subi	r30, 0xDA	; 218
    62be:	f8 4f       	sbci	r31, 0xF8	; 248
    62c0:	60 81       	ld	r22, Z
    62c2:	71 81       	ldd	r23, Z+1	; 0x01
    62c4:	68 5f       	subi	r22, 0xF8	; 248
    62c6:	7f 4f       	sbci	r23, 0xFF	; 255
    62c8:	0f 2e       	mov	r0, r31
    62ca:	fb ef       	ldi	r31, 0xFB	; 251
    62cc:	ef 2e       	mov	r14, r31
    62ce:	f1 e0       	ldi	r31, 0x01	; 1
    62d0:	ff 2e       	mov	r15, r31
    62d2:	f0 2d       	mov	r31, r0
    62d4:	95 01       	movw	r18, r10
    62d6:	86 e4       	ldi	r24, 0x46	; 70
    62d8:	97 e0       	ldi	r25, 0x07	; 7
    62da:	84 d7       	rcall	.+3848   	; 0x71e4 <_ZN4OLED19OLED_Write_To_BuferEiiiiPKh>
					oled.OLED_Write_To_Bufer(x[pointer]+16,y,1,8,V);
    62dc:	f1 01       	movw	r30, r2
    62de:	40 85       	ldd	r20, Z+8	; 0x08
    62e0:	51 85       	ldd	r21, Z+9	; 0x09
    62e2:	01 90       	ld	r0, Z+
    62e4:	f0 81       	ld	r31, Z
    62e6:	e0 2d       	mov	r30, r0
    62e8:	ee 0f       	add	r30, r30
    62ea:	ff 1f       	adc	r31, r31
    62ec:	ea 5d       	subi	r30, 0xDA	; 218
    62ee:	f8 4f       	sbci	r31, 0xF8	; 248
    62f0:	60 81       	ld	r22, Z
    62f2:	71 81       	ldd	r23, Z+1	; 0x01
    62f4:	60 5f       	subi	r22, 0xF0	; 240
    62f6:	7f 4f       	sbci	r23, 0xFF	; 255
    62f8:	0f 2e       	mov	r0, r31
    62fa:	f3 e8       	ldi	r31, 0x83	; 131
    62fc:	ef 2e       	mov	r14, r31
    62fe:	f1 e0       	ldi	r31, 0x01	; 1
    6300:	ff 2e       	mov	r15, r31
    6302:	f0 2d       	mov	r31, r0
    6304:	95 01       	movw	r18, r10
    6306:	86 e4       	ldi	r24, 0x46	; 70
    6308:	97 e0       	ldi	r25, 0x07	; 7
    630a:	6c d7       	rcall	.+3800   	; 0x71e4 <_ZN4OLED19OLED_Write_To_BuferEiiiiPKh>
					oled.OLED_Write_To_Bufer(x[pointer]+24,y,1,8,I);
    630c:	d1 01       	movw	r26, r2
    630e:	18 96       	adiw	r26, 0x08	; 8
    6310:	4d 91       	ld	r20, X+
    6312:	5c 91       	ld	r21, X
    6314:	19 97       	sbiw	r26, 0x09	; 9
    6316:	ed 91       	ld	r30, X+
    6318:	fc 91       	ld	r31, X
    631a:	ee 0f       	add	r30, r30
    631c:	ff 1f       	adc	r31, r31
    631e:	ea 5d       	subi	r30, 0xDA	; 218
    6320:	f8 4f       	sbci	r31, 0xF8	; 248
    6322:	60 81       	ld	r22, Z
    6324:	71 81       	ldd	r23, Z+1	; 0x01
    6326:	68 5e       	subi	r22, 0xE8	; 232
    6328:	7f 4f       	sbci	r23, 0xFF	; 255
    632a:	0f 2e       	mov	r0, r31
    632c:	fb ed       	ldi	r31, 0xDB	; 219
    632e:	ef 2e       	mov	r14, r31
    6330:	f1 e0       	ldi	r31, 0x01	; 1
    6332:	ff 2e       	mov	r15, r31
    6334:	f0 2d       	mov	r31, r0
    6336:	95 01       	movw	r18, r10
    6338:	86 e4       	ldi	r24, 0x46	; 70
    633a:	97 e0       	ldi	r25, 0x07	; 7
    633c:	53 d7       	rcall	.+3750   	; 0x71e4 <_ZN4OLED19OLED_Write_To_BuferEiiiiPKh>
					oled.OLED_Write_To_Bufer(x[pointer]+32,y,1,8,C);
    633e:	f1 01       	movw	r30, r2
    6340:	40 85       	ldd	r20, Z+8	; 0x08
    6342:	51 85       	ldd	r21, Z+9	; 0x09
    6344:	01 90       	ld	r0, Z+
    6346:	f0 81       	ld	r31, Z
    6348:	e0 2d       	mov	r30, r0
    634a:	ee 0f       	add	r30, r30
    634c:	ff 1f       	adc	r31, r31
    634e:	ea 5d       	subi	r30, 0xDA	; 218
    6350:	f8 4f       	sbci	r31, 0xF8	; 248
    6352:	60 81       	ld	r22, Z
    6354:	71 81       	ldd	r23, Z+1	; 0x01
    6356:	60 5e       	subi	r22, 0xE0	; 224
    6358:	7f 4f       	sbci	r23, 0xFF	; 255
    635a:	0f 2e       	mov	r0, r31
    635c:	fb e0       	ldi	r31, 0x0B	; 11
    635e:	ef 2e       	mov	r14, r31
    6360:	f2 e0       	ldi	r31, 0x02	; 2
    6362:	ff 2e       	mov	r15, r31
    6364:	f0 2d       	mov	r31, r0
    6366:	95 01       	movw	r18, r10
    6368:	86 e4       	ldi	r24, 0x46	; 70
    636a:	97 e0       	ldi	r25, 0x07	; 7
    636c:	3b d7       	rcall	.+3702   	; 0x71e4 <_ZN4OLED19OLED_Write_To_BuferEiiiiPKh>
					oled.OLED_Write_To_Bufer(x[pointer]+40,y,1,8,E);
    636e:	d1 01       	movw	r26, r2
    6370:	18 96       	adiw	r26, 0x08	; 8
    6372:	4d 91       	ld	r20, X+
    6374:	5c 91       	ld	r21, X
    6376:	19 97       	sbiw	r26, 0x09	; 9
    6378:	ed 91       	ld	r30, X+
    637a:	fc 91       	ld	r31, X
    637c:	ee 0f       	add	r30, r30
    637e:	ff 1f       	adc	r31, r31
    6380:	ea 5d       	subi	r30, 0xDA	; 218
    6382:	f8 4f       	sbci	r31, 0xF8	; 248
    6384:	60 81       	ld	r22, Z
    6386:	71 81       	ldd	r23, Z+1	; 0x01
    6388:	68 5d       	subi	r22, 0xD8	; 216
    638a:	7f 4f       	sbci	r23, 0xFF	; 255
    638c:	0f 2e       	mov	r0, r31
    638e:	fb ef       	ldi	r31, 0xFB	; 251
    6390:	ef 2e       	mov	r14, r31
    6392:	f1 e0       	ldi	r31, 0x01	; 1
    6394:	ff 2e       	mov	r15, r31
    6396:	f0 2d       	mov	r31, r0
    6398:	95 01       	movw	r18, r10
    639a:	86 e4       	ldi	r24, 0x46	; 70
    639c:	97 e0       	ldi	r25, 0x07	; 7
    639e:	22 d7       	rcall	.+3652   	; 0x71e4 <_ZN4OLED19OLED_Write_To_BuferEiiiiPKh>
					oled.OLED_Write_To_Bufer(x[pointer]+56,y,1,8,I);
    63a0:	f1 01       	movw	r30, r2
    63a2:	40 85       	ldd	r20, Z+8	; 0x08
    63a4:	51 85       	ldd	r21, Z+9	; 0x09
    63a6:	01 90       	ld	r0, Z+
    63a8:	f0 81       	ld	r31, Z
    63aa:	e0 2d       	mov	r30, r0
    63ac:	ee 0f       	add	r30, r30
    63ae:	ff 1f       	adc	r31, r31
    63b0:	ea 5d       	subi	r30, 0xDA	; 218
    63b2:	f8 4f       	sbci	r31, 0xF8	; 248
    63b4:	60 81       	ld	r22, Z
    63b6:	71 81       	ldd	r23, Z+1	; 0x01
    63b8:	68 5c       	subi	r22, 0xC8	; 200
    63ba:	7f 4f       	sbci	r23, 0xFF	; 255
    63bc:	0f 2e       	mov	r0, r31
    63be:	fb ed       	ldi	r31, 0xDB	; 219
    63c0:	ef 2e       	mov	r14, r31
    63c2:	f1 e0       	ldi	r31, 0x01	; 1
    63c4:	ff 2e       	mov	r15, r31
    63c6:	f0 2d       	mov	r31, r0
    63c8:	95 01       	movw	r18, r10
    63ca:	86 e4       	ldi	r24, 0x46	; 70
    63cc:	97 e0       	ldi	r25, 0x07	; 7
    63ce:	0a d7       	rcall	.+3604   	; 0x71e4 <_ZN4OLED19OLED_Write_To_BuferEiiiiPKh>
					oled.OLED_Write_To_Bufer(x[pointer]+64,y,1,8,N);
    63d0:	d1 01       	movw	r26, r2
    63d2:	18 96       	adiw	r26, 0x08	; 8
    63d4:	4d 91       	ld	r20, X+
    63d6:	5c 91       	ld	r21, X
    63d8:	19 97       	sbiw	r26, 0x09	; 9
    63da:	ed 91       	ld	r30, X+
    63dc:	fc 91       	ld	r31, X
    63de:	ee 0f       	add	r30, r30
    63e0:	ff 1f       	adc	r31, r31
    63e2:	ea 5d       	subi	r30, 0xDA	; 218
    63e4:	f8 4f       	sbci	r31, 0xF8	; 248
    63e6:	60 81       	ld	r22, Z
    63e8:	71 81       	ldd	r23, Z+1	; 0x01
    63ea:	60 5c       	subi	r22, 0xC0	; 192
    63ec:	7f 4f       	sbci	r23, 0xFF	; 255
    63ee:	0f 2e       	mov	r0, r31
    63f0:	f3 eb       	ldi	r31, 0xB3	; 179
    63f2:	ef 2e       	mov	r14, r31
    63f4:	f1 e0       	ldi	r31, 0x01	; 1
    63f6:	ff 2e       	mov	r15, r31
    63f8:	f0 2d       	mov	r31, r0
    63fa:	95 01       	movw	r18, r10
    63fc:	86 e4       	ldi	r24, 0x46	; 70
    63fe:	97 e0       	ldi	r25, 0x07	; 7
    6400:	f1 d6       	rcall	.+3554   	; 0x71e4 <_ZN4OLED19OLED_Write_To_BuferEiiiiPKh>
					oled.OLED_Write_To_Bufer(x[pointer]+72,y,1,8,F);
    6402:	f1 01       	movw	r30, r2
    6404:	40 85       	ldd	r20, Z+8	; 0x08
    6406:	51 85       	ldd	r21, Z+9	; 0x09
    6408:	01 90       	ld	r0, Z+
    640a:	f0 81       	ld	r31, Z
    640c:	e0 2d       	mov	r30, r0
    640e:	ee 0f       	add	r30, r30
    6410:	ff 1f       	adc	r31, r31
    6412:	ea 5d       	subi	r30, 0xDA	; 218
    6414:	f8 4f       	sbci	r31, 0xF8	; 248
    6416:	60 81       	ld	r22, Z
    6418:	71 81       	ldd	r23, Z+1	; 0x01
    641a:	68 5b       	subi	r22, 0xB8	; 184
    641c:	7f 4f       	sbci	r23, 0xFF	; 255
    641e:	0f 2e       	mov	r0, r31
    6420:	f3 ef       	ldi	r31, 0xF3	; 243
    6422:	ef 2e       	mov	r14, r31
    6424:	f1 e0       	ldi	r31, 0x01	; 1
    6426:	ff 2e       	mov	r15, r31
    6428:	f0 2d       	mov	r31, r0
    642a:	95 01       	movw	r18, r10
    642c:	86 e4       	ldi	r24, 0x46	; 70
    642e:	97 e0       	ldi	r25, 0x07	; 7
    6430:	d9 d6       	rcall	.+3506   	; 0x71e4 <_ZN4OLED19OLED_Write_To_BuferEiiiiPKh>
					oled.OLED_Write_To_Bufer(x[pointer]+80,y,1,8,O);
    6432:	d1 01       	movw	r26, r2
    6434:	18 96       	adiw	r26, 0x08	; 8
    6436:	4d 91       	ld	r20, X+
    6438:	5c 91       	ld	r21, X
    643a:	19 97       	sbiw	r26, 0x09	; 9
    643c:	ed 91       	ld	r30, X+
    643e:	fc 91       	ld	r31, X
    6440:	ee 0f       	add	r30, r30
    6442:	ff 1f       	adc	r31, r31
    6444:	ea 5d       	subi	r30, 0xDA	; 218
    6446:	f8 4f       	sbci	r31, 0xF8	; 248
    6448:	60 81       	ld	r22, Z
    644a:	71 81       	ldd	r23, Z+1	; 0x01
    644c:	60 5b       	subi	r22, 0xB0	; 176
    644e:	7f 4f       	sbci	r23, 0xFF	; 255
    6450:	0f 2e       	mov	r0, r31
    6452:	fb ea       	ldi	r31, 0xAB	; 171
    6454:	ef 2e       	mov	r14, r31
    6456:	f1 e0       	ldi	r31, 0x01	; 1
    6458:	ff 2e       	mov	r15, r31
    645a:	f0 2d       	mov	r31, r0
    645c:	95 01       	movw	r18, r10
    645e:	86 e4       	ldi	r24, 0x46	; 70
    6460:	97 e0       	ldi	r25, 0x07	; 7
    6462:	c0 d6       	rcall	.+3456   	; 0x71e4 <_ZN4OLED19OLED_Write_To_BuferEiiiiPKh>
    6464:	5e c4       	rjmp	.+2236   	; 0x6d22 <main+0x1756>

					break;
				}
				case 1:
				{
					oled.OLED_Clear_Bufer_part(0,y,16,8);
    6466:	f1 01       	movw	r30, r2
    6468:	40 85       	ldd	r20, Z+8	; 0x08
    646a:	51 85       	ldd	r21, Z+9	; 0x09
    646c:	08 e0       	ldi	r16, 0x08	; 8
    646e:	10 e0       	ldi	r17, 0x00	; 0
    6470:	20 e1       	ldi	r18, 0x10	; 16
    6472:	30 e0       	ldi	r19, 0x00	; 0
    6474:	60 e0       	ldi	r22, 0x00	; 0
    6476:	70 e0       	ldi	r23, 0x00	; 0
    6478:	86 e4       	ldi	r24, 0x46	; 70
    647a:	97 e0       	ldi	r25, 0x07	; 7
    647c:	64 d6       	rcall	.+3272   	; 0x7146 <_ZN4OLED21OLED_Clear_Bufer_partEiiii>
					oled.OLED_Write_To_Bufer(x[pointer]+0,y,1,8,U);
    647e:	d1 01       	movw	r26, r2
    6480:	18 96       	adiw	r26, 0x08	; 8
    6482:	4d 91       	ld	r20, X+
    6484:	5c 91       	ld	r21, X
    6486:	19 97       	sbiw	r26, 0x09	; 9
    6488:	ed 91       	ld	r30, X+
    648a:	fc 91       	ld	r31, X
    648c:	ee 0f       	add	r30, r30
    648e:	ff 1f       	adc	r31, r31
    6490:	ea 5d       	subi	r30, 0xDA	; 218
    6492:	f8 4f       	sbci	r31, 0xF8	; 248
    6494:	60 81       	ld	r22, Z
    6496:	71 81       	ldd	r23, Z+1	; 0x01
    6498:	0f 2e       	mov	r0, r31
    649a:	fb e8       	ldi	r31, 0x8B	; 139
    649c:	ef 2e       	mov	r14, r31
    649e:	f1 e0       	ldi	r31, 0x01	; 1
    64a0:	ff 2e       	mov	r15, r31
    64a2:	f0 2d       	mov	r31, r0
    64a4:	95 01       	movw	r18, r10
    64a6:	86 e4       	ldi	r24, 0x46	; 70
    64a8:	97 e0       	ldi	r25, 0x07	; 7
    64aa:	9c d6       	rcall	.+3384   	; 0x71e4 <_ZN4OLED19OLED_Write_To_BuferEiiiiPKh>
					oled.OLED_Write_To_Bufer(x[pointer]+8,y,1,8,S);
    64ac:	f1 01       	movw	r30, r2
    64ae:	40 85       	ldd	r20, Z+8	; 0x08
    64b0:	51 85       	ldd	r21, Z+9	; 0x09
    64b2:	01 90       	ld	r0, Z+
    64b4:	f0 81       	ld	r31, Z
    64b6:	e0 2d       	mov	r30, r0
    64b8:	ee 0f       	add	r30, r30
    64ba:	ff 1f       	adc	r31, r31
    64bc:	ea 5d       	subi	r30, 0xDA	; 218
    64be:	f8 4f       	sbci	r31, 0xF8	; 248
    64c0:	60 81       	ld	r22, Z
    64c2:	71 81       	ldd	r23, Z+1	; 0x01
    64c4:	68 5f       	subi	r22, 0xF8	; 248
    64c6:	7f 4f       	sbci	r23, 0xFF	; 255
    64c8:	0f 2e       	mov	r0, r31
    64ca:	fb e9       	ldi	r31, 0x9B	; 155
    64cc:	ef 2e       	mov	r14, r31
    64ce:	f1 e0       	ldi	r31, 0x01	; 1
    64d0:	ff 2e       	mov	r15, r31
    64d2:	f0 2d       	mov	r31, r0
    64d4:	95 01       	movw	r18, r10
    64d6:	86 e4       	ldi	r24, 0x46	; 70
    64d8:	97 e0       	ldi	r25, 0x07	; 7
    64da:	84 d6       	rcall	.+3336   	; 0x71e4 <_ZN4OLED19OLED_Write_To_BuferEiiiiPKh>
					oled.OLED_Write_To_Bufer(x[pointer]+16,y,1,8,E);
    64dc:	d1 01       	movw	r26, r2
    64de:	18 96       	adiw	r26, 0x08	; 8
    64e0:	4d 91       	ld	r20, X+
    64e2:	5c 91       	ld	r21, X
    64e4:	19 97       	sbiw	r26, 0x09	; 9
    64e6:	ed 91       	ld	r30, X+
    64e8:	fc 91       	ld	r31, X
    64ea:	ee 0f       	add	r30, r30
    64ec:	ff 1f       	adc	r31, r31
    64ee:	ea 5d       	subi	r30, 0xDA	; 218
    64f0:	f8 4f       	sbci	r31, 0xF8	; 248
    64f2:	60 81       	ld	r22, Z
    64f4:	71 81       	ldd	r23, Z+1	; 0x01
    64f6:	60 5f       	subi	r22, 0xF0	; 240
    64f8:	7f 4f       	sbci	r23, 0xFF	; 255
    64fa:	0f 2e       	mov	r0, r31
    64fc:	fb ef       	ldi	r31, 0xFB	; 251
    64fe:	ef 2e       	mov	r14, r31
    6500:	f1 e0       	ldi	r31, 0x01	; 1
    6502:	ff 2e       	mov	r15, r31
    6504:	f0 2d       	mov	r31, r0
    6506:	95 01       	movw	r18, r10
    6508:	86 e4       	ldi	r24, 0x46	; 70
    650a:	97 e0       	ldi	r25, 0x07	; 7
    650c:	6b d6       	rcall	.+3286   	; 0x71e4 <_ZN4OLED19OLED_Write_To_BuferEiiiiPKh>
					oled.OLED_Write_To_Bufer(x[pointer]+24,y,1,8,R);
    650e:	f1 01       	movw	r30, r2
    6510:	40 85       	ldd	r20, Z+8	; 0x08
    6512:	51 85       	ldd	r21, Z+9	; 0x09
    6514:	01 90       	ld	r0, Z+
    6516:	f0 81       	ld	r31, Z
    6518:	e0 2d       	mov	r30, r0
    651a:	ee 0f       	add	r30, r30
    651c:	ff 1f       	adc	r31, r31
    651e:	ea 5d       	subi	r30, 0xDA	; 218
    6520:	f8 4f       	sbci	r31, 0xF8	; 248
    6522:	60 81       	ld	r22, Z
    6524:	71 81       	ldd	r23, Z+1	; 0x01
    6526:	68 5e       	subi	r22, 0xE8	; 232
    6528:	7f 4f       	sbci	r23, 0xFF	; 255
    652a:	0f 2e       	mov	r0, r31
    652c:	f3 ea       	ldi	r31, 0xA3	; 163
    652e:	ef 2e       	mov	r14, r31
    6530:	f1 e0       	ldi	r31, 0x01	; 1
    6532:	ff 2e       	mov	r15, r31
    6534:	f0 2d       	mov	r31, r0
    6536:	95 01       	movw	r18, r10
    6538:	86 e4       	ldi	r24, 0x46	; 70
    653a:	97 e0       	ldi	r25, 0x07	; 7
    653c:	53 d6       	rcall	.+3238   	; 0x71e4 <_ZN4OLED19OLED_Write_To_BuferEiiiiPKh>
					oled.OLED_Write_To_Bufer(x[pointer]+40,y,1,8,I);
    653e:	d1 01       	movw	r26, r2
    6540:	18 96       	adiw	r26, 0x08	; 8
    6542:	4d 91       	ld	r20, X+
    6544:	5c 91       	ld	r21, X
    6546:	19 97       	sbiw	r26, 0x09	; 9
    6548:	ed 91       	ld	r30, X+
    654a:	fc 91       	ld	r31, X
    654c:	ee 0f       	add	r30, r30
    654e:	ff 1f       	adc	r31, r31
    6550:	ea 5d       	subi	r30, 0xDA	; 218
    6552:	f8 4f       	sbci	r31, 0xF8	; 248
    6554:	60 81       	ld	r22, Z
    6556:	71 81       	ldd	r23, Z+1	; 0x01
    6558:	68 5d       	subi	r22, 0xD8	; 216
    655a:	7f 4f       	sbci	r23, 0xFF	; 255
    655c:	0f 2e       	mov	r0, r31
    655e:	fb ed       	ldi	r31, 0xDB	; 219
    6560:	ef 2e       	mov	r14, r31
    6562:	f1 e0       	ldi	r31, 0x01	; 1
    6564:	ff 2e       	mov	r15, r31
    6566:	f0 2d       	mov	r31, r0
    6568:	95 01       	movw	r18, r10
    656a:	86 e4       	ldi	r24, 0x46	; 70
    656c:	97 e0       	ldi	r25, 0x07	; 7
    656e:	3a d6       	rcall	.+3188   	; 0x71e4 <_ZN4OLED19OLED_Write_To_BuferEiiiiPKh>
					oled.OLED_Write_To_Bufer(x[pointer]+48,y,1,8,N);
    6570:	f1 01       	movw	r30, r2
    6572:	40 85       	ldd	r20, Z+8	; 0x08
    6574:	51 85       	ldd	r21, Z+9	; 0x09
    6576:	01 90       	ld	r0, Z+
    6578:	f0 81       	ld	r31, Z
    657a:	e0 2d       	mov	r30, r0
    657c:	ee 0f       	add	r30, r30
    657e:	ff 1f       	adc	r31, r31
    6580:	ea 5d       	subi	r30, 0xDA	; 218
    6582:	f8 4f       	sbci	r31, 0xF8	; 248
    6584:	60 81       	ld	r22, Z
    6586:	71 81       	ldd	r23, Z+1	; 0x01
    6588:	60 5d       	subi	r22, 0xD0	; 208
    658a:	7f 4f       	sbci	r23, 0xFF	; 255
    658c:	0f 2e       	mov	r0, r31
    658e:	f3 eb       	ldi	r31, 0xB3	; 179
    6590:	ef 2e       	mov	r14, r31
    6592:	f1 e0       	ldi	r31, 0x01	; 1
    6594:	ff 2e       	mov	r15, r31
    6596:	f0 2d       	mov	r31, r0
    6598:	95 01       	movw	r18, r10
    659a:	86 e4       	ldi	r24, 0x46	; 70
    659c:	97 e0       	ldi	r25, 0x07	; 7
    659e:	22 d6       	rcall	.+3140   	; 0x71e4 <_ZN4OLED19OLED_Write_To_BuferEiiiiPKh>
					oled.OLED_Write_To_Bufer(x[pointer]+56,y,1,8,F);
    65a0:	d1 01       	movw	r26, r2
    65a2:	18 96       	adiw	r26, 0x08	; 8
    65a4:	4d 91       	ld	r20, X+
    65a6:	5c 91       	ld	r21, X
    65a8:	19 97       	sbiw	r26, 0x09	; 9
    65aa:	ed 91       	ld	r30, X+
    65ac:	fc 91       	ld	r31, X
    65ae:	ee 0f       	add	r30, r30
    65b0:	ff 1f       	adc	r31, r31
    65b2:	ea 5d       	subi	r30, 0xDA	; 218
    65b4:	f8 4f       	sbci	r31, 0xF8	; 248
    65b6:	60 81       	ld	r22, Z
    65b8:	71 81       	ldd	r23, Z+1	; 0x01
    65ba:	68 5c       	subi	r22, 0xC8	; 200
    65bc:	7f 4f       	sbci	r23, 0xFF	; 255
    65be:	0f 2e       	mov	r0, r31
    65c0:	f3 ef       	ldi	r31, 0xF3	; 243
    65c2:	ef 2e       	mov	r14, r31
    65c4:	f1 e0       	ldi	r31, 0x01	; 1
    65c6:	ff 2e       	mov	r15, r31
    65c8:	f0 2d       	mov	r31, r0
    65ca:	95 01       	movw	r18, r10
    65cc:	86 e4       	ldi	r24, 0x46	; 70
    65ce:	97 e0       	ldi	r25, 0x07	; 7
    65d0:	09 d6       	rcall	.+3090   	; 0x71e4 <_ZN4OLED19OLED_Write_To_BuferEiiiiPKh>
					oled.OLED_Write_To_Bufer(x[pointer]+64,y,1,8,O);
    65d2:	f1 01       	movw	r30, r2
    65d4:	40 85       	ldd	r20, Z+8	; 0x08
    65d6:	51 85       	ldd	r21, Z+9	; 0x09
    65d8:	01 90       	ld	r0, Z+
    65da:	f0 81       	ld	r31, Z
    65dc:	e0 2d       	mov	r30, r0
    65de:	ee 0f       	add	r30, r30
    65e0:	ff 1f       	adc	r31, r31
    65e2:	ea 5d       	subi	r30, 0xDA	; 218
    65e4:	f8 4f       	sbci	r31, 0xF8	; 248
    65e6:	60 81       	ld	r22, Z
    65e8:	71 81       	ldd	r23, Z+1	; 0x01
    65ea:	60 5c       	subi	r22, 0xC0	; 192
    65ec:	7f 4f       	sbci	r23, 0xFF	; 255
    65ee:	0f 2e       	mov	r0, r31
    65f0:	fb ea       	ldi	r31, 0xAB	; 171
    65f2:	ef 2e       	mov	r14, r31
    65f4:	f1 e0       	ldi	r31, 0x01	; 1
    65f6:	ff 2e       	mov	r15, r31
    65f8:	f0 2d       	mov	r31, r0
    65fa:	95 01       	movw	r18, r10
    65fc:	86 e4       	ldi	r24, 0x46	; 70
    65fe:	97 e0       	ldi	r25, 0x07	; 7
    6600:	f1 d5       	rcall	.+3042   	; 0x71e4 <_ZN4OLED19OLED_Write_To_BuferEiiiiPKh>
					break;
				}
				case 2:
				{
					oled.OLED_Clear_Bufer_part(0,y,16,8);
    6602:	8f c3       	rjmp	.+1822   	; 0x6d22 <main+0x1756>
    6604:	d1 01       	movw	r26, r2
    6606:	18 96       	adiw	r26, 0x08	; 8
    6608:	4d 91       	ld	r20, X+
    660a:	5c 91       	ld	r21, X
    660c:	19 97       	sbiw	r26, 0x09	; 9
    660e:	08 e0       	ldi	r16, 0x08	; 8
    6610:	10 e0       	ldi	r17, 0x00	; 0
    6612:	20 e1       	ldi	r18, 0x10	; 16
    6614:	30 e0       	ldi	r19, 0x00	; 0
    6616:	60 e0       	ldi	r22, 0x00	; 0
    6618:	70 e0       	ldi	r23, 0x00	; 0
    661a:	86 e4       	ldi	r24, 0x46	; 70
    661c:	97 e0       	ldi	r25, 0x07	; 7
    661e:	93 d5       	rcall	.+2854   	; 0x7146 <_ZN4OLED21OLED_Clear_Bufer_partEiiii>
					oled.OLED_Write_To_Bufer(x[pointer],y,2,8,backk);
    6620:	f1 01       	movw	r30, r2
    6622:	40 85       	ldd	r20, Z+8	; 0x08
    6624:	51 85       	ldd	r21, Z+9	; 0x09
    6626:	01 90       	ld	r0, Z+
    6628:	f0 81       	ld	r31, Z
    662a:	e0 2d       	mov	r30, r0
    662c:	ee 0f       	add	r30, r30
    662e:	ff 1f       	adc	r31, r31
    6630:	ea 5d       	subi	r30, 0xDA	; 218
    6632:	f8 4f       	sbci	r31, 0xF8	; 248
    6634:	60 81       	ld	r22, Z
    6636:	71 81       	ldd	r23, Z+1	; 0x01
    6638:	0f 2e       	mov	r0, r31
    663a:	f3 e1       	ldi	r31, 0x13	; 19
    663c:	ef 2e       	mov	r14, r31
    663e:	f1 e0       	ldi	r31, 0x01	; 1
    6640:	ff 2e       	mov	r15, r31
    6642:	f0 2d       	mov	r31, r0
    6644:	22 e0       	ldi	r18, 0x02	; 2
    6646:	30 e0       	ldi	r19, 0x00	; 0
    6648:	86 e4       	ldi	r24, 0x46	; 70
    664a:	97 e0       	ldi	r25, 0x07	; 7
    664c:	cb d5       	rcall	.+2966   	; 0x71e4 <_ZN4OLED19OLED_Write_To_BuferEiiiiPKh>
    664e:	69 c3       	rjmp	.+1746   	; 0x6d22 <main+0x1756>
		}
		else if (Info_Menu_Status)
		{
			inf_menu.refresh();
		}
		else if (User_Info_Status)
    6650:	80 91 42 07 	lds	r24, 0x0742	; 0x800742 <User_Info_Status>
    6654:	88 23       	and	r24, r24
    6656:	29 f0       	breq	.+10     	; 0x6662 <main+0x1096>
	};
	
	void refresh() 
	{
		Default();
		actions();
    6658:	8a ef       	ldi	r24, 0xFA	; 250
    665a:	96 e0       	ldi	r25, 0x06	; 6
    665c:	0e 94 c7 06 	call	0xd8e	; 0xd8e <_ZN9User_Info7actionsEv>
    6660:	60 c3       	rjmp	.+1728   	; 0x6d22 <main+0x1756>
		}
		else if (User_Info_Status)
		{
			us_inf.refresh();
		}
		else if (Device_Info_Status)
    6662:	80 91 41 07 	lds	r24, 0x0741	; 0x800741 <Device_Info_Status>
    6666:	88 23       	and	r24, r24
    6668:	a9 f0       	breq	.+42     	; 0x6694 <main+0x10c8>
		
	};
	
	void refresh() 
	{
		Default();
    666a:	a0 ef       	ldi	r26, 0xF0	; 240
    666c:	b6 e0       	ldi	r27, 0x06	; 6
    666e:	ed 91       	ld	r30, X+
    6670:	fc 91       	ld	r31, X
    6672:	11 97       	sbiw	r26, 0x01	; 1
    6674:	01 90       	ld	r0, Z+
    6676:	f0 81       	ld	r31, Z
    6678:	e0 2d       	mov	r30, r0
    667a:	cd 01       	movw	r24, r26
    667c:	09 95       	icall
		actions();
    667e:	a0 ef       	ldi	r26, 0xF0	; 240
    6680:	b6 e0       	ldi	r27, 0x06	; 6
    6682:	ed 91       	ld	r30, X+
    6684:	fc 91       	ld	r31, X
    6686:	11 97       	sbiw	r26, 0x01	; 1
    6688:	00 88       	ldd	r0, Z+16	; 0x10
    668a:	f1 89       	ldd	r31, Z+17	; 0x11
    668c:	e0 2d       	mov	r30, r0
    668e:	cd 01       	movw	r24, r26
    6690:	09 95       	icall
    6692:	47 c3       	rjmp	.+1678   	; 0x6d22 <main+0x1756>
		}
		else if (Device_Info_Status)
		{
			dev_inf.refresh();
		}
		else if (User_Add_Status)
    6694:	80 91 40 07 	lds	r24, 0x0740	; 0x800740 <User_Add_Status>
    6698:	88 23       	and	r24, r24
    669a:	09 f4       	brne	.+2      	; 0x669e <main+0x10d2>

	};
	
	void Default()
	{
		oled.OLED_Write_To_Bufer(x[0],y+1,1,8,line);
    669c:	b2 c0       	rjmp	.+356    	; 0x6802 <main+0x1236>
    669e:	40 91 da 06 	lds	r20, 0x06DA	; 0x8006da <adown+0x1a>
    66a2:	50 91 db 06 	lds	r21, 0x06DB	; 0x8006db <adown+0x1b>
    66a6:	4f 5f       	subi	r20, 0xFF	; 255
    66a8:	5f 4f       	sbci	r21, 0xFF	; 255
    66aa:	60 91 c4 06 	lds	r22, 0x06C4	; 0x8006c4 <adown+0x4>
    66ae:	70 91 c5 06 	lds	r23, 0x06C5	; 0x8006c5 <adown+0x5>
    66b2:	0f 2e       	mov	r0, r31
    66b4:	fb e4       	ldi	r31, 0x4B	; 75
    66b6:	ef 2e       	mov	r14, r31
    66b8:	f5 e0       	ldi	r31, 0x05	; 5
    66ba:	ff 2e       	mov	r15, r31
    66bc:	f0 2d       	mov	r31, r0
    66be:	08 e0       	ldi	r16, 0x08	; 8
    66c0:	10 e0       	ldi	r17, 0x00	; 0
    66c2:	95 01       	movw	r18, r10
    66c4:	86 e4       	ldi	r24, 0x46	; 70
    66c6:	97 e0       	ldi	r25, 0x07	; 7
		oled.OLED_Write_To_Bufer(x[1],y+1,1,8,line);
    66c8:	8d d5       	rcall	.+2842   	; 0x71e4 <_ZN4OLED19OLED_Write_To_BuferEiiiiPKh>
    66ca:	40 91 da 06 	lds	r20, 0x06DA	; 0x8006da <adown+0x1a>
    66ce:	50 91 db 06 	lds	r21, 0x06DB	; 0x8006db <adown+0x1b>
    66d2:	4f 5f       	subi	r20, 0xFF	; 255
    66d4:	5f 4f       	sbci	r21, 0xFF	; 255
    66d6:	60 91 c6 06 	lds	r22, 0x06C6	; 0x8006c6 <adown+0x6>
    66da:	70 91 c7 06 	lds	r23, 0x06C7	; 0x8006c7 <adown+0x7>
    66de:	95 01       	movw	r18, r10
    66e0:	86 e4       	ldi	r24, 0x46	; 70
    66e2:	97 e0       	ldi	r25, 0x07	; 7
		oled.OLED_Write_To_Bufer(x[2],y+1,1,8,line);
    66e4:	7f d5       	rcall	.+2814   	; 0x71e4 <_ZN4OLED19OLED_Write_To_BuferEiiiiPKh>
    66e6:	40 91 da 06 	lds	r20, 0x06DA	; 0x8006da <adown+0x1a>
    66ea:	50 91 db 06 	lds	r21, 0x06DB	; 0x8006db <adown+0x1b>
    66ee:	4f 5f       	subi	r20, 0xFF	; 255
    66f0:	5f 4f       	sbci	r21, 0xFF	; 255
    66f2:	60 91 c8 06 	lds	r22, 0x06C8	; 0x8006c8 <adown+0x8>
    66f6:	70 91 c9 06 	lds	r23, 0x06C9	; 0x8006c9 <adown+0x9>
    66fa:	95 01       	movw	r18, r10
    66fc:	86 e4       	ldi	r24, 0x46	; 70
    66fe:	97 e0       	ldi	r25, 0x07	; 7
		oled.OLED_Write_To_Bufer(x[3],y+1,1,8,line);
    6700:	71 d5       	rcall	.+2786   	; 0x71e4 <_ZN4OLED19OLED_Write_To_BuferEiiiiPKh>
    6702:	40 91 da 06 	lds	r20, 0x06DA	; 0x8006da <adown+0x1a>
    6706:	50 91 db 06 	lds	r21, 0x06DB	; 0x8006db <adown+0x1b>
    670a:	4f 5f       	subi	r20, 0xFF	; 255
    670c:	5f 4f       	sbci	r21, 0xFF	; 255
    670e:	60 91 ca 06 	lds	r22, 0x06CA	; 0x8006ca <adown+0xa>
    6712:	70 91 cb 06 	lds	r23, 0x06CB	; 0x8006cb <adown+0xb>
    6716:	95 01       	movw	r18, r10
    6718:	86 e4       	ldi	r24, 0x46	; 70
    671a:	97 e0       	ldi	r25, 0x07	; 7
		oled.OLED_Write_To_Bufer(x[4],y+1,1,8,line);
    671c:	63 d5       	rcall	.+2758   	; 0x71e4 <_ZN4OLED19OLED_Write_To_BuferEiiiiPKh>
    671e:	40 91 da 06 	lds	r20, 0x06DA	; 0x8006da <adown+0x1a>
    6722:	50 91 db 06 	lds	r21, 0x06DB	; 0x8006db <adown+0x1b>
    6726:	4f 5f       	subi	r20, 0xFF	; 255
    6728:	5f 4f       	sbci	r21, 0xFF	; 255
    672a:	60 91 cc 06 	lds	r22, 0x06CC	; 0x8006cc <adown+0xc>
    672e:	70 91 cd 06 	lds	r23, 0x06CD	; 0x8006cd <adown+0xd>
    6732:	95 01       	movw	r18, r10
    6734:	86 e4       	ldi	r24, 0x46	; 70
    6736:	97 e0       	ldi	r25, 0x07	; 7
		oled.OLED_Write_To_Bufer(x[5],y+1,1,8,line);
    6738:	55 d5       	rcall	.+2730   	; 0x71e4 <_ZN4OLED19OLED_Write_To_BuferEiiiiPKh>
    673a:	40 91 da 06 	lds	r20, 0x06DA	; 0x8006da <adown+0x1a>
    673e:	50 91 db 06 	lds	r21, 0x06DB	; 0x8006db <adown+0x1b>
    6742:	4f 5f       	subi	r20, 0xFF	; 255
    6744:	5f 4f       	sbci	r21, 0xFF	; 255
    6746:	60 91 ce 06 	lds	r22, 0x06CE	; 0x8006ce <adown+0xe>
    674a:	70 91 cf 06 	lds	r23, 0x06CF	; 0x8006cf <adown+0xf>
    674e:	95 01       	movw	r18, r10
    6750:	86 e4       	ldi	r24, 0x46	; 70
    6752:	97 e0       	ldi	r25, 0x07	; 7
		oled.OLED_Write_To_Bufer(x[6],y+1,1,8,line);
    6754:	47 d5       	rcall	.+2702   	; 0x71e4 <_ZN4OLED19OLED_Write_To_BuferEiiiiPKh>
    6756:	40 91 da 06 	lds	r20, 0x06DA	; 0x8006da <adown+0x1a>
    675a:	50 91 db 06 	lds	r21, 0x06DB	; 0x8006db <adown+0x1b>
    675e:	4f 5f       	subi	r20, 0xFF	; 255
    6760:	5f 4f       	sbci	r21, 0xFF	; 255
    6762:	60 91 d0 06 	lds	r22, 0x06D0	; 0x8006d0 <adown+0x10>
    6766:	70 91 d1 06 	lds	r23, 0x06D1	; 0x8006d1 <adown+0x11>
    676a:	95 01       	movw	r18, r10
    676c:	86 e4       	ldi	r24, 0x46	; 70
    676e:	97 e0       	ldi	r25, 0x07	; 7
		oled.OLED_Write_To_Bufer(x[7],y+1,1,8,line);
    6770:	39 d5       	rcall	.+2674   	; 0x71e4 <_ZN4OLED19OLED_Write_To_BuferEiiiiPKh>
    6772:	40 91 da 06 	lds	r20, 0x06DA	; 0x8006da <adown+0x1a>
    6776:	50 91 db 06 	lds	r21, 0x06DB	; 0x8006db <adown+0x1b>
    677a:	4f 5f       	subi	r20, 0xFF	; 255
    677c:	5f 4f       	sbci	r21, 0xFF	; 255
    677e:	60 91 d2 06 	lds	r22, 0x06D2	; 0x8006d2 <adown+0x12>
    6782:	70 91 d3 06 	lds	r23, 0x06D3	; 0x8006d3 <adown+0x13>
    6786:	95 01       	movw	r18, r10
    6788:	86 e4       	ldi	r24, 0x46	; 70
    678a:	97 e0       	ldi	r25, 0x07	; 7
		oled.OLED_Write_To_Bufer(x[8],y+1,1,8,line);
    678c:	2b d5       	rcall	.+2646   	; 0x71e4 <_ZN4OLED19OLED_Write_To_BuferEiiiiPKh>
    678e:	40 91 da 06 	lds	r20, 0x06DA	; 0x8006da <adown+0x1a>
    6792:	50 91 db 06 	lds	r21, 0x06DB	; 0x8006db <adown+0x1b>
    6796:	4f 5f       	subi	r20, 0xFF	; 255
    6798:	5f 4f       	sbci	r21, 0xFF	; 255
    679a:	60 91 d4 06 	lds	r22, 0x06D4	; 0x8006d4 <adown+0x14>
    679e:	70 91 d5 06 	lds	r23, 0x06D5	; 0x8006d5 <adown+0x15>
    67a2:	95 01       	movw	r18, r10
    67a4:	86 e4       	ldi	r24, 0x46	; 70
    67a6:	97 e0       	ldi	r25, 0x07	; 7
		oled.OLED_Write_To_Bufer(x[9],y+1,1,8,line);
    67a8:	1d d5       	rcall	.+2618   	; 0x71e4 <_ZN4OLED19OLED_Write_To_BuferEiiiiPKh>
    67aa:	40 91 da 06 	lds	r20, 0x06DA	; 0x8006da <adown+0x1a>
    67ae:	50 91 db 06 	lds	r21, 0x06DB	; 0x8006db <adown+0x1b>
    67b2:	4f 5f       	subi	r20, 0xFF	; 255
    67b4:	5f 4f       	sbci	r21, 0xFF	; 255
    67b6:	60 91 d6 06 	lds	r22, 0x06D6	; 0x8006d6 <adown+0x16>
    67ba:	70 91 d7 06 	lds	r23, 0x06D7	; 0x8006d7 <adown+0x17>
    67be:	95 01       	movw	r18, r10
    67c0:	86 e4       	ldi	r24, 0x46	; 70
    67c2:	97 e0       	ldi	r25, 0x07	; 7
		oled.OLED_Write_To_Bufer(x[10],y+1,1,8,line);
    67c4:	0f d5       	rcall	.+2590   	; 0x71e4 <_ZN4OLED19OLED_Write_To_BuferEiiiiPKh>
    67c6:	40 91 da 06 	lds	r20, 0x06DA	; 0x8006da <adown+0x1a>
    67ca:	50 91 db 06 	lds	r21, 0x06DB	; 0x8006db <adown+0x1b>
    67ce:	4f 5f       	subi	r20, 0xFF	; 255
    67d0:	5f 4f       	sbci	r21, 0xFF	; 255
    67d2:	60 91 d8 06 	lds	r22, 0x06D8	; 0x8006d8 <adown+0x18>
    67d6:	70 91 d9 06 	lds	r23, 0x06D9	; 0x8006d9 <adown+0x19>
    67da:	95 01       	movw	r18, r10
    67dc:	86 e4       	ldi	r24, 0x46	; 70
    67de:	97 e0       	ldi	r25, 0x07	; 7
    67e0:	01 d5       	rcall	.+2562   	; 0x71e4 <_ZN4OLED19OLED_Write_To_BuferEiiiiPKh>
		oled.OLED_Write_To_Bufer(x[11],y+1,1,8,line);
    67e2:	60 91 da 06 	lds	r22, 0x06DA	; 0x8006da <adown+0x1a>
    67e6:	70 91 db 06 	lds	r23, 0x06DB	; 0x8006db <adown+0x1b>
    67ea:	ab 01       	movw	r20, r22
    67ec:	4f 5f       	subi	r20, 0xFF	; 255
    67ee:	5f 4f       	sbci	r21, 0xFF	; 255
    67f0:	95 01       	movw	r18, r10
    67f2:	86 e4       	ldi	r24, 0x46	; 70
    67f4:	97 e0       	ldi	r25, 0x07	; 7
    67f6:	f6 d4       	rcall	.+2540   	; 0x71e4 <_ZN4OLED19OLED_Write_To_BuferEiiiiPKh>
	
	void refresh()
	{
		//oled.OLED_Bufer_Clear();
		Default();
		actions();
    67f8:	80 ec       	ldi	r24, 0xC0	; 192
    67fa:	96 e0       	ldi	r25, 0x06	; 6
    67fc:	0e 94 fc 0e 	call	0x1df8	; 0x1df8 <_ZN9Add_Owner7actionsEv>
    6800:	90 c2       	rjmp	.+1312   	; 0x6d22 <main+0x1756>
		}
		else if (User_Add_Status)
		{
		    adown.refresh();
		}
		else if (Reset_Status)
    6802:	80 91 3f 07 	lds	r24, 0x073F	; 0x80073f <Reset_Status>
    6806:	88 23       	and	r24, r24
    6808:	09 f4       	brne	.+2      	; 0x680c <main+0x1240>
    680a:	5b c1       	rjmp	.+694    	; 0x6ac2 <main+0x14f6>

	};
	
	void Default() 
	{
		oled.OLED_Write_To_Bufer(x[0]+0,y,1,8,R);
    680c:	40 91 e2 06 	lds	r20, 0x06E2	; 0x8006e2 <Dreset+0x6>
    6810:	50 91 e3 06 	lds	r21, 0x06E3	; 0x8006e3 <Dreset+0x7>
    6814:	ec ed       	ldi	r30, 0xDC	; 220
    6816:	f6 e0       	ldi	r31, 0x06	; 6
    6818:	60 81       	ld	r22, Z
    681a:	71 81       	ldd	r23, Z+1	; 0x01
    681c:	0f 2e       	mov	r0, r31
    681e:	f3 ea       	ldi	r31, 0xA3	; 163
    6820:	ef 2e       	mov	r14, r31
    6822:	f1 e0       	ldi	r31, 0x01	; 1
    6824:	ff 2e       	mov	r15, r31
    6826:	f0 2d       	mov	r31, r0
    6828:	08 e0       	ldi	r16, 0x08	; 8
    682a:	10 e0       	ldi	r17, 0x00	; 0
    682c:	95 01       	movw	r18, r10
    682e:	86 e4       	ldi	r24, 0x46	; 70
    6830:	97 e0       	ldi	r25, 0x07	; 7
    6832:	d8 d4       	rcall	.+2480   	; 0x71e4 <_ZN4OLED19OLED_Write_To_BuferEiiiiPKh>
		oled.OLED_Write_To_Bufer(x[0]+8,y,1,8,E);
    6834:	40 91 e2 06 	lds	r20, 0x06E2	; 0x8006e2 <Dreset+0x6>
    6838:	50 91 e3 06 	lds	r21, 0x06E3	; 0x8006e3 <Dreset+0x7>
    683c:	ac ed       	ldi	r26, 0xDC	; 220
    683e:	b6 e0       	ldi	r27, 0x06	; 6
    6840:	6d 91       	ld	r22, X+
    6842:	7c 91       	ld	r23, X
    6844:	68 5f       	subi	r22, 0xF8	; 248
    6846:	7f 4f       	sbci	r23, 0xFF	; 255
    6848:	0f 2e       	mov	r0, r31
    684a:	fb ef       	ldi	r31, 0xFB	; 251
    684c:	ef 2e       	mov	r14, r31
    684e:	f1 e0       	ldi	r31, 0x01	; 1
    6850:	ff 2e       	mov	r15, r31
    6852:	f0 2d       	mov	r31, r0
    6854:	95 01       	movw	r18, r10
    6856:	86 e4       	ldi	r24, 0x46	; 70
    6858:	97 e0       	ldi	r25, 0x07	; 7
    685a:	c4 d4       	rcall	.+2440   	; 0x71e4 <_ZN4OLED19OLED_Write_To_BuferEiiiiPKh>
		oled.OLED_Write_To_Bufer(x[0]+16,y,1,8,S);
    685c:	40 91 e2 06 	lds	r20, 0x06E2	; 0x8006e2 <Dreset+0x6>
    6860:	50 91 e3 06 	lds	r21, 0x06E3	; 0x8006e3 <Dreset+0x7>
    6864:	ec ed       	ldi	r30, 0xDC	; 220
    6866:	f6 e0       	ldi	r31, 0x06	; 6
    6868:	60 81       	ld	r22, Z
    686a:	71 81       	ldd	r23, Z+1	; 0x01
    686c:	60 5f       	subi	r22, 0xF0	; 240
    686e:	7f 4f       	sbci	r23, 0xFF	; 255
    6870:	0f 2e       	mov	r0, r31
    6872:	fb e9       	ldi	r31, 0x9B	; 155
    6874:	ef 2e       	mov	r14, r31
    6876:	f1 e0       	ldi	r31, 0x01	; 1
    6878:	ff 2e       	mov	r15, r31
    687a:	f0 2d       	mov	r31, r0
    687c:	95 01       	movw	r18, r10
    687e:	86 e4       	ldi	r24, 0x46	; 70
    6880:	97 e0       	ldi	r25, 0x07	; 7
    6882:	b0 d4       	rcall	.+2400   	; 0x71e4 <_ZN4OLED19OLED_Write_To_BuferEiiiiPKh>
		oled.OLED_Write_To_Bufer(x[0]+24,y,1,8,E);
    6884:	40 91 e2 06 	lds	r20, 0x06E2	; 0x8006e2 <Dreset+0x6>
    6888:	50 91 e3 06 	lds	r21, 0x06E3	; 0x8006e3 <Dreset+0x7>
    688c:	ac ed       	ldi	r26, 0xDC	; 220
    688e:	b6 e0       	ldi	r27, 0x06	; 6
    6890:	6d 91       	ld	r22, X+
    6892:	7c 91       	ld	r23, X
    6894:	68 5e       	subi	r22, 0xE8	; 232
    6896:	7f 4f       	sbci	r23, 0xFF	; 255
    6898:	0f 2e       	mov	r0, r31
    689a:	fb ef       	ldi	r31, 0xFB	; 251
    689c:	ef 2e       	mov	r14, r31
    689e:	f1 e0       	ldi	r31, 0x01	; 1
    68a0:	ff 2e       	mov	r15, r31
    68a2:	f0 2d       	mov	r31, r0
    68a4:	95 01       	movw	r18, r10
    68a6:	86 e4       	ldi	r24, 0x46	; 70
    68a8:	97 e0       	ldi	r25, 0x07	; 7
    68aa:	9c d4       	rcall	.+2360   	; 0x71e4 <_ZN4OLED19OLED_Write_To_BuferEiiiiPKh>
		oled.OLED_Write_To_Bufer(x[0]+32,y,1,8,T);
    68ac:	40 91 e2 06 	lds	r20, 0x06E2	; 0x8006e2 <Dreset+0x6>
    68b0:	50 91 e3 06 	lds	r21, 0x06E3	; 0x8006e3 <Dreset+0x7>
    68b4:	ec ed       	ldi	r30, 0xDC	; 220
    68b6:	f6 e0       	ldi	r31, 0x06	; 6
    68b8:	60 81       	ld	r22, Z
    68ba:	71 81       	ldd	r23, Z+1	; 0x01
    68bc:	60 5e       	subi	r22, 0xE0	; 224
    68be:	7f 4f       	sbci	r23, 0xFF	; 255
    68c0:	0f 2e       	mov	r0, r31
    68c2:	f3 e9       	ldi	r31, 0x93	; 147
    68c4:	ef 2e       	mov	r14, r31
    68c6:	f1 e0       	ldi	r31, 0x01	; 1
    68c8:	ff 2e       	mov	r15, r31
    68ca:	f0 2d       	mov	r31, r0
    68cc:	95 01       	movw	r18, r10
    68ce:	86 e4       	ldi	r24, 0x46	; 70
    68d0:	97 e0       	ldi	r25, 0x07	; 7
    68d2:	88 d4       	rcall	.+2320   	; 0x71e4 <_ZN4OLED19OLED_Write_To_BuferEiiiiPKh>
		oled.OLED_Write_To_Bufer(x[0]+48,y,1,8,D);
    68d4:	40 91 e2 06 	lds	r20, 0x06E2	; 0x8006e2 <Dreset+0x6>
    68d8:	50 91 e3 06 	lds	r21, 0x06E3	; 0x8006e3 <Dreset+0x7>
    68dc:	ac ed       	ldi	r26, 0xDC	; 220
    68de:	b6 e0       	ldi	r27, 0x06	; 6
    68e0:	6d 91       	ld	r22, X+
    68e2:	7c 91       	ld	r23, X
    68e4:	60 5d       	subi	r22, 0xD0	; 208
    68e6:	7f 4f       	sbci	r23, 0xFF	; 255
    68e8:	0f 2e       	mov	r0, r31
    68ea:	f3 e0       	ldi	r31, 0x03	; 3
    68ec:	ef 2e       	mov	r14, r31
    68ee:	f2 e0       	ldi	r31, 0x02	; 2
    68f0:	ff 2e       	mov	r15, r31
    68f2:	f0 2d       	mov	r31, r0
    68f4:	95 01       	movw	r18, r10
    68f6:	86 e4       	ldi	r24, 0x46	; 70
    68f8:	97 e0       	ldi	r25, 0x07	; 7
    68fa:	74 d4       	rcall	.+2280   	; 0x71e4 <_ZN4OLED19OLED_Write_To_BuferEiiiiPKh>
		oled.OLED_Write_To_Bufer(x[0]+56,y,1,8,E);
    68fc:	40 91 e2 06 	lds	r20, 0x06E2	; 0x8006e2 <Dreset+0x6>
    6900:	50 91 e3 06 	lds	r21, 0x06E3	; 0x8006e3 <Dreset+0x7>
    6904:	ec ed       	ldi	r30, 0xDC	; 220
    6906:	f6 e0       	ldi	r31, 0x06	; 6
    6908:	60 81       	ld	r22, Z
    690a:	71 81       	ldd	r23, Z+1	; 0x01
    690c:	68 5c       	subi	r22, 0xC8	; 200
    690e:	7f 4f       	sbci	r23, 0xFF	; 255
    6910:	0f 2e       	mov	r0, r31
    6912:	fb ef       	ldi	r31, 0xFB	; 251
    6914:	ef 2e       	mov	r14, r31
    6916:	f1 e0       	ldi	r31, 0x01	; 1
    6918:	ff 2e       	mov	r15, r31
    691a:	f0 2d       	mov	r31, r0
    691c:	95 01       	movw	r18, r10
    691e:	86 e4       	ldi	r24, 0x46	; 70
    6920:	97 e0       	ldi	r25, 0x07	; 7
    6922:	60 d4       	rcall	.+2240   	; 0x71e4 <_ZN4OLED19OLED_Write_To_BuferEiiiiPKh>
		oled.OLED_Write_To_Bufer(x[0]+64,y,1,8,V);
    6924:	40 91 e2 06 	lds	r20, 0x06E2	; 0x8006e2 <Dreset+0x6>
    6928:	50 91 e3 06 	lds	r21, 0x06E3	; 0x8006e3 <Dreset+0x7>
    692c:	ac ed       	ldi	r26, 0xDC	; 220
    692e:	b6 e0       	ldi	r27, 0x06	; 6
    6930:	6d 91       	ld	r22, X+
    6932:	7c 91       	ld	r23, X
    6934:	60 5c       	subi	r22, 0xC0	; 192
    6936:	7f 4f       	sbci	r23, 0xFF	; 255
    6938:	0f 2e       	mov	r0, r31
    693a:	f3 e8       	ldi	r31, 0x83	; 131
    693c:	ef 2e       	mov	r14, r31
    693e:	f1 e0       	ldi	r31, 0x01	; 1
    6940:	ff 2e       	mov	r15, r31
    6942:	f0 2d       	mov	r31, r0
    6944:	95 01       	movw	r18, r10
    6946:	86 e4       	ldi	r24, 0x46	; 70
    6948:	97 e0       	ldi	r25, 0x07	; 7
    694a:	4c d4       	rcall	.+2200   	; 0x71e4 <_ZN4OLED19OLED_Write_To_BuferEiiiiPKh>
		oled.OLED_Write_To_Bufer(x[0]+72,y,1,8,I);
    694c:	40 91 e2 06 	lds	r20, 0x06E2	; 0x8006e2 <Dreset+0x6>
    6950:	50 91 e3 06 	lds	r21, 0x06E3	; 0x8006e3 <Dreset+0x7>
    6954:	ec ed       	ldi	r30, 0xDC	; 220
    6956:	f6 e0       	ldi	r31, 0x06	; 6
    6958:	60 81       	ld	r22, Z
    695a:	71 81       	ldd	r23, Z+1	; 0x01
    695c:	68 5b       	subi	r22, 0xB8	; 184
    695e:	7f 4f       	sbci	r23, 0xFF	; 255
    6960:	0f 2e       	mov	r0, r31
    6962:	fb ed       	ldi	r31, 0xDB	; 219
    6964:	ef 2e       	mov	r14, r31
    6966:	f1 e0       	ldi	r31, 0x01	; 1
    6968:	ff 2e       	mov	r15, r31
    696a:	f0 2d       	mov	r31, r0
    696c:	95 01       	movw	r18, r10
    696e:	86 e4       	ldi	r24, 0x46	; 70
    6970:	97 e0       	ldi	r25, 0x07	; 7
    6972:	38 d4       	rcall	.+2160   	; 0x71e4 <_ZN4OLED19OLED_Write_To_BuferEiiiiPKh>
		oled.OLED_Write_To_Bufer(x[0]+80,y,1,8,C);
    6974:	40 91 e2 06 	lds	r20, 0x06E2	; 0x8006e2 <Dreset+0x6>
    6978:	50 91 e3 06 	lds	r21, 0x06E3	; 0x8006e3 <Dreset+0x7>
    697c:	ac ed       	ldi	r26, 0xDC	; 220
    697e:	b6 e0       	ldi	r27, 0x06	; 6
    6980:	6d 91       	ld	r22, X+
    6982:	7c 91       	ld	r23, X
    6984:	60 5b       	subi	r22, 0xB0	; 176
    6986:	7f 4f       	sbci	r23, 0xFF	; 255
    6988:	0f 2e       	mov	r0, r31
    698a:	fb e0       	ldi	r31, 0x0B	; 11
    698c:	ef 2e       	mov	r14, r31
    698e:	f2 e0       	ldi	r31, 0x02	; 2
    6990:	ff 2e       	mov	r15, r31
    6992:	f0 2d       	mov	r31, r0
    6994:	95 01       	movw	r18, r10
    6996:	86 e4       	ldi	r24, 0x46	; 70
    6998:	97 e0       	ldi	r25, 0x07	; 7
    699a:	24 d4       	rcall	.+2120   	; 0x71e4 <_ZN4OLED19OLED_Write_To_BuferEiiiiPKh>
		oled.OLED_Write_To_Bufer(x[0]+88,y,1,8,E);
    699c:	40 91 e2 06 	lds	r20, 0x06E2	; 0x8006e2 <Dreset+0x6>
    69a0:	50 91 e3 06 	lds	r21, 0x06E3	; 0x8006e3 <Dreset+0x7>
    69a4:	ec ed       	ldi	r30, 0xDC	; 220
    69a6:	f6 e0       	ldi	r31, 0x06	; 6
    69a8:	60 81       	ld	r22, Z
    69aa:	71 81       	ldd	r23, Z+1	; 0x01
    69ac:	68 5a       	subi	r22, 0xA8	; 168
    69ae:	7f 4f       	sbci	r23, 0xFF	; 255
    69b0:	0f 2e       	mov	r0, r31
    69b2:	fb ef       	ldi	r31, 0xFB	; 251
    69b4:	ef 2e       	mov	r14, r31
    69b6:	f1 e0       	ldi	r31, 0x01	; 1
    69b8:	ff 2e       	mov	r15, r31
    69ba:	f0 2d       	mov	r31, r0
    69bc:	95 01       	movw	r18, r10
    69be:	86 e4       	ldi	r24, 0x46	; 70
    69c0:	97 e0       	ldi	r25, 0x07	; 7
    69c2:	10 d4       	rcall	.+2080   	; 0x71e4 <_ZN4OLED19OLED_Write_To_BuferEiiiiPKh>
		oled.OLED_Write_To_Bufer(x[0]+96,y,1,8,what);
    69c4:	40 91 e2 06 	lds	r20, 0x06E2	; 0x8006e2 <Dreset+0x6>
    69c8:	50 91 e3 06 	lds	r21, 0x06E3	; 0x8006e3 <Dreset+0x7>
    69cc:	ac ed       	ldi	r26, 0xDC	; 220
    69ce:	b6 e0       	ldi	r27, 0x06	; 6
    69d0:	6d 91       	ld	r22, X+
    69d2:	7c 91       	ld	r23, X
    69d4:	60 5a       	subi	r22, 0xA0	; 160
    69d6:	7f 4f       	sbci	r23, 0xFF	; 255
    69d8:	0f 2e       	mov	r0, r31
    69da:	fb e6       	ldi	r31, 0x6B	; 107
    69dc:	ef 2e       	mov	r14, r31
    69de:	f1 e0       	ldi	r31, 0x01	; 1
    69e0:	ff 2e       	mov	r15, r31
    69e2:	f0 2d       	mov	r31, r0
    69e4:	95 01       	movw	r18, r10
    69e6:	86 e4       	ldi	r24, 0x46	; 70
    69e8:	97 e0       	ldi	r25, 0x07	; 7
    69ea:	fc d3       	rcall	.+2040   	; 0x71e4 <_ZN4OLED19OLED_Write_To_BuferEiiiiPKh>
		
		oled.OLED_Write_To_Bufer(x[2]+0,y+2,1,8,Y);
    69ec:	40 91 e2 06 	lds	r20, 0x06E2	; 0x8006e2 <Dreset+0x6>
    69f0:	50 91 e3 06 	lds	r21, 0x06E3	; 0x8006e3 <Dreset+0x7>
    69f4:	4e 5f       	subi	r20, 0xFE	; 254
    69f6:	5f 4f       	sbci	r21, 0xFF	; 255
    69f8:	60 91 e0 06 	lds	r22, 0x06E0	; 0x8006e0 <Dreset+0x4>
    69fc:	70 91 e1 06 	lds	r23, 0x06E1	; 0x8006e1 <Dreset+0x5>
    6a00:	0f 2e       	mov	r0, r31
    6a02:	f3 e7       	ldi	r31, 0x73	; 115
    6a04:	ef 2e       	mov	r14, r31
    6a06:	f1 e0       	ldi	r31, 0x01	; 1
    6a08:	ff 2e       	mov	r15, r31
    6a0a:	f0 2d       	mov	r31, r0
    6a0c:	95 01       	movw	r18, r10
    6a0e:	86 e4       	ldi	r24, 0x46	; 70
    6a10:	97 e0       	ldi	r25, 0x07	; 7
    6a12:	e8 d3       	rcall	.+2000   	; 0x71e4 <_ZN4OLED19OLED_Write_To_BuferEiiiiPKh>
		oled.OLED_Write_To_Bufer(x[2]+8,y+2,1,8,E);
    6a14:	40 91 e2 06 	lds	r20, 0x06E2	; 0x8006e2 <Dreset+0x6>
    6a18:	50 91 e3 06 	lds	r21, 0x06E3	; 0x8006e3 <Dreset+0x7>
    6a1c:	4e 5f       	subi	r20, 0xFE	; 254
    6a1e:	5f 4f       	sbci	r21, 0xFF	; 255
    6a20:	60 91 e0 06 	lds	r22, 0x06E0	; 0x8006e0 <Dreset+0x4>
    6a24:	70 91 e1 06 	lds	r23, 0x06E1	; 0x8006e1 <Dreset+0x5>
    6a28:	68 5f       	subi	r22, 0xF8	; 248
    6a2a:	7f 4f       	sbci	r23, 0xFF	; 255
    6a2c:	0f 2e       	mov	r0, r31
    6a2e:	fb ef       	ldi	r31, 0xFB	; 251
    6a30:	ef 2e       	mov	r14, r31
    6a32:	f1 e0       	ldi	r31, 0x01	; 1
    6a34:	ff 2e       	mov	r15, r31
    6a36:	f0 2d       	mov	r31, r0
    6a38:	95 01       	movw	r18, r10
    6a3a:	86 e4       	ldi	r24, 0x46	; 70
    6a3c:	97 e0       	ldi	r25, 0x07	; 7
    6a3e:	d2 d3       	rcall	.+1956   	; 0x71e4 <_ZN4OLED19OLED_Write_To_BuferEiiiiPKh>
		oled.OLED_Write_To_Bufer(x[2]+16,y+2,1,8,S);
    6a40:	40 91 e2 06 	lds	r20, 0x06E2	; 0x8006e2 <Dreset+0x6>
    6a44:	50 91 e3 06 	lds	r21, 0x06E3	; 0x8006e3 <Dreset+0x7>
    6a48:	4e 5f       	subi	r20, 0xFE	; 254
    6a4a:	5f 4f       	sbci	r21, 0xFF	; 255
    6a4c:	60 91 e0 06 	lds	r22, 0x06E0	; 0x8006e0 <Dreset+0x4>
    6a50:	70 91 e1 06 	lds	r23, 0x06E1	; 0x8006e1 <Dreset+0x5>
    6a54:	60 5f       	subi	r22, 0xF0	; 240
    6a56:	7f 4f       	sbci	r23, 0xFF	; 255
    6a58:	0f 2e       	mov	r0, r31
    6a5a:	fb e9       	ldi	r31, 0x9B	; 155
    6a5c:	ef 2e       	mov	r14, r31
    6a5e:	f1 e0       	ldi	r31, 0x01	; 1
    6a60:	ff 2e       	mov	r15, r31
    6a62:	f0 2d       	mov	r31, r0
    6a64:	95 01       	movw	r18, r10
    6a66:	86 e4       	ldi	r24, 0x46	; 70
    6a68:	97 e0       	ldi	r25, 0x07	; 7
    6a6a:	bc d3       	rcall	.+1912   	; 0x71e4 <_ZN4OLED19OLED_Write_To_BuferEiiiiPKh>
		
		oled.OLED_Write_To_Bufer(x[1]+0,y+2,1,8,N);
    6a6c:	40 91 e2 06 	lds	r20, 0x06E2	; 0x8006e2 <Dreset+0x6>
    6a70:	50 91 e3 06 	lds	r21, 0x06E3	; 0x8006e3 <Dreset+0x7>
    6a74:	4e 5f       	subi	r20, 0xFE	; 254
    6a76:	5f 4f       	sbci	r21, 0xFF	; 255
    6a78:	60 91 de 06 	lds	r22, 0x06DE	; 0x8006de <Dreset+0x2>
    6a7c:	70 91 df 06 	lds	r23, 0x06DF	; 0x8006df <Dreset+0x3>
    6a80:	0f 2e       	mov	r0, r31
    6a82:	f3 eb       	ldi	r31, 0xB3	; 179
    6a84:	ef 2e       	mov	r14, r31
    6a86:	f1 e0       	ldi	r31, 0x01	; 1
    6a88:	ff 2e       	mov	r15, r31
    6a8a:	f0 2d       	mov	r31, r0
    6a8c:	95 01       	movw	r18, r10
    6a8e:	86 e4       	ldi	r24, 0x46	; 70
    6a90:	97 e0       	ldi	r25, 0x07	; 7
    6a92:	a8 d3       	rcall	.+1872   	; 0x71e4 <_ZN4OLED19OLED_Write_To_BuferEiiiiPKh>
    6a94:	40 91 e2 06 	lds	r20, 0x06E2	; 0x8006e2 <Dreset+0x6>
		oled.OLED_Write_To_Bufer(x[1]+8,y+2,1,8,O);	
    6a98:	50 91 e3 06 	lds	r21, 0x06E3	; 0x8006e3 <Dreset+0x7>
    6a9c:	4e 5f       	subi	r20, 0xFE	; 254
    6a9e:	5f 4f       	sbci	r21, 0xFF	; 255
    6aa0:	60 91 de 06 	lds	r22, 0x06DE	; 0x8006de <Dreset+0x2>
    6aa4:	70 91 df 06 	lds	r23, 0x06DF	; 0x8006df <Dreset+0x3>
    6aa8:	68 5f       	subi	r22, 0xF8	; 248
    6aaa:	7f 4f       	sbci	r23, 0xFF	; 255
    6aac:	0f 2e       	mov	r0, r31
    6aae:	fb ea       	ldi	r31, 0xAB	; 171
    6ab0:	ef 2e       	mov	r14, r31
    6ab2:	f1 e0       	ldi	r31, 0x01	; 1
    6ab4:	ff 2e       	mov	r15, r31
    6ab6:	f0 2d       	mov	r31, r0
    6ab8:	95 01       	movw	r18, r10
    6aba:	86 e4       	ldi	r24, 0x46	; 70
    6abc:	97 e0       	ldi	r25, 0x07	; 7
    6abe:	92 d3       	rcall	.+1828   	; 0x71e4 <_ZN4OLED19OLED_Write_To_BuferEiiiiPKh>
    6ac0:	30 c1       	rjmp	.+608    	; 0x6d22 <main+0x1756>
		}
		else if (Reset_Status)
		{
			Dreset.refresh();
		}
		else if (Brightness_Status)
    6ac2:	80 91 3e 07 	lds	r24, 0x073E	; 0x80073e <Brightness_Status>
    6ac6:	88 23       	and	r24, r24
    6ac8:	99 f1       	breq	.+102    	; 0x6b30 <main+0x1564>
		pointer= brigtnesslvl;
	};
	
	void Default() 
	{
		pointer= brigtnesslvl;
    6aca:	80 91 01 01 	lds	r24, 0x0101	; 0x800101 <brigtnesslvl>
    6ace:	90 91 02 01 	lds	r25, 0x0102	; 0x800102 <brigtnesslvl+0x1>
    6ad2:	e4 ee       	ldi	r30, 0xE4	; 228
    6ad4:	f6 e0       	ldi	r31, 0x06	; 6
    6ad6:	91 83       	std	Z+1, r25	; 0x01
    6ad8:	80 83       	st	Z, r24
		oled.OLED_Write_To_Bufer(BRGTNS_SETTINGS_MENU_IMG_X_0,y+1,1,16,lt);
    6ada:	40 91 ee 06 	lds	r20, 0x06EE	; 0x8006ee <brgtns+0xa>
    6ade:	50 91 ef 06 	lds	r21, 0x06EF	; 0x8006ef <brgtns+0xb>
    6ae2:	4f 5f       	subi	r20, 0xFF	; 255
    6ae4:	5f 4f       	sbci	r21, 0xFF	; 255
    6ae6:	0f 2e       	mov	r0, r31
    6ae8:	f3 ef       	ldi	r31, 0xF3	; 243
    6aea:	ef 2e       	mov	r14, r31
    6aec:	f2 e0       	ldi	r31, 0x02	; 2
    6aee:	ff 2e       	mov	r15, r31
    6af0:	f0 2d       	mov	r31, r0
    6af2:	00 e1       	ldi	r16, 0x10	; 16
    6af4:	10 e0       	ldi	r17, 0x00	; 0
    6af6:	95 01       	movw	r18, r10
    6af8:	60 e0       	ldi	r22, 0x00	; 0
    6afa:	70 e0       	ldi	r23, 0x00	; 0
    6afc:	86 e4       	ldi	r24, 0x46	; 70
    6afe:	97 e0       	ldi	r25, 0x07	; 7
    6b00:	71 d3       	rcall	.+1762   	; 0x71e4 <_ZN4OLED19OLED_Write_To_BuferEiiiiPKh>
		oled.OLED_Write_To_Bufer(BRGTNS_SETTINGS_MENU_IMG_X_1,y+1,1,16,rt);
    6b02:	40 91 ee 06 	lds	r20, 0x06EE	; 0x8006ee <brgtns+0xa>
    6b06:	50 91 ef 06 	lds	r21, 0x06EF	; 0x8006ef <brgtns+0xb>
    6b0a:	4f 5f       	subi	r20, 0xFF	; 255
    6b0c:	5f 4f       	sbci	r21, 0xFF	; 255
    6b0e:	0f 2e       	mov	r0, r31
    6b10:	f3 e8       	ldi	r31, 0x83	; 131
    6b12:	ef 2e       	mov	r14, r31
    6b14:	f3 e0       	ldi	r31, 0x03	; 3
    6b16:	ff 2e       	mov	r15, r31
    6b18:	f0 2d       	mov	r31, r0
    6b1a:	95 01       	movw	r18, r10
    6b1c:	60 e7       	ldi	r22, 0x70	; 112
    6b1e:	70 e0       	ldi	r23, 0x00	; 0
    6b20:	86 e4       	ldi	r24, 0x46	; 70
    6b22:	97 e0       	ldi	r25, 0x07	; 7
    6b24:	5f d3       	rcall	.+1726   	; 0x71e4 <_ZN4OLED19OLED_Write_To_BuferEiiiiPKh>
	
	void refresh() 
	{
		//oled.OLED_Bufer_Clear();
		Default();
		actions();
    6b26:	84 ee       	ldi	r24, 0xE4	; 228
    6b28:	96 e0       	ldi	r25, 0x06	; 6
    6b2a:	0e 94 08 0a 	call	0x1410	; 0x1410 <_ZN10Bright_set7actionsEv>
		}
		else if (Brightness_Status)
		{
			brgtns.refresh();
		}
		else if (Waiting_Status)
    6b2e:	f9 c0       	rjmp	.+498    	; 0x6d22 <main+0x1756>
    6b30:	80 91 3d 07 	lds	r24, 0x073D	; 0x80073d <Waiting_Status>
    6b34:	81 11       	cpse	r24, r1
		{
			//	.refresh();
		}
		else if (newdevice)
    6b36:	f5 c0       	rjmp	.+490    	; 0x6d22 <main+0x1756>
    6b38:	80 91 38 07 	lds	r24, 0x0738	; 0x800738 <newdevice>
    6b3c:	88 23       	and	r24, r24
    6b3e:	09 f4       	brne	.+2      	; 0x6b42 <main+0x1576>
		{
			int x=8;
			int q=28;
			oled.OLED_Write_To_Bufer(x+0,3,1,8,Y);
    6b40:	f0 c0       	rjmp	.+480    	; 0x6d22 <main+0x1756>
    6b42:	0f 2e       	mov	r0, r31
    6b44:	f3 e7       	ldi	r31, 0x73	; 115
    6b46:	ef 2e       	mov	r14, r31
    6b48:	f1 e0       	ldi	r31, 0x01	; 1
    6b4a:	ff 2e       	mov	r15, r31
    6b4c:	f0 2d       	mov	r31, r0
    6b4e:	08 e0       	ldi	r16, 0x08	; 8
    6b50:	10 e0       	ldi	r17, 0x00	; 0
    6b52:	95 01       	movw	r18, r10
    6b54:	43 e0       	ldi	r20, 0x03	; 3
    6b56:	50 e0       	ldi	r21, 0x00	; 0
    6b58:	68 e0       	ldi	r22, 0x08	; 8
    6b5a:	70 e0       	ldi	r23, 0x00	; 0
    6b5c:	86 e4       	ldi	r24, 0x46	; 70
    6b5e:	97 e0       	ldi	r25, 0x07	; 7
			oled.OLED_Write_To_Bufer(x+8,3,1,8,O);
    6b60:	41 d3       	rcall	.+1666   	; 0x71e4 <_ZN4OLED19OLED_Write_To_BuferEiiiiPKh>
    6b62:	0f 2e       	mov	r0, r31
    6b64:	fb ea       	ldi	r31, 0xAB	; 171
    6b66:	ef 2e       	mov	r14, r31
    6b68:	f1 e0       	ldi	r31, 0x01	; 1
    6b6a:	ff 2e       	mov	r15, r31
    6b6c:	f0 2d       	mov	r31, r0
    6b6e:	95 01       	movw	r18, r10
    6b70:	43 e0       	ldi	r20, 0x03	; 3
    6b72:	50 e0       	ldi	r21, 0x00	; 0
    6b74:	60 e1       	ldi	r22, 0x10	; 16
    6b76:	70 e0       	ldi	r23, 0x00	; 0
    6b78:	86 e4       	ldi	r24, 0x46	; 70
    6b7a:	97 e0       	ldi	r25, 0x07	; 7
			oled.OLED_Write_To_Bufer(x+16,3,1,8,U);
    6b7c:	33 d3       	rcall	.+1638   	; 0x71e4 <_ZN4OLED19OLED_Write_To_BuferEiiiiPKh>
    6b7e:	0f 2e       	mov	r0, r31
    6b80:	fb e8       	ldi	r31, 0x8B	; 139
    6b82:	ef 2e       	mov	r14, r31
    6b84:	f1 e0       	ldi	r31, 0x01	; 1
    6b86:	ff 2e       	mov	r15, r31
    6b88:	f0 2d       	mov	r31, r0
    6b8a:	95 01       	movw	r18, r10
    6b8c:	43 e0       	ldi	r20, 0x03	; 3
    6b8e:	50 e0       	ldi	r21, 0x00	; 0
    6b90:	68 e1       	ldi	r22, 0x18	; 24
    6b92:	70 e0       	ldi	r23, 0x00	; 0
    6b94:	86 e4       	ldi	r24, 0x46	; 70
    6b96:	97 e0       	ldi	r25, 0x07	; 7
			oled.OLED_Write_To_Bufer(x+24,3,1,8,R);
    6b98:	25 d3       	rcall	.+1610   	; 0x71e4 <_ZN4OLED19OLED_Write_To_BuferEiiiiPKh>
    6b9a:	0f 2e       	mov	r0, r31
    6b9c:	f3 ea       	ldi	r31, 0xA3	; 163
    6b9e:	ef 2e       	mov	r14, r31
    6ba0:	f1 e0       	ldi	r31, 0x01	; 1
    6ba2:	ff 2e       	mov	r15, r31
    6ba4:	f0 2d       	mov	r31, r0
    6ba6:	95 01       	movw	r18, r10
    6ba8:	43 e0       	ldi	r20, 0x03	; 3
    6baa:	50 e0       	ldi	r21, 0x00	; 0
    6bac:	60 e2       	ldi	r22, 0x20	; 32
    6bae:	70 e0       	ldi	r23, 0x00	; 0
    6bb0:	86 e4       	ldi	r24, 0x46	; 70
    6bb2:	97 e0       	ldi	r25, 0x07	; 7
			oled.OLED_Write_To_Bufer(x+40,3,1,8,I);
    6bb4:	17 d3       	rcall	.+1582   	; 0x71e4 <_ZN4OLED19OLED_Write_To_BuferEiiiiPKh>
    6bb6:	0f 2e       	mov	r0, r31
    6bb8:	fb ed       	ldi	r31, 0xDB	; 219
    6bba:	ef 2e       	mov	r14, r31
    6bbc:	f1 e0       	ldi	r31, 0x01	; 1
    6bbe:	ff 2e       	mov	r15, r31
    6bc0:	f0 2d       	mov	r31, r0
    6bc2:	95 01       	movw	r18, r10
    6bc4:	43 e0       	ldi	r20, 0x03	; 3
    6bc6:	50 e0       	ldi	r21, 0x00	; 0
    6bc8:	60 e3       	ldi	r22, 0x30	; 48
    6bca:	70 e0       	ldi	r23, 0x00	; 0
    6bcc:	86 e4       	ldi	r24, 0x46	; 70
    6bce:	97 e0       	ldi	r25, 0x07	; 7
			oled.OLED_Write_To_Bufer(x+48,3,1,8,N);
    6bd0:	09 d3       	rcall	.+1554   	; 0x71e4 <_ZN4OLED19OLED_Write_To_BuferEiiiiPKh>
    6bd2:	0f 2e       	mov	r0, r31
    6bd4:	f3 eb       	ldi	r31, 0xB3	; 179
    6bd6:	ef 2e       	mov	r14, r31
    6bd8:	f1 e0       	ldi	r31, 0x01	; 1
    6bda:	ff 2e       	mov	r15, r31
    6bdc:	f0 2d       	mov	r31, r0
    6bde:	95 01       	movw	r18, r10
    6be0:	43 e0       	ldi	r20, 0x03	; 3
    6be2:	50 e0       	ldi	r21, 0x00	; 0
    6be4:	68 e3       	ldi	r22, 0x38	; 56
    6be6:	70 e0       	ldi	r23, 0x00	; 0
    6be8:	86 e4       	ldi	r24, 0x46	; 70
    6bea:	97 e0       	ldi	r25, 0x07	; 7
			oled.OLED_Write_To_Bufer(x+56,3,1,8,I);
    6bec:	fb d2       	rcall	.+1526   	; 0x71e4 <_ZN4OLED19OLED_Write_To_BuferEiiiiPKh>
    6bee:	0f 2e       	mov	r0, r31
    6bf0:	fb ed       	ldi	r31, 0xDB	; 219
    6bf2:	ef 2e       	mov	r14, r31
    6bf4:	f1 e0       	ldi	r31, 0x01	; 1
    6bf6:	ff 2e       	mov	r15, r31
    6bf8:	f0 2d       	mov	r31, r0
    6bfa:	95 01       	movw	r18, r10
    6bfc:	43 e0       	ldi	r20, 0x03	; 3
    6bfe:	50 e0       	ldi	r21, 0x00	; 0
    6c00:	60 e4       	ldi	r22, 0x40	; 64
    6c02:	70 e0       	ldi	r23, 0x00	; 0
    6c04:	86 e4       	ldi	r24, 0x46	; 70
    6c06:	97 e0       	ldi	r25, 0x07	; 7
			oled.OLED_Write_To_Bufer(x+64,3,1,8,T);
    6c08:	ed d2       	rcall	.+1498   	; 0x71e4 <_ZN4OLED19OLED_Write_To_BuferEiiiiPKh>
    6c0a:	0f 2e       	mov	r0, r31
    6c0c:	f3 e9       	ldi	r31, 0x93	; 147
    6c0e:	ef 2e       	mov	r14, r31
    6c10:	f1 e0       	ldi	r31, 0x01	; 1
    6c12:	ff 2e       	mov	r15, r31
    6c14:	f0 2d       	mov	r31, r0
    6c16:	95 01       	movw	r18, r10
    6c18:	43 e0       	ldi	r20, 0x03	; 3
    6c1a:	50 e0       	ldi	r21, 0x00	; 0
    6c1c:	68 e4       	ldi	r22, 0x48	; 72
    6c1e:	70 e0       	ldi	r23, 0x00	; 0
    6c20:	86 e4       	ldi	r24, 0x46	; 70
    6c22:	97 e0       	ldi	r25, 0x07	; 7
			oled.OLED_Write_To_Bufer(x+80,3,1,8,C);
    6c24:	df d2       	rcall	.+1470   	; 0x71e4 <_ZN4OLED19OLED_Write_To_BuferEiiiiPKh>
    6c26:	0f 2e       	mov	r0, r31
    6c28:	fb e0       	ldi	r31, 0x0B	; 11
    6c2a:	ef 2e       	mov	r14, r31
    6c2c:	f2 e0       	ldi	r31, 0x02	; 2
    6c2e:	ff 2e       	mov	r15, r31
    6c30:	f0 2d       	mov	r31, r0
    6c32:	95 01       	movw	r18, r10
    6c34:	43 e0       	ldi	r20, 0x03	; 3
    6c36:	50 e0       	ldi	r21, 0x00	; 0
    6c38:	68 e5       	ldi	r22, 0x58	; 88
    6c3a:	70 e0       	ldi	r23, 0x00	; 0
    6c3c:	86 e4       	ldi	r24, 0x46	; 70
    6c3e:	97 e0       	ldi	r25, 0x07	; 7
			oled.OLED_Write_To_Bufer(x+88,3,1,8,O);
    6c40:	d1 d2       	rcall	.+1442   	; 0x71e4 <_ZN4OLED19OLED_Write_To_BuferEiiiiPKh>
    6c42:	0f 2e       	mov	r0, r31
    6c44:	fb ea       	ldi	r31, 0xAB	; 171
    6c46:	ef 2e       	mov	r14, r31
    6c48:	f1 e0       	ldi	r31, 0x01	; 1
    6c4a:	ff 2e       	mov	r15, r31
    6c4c:	f0 2d       	mov	r31, r0
    6c4e:	95 01       	movw	r18, r10
    6c50:	43 e0       	ldi	r20, 0x03	; 3
    6c52:	50 e0       	ldi	r21, 0x00	; 0
    6c54:	60 e6       	ldi	r22, 0x60	; 96
    6c56:	70 e0       	ldi	r23, 0x00	; 0
    6c58:	86 e4       	ldi	r24, 0x46	; 70
    6c5a:	97 e0       	ldi	r25, 0x07	; 7
			oled.OLED_Write_To_Bufer(x+96,3,1,8,D);
    6c5c:	c3 d2       	rcall	.+1414   	; 0x71e4 <_ZN4OLED19OLED_Write_To_BuferEiiiiPKh>
    6c5e:	0f 2e       	mov	r0, r31
    6c60:	f3 e0       	ldi	r31, 0x03	; 3
    6c62:	ef 2e       	mov	r14, r31
    6c64:	f2 e0       	ldi	r31, 0x02	; 2
    6c66:	ff 2e       	mov	r15, r31
    6c68:	f0 2d       	mov	r31, r0
    6c6a:	95 01       	movw	r18, r10
    6c6c:	43 e0       	ldi	r20, 0x03	; 3
    6c6e:	50 e0       	ldi	r21, 0x00	; 0
    6c70:	68 e6       	ldi	r22, 0x68	; 104
    6c72:	70 e0       	ldi	r23, 0x00	; 0
    6c74:	86 e4       	ldi	r24, 0x46	; 70
    6c76:	97 e0       	ldi	r25, 0x07	; 7
			oled.OLED_Write_To_Bufer(x+104,3,1,8,E);
    6c78:	b5 d2       	rcall	.+1386   	; 0x71e4 <_ZN4OLED19OLED_Write_To_BuferEiiiiPKh>
    6c7a:	0f 2e       	mov	r0, r31
    6c7c:	fb ef       	ldi	r31, 0xFB	; 251
    6c7e:	ef 2e       	mov	r14, r31
    6c80:	f1 e0       	ldi	r31, 0x01	; 1
    6c82:	ff 2e       	mov	r15, r31
    6c84:	f0 2d       	mov	r31, r0
    6c86:	95 01       	movw	r18, r10
    6c88:	43 e0       	ldi	r20, 0x03	; 3
    6c8a:	50 e0       	ldi	r21, 0x00	; 0
    6c8c:	60 e7       	ldi	r22, 0x70	; 112
    6c8e:	70 e0       	ldi	r23, 0x00	; 0
    6c90:	86 e4       	ldi	r24, 0x46	; 70
    6c92:	97 e0       	ldi	r25, 0x07	; 7
			
			oled.OLED_Write_To_Bufer(q+0,4,1,8,two);
    6c94:	a7 d2       	rcall	.+1358   	; 0x71e4 <_ZN4OLED19OLED_Write_To_BuferEiiiiPKh>
    6c96:	0f 2e       	mov	r0, r31
    6c98:	fb e8       	ldi	r31, 0x8B	; 139
    6c9a:	ef 2e       	mov	r14, r31
    6c9c:	f5 e0       	ldi	r31, 0x05	; 5
    6c9e:	ff 2e       	mov	r15, r31
    6ca0:	f0 2d       	mov	r31, r0
    6ca2:	95 01       	movw	r18, r10
    6ca4:	44 e0       	ldi	r20, 0x04	; 4
    6ca6:	50 e0       	ldi	r21, 0x00	; 0
    6ca8:	6c e1       	ldi	r22, 0x1C	; 28
    6caa:	70 e0       	ldi	r23, 0x00	; 0
    6cac:	86 e4       	ldi	r24, 0x46	; 70
    6cae:	97 e0       	ldi	r25, 0x07	; 7
			oled.OLED_Write_To_Bufer(q+16,4,1,8,nine);
    6cb0:	99 d2       	rcall	.+1330   	; 0x71e4 <_ZN4OLED19OLED_Write_To_BuferEiiiiPKh>
    6cb2:	0f 2e       	mov	r0, r31
    6cb4:	f3 e5       	ldi	r31, 0x53	; 83
    6cb6:	ef 2e       	mov	r14, r31
    6cb8:	f5 e0       	ldi	r31, 0x05	; 5
    6cba:	ff 2e       	mov	r15, r31
    6cbc:	f0 2d       	mov	r31, r0
    6cbe:	95 01       	movw	r18, r10
    6cc0:	44 e0       	ldi	r20, 0x04	; 4
    6cc2:	50 e0       	ldi	r21, 0x00	; 0
    6cc4:	6c e2       	ldi	r22, 0x2C	; 44
    6cc6:	70 e0       	ldi	r23, 0x00	; 0
    6cc8:	86 e4       	ldi	r24, 0x46	; 70
    6cca:	97 e0       	ldi	r25, 0x07	; 7
    6ccc:	8b d2       	rcall	.+1302   	; 0x71e4 <_ZN4OLED19OLED_Write_To_BuferEiiiiPKh>
			oled.OLED_Write_To_Bufer(q+32,4,1,8,six);
    6cce:	0f 2e       	mov	r0, r31
    6cd0:	fb e6       	ldi	r31, 0x6B	; 107
    6cd2:	ef 2e       	mov	r14, r31
    6cd4:	f5 e0       	ldi	r31, 0x05	; 5
    6cd6:	ff 2e       	mov	r15, r31
    6cd8:	f0 2d       	mov	r31, r0
    6cda:	95 01       	movw	r18, r10
    6cdc:	44 e0       	ldi	r20, 0x04	; 4
    6cde:	50 e0       	ldi	r21, 0x00	; 0
    6ce0:	6c e3       	ldi	r22, 0x3C	; 60
    6ce2:	70 e0       	ldi	r23, 0x00	; 0
    6ce4:	86 e4       	ldi	r24, 0x46	; 70
    6ce6:	97 e0       	ldi	r25, 0x07	; 7
    6ce8:	7d d2       	rcall	.+1274   	; 0x71e4 <_ZN4OLED19OLED_Write_To_BuferEiiiiPKh>
			oled.OLED_Write_To_Bufer(q+48,4,1,8,zero);
    6cea:	0f 2e       	mov	r0, r31
    6cec:	fb e9       	ldi	r31, 0x9B	; 155
    6cee:	ef 2e       	mov	r14, r31
    6cf0:	f5 e0       	ldi	r31, 0x05	; 5
    6cf2:	ff 2e       	mov	r15, r31
    6cf4:	f0 2d       	mov	r31, r0
    6cf6:	95 01       	movw	r18, r10
    6cf8:	44 e0       	ldi	r20, 0x04	; 4
    6cfa:	50 e0       	ldi	r21, 0x00	; 0
    6cfc:	6c e4       	ldi	r22, 0x4C	; 76
    6cfe:	70 e0       	ldi	r23, 0x00	; 0
    6d00:	86 e4       	ldi	r24, 0x46	; 70
    6d02:	97 e0       	ldi	r25, 0x07	; 7
    6d04:	6f d2       	rcall	.+1246   	; 0x71e4 <_ZN4OLED19OLED_Write_To_BuferEiiiiPKh>
    6d06:	0f 2e       	mov	r0, r31
			oled.OLED_Write_To_Bufer(q+64,4,1,8,eight);
    6d08:	fb e5       	ldi	r31, 0x5B	; 91
    6d0a:	ef 2e       	mov	r14, r31
    6d0c:	f5 e0       	ldi	r31, 0x05	; 5
    6d0e:	ff 2e       	mov	r15, r31
    6d10:	f0 2d       	mov	r31, r0
    6d12:	95 01       	movw	r18, r10
    6d14:	44 e0       	ldi	r20, 0x04	; 4
    6d16:	50 e0       	ldi	r21, 0x00	; 0
    6d18:	6c e5       	ldi	r22, 0x5C	; 92
    6d1a:	70 e0       	ldi	r23, 0x00	; 0
    6d1c:	86 e4       	ldi	r24, 0x46	; 70
    6d1e:	97 e0       	ldi	r25, 0x07	; 7
    6d20:	61 d2       	rcall	.+1218   	; 0x71e4 <_ZN4OLED19OLED_Write_To_BuferEiiiiPKh>
    6d22:	83 b1       	in	r24, 0x03	; 3
}

void refreshlvl()
{
	int kf=0;
	if((PINB>>0)&(0b00000001==1)) kf++;
    6d24:	80 fb       	bst	r24, 0
//	printlvltoOLEDbufer();
}

void refreshlvl()
{
	int kf=0;
    6d26:	cc 24       	eor	r12, r12
    6d28:	c0 f8       	bld	r12, 0
    6d2a:	d1 2c       	mov	r13, r1
    6d2c:	c6 01       	movw	r24, r12
    6d2e:	19 99       	sbic	0x03, 1	; 3
	if((PINB>>0)&(0b00000001==1)) kf++;
	if((PINB>>1)&(0b00000001==1)) kf++;
    6d30:	01 96       	adiw	r24, 0x01	; 1
    6d32:	1a 99       	sbic	0x03, 2	; 3
	if((PINB>>2)&(0b00000001==1)) kf++;
    6d34:	01 96       	adiw	r24, 0x01	; 1
    6d36:	1b 99       	sbic	0x03, 3	; 3
	if((PINB>>3)&(0b00000001==1)) kf++;
    6d38:	01 96       	adiw	r24, 0x01	; 1
	curlvl=kf;
    6d3a:	90 93 b9 06 	sts	0x06B9, r25	; 0x8006b9 <batary+0x1>
    6d3e:	80 93 b8 06 	sts	0x06B8, r24	; 0x8006b8 <batary>
}

void printlvltoOLEDbufer()
{
	if(curlvl==0) oled.OLED_Write_To_Bufer(96,0,4,8,batary5);
    6d42:	89 2b       	or	r24, r25
    6d44:	89 f4       	brne	.+34     	; 0x6d68 <main+0x179c>
    6d46:	0f 2e       	mov	r0, r31
    6d48:	f3 eb       	ldi	r31, 0xB3	; 179
    6d4a:	ef 2e       	mov	r14, r31
    6d4c:	f2 e0       	ldi	r31, 0x02	; 2
    6d4e:	ff 2e       	mov	r15, r31
    6d50:	f0 2d       	mov	r31, r0
    6d52:	08 e0       	ldi	r16, 0x08	; 8
    6d54:	10 e0       	ldi	r17, 0x00	; 0
    6d56:	24 e0       	ldi	r18, 0x04	; 4
    6d58:	30 e0       	ldi	r19, 0x00	; 0
    6d5a:	40 e0       	ldi	r20, 0x00	; 0
    6d5c:	50 e0       	ldi	r21, 0x00	; 0
    6d5e:	60 e6       	ldi	r22, 0x60	; 96
    6d60:	70 e0       	ldi	r23, 0x00	; 0
    6d62:	86 e4       	ldi	r24, 0x46	; 70
    6d64:	97 e0       	ldi	r25, 0x07	; 7
    6d66:	3e d2       	rcall	.+1148   	; 0x71e4 <_ZN4OLED19OLED_Write_To_BuferEiiiiPKh>
	if(curlvl==1) oled.OLED_Write_To_Bufer(96,0,4,8,batary4);
    6d68:	80 91 b8 06 	lds	r24, 0x06B8	; 0x8006b8 <batary>
    6d6c:	90 91 b9 06 	lds	r25, 0x06B9	; 0x8006b9 <batary+0x1>
    6d70:	01 97       	sbiw	r24, 0x01	; 1
    6d72:	89 f4       	brne	.+34     	; 0x6d96 <main+0x17ca>
    6d74:	0f 2e       	mov	r0, r31
    6d76:	f3 e9       	ldi	r31, 0x93	; 147
    6d78:	ef 2e       	mov	r14, r31
    6d7a:	f2 e0       	ldi	r31, 0x02	; 2
    6d7c:	ff 2e       	mov	r15, r31
    6d7e:	f0 2d       	mov	r31, r0
    6d80:	08 e0       	ldi	r16, 0x08	; 8
    6d82:	10 e0       	ldi	r17, 0x00	; 0
    6d84:	24 e0       	ldi	r18, 0x04	; 4
    6d86:	30 e0       	ldi	r19, 0x00	; 0
    6d88:	40 e0       	ldi	r20, 0x00	; 0
    6d8a:	50 e0       	ldi	r21, 0x00	; 0
    6d8c:	60 e6       	ldi	r22, 0x60	; 96
    6d8e:	70 e0       	ldi	r23, 0x00	; 0
    6d90:	86 e4       	ldi	r24, 0x46	; 70
    6d92:	97 e0       	ldi	r25, 0x07	; 7
    6d94:	27 d2       	rcall	.+1102   	; 0x71e4 <_ZN4OLED19OLED_Write_To_BuferEiiiiPKh>
	if(curlvl==2) oled.OLED_Write_To_Bufer(96,0,4,8,batary3);
    6d96:	80 91 b8 06 	lds	r24, 0x06B8	; 0x8006b8 <batary>
    6d9a:	90 91 b9 06 	lds	r25, 0x06B9	; 0x8006b9 <batary+0x1>
    6d9e:	02 97       	sbiw	r24, 0x02	; 2
    6da0:	89 f4       	brne	.+34     	; 0x6dc4 <main+0x17f8>
    6da2:	0f 2e       	mov	r0, r31
    6da4:	f3 e7       	ldi	r31, 0x73	; 115
    6da6:	ef 2e       	mov	r14, r31
    6da8:	f2 e0       	ldi	r31, 0x02	; 2
    6daa:	ff 2e       	mov	r15, r31
    6dac:	f0 2d       	mov	r31, r0
    6dae:	08 e0       	ldi	r16, 0x08	; 8
    6db0:	10 e0       	ldi	r17, 0x00	; 0
    6db2:	24 e0       	ldi	r18, 0x04	; 4
    6db4:	30 e0       	ldi	r19, 0x00	; 0
    6db6:	40 e0       	ldi	r20, 0x00	; 0
    6db8:	50 e0       	ldi	r21, 0x00	; 0
    6dba:	60 e6       	ldi	r22, 0x60	; 96
    6dbc:	70 e0       	ldi	r23, 0x00	; 0
    6dbe:	86 e4       	ldi	r24, 0x46	; 70
    6dc0:	97 e0       	ldi	r25, 0x07	; 7
	if(curlvl==3) oled.OLED_Write_To_Bufer(96,0,4,8,batary2);
    6dc2:	10 d2       	rcall	.+1056   	; 0x71e4 <_ZN4OLED19OLED_Write_To_BuferEiiiiPKh>
    6dc4:	80 91 b8 06 	lds	r24, 0x06B8	; 0x8006b8 <batary>
    6dc8:	90 91 b9 06 	lds	r25, 0x06B9	; 0x8006b9 <batary+0x1>
    6dcc:	03 97       	sbiw	r24, 0x03	; 3
    6dce:	89 f4       	brne	.+34     	; 0x6df2 <main+0x1826>
    6dd0:	0f 2e       	mov	r0, r31
    6dd2:	f3 e5       	ldi	r31, 0x53	; 83
    6dd4:	ef 2e       	mov	r14, r31
    6dd6:	f2 e0       	ldi	r31, 0x02	; 2
    6dd8:	ff 2e       	mov	r15, r31
    6dda:	f0 2d       	mov	r31, r0
    6ddc:	08 e0       	ldi	r16, 0x08	; 8
    6dde:	10 e0       	ldi	r17, 0x00	; 0
    6de0:	24 e0       	ldi	r18, 0x04	; 4
    6de2:	30 e0       	ldi	r19, 0x00	; 0
    6de4:	40 e0       	ldi	r20, 0x00	; 0
    6de6:	50 e0       	ldi	r21, 0x00	; 0
    6de8:	60 e6       	ldi	r22, 0x60	; 96
    6dea:	70 e0       	ldi	r23, 0x00	; 0
    6dec:	86 e4       	ldi	r24, 0x46	; 70
    6dee:	97 e0       	ldi	r25, 0x07	; 7
    6df0:	f9 d1       	rcall	.+1010   	; 0x71e4 <_ZN4OLED19OLED_Write_To_BuferEiiiiPKh>
	if(curlvl==4) oled.OLED_Write_To_Bufer(96,0,4,8,batary1);
    6df2:	80 91 b8 06 	lds	r24, 0x06B8	; 0x8006b8 <batary>
    6df6:	90 91 b9 06 	lds	r25, 0x06B9	; 0x8006b9 <batary+0x1>
    6dfa:	04 97       	sbiw	r24, 0x04	; 4
    6dfc:	89 f4       	brne	.+34     	; 0x6e20 <main+0x1854>
    6dfe:	0f 2e       	mov	r0, r31
    6e00:	f3 e3       	ldi	r31, 0x33	; 51
    6e02:	ef 2e       	mov	r14, r31
    6e04:	f2 e0       	ldi	r31, 0x02	; 2
    6e06:	ff 2e       	mov	r15, r31
    6e08:	f0 2d       	mov	r31, r0
    6e0a:	08 e0       	ldi	r16, 0x08	; 8
    6e0c:	10 e0       	ldi	r17, 0x00	; 0
    6e0e:	24 e0       	ldi	r18, 0x04	; 4
    6e10:	30 e0       	ldi	r19, 0x00	; 0
    6e12:	40 e0       	ldi	r20, 0x00	; 0
    6e14:	50 e0       	ldi	r21, 0x00	; 0
    6e16:	60 e6       	ldi	r22, 0x60	; 96
    6e18:	70 e0       	ldi	r23, 0x00	; 0
    6e1a:	86 e4       	ldi	r24, 0x46	; 70
    6e1c:	97 e0       	ldi	r25, 0x07	; 7
    6e1e:	e2 d1       	rcall	.+964    	; 0x71e4 <_ZN4OLED19OLED_Write_To_BuferEiiiiPKh>
    6e20:	0f 2e       	mov	r0, r31
			
		}

		
		batary.refresh();
		oled.OLED_Write_To_Bufer(80,0,2,8,Net3);
    6e22:	f3 e2       	ldi	r31, 0x23	; 35
    6e24:	ef 2e       	mov	r14, r31
    6e26:	f2 e0       	ldi	r31, 0x02	; 2
    6e28:	ff 2e       	mov	r15, r31
    6e2a:	f0 2d       	mov	r31, r0
    6e2c:	08 e0       	ldi	r16, 0x08	; 8
    6e2e:	10 e0       	ldi	r17, 0x00	; 0
    6e30:	22 e0       	ldi	r18, 0x02	; 2
    6e32:	30 e0       	ldi	r19, 0x00	; 0
    6e34:	40 e0       	ldi	r20, 0x00	; 0
    6e36:	50 e0       	ldi	r21, 0x00	; 0
    6e38:	60 e5       	ldi	r22, 0x50	; 80
    6e3a:	70 e0       	ldi	r23, 0x00	; 0
    6e3c:	86 e4       	ldi	r24, 0x46	; 70
    6e3e:	97 e0       	ldi	r25, 0x07	; 7
    6e40:	d1 d1       	rcall	.+930    	; 0x71e4 <_ZN4OLED19OLED_Write_To_BuferEiiiiPKh>
    6e42:	86 e4       	ldi	r24, 0x46	; 70
    6e44:	97 e0       	ldi	r25, 0x07	; 7
		oled.OLED_Write_Bufer();
    6e46:	d2 d0       	rcall	.+420    	; 0x6fec <_ZN4OLED16OLED_Write_BuferEv>
    6e48:	0c 94 dc 2b 	jmp	0x57b8	; 0x57b8 <main+0x1ec>

00006e4c <_GLOBAL__sub_I_zero>:
    6e4c:	0f 93       	push	r16
		//_delay_ms(250);
		//send_Uart_str("AT");
		//send_Uart((char)13);
		//_delay_ms(250);

	while(1)
    6e4e:	1f 93       	push	r17
    6e50:	cf 93       	push	r28
		oled.OLED_Write_To_Bufer(80,0,2,8,Net3);
		oled.OLED_Write_Bufer();
	//	PORTD=0b10000000;
	//	PORTD=0b00000000;
	}
}
    6e52:	df 93       	push	r29
#include "OLED.h"
#include <avr/eeprom.h>


int brigtnesslvl=1;
TWI wire;
    6e54:	87 e4       	ldi	r24, 0x47	; 71
    6e56:	9b e0       	ldi	r25, 0x0B	; 11
    6e58:	72 d2       	rcall	.+1252   	; 0x733e <_ZN3TWIC1Ev>
OLED oled(wire,brigtnesslvl*25);
    6e5a:	80 91 01 01 	lds	r24, 0x0101	; 0x800101 <brigtnesslvl>
    6e5e:	49 e1       	ldi	r20, 0x19	; 25
    6e60:	84 9f       	mul	r24, r20
    6e62:	40 2d       	mov	r20, r0
    6e64:	11 24       	eor	r1, r1
    6e66:	60 e0       	ldi	r22, 0x00	; 0
    6e68:	86 e4       	ldi	r24, 0x46	; 70
    6e6a:	97 e0       	ldi	r25, 0x07	; 7
    6e6c:	df d0       	rcall	.+446    	; 0x702c <_ZN4OLEDC1E3TWIh>
	int pointer=0;
	int x[3]={ INFO_MENU_IMG_X_0, INFO_MENU_IMG_X_1, INFO_MENU_IMG_X_2};
	int y= INFO_MENU_IMG_Y;
	public:
	Info_menu()
	{
    6e6e:	c4 e2       	ldi	r28, 0x24	; 36
    6e70:	d7 e0       	ldi	r29, 0x07	; 7
    6e72:	19 82       	std	Y+1, r1	; 0x01
    6e74:	18 82       	st	Y, r1
    6e76:	86 e0       	ldi	r24, 0x06	; 6
    6e78:	e3 ea       	ldi	r30, 0xA3	; 163
    6e7a:	f5 e0       	ldi	r31, 0x05	; 5
    6e7c:	a6 e2       	ldi	r26, 0x26	; 38
    6e7e:	b7 e0       	ldi	r27, 0x07	; 7
    6e80:	01 90       	ld	r0, Z+
    6e82:	0d 92       	st	X+, r0
    6e84:	8a 95       	dec	r24
    6e86:	e1 f7       	brne	.-8      	; 0x6e80 <_GLOBAL__sub_I_zero+0x34>
    6e88:	84 e0       	ldi	r24, 0x04	; 4
    6e8a:	90 e0       	ldi	r25, 0x00	; 0
    6e8c:	99 87       	std	Y+9, r25	; 0x09
    6e8e:	88 87       	std	Y+8, r24	; 0x08
	int pointer=0;
	int x[4]={SETTINGS_MENU_IMG_X_0,SETTINGS_MENU_IMG_X_1,SETTINGS_MENU_IMG_X_2,SETTINGS_MENU_IMG_X_3};
	int y=SETTINGS_MENU_IMG_Y;
	public:
	Settings_Menu()
	{
    6e90:	c8 e1       	ldi	r28, 0x18	; 24
    6e92:	d7 e0       	ldi	r29, 0x07	; 7
    6e94:	19 82       	std	Y+1, r1	; 0x01
    6e96:	18 82       	st	Y, r1
    6e98:	28 e0       	ldi	r18, 0x08	; 8
    6e9a:	e9 ea       	ldi	r30, 0xA9	; 169
    6e9c:	f5 e0       	ldi	r31, 0x05	; 5
    6e9e:	aa e1       	ldi	r26, 0x1A	; 26
    6ea0:	b7 e0       	ldi	r27, 0x07	; 7
    6ea2:	01 90       	ld	r0, Z+
    6ea4:	0d 92       	st	X+, r0
    6ea6:	2a 95       	dec	r18
    6ea8:	e1 f7       	brne	.-8      	; 0x6ea2 <_GLOBAL__sub_I_zero+0x56>
    6eaa:	9b 87       	std	Y+11, r25	; 0x0b
    6eac:	8a 87       	std	Y+10, r24	; 0x0a
	int symbol_pointer=0;
	int x[5]={PASSWORD_MENU_IMG_X_0,PASSWORD_MENU_IMG_X_1,PASSWORD_MENU_IMG_X_2,PASSWORD_MENU_IMG_X_3,PASSWORD_MENU_IMG_X_4};
	int y=PASSWORD_MENU_IMG_Y;
	public:
	Password_Menu()
	{
    6eae:	c8 e0       	ldi	r28, 0x08	; 8
    6eb0:	d7 e0       	ldi	r29, 0x07	; 7
    6eb2:	19 82       	std	Y+1, r1	; 0x01
    6eb4:	18 82       	st	Y, r1
    6eb6:	1b 82       	std	Y+3, r1	; 0x03
    6eb8:	1a 82       	std	Y+2, r1	; 0x02
    6eba:	8a e0       	ldi	r24, 0x0A	; 10
    6ebc:	e1 eb       	ldi	r30, 0xB1	; 177
    6ebe:	f5 e0       	ldi	r31, 0x05	; 5
    6ec0:	ac e0       	ldi	r26, 0x0C	; 12
    6ec2:	b7 e0       	ldi	r27, 0x07	; 7
    6ec4:	01 90       	ld	r0, Z+
    6ec6:	0d 92       	st	X+, r0
    6ec8:	8a 95       	dec	r24
    6eca:	e1 f7       	brne	.-8      	; 0x6ec4 <_GLOBAL__sub_I_zero+0x78>
    6ecc:	83 e0       	ldi	r24, 0x03	; 3
    6ece:	90 e0       	ldi	r25, 0x00	; 0
    6ed0:	9f 87       	std	Y+15, r25	; 0x0f
    6ed2:	8e 87       	std	Y+14, r24	; 0x0e
{
	protected:
	int pointer=0;
	public:
	Main_Menu()
	{
    6ed4:	10 92 07 07 	sts	0x0707, r1	; 0x800707 <menu+0x1>
    6ed8:	10 92 06 07 	sts	0x0706, r1	; 0x800706 <menu>
	int pointer=0;
	int x[4]={ US_INFO_IMG_X_0, US_INFO_IMG_X_1, US_INFO_IMG_X_2,US_INFO_IMG_X_3};
	int y= US_INFO_IMG_Y;
	public:
	User_Info()
	{
    6edc:	ca ef       	ldi	r28, 0xFA	; 250
    6ede:	d6 e0       	ldi	r29, 0x06	; 6
    6ee0:	19 82       	std	Y+1, r1	; 0x01
    6ee2:	18 82       	st	Y, r1
    6ee4:	28 e0       	ldi	r18, 0x08	; 8
    6ee6:	eb eb       	ldi	r30, 0xBB	; 187
    6ee8:	f5 e0       	ldi	r31, 0x05	; 5
    6eea:	ac ef       	ldi	r26, 0xFC	; 252
    6eec:	b6 e0       	ldi	r27, 0x06	; 6
    6eee:	01 90       	ld	r0, Z+
    6ef0:	0d 92       	st	X+, r0
    6ef2:	2a 95       	dec	r18
    6ef4:	e1 f7       	brne	.-8      	; 0x6eee <_GLOBAL__sub_I_zero+0xa2>
    6ef6:	22 e0       	ldi	r18, 0x02	; 2
    6ef8:	30 e0       	ldi	r19, 0x00	; 0
    6efa:	3b 87       	std	Y+11, r19	; 0x0b
    6efc:	2a 87       	std	Y+10, r18	; 0x0a
	protected:
	int x[2]={ DV_INFO_IMG_X_0, DV_INFO_IMG_X_1};
	int y= DV_INFO_IMG_Y;
	public:
	Device_info()
	{
    6efe:	e0 ef       	ldi	r30, 0xF0	; 240
    6f00:	f6 e0       	ldi	r31, 0x06	; 6
    6f02:	47 e3       	ldi	r20, 0x37	; 55
    6f04:	56 e0       	ldi	r21, 0x06	; 6
    6f06:	51 83       	std	Z+1, r21	; 0x01
    6f08:	40 83       	st	Z, r20
    6f0a:	15 82       	std	Z+5, r1	; 0x05
    6f0c:	14 82       	std	Z+4, r1	; 0x04
    6f0e:	40 e2       	ldi	r20, 0x20	; 32
    6f10:	50 e0       	ldi	r21, 0x00	; 0
    6f12:	57 83       	std	Z+7, r21	; 0x07
    6f14:	46 83       	std	Z+6, r20	; 0x06
    6f16:	31 87       	std	Z+9, r19	; 0x09
    6f18:	20 87       	std	Z+8, r18	; 0x08
	int pointer=0;
	int x[4]={BRGTNS_SETTINGS_MENU_IMG_X_0,BRGTNS_SETTINGS_MENU_IMG_X_1,BRGTNS_SETTINGS_MENU_IMG_X_2,BRGTNS_SETTINGS_MENU_IMG_X_3};
	int y=BRGTNS_SETTINGS_MENU_IMG_Y;
	public:
	Bright_set()
	{
    6f1a:	48 e0       	ldi	r20, 0x08	; 8
    6f1c:	e3 ec       	ldi	r30, 0xC3	; 195
    6f1e:	f5 e0       	ldi	r31, 0x05	; 5
    6f20:	a6 ee       	ldi	r26, 0xE6	; 230
    6f22:	b6 e0       	ldi	r27, 0x06	; 6
    6f24:	01 90       	ld	r0, Z+
    6f26:	0d 92       	st	X+, r0
    6f28:	4a 95       	dec	r20
    6f2a:	e1 f7       	brne	.-8      	; 0x6f24 <_GLOBAL__sub_I_zero+0xd8>
    6f2c:	e4 ee       	ldi	r30, 0xE4	; 228
    6f2e:	f6 e0       	ldi	r31, 0x06	; 6
    6f30:	93 87       	std	Z+11, r25	; 0x0b
    6f32:	82 87       	std	Z+10, r24	; 0x0a
		pointer= brigtnesslvl;
    6f34:	40 91 01 01 	lds	r20, 0x0101	; 0x800101 <brigtnesslvl>
    6f38:	50 91 02 01 	lds	r21, 0x0102	; 0x800102 <brigtnesslvl+0x1>
    6f3c:	51 83       	std	Z+1, r21	; 0x01
    6f3e:	40 83       	st	Z, r20
	protected:
	int x[3]={ DR_IMG_X_0, DR_IMG_X_1,DR_IMG_X_2};
	int y= DR_IMG_Y;
	public:
	Device_reset()
	{
    6f40:	46 e0       	ldi	r20, 0x06	; 6
    6f42:	eb ec       	ldi	r30, 0xCB	; 203
    6f44:	f5 e0       	ldi	r31, 0x05	; 5
    6f46:	ac ed       	ldi	r26, 0xDC	; 220
    6f48:	b6 e0       	ldi	r27, 0x06	; 6
    6f4a:	01 90       	ld	r0, Z+
    6f4c:	0d 92       	st	X+, r0
    6f4e:	4a 95       	dec	r20
    6f50:	e1 f7       	brne	.-8      	; 0x6f4a <_GLOBAL__sub_I_zero+0xfe>
    6f52:	30 93 e3 06 	sts	0x06E3, r19	; 0x8006e3 <Dreset+0x7>
    6f56:	20 93 e2 06 	sts	0x06E2, r18	; 0x8006e2 <Dreset+0x6>
	int symbol_pointer=0;
	int x[11]={Add_Owner_MENU_IMG_X_0,Add_Owner_MENU_IMG_X_1,Add_Owner_MENU_IMG_X_2,Add_Owner_MENU_IMG_X_3,Add_Owner_MENU_IMG_X_4,Add_Owner_MENU_IMG_X_5,Add_Owner_MENU_IMG_X_6,Add_Owner_MENU_IMG_X_7,Add_Owner_MENU_IMG_X_8,Add_Owner_MENU_IMG_X_9,Add_Owner_MENU_IMG_X_10};
	int y=PASSWORD_MENU_IMG_Y;
	public:
	Add_Owner()
	{
    6f5a:	c0 ec       	ldi	r28, 0xC0	; 192
    6f5c:	d6 e0       	ldi	r29, 0x06	; 6
    6f5e:	19 82       	std	Y+1, r1	; 0x01
    6f60:	18 82       	st	Y, r1
    6f62:	1b 82       	std	Y+3, r1	; 0x03
    6f64:	1a 82       	std	Y+2, r1	; 0x02
    6f66:	26 e1       	ldi	r18, 0x16	; 22
    6f68:	e1 ed       	ldi	r30, 0xD1	; 209
    6f6a:	f5 e0       	ldi	r31, 0x05	; 5
    6f6c:	a4 ec       	ldi	r26, 0xC4	; 196
    6f6e:	b6 e0       	ldi	r27, 0x06	; 6
    6f70:	01 90       	ld	r0, Z+
    6f72:	0d 92       	st	X+, r0
    6f74:	2a 95       	dec	r18
    6f76:	e1 f7       	brne	.-8      	; 0x6f70 <_GLOBAL__sub_I_zero+0x124>
    6f78:	9b 8f       	std	Y+27, r25	; 0x1b
    6f7a:	8a 8f       	std	Y+26, r24	; 0x1a
private:
int curlvl;
public:
Batary()
{
	DDRB=0x00;
    6f7c:	14 b8       	out	0x04, r1	; 4
	PORTB=0xFF;	
    6f7e:	8f ef       	ldi	r24, 0xFF	; 255
    6f80:	85 b9       	out	0x05, r24	; 5
}

void refreshlvl()
{
	int kf=0;
	if((PINB>>0)&(0b00000001==1)) kf++;
    6f82:	83 b1       	in	r24, 0x03	; 3
//	printlvltoOLEDbufer();
}

void refreshlvl()
{
	int kf=0;
    6f84:	08 2f       	mov	r16, r24
    6f86:	01 70       	andi	r16, 0x01	; 1
    6f88:	10 e0       	ldi	r17, 0x00	; 0
    6f8a:	c8 01       	movw	r24, r16
	if((PINB>>0)&(0b00000001==1)) kf++;
	if((PINB>>1)&(0b00000001==1)) kf++;
    6f8c:	19 99       	sbic	0x03, 1	; 3
    6f8e:	01 96       	adiw	r24, 0x01	; 1
	if((PINB>>2)&(0b00000001==1)) kf++;
    6f90:	1a 99       	sbic	0x03, 2	; 3
    6f92:	01 96       	adiw	r24, 0x01	; 1
	if((PINB>>3)&(0b00000001==1)) kf++;
    6f94:	1b 99       	sbic	0x03, 3	; 3
    6f96:	01 96       	adiw	r24, 0x01	; 1
	curlvl=kf;
    6f98:	90 93 b9 06 	sts	0x06B9, r25	; 0x8006b9 <batary+0x1>
    6f9c:	80 93 b8 06 	sts	0x06B8, r24	; 0x8006b8 <batary>
		oled.OLED_Write_To_Bufer(80,0,2,8,Net3);
		oled.OLED_Write_Bufer();
	//	PORTD=0b10000000;
	//	PORTD=0b00000000;
	}
}
    6fa0:	df 91       	pop	r29
    6fa2:	cf 91       	pop	r28
    6fa4:	1f 91       	pop	r17
    6fa6:	0f 91       	pop	r16
    6fa8:	08 95       	ret

00006faa <_ZN4OLED12OLED_CommandEi>:
	}
	

	void OLED::OLED_Command(int command)
	{
		TWDR=0x80;
    6faa:	80 e8       	ldi	r24, 0x80	; 128
    6fac:	80 93 bb 00 	sts	0x00BB, r24	; 0x8000bb <__TEXT_REGION_LENGTH__+0x7e00bb>
		TWCR=(1<<TWINT)|(1<<TWEN);
    6fb0:	84 e8       	ldi	r24, 0x84	; 132
    6fb2:	80 93 bc 00 	sts	0x00BC, r24	; 0x8000bc <__TEXT_REGION_LENGTH__+0x7e00bc>
		while(!(TWCR & (1<<TWINT))){};
    6fb6:	ec eb       	ldi	r30, 0xBC	; 188
    6fb8:	f0 e0       	ldi	r31, 0x00	; 0
    6fba:	80 81       	ld	r24, Z
    6fbc:	88 23       	and	r24, r24
    6fbe:	ec f7       	brge	.-6      	; 0x6fba <_ZN4OLED12OLED_CommandEi+0x10>

		TWDR=command;
    6fc0:	60 93 bb 00 	sts	0x00BB, r22	; 0x8000bb <__TEXT_REGION_LENGTH__+0x7e00bb>
		TWCR=(1<<TWINT)|(1<<TWEN);
    6fc4:	84 e8       	ldi	r24, 0x84	; 132
    6fc6:	80 93 bc 00 	sts	0x00BC, r24	; 0x8000bc <__TEXT_REGION_LENGTH__+0x7e00bc>
		while(!(TWCR & (1<<TWINT))){};
    6fca:	ec eb       	ldi	r30, 0xBC	; 188
    6fcc:	f0 e0       	ldi	r31, 0x00	; 0
    6fce:	80 81       	ld	r24, Z
    6fd0:	88 23       	and	r24, r24
    6fd2:	ec f7       	brge	.-6      	; 0x6fce <_ZN4OLED12OLED_CommandEi+0x24>
	}
    6fd4:	08 95       	ret

00006fd6 <_ZN4OLED9OLED_DataEi>:


	void OLED::OLED_Data(int data)
	{
		TWDR=data;
    6fd6:	60 93 bb 00 	sts	0x00BB, r22	; 0x8000bb <__TEXT_REGION_LENGTH__+0x7e00bb>
		TWCR=(1<<TWINT)|(1<<TWEN);
    6fda:	84 e8       	ldi	r24, 0x84	; 132
    6fdc:	80 93 bc 00 	sts	0x00BC, r24	; 0x8000bc <__TEXT_REGION_LENGTH__+0x7e00bc>
		while(!(TWCR & (1<<TWINT))){};
    6fe0:	ec eb       	ldi	r30, 0xBC	; 188
    6fe2:	f0 e0       	ldi	r31, 0x00	; 0
    6fe4:	80 81       	ld	r24, Z
    6fe6:	88 23       	and	r24, r24
    6fe8:	ec f7       	brge	.-6      	; 0x6fe4 <_ZN4OLED9OLED_DataEi+0xe>
	}
    6fea:	08 95       	ret

00006fec <_ZN4OLED16OLED_Write_BuferEv>:


	void OLED::OLED_Write_Bufer()
	{
    6fec:	ef 92       	push	r14
    6fee:	ff 92       	push	r15
    6ff0:	0f 93       	push	r16
    6ff2:	1f 93       	push	r17
    6ff4:	cf 93       	push	r28
    6ff6:	df 93       	push	r29
    6ff8:	8c 01       	movw	r16, r24
    6ffa:	ec 01       	movw	r28, r24
    6ffc:	7c 01       	movw	r14, r24
    6ffe:	8c ef       	ldi	r24, 0xFC	; 252
    7000:	f8 1a       	sub	r15, r24
		for(int i=0;i<(OLED_HEIGHT/8)*OLED_WIDTH;i++)
		{
			OLED_Data(oled_bufer[i]);
    7002:	69 91       	ld	r22, Y+
    7004:	70 e0       	ldi	r23, 0x00	; 0
    7006:	c8 01       	movw	r24, r16
    7008:	e6 df       	rcall	.-52     	; 0x6fd6 <_ZN4OLED9OLED_DataEi>
	}


	void OLED::OLED_Write_Bufer()
	{
		for(int i=0;i<(OLED_HEIGHT/8)*OLED_WIDTH;i++)
    700a:	ce 15       	cp	r28, r14
    700c:	df 05       	cpc	r29, r15
    700e:	c9 f7       	brne	.-14     	; 0x7002 <_ZN4OLED16OLED_Write_BuferEv+0x16>
		{
			OLED_Data(oled_bufer[i]);
		}
	}
    7010:	df 91       	pop	r29
    7012:	cf 91       	pop	r28
    7014:	1f 91       	pop	r17
    7016:	0f 91       	pop	r16
    7018:	ff 90       	pop	r15
    701a:	ef 90       	pop	r14
    701c:	08 95       	ret

0000701e <_ZN4OLED16OLED_Bufer_ClearEv>:

	void OLED::OLED_Bufer_Clear()
	{
    701e:	fc 01       	movw	r30, r24
    7020:	9c 5f       	subi	r25, 0xFC	; 252
		for(int i=0;i<(OLED_HEIGHT/8)*OLED_WIDTH;i++)
		{
			oled_bufer[i]=0b00000000;
    7022:	11 92       	st	Z+, r1
		}
	}

	void OLED::OLED_Bufer_Clear()
	{
		for(int i=0;i<(OLED_HEIGHT/8)*OLED_WIDTH;i++)
    7024:	e8 17       	cp	r30, r24
    7026:	f9 07       	cpc	r31, r25
    7028:	e1 f7       	brne	.-8      	; 0x7022 <_ZN4OLED16OLED_Bufer_ClearEv+0x4>
		{
			oled_bufer[i]=0b00000000;
		}
	}
    702a:	08 95       	ret

0000702c <_ZN4OLEDC1E3TWIh>:
#include "OLED.h"

	OLED::OLED(TWI _wire,uint8_t light)
    702c:	ff 92       	push	r15
    702e:	0f 93       	push	r16
    7030:	1f 93       	push	r17
    7032:	cf 93       	push	r28
    7034:	df 93       	push	r29
    7036:	ec 01       	movw	r28, r24
    7038:	f4 2e       	mov	r15, r20
    703a:	8c 01       	movw	r16, r24
    703c:	1c 5f       	subi	r17, 0xFC	; 252
    703e:	c8 01       	movw	r24, r16
    7040:	7e d1       	rcall	.+764    	; 0x733e <_ZN3TWIC1Ev>
	{
		wire=_wire;
		wire.twi_Init();
    7042:	c8 01       	movw	r24, r16
    7044:	7d d1       	rcall	.+762    	; 0x7340 <_ZN3TWI8twi_InitEv>
		wire.twi_Start();
    7046:	c8 01       	movw	r24, r16
    7048:	8c d1       	rcall	.+792    	; 0x7362 <_ZN3TWI9twi_StartEv>
		wire.twi_SendAdress();
    704a:	c8 01       	movw	r24, r16
    704c:	7e d1       	rcall	.+764    	; 0x734a <_ZN3TWI14twi_SendAdressEv>
		OLED_Command(0xA8);
    704e:	68 ea       	ldi	r22, 0xA8	; 168
    7050:	70 e0       	ldi	r23, 0x00	; 0
    7052:	ce 01       	movw	r24, r28
    7054:	aa df       	rcall	.-172    	; 0x6faa <_ZN4OLED12OLED_CommandEi>
		OLED_Command(0x3F);
    7056:	6f e3       	ldi	r22, 0x3F	; 63
    7058:	70 e0       	ldi	r23, 0x00	; 0
    705a:	ce 01       	movw	r24, r28
    705c:	a6 df       	rcall	.-180    	; 0x6faa <_ZN4OLED12OLED_CommandEi>

		OLED_Command(0xD3);
    705e:	63 ed       	ldi	r22, 0xD3	; 211
    7060:	70 e0       	ldi	r23, 0x00	; 0
    7062:	ce 01       	movw	r24, r28
    7064:	a2 df       	rcall	.-188    	; 0x6faa <_ZN4OLED12OLED_CommandEi>
		OLED_Command(0x00);
    7066:	60 e0       	ldi	r22, 0x00	; 0
    7068:	70 e0       	ldi	r23, 0x00	; 0
    706a:	ce 01       	movw	r24, r28
    706c:	9e df       	rcall	.-196    	; 0x6faa <_ZN4OLED12OLED_CommandEi>

		OLED_Command(0x40);
    706e:	60 e4       	ldi	r22, 0x40	; 64
    7070:	70 e0       	ldi	r23, 0x00	; 0
    7072:	ce 01       	movw	r24, r28
    7074:	9a df       	rcall	.-204    	; 0x6faa <_ZN4OLED12OLED_CommandEi>
		OLED_Command(0xA1);
    7076:	61 ea       	ldi	r22, 0xA1	; 161
    7078:	70 e0       	ldi	r23, 0x00	; 0
    707a:	ce 01       	movw	r24, r28
    707c:	96 df       	rcall	.-212    	; 0x6faa <_ZN4OLED12OLED_CommandEi>

		OLED_Command(0xC8);
    707e:	68 ec       	ldi	r22, 0xC8	; 200
    7080:	70 e0       	ldi	r23, 0x00	; 0
    7082:	ce 01       	movw	r24, r28
    7084:	92 df       	rcall	.-220    	; 0x6faa <_ZN4OLED12OLED_CommandEi>
		OLED_Command(0xDA);
    7086:	6a ed       	ldi	r22, 0xDA	; 218
    7088:	70 e0       	ldi	r23, 0x00	; 0
    708a:	ce 01       	movw	r24, r28
    708c:	8e df       	rcall	.-228    	; 0x6faa <_ZN4OLED12OLED_CommandEi>
		OLED_Command(0x12);
    708e:	62 e1       	ldi	r22, 0x12	; 18
    7090:	70 e0       	ldi	r23, 0x00	; 0
    7092:	ce 01       	movw	r24, r28
    7094:	8a df       	rcall	.-236    	; 0x6faa <_ZN4OLED12OLED_CommandEi>

		OLED_Command(0x81);
    7096:	61 e8       	ldi	r22, 0x81	; 129
    7098:	70 e0       	ldi	r23, 0x00	; 0
    709a:	ce 01       	movw	r24, r28
    709c:	86 df       	rcall	.-244    	; 0x6faa <_ZN4OLED12OLED_CommandEi>
		OLED_Command(light);
    709e:	6f 2d       	mov	r22, r15
    70a0:	70 e0       	ldi	r23, 0x00	; 0
    70a2:	ce 01       	movw	r24, r28
    70a4:	82 df       	rcall	.-252    	; 0x6faa <_ZN4OLED12OLED_CommandEi>
		OLED_Command(0xA4);
    70a6:	64 ea       	ldi	r22, 0xA4	; 164
    70a8:	70 e0       	ldi	r23, 0x00	; 0
    70aa:	ce 01       	movw	r24, r28
    70ac:	7e df       	rcall	.-260    	; 0x6faa <_ZN4OLED12OLED_CommandEi>

		OLED_Command(0xA6);
    70ae:	66 ea       	ldi	r22, 0xA6	; 166
    70b0:	70 e0       	ldi	r23, 0x00	; 0
    70b2:	ce 01       	movw	r24, r28
    70b4:	7a df       	rcall	.-268    	; 0x6faa <_ZN4OLED12OLED_CommandEi>
		OLED_Command(0xD5);
    70b6:	65 ed       	ldi	r22, 0xD5	; 213
    70b8:	70 e0       	ldi	r23, 0x00	; 0
    70ba:	ce 01       	movw	r24, r28
    70bc:	76 df       	rcall	.-276    	; 0x6faa <_ZN4OLED12OLED_CommandEi>
		OLED_Command(0x80);
    70be:	60 e8       	ldi	r22, 0x80	; 128
    70c0:	70 e0       	ldi	r23, 0x00	; 0
    70c2:	ce 01       	movw	r24, r28
    70c4:	72 df       	rcall	.-284    	; 0x6faa <_ZN4OLED12OLED_CommandEi>
		OLED_Command(0x8D);
    70c6:	6d e8       	ldi	r22, 0x8D	; 141
    70c8:	70 e0       	ldi	r23, 0x00	; 0
    70ca:	ce 01       	movw	r24, r28
    70cc:	6e df       	rcall	.-292    	; 0x6faa <_ZN4OLED12OLED_CommandEi>
		OLED_Command(0x14);
    70ce:	64 e1       	ldi	r22, 0x14	; 20
    70d0:	70 e0       	ldi	r23, 0x00	; 0
    70d2:	ce 01       	movw	r24, r28
    70d4:	6a df       	rcall	.-300    	; 0x6faa <_ZN4OLED12OLED_CommandEi>
		OLED_Command(0xAF);
    70d6:	6f ea       	ldi	r22, 0xAF	; 175
    70d8:	70 e0       	ldi	r23, 0x00	; 0
    70da:	ce 01       	movw	r24, r28
    70dc:	66 df       	rcall	.-308    	; 0x6faa <_ZN4OLED12OLED_CommandEi>

		OLED_Command(0x20);
    70de:	60 e2       	ldi	r22, 0x20	; 32
    70e0:	70 e0       	ldi	r23, 0x00	; 0
    70e2:	ce 01       	movw	r24, r28
    70e4:	62 df       	rcall	.-316    	; 0x6faa <_ZN4OLED12OLED_CommandEi>
		OLED_Command(0x00);
    70e6:	60 e0       	ldi	r22, 0x00	; 0
    70e8:	70 e0       	ldi	r23, 0x00	; 0
    70ea:	ce 01       	movw	r24, r28
    70ec:	5e df       	rcall	.-324    	; 0x6faa <_ZN4OLED12OLED_CommandEi>
		OLED_Command(0x21);
    70ee:	61 e2       	ldi	r22, 0x21	; 33
    70f0:	70 e0       	ldi	r23, 0x00	; 0
    70f2:	ce 01       	movw	r24, r28
    70f4:	5a df       	rcall	.-332    	; 0x6faa <_ZN4OLED12OLED_CommandEi>
    70f6:	60 e0       	ldi	r22, 0x00	; 0
		OLED_Command(0);
    70f8:	70 e0       	ldi	r23, 0x00	; 0
    70fa:	ce 01       	movw	r24, r28
    70fc:	56 df       	rcall	.-340    	; 0x6faa <_ZN4OLED12OLED_CommandEi>
    70fe:	6f e7       	ldi	r22, 0x7F	; 127
		OLED_Command(127);
    7100:	70 e0       	ldi	r23, 0x00	; 0
    7102:	ce 01       	movw	r24, r28
    7104:	52 df       	rcall	.-348    	; 0x6faa <_ZN4OLED12OLED_CommandEi>
		OLED_Command(0x22);
    7106:	62 e2       	ldi	r22, 0x22	; 34
    7108:	70 e0       	ldi	r23, 0x00	; 0
    710a:	ce 01       	movw	r24, r28
    710c:	4e df       	rcall	.-356    	; 0x6faa <_ZN4OLED12OLED_CommandEi>
    710e:	60 e0       	ldi	r22, 0x00	; 0
		OLED_Command(0);
    7110:	70 e0       	ldi	r23, 0x00	; 0
    7112:	ce 01       	movw	r24, r28
    7114:	4a df       	rcall	.-364    	; 0x6faa <_ZN4OLED12OLED_CommandEi>
    7116:	67 e0       	ldi	r22, 0x07	; 7
    7118:	70 e0       	ldi	r23, 0x00	; 0
		OLED_Command(7);
    711a:	ce 01       	movw	r24, r28
    711c:	46 df       	rcall	.-372    	; 0x6faa <_ZN4OLED12OLED_CommandEi>
    711e:	80 e4       	ldi	r24, 0x40	; 64
    7120:	80 93 bb 00 	sts	0x00BB, r24	; 0x8000bb <__TEXT_REGION_LENGTH__+0x7e00bb>
		TWDR=0x40;
    7124:	84 e8       	ldi	r24, 0x84	; 132
    7126:	80 93 bc 00 	sts	0x00BC, r24	; 0x8000bc <__TEXT_REGION_LENGTH__+0x7e00bc>
		TWCR=(1<<TWINT)|(1<<TWEN);
    712a:	ce 01       	movw	r24, r28
    712c:	78 df       	rcall	.-272    	; 0x701e <_ZN4OLED16OLED_Bufer_ClearEv>
    712e:	60 e0       	ldi	r22, 0x00	; 0
		OLED_Bufer_Clear();
    7130:	70 e0       	ldi	r23, 0x00	; 0
    7132:	ce 01       	movw	r24, r28
    7134:	50 df       	rcall	.-352    	; 0x6fd6 <_ZN4OLED9OLED_DataEi>
		OLED_Data(0b00000000);
    7136:	ce 01       	movw	r24, r28
    7138:	59 df       	rcall	.-334    	; 0x6fec <_ZN4OLED16OLED_Write_BuferEv>
    713a:	df 91       	pop	r29
    713c:	cf 91       	pop	r28
    713e:	1f 91       	pop	r17
		OLED_Write_Bufer();
    7140:	0f 91       	pop	r16
    7142:	ff 90       	pop	r15
    7144:	08 95       	ret

00007146 <_ZN4OLED21OLED_Clear_Bufer_partEiiii>:
	}
    7146:	cf 92       	push	r12
    7148:	df 92       	push	r13
    714a:	ef 92       	push	r14
    714c:	ff 92       	push	r15
    714e:	0f 93       	push	r16
    7150:	1f 93       	push	r17
		}
	}


	void OLED::OLED_Clear_Bufer_part(int x,int y,int width,int height)
	{
    7152:	cf 93       	push	r28
    7154:	df 93       	push	r29
    7156:	ec 01       	movw	r28, r24
    7158:	7b 01       	movw	r14, r22
    715a:	6a 01       	movw	r12, r20
    715c:	b9 01       	movw	r22, r18
		for(int j=0;j<height;j++)
    715e:	10 16       	cp	r1, r16
    7160:	11 06       	cpc	r1, r17
    7162:	bc f5       	brge	.+110    	; 0x71d2 <_ZN4OLED21OLED_Clear_Bufer_partEiiii+0x8c>
    7164:	20 e0       	ldi	r18, 0x00	; 0
    7166:	30 e0       	ldi	r19, 0x00	; 0
    7168:	ab 01       	movw	r20, r22
    716a:	44 0f       	add	r20, r20
    716c:	55 1f       	adc	r21, r21
    716e:	44 0f       	add	r20, r20
    7170:	55 1f       	adc	r21, r21
    7172:	44 0f       	add	r20, r20
    7174:	55 1f       	adc	r21, r21
    7176:	4e 0d       	add	r20, r14
    7178:	5f 1d       	adc	r21, r15
		{
			
			for(int i=0;i<width;i++)
    717a:	16 16       	cp	r1, r22
    717c:	17 06       	cpc	r1, r23
    717e:	24 f5       	brge	.+72     	; 0x71c8 <_ZN4OLED21OLED_Clear_Bufer_partEiiii+0x82>
    7180:	c9 01       	movw	r24, r18
    7182:	33 23       	and	r19, r19
    7184:	0c f4       	brge	.+2      	; 0x7188 <_ZN4OLED21OLED_Clear_Bufer_partEiiii+0x42>
    7186:	07 96       	adiw	r24, 0x07	; 7
    7188:	95 95       	asr	r25
    718a:	87 95       	ror	r24
    718c:	95 95       	asr	r25
    718e:	87 95       	ror	r24
    7190:	95 95       	asr	r25
    7192:	87 95       	ror	r24
    7194:	8c 0d       	add	r24, r12
    7196:	9d 1d       	adc	r25, r13
    7198:	96 95       	lsr	r25
    719a:	98 2f       	mov	r25, r24
    719c:	88 27       	eor	r24, r24
    719e:	97 95       	ror	r25
    71a0:	87 95       	ror	r24
    71a2:	fc 01       	movw	r30, r24
    71a4:	ee 0d       	add	r30, r14
    71a6:	ff 1d       	adc	r31, r15
    71a8:	ec 0f       	add	r30, r28
    71aa:	fd 1f       	adc	r31, r29
    71ac:	84 0f       	add	r24, r20
    71ae:	95 1f       	adc	r25, r21
    71b0:	8c 0f       	add	r24, r28
    71b2:	9d 1f       	adc	r25, r29
    71b4:	df 01       	movw	r26, r30
    71b6:	18 96       	adiw	r26, 0x08	; 8
			{
				for(int k=0;k<8;k++)
				{
					oled_bufer[(x+i*8+k)+(y+j/8)*OLED_WIDTH]=0b00000000;
    71b8:	11 92       	st	Z+, r1
		for(int j=0;j<height;j++)
		{
			
			for(int i=0;i<width;i++)
			{
				for(int k=0;k<8;k++)
    71ba:	ea 17       	cp	r30, r26
    71bc:	fb 07       	cpc	r31, r27
    71be:	e1 f7       	brne	.-8      	; 0x71b8 <_ZN4OLED21OLED_Clear_Bufer_partEiiii+0x72>
    71c0:	fd 01       	movw	r30, r26
	void OLED::OLED_Clear_Bufer_part(int x,int y,int width,int height)
	{
		for(int j=0;j<height;j++)
		{
			
			for(int i=0;i<width;i++)
    71c2:	8a 17       	cp	r24, r26
    71c4:	9b 07       	cpc	r25, r27
    71c6:	b1 f7       	brne	.-20     	; 0x71b4 <_ZN4OLED21OLED_Clear_Bufer_partEiiii+0x6e>
	}


	void OLED::OLED_Clear_Bufer_part(int x,int y,int width,int height)
	{
		for(int j=0;j<height;j++)
    71c8:	2f 5f       	subi	r18, 0xFF	; 255
    71ca:	3f 4f       	sbci	r19, 0xFF	; 255
    71cc:	02 17       	cp	r16, r18
    71ce:	13 07       	cpc	r17, r19
    71d0:	a1 f6       	brne	.-88     	; 0x717a <_ZN4OLED21OLED_Clear_Bufer_partEiiii+0x34>
				{
					oled_bufer[(x+i*8+k)+(y+j/8)*OLED_WIDTH]=0b00000000;
				}
			}
		}
	}
    71d2:	df 91       	pop	r29
    71d4:	cf 91       	pop	r28
    71d6:	1f 91       	pop	r17
    71d8:	0f 91       	pop	r16
    71da:	ff 90       	pop	r15
    71dc:	ef 90       	pop	r14
    71de:	df 90       	pop	r13
    71e0:	cf 90       	pop	r12
    71e2:	08 95       	ret

000071e4 <_ZN4OLED19OLED_Write_To_BuferEiiiiPKh>:

	void OLED::OLED_Write_To_Bufer(int x,int y,int width,int height,const uint8_t* img)
	{
    71e4:	2f 92       	push	r2
    71e6:	3f 92       	push	r3
    71e8:	4f 92       	push	r4
    71ea:	5f 92       	push	r5
    71ec:	6f 92       	push	r6
    71ee:	7f 92       	push	r7
    71f0:	8f 92       	push	r8
    71f2:	9f 92       	push	r9
    71f4:	af 92       	push	r10
    71f6:	bf 92       	push	r11
    71f8:	cf 92       	push	r12
    71fa:	df 92       	push	r13
    71fc:	ef 92       	push	r14
    71fe:	ff 92       	push	r15
    7200:	0f 93       	push	r16
    7202:	1f 93       	push	r17
    7204:	cf 93       	push	r28
    7206:	df 93       	push	r29
    7208:	00 d0       	rcall	.+0      	; 0x720a <_ZN4OLED19OLED_Write_To_BuferEiiiiPKh+0x26>
    720a:	00 d0       	rcall	.+0      	; 0x720c <_ZN4OLED19OLED_Write_To_BuferEiiiiPKh+0x28>
    720c:	00 d0       	rcall	.+0      	; 0x720e <_ZN4OLED19OLED_Write_To_BuferEiiiiPKh+0x2a>
    720e:	cd b7       	in	r28, 0x3d	; 61
    7210:	de b7       	in	r29, 0x3e	; 62
    7212:	9e 83       	std	Y+6, r25	; 0x06
    7214:	8d 83       	std	Y+5, r24	; 0x05
    7216:	3a 01       	movw	r6, r20
    7218:	29 01       	movw	r4, r18
    721a:	18 01       	movw	r2, r16
		for(int j=0;j<height;j++)
    721c:	10 16       	cp	r1, r16
    721e:	11 06       	cpc	r1, r17
    7220:	0c f0       	brlt	.+2      	; 0x7224 <_ZN4OLED19OLED_Write_To_BuferEiiiiPKh+0x40>
    7222:	74 c0       	rjmp	.+232    	; 0x730c <_ZN4OLED19OLED_Write_To_BuferEiiiiPKh+0x128>
    7224:	3c 83       	std	Y+4, r19	; 0x04
    7226:	2b 83       	std	Y+3, r18	; 0x03
    7228:	8e 2c       	mov	r8, r14
    722a:	9f 2c       	mov	r9, r15
    722c:	c1 2c       	mov	r12, r1
    722e:	d1 2c       	mov	r13, r1
			
			for(int i=0;i<width;i++)
			{
				for(int k=0;k<8;k++)
				{
					oled_bufer[(x+i*8+k)+(y+j/8)*OLED_WIDTH]|=((img[j*width+i]<<k)&0b10000000)>>(7-j%8);
    7230:	0f 2e       	mov	r0, r31
    7232:	f7 e0       	ldi	r31, 0x07	; 7
    7234:	af 2e       	mov	r10, r31
    7236:	b1 2c       	mov	r11, r1
    7238:	f0 2d       	mov	r31, r0
    723a:	c9 01       	movw	r24, r18
    723c:	88 0f       	add	r24, r24
    723e:	99 1f       	adc	r25, r25
    7240:	88 0f       	add	r24, r24
    7242:	99 1f       	adc	r25, r25
    7244:	88 0f       	add	r24, r24
    7246:	99 1f       	adc	r25, r25
    7248:	9b 01       	movw	r18, r22
    724a:	28 0f       	add	r18, r24
    724c:	39 1f       	adc	r19, r25
    724e:	3a 83       	std	Y+2, r19	; 0x02
    7250:	29 83       	std	Y+1, r18	; 0x01
	void OLED::OLED_Write_To_Bufer(int x,int y,int width,int height,const uint8_t* img)
	{
		for(int j=0;j<height;j++)
		{
			
			for(int i=0;i<width;i++)
    7252:	14 14       	cp	r1, r4
    7254:	15 04       	cpc	r1, r5
    7256:	0c f0       	brlt	.+2      	; 0x725a <_ZN4OLED19OLED_Write_To_BuferEiiiiPKh+0x76>
    7258:	4e c0       	rjmp	.+156    	; 0x72f6 <_ZN4OLED19OLED_Write_To_BuferEiiiiPKh+0x112>
			{
				for(int k=0;k<8;k++)
				{
					oled_bufer[(x+i*8+k)+(y+j/8)*OLED_WIDTH]|=((img[j*width+i]<<k)&0b10000000)>>(7-j%8);
    725a:	c6 01       	movw	r24, r12
    725c:	87 70       	andi	r24, 0x07	; 7
    725e:	90 78       	andi	r25, 0x80	; 128
    7260:	99 23       	and	r25, r25
    7262:	24 f4       	brge	.+8      	; 0x726c <_ZN4OLED19OLED_Write_To_BuferEiiiiPKh+0x88>
    7264:	01 97       	sbiw	r24, 0x01	; 1
    7266:	88 6f       	ori	r24, 0xF8	; 248
    7268:	9f 6f       	ori	r25, 0xFF	; 255
    726a:	01 96       	adiw	r24, 0x01	; 1
    726c:	85 01       	movw	r16, r10
    726e:	08 1b       	sub	r16, r24
    7270:	19 0b       	sbc	r17, r25
    7272:	76 01       	movw	r14, r12
    7274:	dd 20       	and	r13, r13
    7276:	1c f4       	brge	.+6      	; 0x727e <_ZN4OLED19OLED_Write_To_BuferEiiiiPKh+0x9a>
    7278:	97 e0       	ldi	r25, 0x07	; 7
    727a:	e9 0e       	add	r14, r25
    727c:	f1 1c       	adc	r15, r1
    727e:	f5 94       	asr	r15
    7280:	e7 94       	ror	r14
    7282:	f5 94       	asr	r15
    7284:	e7 94       	ror	r14
    7286:	f5 94       	asr	r15
    7288:	e7 94       	ror	r14
    728a:	e6 0c       	add	r14, r6
    728c:	f7 1c       	adc	r15, r7
    728e:	f6 94       	lsr	r15
    7290:	fe 2c       	mov	r15, r14
    7292:	ee 24       	eor	r14, r14
    7294:	f7 94       	ror	r15
    7296:	e7 94       	ror	r14
    7298:	ab 01       	movw	r20, r22
    729a:	4e 0d       	add	r20, r14
    729c:	5f 1d       	adc	r21, r15
    729e:	2d 81       	ldd	r18, Y+5	; 0x05
    72a0:	3e 81       	ldd	r19, Y+6	; 0x06
    72a2:	42 0f       	add	r20, r18
    72a4:	53 1f       	adc	r21, r19
    72a6:	89 81       	ldd	r24, Y+1	; 0x01
    72a8:	9a 81       	ldd	r25, Y+2	; 0x02
    72aa:	e8 0e       	add	r14, r24
    72ac:	f9 1e       	adc	r15, r25
    72ae:	e2 0e       	add	r14, r18
    72b0:	f3 1e       	adc	r15, r19
    72b2:	d4 01       	movw	r26, r8
    72b4:	fa 01       	movw	r30, r20
    72b6:	20 e0       	ldi	r18, 0x00	; 0
    72b8:	30 e0       	ldi	r19, 0x00	; 0
    72ba:	8c 91       	ld	r24, X
    72bc:	90 e0       	ldi	r25, 0x00	; 0
    72be:	02 2e       	mov	r0, r18
    72c0:	02 c0       	rjmp	.+4      	; 0x72c6 <_ZN4OLED19OLED_Write_To_BuferEiiiiPKh+0xe2>
    72c2:	88 0f       	add	r24, r24
    72c4:	99 1f       	adc	r25, r25
    72c6:	0a 94       	dec	r0
    72c8:	e2 f7       	brpl	.-8      	; 0x72c2 <_ZN4OLED19OLED_Write_To_BuferEiiiiPKh+0xde>
    72ca:	80 78       	andi	r24, 0x80	; 128
    72cc:	99 27       	eor	r25, r25
    72ce:	00 2e       	mov	r0, r16
    72d0:	02 c0       	rjmp	.+4      	; 0x72d6 <_ZN4OLED19OLED_Write_To_BuferEiiiiPKh+0xf2>
    72d2:	95 95       	asr	r25
    72d4:	87 95       	ror	r24
    72d6:	0a 94       	dec	r0
    72d8:	e2 f7       	brpl	.-8      	; 0x72d2 <_ZN4OLED19OLED_Write_To_BuferEiiiiPKh+0xee>
    72da:	90 81       	ld	r25, Z
    72dc:	89 2b       	or	r24, r25
    72de:	81 93       	st	Z+, r24
		for(int j=0;j<height;j++)
		{
			
			for(int i=0;i<width;i++)
			{
				for(int k=0;k<8;k++)
    72e0:	2f 5f       	subi	r18, 0xFF	; 255
    72e2:	3f 4f       	sbci	r19, 0xFF	; 255
    72e4:	28 30       	cpi	r18, 0x08	; 8
    72e6:	31 05       	cpc	r19, r1
    72e8:	41 f7       	brne	.-48     	; 0x72ba <_ZN4OLED19OLED_Write_To_BuferEiiiiPKh+0xd6>
    72ea:	48 5f       	subi	r20, 0xF8	; 248
    72ec:	5f 4f       	sbci	r21, 0xFF	; 255
    72ee:	11 96       	adiw	r26, 0x01	; 1
	void OLED::OLED_Write_To_Bufer(int x,int y,int width,int height,const uint8_t* img)
	{
		for(int j=0;j<height;j++)
		{
			
			for(int i=0;i<width;i++)
    72f0:	4e 15       	cp	r20, r14
    72f2:	5f 05       	cpc	r21, r15
    72f4:	f9 f6       	brne	.-66     	; 0x72b4 <_ZN4OLED19OLED_Write_To_BuferEiiiiPKh+0xd0>
		}
	}

	void OLED::OLED_Write_To_Bufer(int x,int y,int width,int height,const uint8_t* img)
	{
		for(int j=0;j<height;j++)
    72f6:	3f ef       	ldi	r19, 0xFF	; 255
    72f8:	c3 1a       	sub	r12, r19
    72fa:	d3 0a       	sbc	r13, r19
    72fc:	8b 81       	ldd	r24, Y+3	; 0x03
    72fe:	9c 81       	ldd	r25, Y+4	; 0x04
    7300:	88 0e       	add	r8, r24
    7302:	99 1e       	adc	r9, r25
    7304:	2c 14       	cp	r2, r12
    7306:	3d 04       	cpc	r3, r13
    7308:	09 f0       	breq	.+2      	; 0x730c <_ZN4OLED19OLED_Write_To_BuferEiiiiPKh+0x128>
    730a:	a3 cf       	rjmp	.-186    	; 0x7252 <_ZN4OLED19OLED_Write_To_BuferEiiiiPKh+0x6e>
				{
					oled_bufer[(x+i*8+k)+(y+j/8)*OLED_WIDTH]|=((img[j*width+i]<<k)&0b10000000)>>(7-j%8);
				}
			}
		}
	}
    730c:	26 96       	adiw	r28, 0x06	; 6
    730e:	0f b6       	in	r0, 0x3f	; 63
    7310:	f8 94       	cli
    7312:	de bf       	out	0x3e, r29	; 62
    7314:	0f be       	out	0x3f, r0	; 63
    7316:	cd bf       	out	0x3d, r28	; 61
    7318:	df 91       	pop	r29
    731a:	cf 91       	pop	r28
    731c:	1f 91       	pop	r17
    731e:	0f 91       	pop	r16
    7320:	ff 90       	pop	r15
    7322:	ef 90       	pop	r14
    7324:	df 90       	pop	r13
    7326:	cf 90       	pop	r12
    7328:	bf 90       	pop	r11
    732a:	af 90       	pop	r10
    732c:	9f 90       	pop	r9
    732e:	8f 90       	pop	r8
    7330:	7f 90       	pop	r7
    7332:	6f 90       	pop	r6
    7334:	5f 90       	pop	r5
    7336:	4f 90       	pop	r4
    7338:	3f 90       	pop	r3
    733a:	2f 90       	pop	r2
    733c:	08 95       	ret

0000733e <_ZN3TWIC1Ev>:
#include "TWI.h"


	TWI::TWI(){}
    733e:	08 95       	ret

00007340 <_ZN3TWI8twi_InitEv>:

	void TWI::twi_Init(void)
	{
		TWBR=(((CPU_F)/(SCL_F)-16)/2);
    7340:	10 92 b8 00 	sts	0x00B8, r1	; 0x8000b8 <__TEXT_REGION_LENGTH__+0x7e00b8>
		TWSR=0;
    7344:	10 92 b9 00 	sts	0x00B9, r1	; 0x8000b9 <__TEXT_REGION_LENGTH__+0x7e00b9>
    7348:	08 95       	ret

0000734a <_ZN3TWI14twi_SendAdressEv>:
	}

	void TWI::twi_SendAdress(void)
	{
		TWDR=(Dev_Adr<<1)|0;
    734a:	88 e7       	ldi	r24, 0x78	; 120
    734c:	80 93 bb 00 	sts	0x00BB, r24	; 0x8000bb <__TEXT_REGION_LENGTH__+0x7e00bb>
		TWCR=(1<<TWINT)|(1<<TWEN);
    7350:	84 e8       	ldi	r24, 0x84	; 132
    7352:	80 93 bc 00 	sts	0x00BC, r24	; 0x8000bc <__TEXT_REGION_LENGTH__+0x7e00bc>
		while(!(TWCR & (1<<TWINT))){};
    7356:	ec eb       	ldi	r30, 0xBC	; 188
    7358:	f0 e0       	ldi	r31, 0x00	; 0
    735a:	80 81       	ld	r24, Z
    735c:	88 23       	and	r24, r24
    735e:	ec f7       	brge	.-6      	; 0x735a <_ZN3TWI14twi_SendAdressEv+0x10>
	}
    7360:	08 95       	ret

00007362 <_ZN3TWI9twi_StartEv>:

	void TWI::twi_Start(void)
	{
		TWCR=(1<<TWINT)|(1<<TWSTA)|(1<<TWEN);
    7362:	84 ea       	ldi	r24, 0xA4	; 164
    7364:	80 93 bc 00 	sts	0x00BC, r24	; 0x8000bc <__TEXT_REGION_LENGTH__+0x7e00bc>
		while(!(TWCR & (1<<TWINT))){};
    7368:	ec eb       	ldi	r30, 0xBC	; 188
    736a:	f0 e0       	ldi	r31, 0x00	; 0
    736c:	80 81       	ld	r24, Z
    736e:	88 23       	and	r24, r24
    7370:	ec f7       	brge	.-6      	; 0x736c <_ZN3TWI9twi_StartEv+0xa>
	}
    7372:	08 95       	ret

00007374 <__tablejump2__>:
    7374:	ee 0f       	add	r30, r30
    7376:	ff 1f       	adc	r31, r31
    7378:	00 24       	eor	r0, r0
    737a:	00 1c       	adc	r0, r0
    737c:	0b be       	out	0x3b, r0	; 59
    737e:	07 90       	elpm	r0, Z+
    7380:	f6 91       	elpm	r31, Z
    7382:	e0 2d       	mov	r30, r0
    7384:	09 94       	ijmp

00007386 <_exit>:
    7386:	f8 94       	cli

00007388 <__stop_program>:
    7388:	ff cf       	rjmp	.-2      	; 0x7388 <__stop_program>
