
SmartLock.elf:     file format elf32-avr

Sections:
Idx Name          Size      VMA       LMA       File off  Algn
  0 .data         00000514  00800100  00004340  000043d4  2**0
                  CONTENTS, ALLOC, LOAD, DATA
  1 .text         00004340  00000000  00000000  00000094  2**1
                  CONTENTS, ALLOC, LOAD, READONLY, CODE
  2 .bss          00000460  00800614  00800614  000048e8  2**0
                  ALLOC
  3 .comment      00000030  00000000  00000000  000048e8  2**0
                  CONTENTS, READONLY
  4 .note.gnu.avr.deviceinfo 00000040  00000000  00000000  00004918  2**2
                  CONTENTS, READONLY
  5 .debug_aranges 000002a8  00000000  00000000  00004958  2**0
                  CONTENTS, READONLY, DEBUGGING
  6 .debug_info   00009374  00000000  00000000  00004c00  2**0
                  CONTENTS, READONLY, DEBUGGING
  7 .debug_abbrev 00000f7a  00000000  00000000  0000df74  2**0
                  CONTENTS, READONLY, DEBUGGING
  8 .debug_line   00002037  00000000  00000000  0000eeee  2**0
                  CONTENTS, READONLY, DEBUGGING
  9 .debug_frame  00000890  00000000  00000000  00010f28  2**2
                  CONTENTS, READONLY, DEBUGGING
 10 .debug_str    000010e3  00000000  00000000  000117b8  2**0
                  CONTENTS, READONLY, DEBUGGING
 11 .debug_loc    000042d1  00000000  00000000  0001289b  2**0
                  CONTENTS, READONLY, DEBUGGING
 12 .debug_ranges 00000320  00000000  00000000  00016b6c  2**0
                  CONTENTS, READONLY, DEBUGGING

Disassembly of section .text:

00000000 <__vectors>:
       0:	67 c0       	rjmp	.+206    	; 0xd0 <__ctors_end>
       2:	00 00       	nop
       4:	8f c0       	rjmp	.+286    	; 0x124 <__bad_interrupt>
       6:	00 00       	nop
       8:	8d c0       	rjmp	.+282    	; 0x124 <__bad_interrupt>
       a:	00 00       	nop
       c:	8b c0       	rjmp	.+278    	; 0x124 <__bad_interrupt>
       e:	00 00       	nop
      10:	0c 94 c0 15 	jmp	0x2b80	; 0x2b80 <__vector_4>
      14:	87 c0       	rjmp	.+270    	; 0x124 <__bad_interrupt>
      16:	00 00       	nop
      18:	85 c0       	rjmp	.+266    	; 0x124 <__bad_interrupt>
      1a:	00 00       	nop
      1c:	83 c0       	rjmp	.+262    	; 0x124 <__bad_interrupt>
      1e:	00 00       	nop
      20:	81 c0       	rjmp	.+258    	; 0x124 <__bad_interrupt>
      22:	00 00       	nop
      24:	7f c0       	rjmp	.+254    	; 0x124 <__bad_interrupt>
      26:	00 00       	nop
      28:	7d c0       	rjmp	.+250    	; 0x124 <__bad_interrupt>
      2a:	00 00       	nop
      2c:	7b c0       	rjmp	.+246    	; 0x124 <__bad_interrupt>
      2e:	00 00       	nop
      30:	79 c0       	rjmp	.+242    	; 0x124 <__bad_interrupt>
      32:	00 00       	nop
      34:	77 c0       	rjmp	.+238    	; 0x124 <__bad_interrupt>
      36:	00 00       	nop
      38:	75 c0       	rjmp	.+234    	; 0x124 <__bad_interrupt>
      3a:	00 00       	nop
      3c:	73 c0       	rjmp	.+230    	; 0x124 <__bad_interrupt>
      3e:	00 00       	nop
      40:	71 c0       	rjmp	.+226    	; 0x124 <__bad_interrupt>
      42:	00 00       	nop
      44:	6f c0       	rjmp	.+222    	; 0x124 <__bad_interrupt>
      46:	00 00       	nop
      48:	6d c0       	rjmp	.+218    	; 0x124 <__bad_interrupt>
      4a:	00 00       	nop
      4c:	6b c0       	rjmp	.+214    	; 0x124 <__bad_interrupt>
      4e:	00 00       	nop
      50:	69 c0       	rjmp	.+210    	; 0x124 <__bad_interrupt>
      52:	00 00       	nop
      54:	67 c0       	rjmp	.+206    	; 0x124 <__bad_interrupt>
      56:	00 00       	nop
      58:	65 c0       	rjmp	.+202    	; 0x124 <__bad_interrupt>
      5a:	00 00       	nop
      5c:	63 c0       	rjmp	.+198    	; 0x124 <__bad_interrupt>
      5e:	00 00       	nop
      60:	61 c0       	rjmp	.+194    	; 0x124 <__bad_interrupt>
      62:	00 00       	nop
      64:	5f c0       	rjmp	.+190    	; 0x124 <__bad_interrupt>
      66:	00 00       	nop
      68:	5d c0       	rjmp	.+186    	; 0x124 <__bad_interrupt>
      6a:	00 00       	nop
      6c:	5b c0       	rjmp	.+182    	; 0x124 <__bad_interrupt>
      6e:	00 00       	nop
      70:	59 c0       	rjmp	.+178    	; 0x124 <__bad_interrupt>
      72:	00 00       	nop
      74:	57 c0       	rjmp	.+174    	; 0x124 <__bad_interrupt>
      76:	00 00       	nop
      78:	55 c0       	rjmp	.+170    	; 0x124 <__bad_interrupt>
      7a:	00 00       	nop
      7c:	53 c0       	rjmp	.+166    	; 0x124 <__bad_interrupt>
      7e:	00 00       	nop
      80:	51 c0       	rjmp	.+162    	; 0x124 <__bad_interrupt>
      82:	00 00       	nop
      84:	4f c0       	rjmp	.+158    	; 0x124 <__bad_interrupt>
      86:	00 00       	nop
      88:	4d c0       	rjmp	.+154    	; 0x124 <__bad_interrupt>
      8a:	00 00       	nop
      8c:	ad 02       	muls	r26, r29
      8e:	e3 02       	muls	r30, r19
      90:	19 03       	fmul	r17, r17
      92:	4f 03       	fmul	r20, r23
      94:	85 03       	fmuls	r16, r21
      96:	bb 03       	fmulsu	r19, r19
      98:	f1 03       	fmuls	r23, r17
      9a:	27 04       	cpc	r2, r7
      9c:	5d 04       	cpc	r5, r13
      9e:	93 04       	cpc	r9, r3
      a0:	c8 04       	cpc	r12, r8
      a2:	69 0b       	sbc	r22, r25
      a4:	c6 0b       	sbc	r28, r22
      a6:	23 0c       	add	r2, r3
      a8:	80 0c       	add	r8, r0
      aa:	dd 0c       	add	r13, r13
      ac:	3a 0d       	add	r19, r10
      ae:	97 0d       	add	r25, r7
      b0:	f4 0d       	add	r31, r4
      b2:	51 0e       	add	r5, r17
      b4:	ae 0e       	add	r10, r30
      b6:	0b 0f       	add	r16, r27
      b8:	c1 19       	sub	r28, r1
      ba:	fa 19       	sub	r31, r10
      bc:	33 1a       	sub	r3, r19
      be:	6c 1a       	sub	r6, r28
      c0:	a5 1a       	sub	r10, r21
      c2:	de 1a       	sub	r13, r30
      c4:	17 1b       	sub	r17, r23
      c6:	50 1b       	sub	r21, r16
      c8:	89 1b       	sub	r24, r25
      ca:	c2 1b       	sub	r28, r18
      cc:	fa 1b       	sub	r31, r26

000000ce <__ctors_start>:
      ce:	2b 1f       	adc	r18, r27

000000d0 <__ctors_end>:
      d0:	11 24       	eor	r1, r1
      d2:	1f be       	out	0x3f, r1	; 63
      d4:	cf ef       	ldi	r28, 0xFF	; 255
      d6:	d0 e4       	ldi	r29, 0x40	; 64
      d8:	de bf       	out	0x3e, r29	; 62
      da:	cd bf       	out	0x3d, r28	; 61

000000dc <__do_copy_data>:
      dc:	16 e0       	ldi	r17, 0x06	; 6
      de:	a0 e0       	ldi	r26, 0x00	; 0
      e0:	b1 e0       	ldi	r27, 0x01	; 1
      e2:	e0 e4       	ldi	r30, 0x40	; 64
      e4:	f3 e4       	ldi	r31, 0x43	; 67
      e6:	00 e0       	ldi	r16, 0x00	; 0
      e8:	0b bf       	out	0x3b, r16	; 59
      ea:	02 c0       	rjmp	.+4      	; 0xf0 <__do_copy_data+0x14>
      ec:	07 90       	elpm	r0, Z+
      ee:	0d 92       	st	X+, r0
      f0:	a4 31       	cpi	r26, 0x14	; 20
      f2:	b1 07       	cpc	r27, r17
      f4:	d9 f7       	brne	.-10     	; 0xec <__do_copy_data+0x10>

000000f6 <__do_clear_bss>:
      f6:	2a e0       	ldi	r18, 0x0A	; 10
      f8:	a4 e1       	ldi	r26, 0x14	; 20
      fa:	b6 e0       	ldi	r27, 0x06	; 6
      fc:	01 c0       	rjmp	.+2      	; 0x100 <.do_clear_bss_start>

000000fe <.do_clear_bss_loop>:
      fe:	1d 92       	st	X+, r1

00000100 <.do_clear_bss_start>:
     100:	a4 37       	cpi	r26, 0x74	; 116
     102:	b2 07       	cpc	r27, r18
     104:	e1 f7       	brne	.-8      	; 0xfe <.do_clear_bss_loop>

00000106 <__do_global_ctors>:
     106:	10 e0       	ldi	r17, 0x00	; 0
     108:	c8 e6       	ldi	r28, 0x68	; 104
     10a:	d0 e0       	ldi	r29, 0x00	; 0
     10c:	04 c0       	rjmp	.+8      	; 0x116 <__do_global_ctors+0x10>
     10e:	21 97       	sbiw	r28, 0x01	; 1
     110:	fe 01       	movw	r30, r28
     112:	0e 94 95 21 	call	0x432a	; 0x432a <__tablejump2__>
     116:	c7 36       	cpi	r28, 0x67	; 103
     118:	d1 07       	cpc	r29, r17
     11a:	c9 f7       	brne	.-14     	; 0x10e <__do_global_ctors+0x8>
     11c:	0e 94 86 1d 	call	0x3b0c	; 0x3b0c <main>
     120:	0c 94 9e 21 	jmp	0x433c	; 0x433c <_exit>

00000124 <__bad_interrupt>:
     124:	6d cf       	rjmp	.-294    	; 0x0 <__vectors>

00000126 <_ZN9Main_Menu7refreshEv>:
	oled.OLED_Write_To_Bufer(x,y,w,h,nine);
	
	else if (data>>4==0)
	oled.OLED_Write_To_Bufer(x,y,w,h,NL);
	else oled.OLED_Write_To_Bufer(x,y,w,h,what);
}
     126:	cf 93       	push	r28
     128:	df 93       	push	r29
     12a:	ec 01       	movw	r28, r24
     12c:	e8 81       	ld	r30, Y
     12e:	f9 81       	ldd	r31, Y+1	; 0x01
     130:	01 90       	ld	r0, Z+
     132:	f0 81       	ld	r31, Z
     134:	e0 2d       	mov	r30, r0
     136:	09 95       	icall
     138:	e8 81       	ld	r30, Y
     13a:	f9 81       	ldd	r31, Y+1	; 0x01
     13c:	00 88       	ldd	r0, Z+16	; 0x10
     13e:	f1 89       	ldd	r31, Z+17	; 0x11
     140:	e0 2d       	mov	r30, r0
     142:	ce 01       	movw	r24, r28
     144:	09 95       	icall
     146:	df 91       	pop	r29
     148:	cf 91       	pop	r28
     14a:	08 95       	ret

0000014c <_ZN9Main_Menu4nextEv>:
     14c:	dc 01       	movw	r26, r24
     14e:	14 96       	adiw	r26, 0x04	; 4
     150:	2d 91       	ld	r18, X+
     152:	3c 91       	ld	r19, X
     154:	15 97       	sbiw	r26, 0x05	; 5
     156:	2f 5f       	subi	r18, 0xFF	; 255
     158:	3f 4f       	sbci	r19, 0xFF	; 255
     15a:	23 30       	cpi	r18, 0x03	; 3
     15c:	31 05       	cpc	r19, r1
     15e:	2c f4       	brge	.+10     	; 0x16a <_ZN9Main_Menu4nextEv+0x1e>
     160:	15 96       	adiw	r26, 0x05	; 5
     162:	3c 93       	st	X, r19
     164:	2e 93       	st	-X, r18
     166:	14 97       	sbiw	r26, 0x04	; 4
     168:	03 c0       	rjmp	.+6      	; 0x170 <_ZN9Main_Menu4nextEv+0x24>
     16a:	fc 01       	movw	r30, r24
     16c:	15 82       	std	Z+5, r1	; 0x05
     16e:	14 82       	std	Z+4, r1	; 0x04
     170:	dc 01       	movw	r26, r24
     172:	ed 91       	ld	r30, X+
     174:	fc 91       	ld	r31, X
     176:	00 88       	ldd	r0, Z+16	; 0x10
     178:	f1 89       	ldd	r31, Z+17	; 0x11
     17a:	e0 2d       	mov	r30, r0
     17c:	09 95       	icall
     17e:	08 95       	ret

00000180 <_ZN9Main_Menu8previousEv>:
     180:	dc 01       	movw	r26, r24
     182:	14 96       	adiw	r26, 0x04	; 4
     184:	2d 91       	ld	r18, X+
     186:	3c 91       	ld	r19, X
     188:	15 97       	sbiw	r26, 0x05	; 5
     18a:	21 50       	subi	r18, 0x01	; 1
     18c:	31 09       	sbc	r19, r1
     18e:	2a f0       	brmi	.+10     	; 0x19a <_ZN9Main_Menu8previousEv+0x1a>
     190:	15 96       	adiw	r26, 0x05	; 5
     192:	3c 93       	st	X, r19
     194:	2e 93       	st	-X, r18
     196:	14 97       	sbiw	r26, 0x04	; 4
     198:	05 c0       	rjmp	.+10     	; 0x1a4 <_ZN9Main_Menu8previousEv+0x24>
     19a:	22 e0       	ldi	r18, 0x02	; 2
     19c:	30 e0       	ldi	r19, 0x00	; 0
     19e:	fc 01       	movw	r30, r24
     1a0:	35 83       	std	Z+5, r19	; 0x05
     1a2:	24 83       	std	Z+4, r18	; 0x04
     1a4:	dc 01       	movw	r26, r24
     1a6:	ed 91       	ld	r30, X+
     1a8:	fc 91       	ld	r31, X
     1aa:	00 88       	ldd	r0, Z+16	; 0x10
     1ac:	f1 89       	ldd	r31, Z+17	; 0x11
     1ae:	e0 2d       	mov	r30, r0
     1b0:	09 95       	icall
     1b2:	08 95       	ret

000001b4 <_ZN9Main_Menu6choiseEv>:
     1b4:	dc 01       	movw	r26, r24
     1b6:	14 96       	adiw	r26, 0x04	; 4
     1b8:	2d 91       	ld	r18, X+
     1ba:	3c 91       	ld	r19, X
     1bc:	15 97       	sbiw	r26, 0x05	; 5
     1be:	21 30       	cpi	r18, 0x01	; 1
     1c0:	31 05       	cpc	r19, r1
     1c2:	89 f0       	breq	.+34     	; 0x1e6 <_ZN9Main_Menu6choiseEv+0x32>
     1c4:	22 30       	cpi	r18, 0x02	; 2
     1c6:	31 05       	cpc	r19, r1
     1c8:	d9 f0       	breq	.+54     	; 0x200 <_ZN9Main_Menu6choiseEv+0x4c>
     1ca:	23 2b       	or	r18, r19
     1cc:	29 f5       	brne	.+74     	; 0x218 <_ZN9Main_Menu6choiseEv+0x64>
     1ce:	10 92 00 01 	sts	0x0100, r1	; 0x800100 <Main_Menu_Status>
     1d2:	21 e0       	ldi	r18, 0x01	; 1
     1d4:	20 93 71 06 	sts	0x0671, r18	; 0x800671 <Password_Menu_Status>
     1d8:	ed 91       	ld	r30, X+
     1da:	fc 91       	ld	r31, X
     1dc:	04 80       	ldd	r0, Z+4	; 0x04
     1de:	f5 81       	ldd	r31, Z+5	; 0x05
     1e0:	e0 2d       	mov	r30, r0
     1e2:	09 95       	icall
     1e4:	08 95       	ret
     1e6:	10 92 00 01 	sts	0x0100, r1	; 0x800100 <Main_Menu_Status>
     1ea:	21 e0       	ldi	r18, 0x01	; 1
     1ec:	20 93 70 06 	sts	0x0670, r18	; 0x800670 <Settings_Menu_Status>
     1f0:	dc 01       	movw	r26, r24
     1f2:	ed 91       	ld	r30, X+
     1f4:	fc 91       	ld	r31, X
     1f6:	04 80       	ldd	r0, Z+4	; 0x04
     1f8:	f5 81       	ldd	r31, Z+5	; 0x05
     1fa:	e0 2d       	mov	r30, r0
     1fc:	09 95       	icall
     1fe:	08 95       	ret
     200:	10 92 00 01 	sts	0x0100, r1	; 0x800100 <Main_Menu_Status>
     204:	21 e0       	ldi	r18, 0x01	; 1
     206:	20 93 6f 06 	sts	0x066F, r18	; 0x80066f <Info_Menu_Status>
     20a:	dc 01       	movw	r26, r24
     20c:	ed 91       	ld	r30, X+
     20e:	fc 91       	ld	r31, X
     210:	04 80       	ldd	r0, Z+4	; 0x04
     212:	f5 81       	ldd	r31, Z+5	; 0x05
     214:	e0 2d       	mov	r30, r0
     216:	09 95       	icall
     218:	08 95       	ret

0000021a <_ZN9Main_Menu4backEv>:
     21a:	08 95       	ret

0000021c <_ZN9Main_Menu7animateEv>:
     21c:	08 95       	ret

0000021e <_ZN13Password_Menu7refreshEv>:
     21e:	cf 93       	push	r28
     220:	df 93       	push	r29
     222:	ec 01       	movw	r28, r24
     224:	e8 81       	ld	r30, Y
     226:	f9 81       	ldd	r31, Y+1	; 0x01
     228:	01 90       	ld	r0, Z+
     22a:	f0 81       	ld	r31, Z
     22c:	e0 2d       	mov	r30, r0
     22e:	09 95       	icall
     230:	e8 81       	ld	r30, Y
     232:	f9 81       	ldd	r31, Y+1	; 0x01
     234:	00 88       	ldd	r0, Z+16	; 0x10
     236:	f1 89       	ldd	r31, Z+17	; 0x11
     238:	e0 2d       	mov	r30, r0
     23a:	ce 01       	movw	r24, r28
     23c:	09 95       	icall
     23e:	df 91       	pop	r29
     240:	cf 91       	pop	r28
     242:	08 95       	ret

00000244 <_ZN13Password_Menu4nextEv>:
     244:	dc 01       	movw	r26, r24
     246:	16 96       	adiw	r26, 0x06	; 6
     248:	2d 91       	ld	r18, X+
     24a:	3c 91       	ld	r19, X
     24c:	17 97       	sbiw	r26, 0x07	; 7
     24e:	2f 5f       	subi	r18, 0xFF	; 255
     250:	3f 4f       	sbci	r19, 0xFF	; 255
     252:	2b 30       	cpi	r18, 0x0B	; 11
     254:	31 05       	cpc	r19, r1
     256:	2c f4       	brge	.+10     	; 0x262 <_ZN13Password_Menu4nextEv+0x1e>
     258:	17 96       	adiw	r26, 0x07	; 7
     25a:	3c 93       	st	X, r19
     25c:	2e 93       	st	-X, r18
     25e:	16 97       	sbiw	r26, 0x06	; 6
     260:	03 c0       	rjmp	.+6      	; 0x268 <_ZN13Password_Menu4nextEv+0x24>
     262:	fc 01       	movw	r30, r24
     264:	17 82       	std	Z+7, r1	; 0x07
     266:	16 82       	std	Z+6, r1	; 0x06
     268:	dc 01       	movw	r26, r24
     26a:	ed 91       	ld	r30, X+
     26c:	fc 91       	ld	r31, X
     26e:	00 88       	ldd	r0, Z+16	; 0x10
     270:	f1 89       	ldd	r31, Z+17	; 0x11
     272:	e0 2d       	mov	r30, r0
     274:	09 95       	icall
     276:	08 95       	ret

00000278 <_ZN13Password_Menu8previousEv>:
     278:	dc 01       	movw	r26, r24
     27a:	16 96       	adiw	r26, 0x06	; 6
     27c:	2d 91       	ld	r18, X+
     27e:	3c 91       	ld	r19, X
     280:	17 97       	sbiw	r26, 0x07	; 7
     282:	21 50       	subi	r18, 0x01	; 1
     284:	31 09       	sbc	r19, r1
     286:	2a f0       	brmi	.+10     	; 0x292 <_ZN13Password_Menu8previousEv+0x1a>
     288:	17 96       	adiw	r26, 0x07	; 7
     28a:	3c 93       	st	X, r19
     28c:	2e 93       	st	-X, r18
     28e:	16 97       	sbiw	r26, 0x06	; 6
     290:	05 c0       	rjmp	.+10     	; 0x29c <_ZN13Password_Menu8previousEv+0x24>
     292:	2a e0       	ldi	r18, 0x0A	; 10
     294:	30 e0       	ldi	r19, 0x00	; 0
     296:	fc 01       	movw	r30, r24
     298:	37 83       	std	Z+7, r19	; 0x07
     29a:	26 83       	std	Z+6, r18	; 0x06
     29c:	dc 01       	movw	r26, r24
     29e:	ed 91       	ld	r30, X+
     2a0:	fc 91       	ld	r31, X
     2a2:	00 88       	ldd	r0, Z+16	; 0x10
     2a4:	f1 89       	ldd	r31, Z+17	; 0x11
     2a6:	e0 2d       	mov	r30, r0
     2a8:	09 95       	icall
     2aa:	08 95       	ret

000002ac <_ZN13Password_Menu7animateEv>:
     2ac:	08 95       	ret

000002ae <_ZN13Settings_Menu7refreshEv>:
     2ae:	cf 93       	push	r28
     2b0:	df 93       	push	r29
     2b2:	ec 01       	movw	r28, r24
     2b4:	e8 81       	ld	r30, Y
     2b6:	f9 81       	ldd	r31, Y+1	; 0x01
     2b8:	01 90       	ld	r0, Z+
     2ba:	f0 81       	ld	r31, Z
     2bc:	e0 2d       	mov	r30, r0
     2be:	09 95       	icall
     2c0:	e8 81       	ld	r30, Y
     2c2:	f9 81       	ldd	r31, Y+1	; 0x01
     2c4:	00 88       	ldd	r0, Z+16	; 0x10
     2c6:	f1 89       	ldd	r31, Z+17	; 0x11
     2c8:	e0 2d       	mov	r30, r0
     2ca:	ce 01       	movw	r24, r28
     2cc:	09 95       	icall
     2ce:	df 91       	pop	r29
     2d0:	cf 91       	pop	r28
     2d2:	08 95       	ret

000002d4 <_ZN13Settings_Menu4nextEv>:
     2d4:	dc 01       	movw	r26, r24
     2d6:	14 96       	adiw	r26, 0x04	; 4
     2d8:	2d 91       	ld	r18, X+
     2da:	3c 91       	ld	r19, X
     2dc:	15 97       	sbiw	r26, 0x05	; 5
     2de:	2f 5f       	subi	r18, 0xFF	; 255
     2e0:	3f 4f       	sbci	r19, 0xFF	; 255
     2e2:	24 30       	cpi	r18, 0x04	; 4
     2e4:	31 05       	cpc	r19, r1
     2e6:	2c f4       	brge	.+10     	; 0x2f2 <_ZN13Settings_Menu4nextEv+0x1e>
     2e8:	15 96       	adiw	r26, 0x05	; 5
     2ea:	3c 93       	st	X, r19
     2ec:	2e 93       	st	-X, r18
     2ee:	14 97       	sbiw	r26, 0x04	; 4
     2f0:	03 c0       	rjmp	.+6      	; 0x2f8 <_ZN13Settings_Menu4nextEv+0x24>
     2f2:	fc 01       	movw	r30, r24
     2f4:	15 82       	std	Z+5, r1	; 0x05
     2f6:	14 82       	std	Z+4, r1	; 0x04
     2f8:	dc 01       	movw	r26, r24
     2fa:	ed 91       	ld	r30, X+
     2fc:	fc 91       	ld	r31, X
     2fe:	00 88       	ldd	r0, Z+16	; 0x10
     300:	f1 89       	ldd	r31, Z+17	; 0x11
     302:	e0 2d       	mov	r30, r0
     304:	09 95       	icall
     306:	08 95       	ret

00000308 <_ZN13Settings_Menu8previousEv>:
     308:	dc 01       	movw	r26, r24
     30a:	14 96       	adiw	r26, 0x04	; 4
     30c:	2d 91       	ld	r18, X+
     30e:	3c 91       	ld	r19, X
     310:	15 97       	sbiw	r26, 0x05	; 5
     312:	21 50       	subi	r18, 0x01	; 1
     314:	31 09       	sbc	r19, r1
     316:	2a f0       	brmi	.+10     	; 0x322 <_ZN13Settings_Menu8previousEv+0x1a>
     318:	15 96       	adiw	r26, 0x05	; 5
     31a:	3c 93       	st	X, r19
     31c:	2e 93       	st	-X, r18
     31e:	14 97       	sbiw	r26, 0x04	; 4
     320:	05 c0       	rjmp	.+10     	; 0x32c <_ZN13Settings_Menu8previousEv+0x24>
     322:	23 e0       	ldi	r18, 0x03	; 3
     324:	30 e0       	ldi	r19, 0x00	; 0
     326:	fc 01       	movw	r30, r24
     328:	35 83       	std	Z+5, r19	; 0x05
     32a:	24 83       	std	Z+4, r18	; 0x04
     32c:	dc 01       	movw	r26, r24
     32e:	ed 91       	ld	r30, X+
     330:	fc 91       	ld	r31, X
     332:	00 88       	ldd	r0, Z+16	; 0x10
     334:	f1 89       	ldd	r31, Z+17	; 0x11
     336:	e0 2d       	mov	r30, r0
     338:	09 95       	icall
     33a:	08 95       	ret

0000033c <_ZN13Settings_Menu6choiseEv>:
     33c:	dc 01       	movw	r26, r24
     33e:	14 96       	adiw	r26, 0x04	; 4
     340:	2d 91       	ld	r18, X+
     342:	3c 91       	ld	r19, X
     344:	15 97       	sbiw	r26, 0x05	; 5
     346:	23 30       	cpi	r18, 0x03	; 3
     348:	31 05       	cpc	r19, r1
     34a:	31 f4       	brne	.+12     	; 0x358 <_ZN13Settings_Menu6choiseEv+0x1c>
     34c:	ed 91       	ld	r30, X+
     34e:	fc 91       	ld	r31, X
     350:	04 84       	ldd	r0, Z+12	; 0x0c
     352:	f5 85       	ldd	r31, Z+13	; 0x0d
     354:	e0 2d       	mov	r30, r0
     356:	09 95       	icall
     358:	08 95       	ret

0000035a <_ZN13Settings_Menu4backEv>:
     35a:	cf 93       	push	r28
     35c:	df 93       	push	r29
     35e:	ec 01       	movw	r28, r24
     360:	e8 81       	ld	r30, Y
     362:	f9 81       	ldd	r31, Y+1	; 0x01
     364:	04 80       	ldd	r0, Z+4	; 0x04
     366:	f5 81       	ldd	r31, Z+5	; 0x05
     368:	e0 2d       	mov	r30, r0
     36a:	09 95       	icall
     36c:	1d 82       	std	Y+5, r1	; 0x05
     36e:	1c 82       	std	Y+4, r1	; 0x04
     370:	df 91       	pop	r29
     372:	cf 91       	pop	r28
     374:	08 95       	ret

00000376 <_ZN13Settings_Menu7animateEv>:
     376:	08 95       	ret

00000378 <_ZN9Info_menu7refreshEv>:
     378:	cf 93       	push	r28
     37a:	df 93       	push	r29
     37c:	ec 01       	movw	r28, r24
     37e:	e8 81       	ld	r30, Y
     380:	f9 81       	ldd	r31, Y+1	; 0x01
     382:	01 90       	ld	r0, Z+
     384:	f0 81       	ld	r31, Z
     386:	e0 2d       	mov	r30, r0
     388:	09 95       	icall
     38a:	e8 81       	ld	r30, Y
     38c:	f9 81       	ldd	r31, Y+1	; 0x01
     38e:	00 88       	ldd	r0, Z+16	; 0x10
     390:	f1 89       	ldd	r31, Z+17	; 0x11
     392:	e0 2d       	mov	r30, r0
     394:	ce 01       	movw	r24, r28
     396:	09 95       	icall
     398:	df 91       	pop	r29
     39a:	cf 91       	pop	r28
     39c:	08 95       	ret

0000039e <_ZN9Info_menu4nextEv>:
     39e:	dc 01       	movw	r26, r24
     3a0:	14 96       	adiw	r26, 0x04	; 4
     3a2:	2d 91       	ld	r18, X+
     3a4:	3c 91       	ld	r19, X
     3a6:	15 97       	sbiw	r26, 0x05	; 5
     3a8:	2f 5f       	subi	r18, 0xFF	; 255
     3aa:	3f 4f       	sbci	r19, 0xFF	; 255
     3ac:	23 30       	cpi	r18, 0x03	; 3
     3ae:	31 05       	cpc	r19, r1
     3b0:	2c f4       	brge	.+10     	; 0x3bc <_ZN9Info_menu4nextEv+0x1e>
     3b2:	15 96       	adiw	r26, 0x05	; 5
     3b4:	3c 93       	st	X, r19
     3b6:	2e 93       	st	-X, r18
     3b8:	14 97       	sbiw	r26, 0x04	; 4
     3ba:	03 c0       	rjmp	.+6      	; 0x3c2 <_ZN9Info_menu4nextEv+0x24>
     3bc:	fc 01       	movw	r30, r24
     3be:	15 82       	std	Z+5, r1	; 0x05
     3c0:	14 82       	std	Z+4, r1	; 0x04
     3c2:	dc 01       	movw	r26, r24
     3c4:	ed 91       	ld	r30, X+
     3c6:	fc 91       	ld	r31, X
     3c8:	00 88       	ldd	r0, Z+16	; 0x10
     3ca:	f1 89       	ldd	r31, Z+17	; 0x11
     3cc:	e0 2d       	mov	r30, r0
     3ce:	09 95       	icall
     3d0:	08 95       	ret

000003d2 <_ZN9Info_menu8previousEv>:
     3d2:	dc 01       	movw	r26, r24
     3d4:	14 96       	adiw	r26, 0x04	; 4
     3d6:	2d 91       	ld	r18, X+
     3d8:	3c 91       	ld	r19, X
     3da:	15 97       	sbiw	r26, 0x05	; 5
     3dc:	21 50       	subi	r18, 0x01	; 1
     3de:	31 09       	sbc	r19, r1
     3e0:	2a f0       	brmi	.+10     	; 0x3ec <_ZN9Info_menu8previousEv+0x1a>
     3e2:	15 96       	adiw	r26, 0x05	; 5
     3e4:	3c 93       	st	X, r19
     3e6:	2e 93       	st	-X, r18
     3e8:	14 97       	sbiw	r26, 0x04	; 4
     3ea:	05 c0       	rjmp	.+10     	; 0x3f6 <_ZN9Info_menu8previousEv+0x24>
     3ec:	22 e0       	ldi	r18, 0x02	; 2
     3ee:	30 e0       	ldi	r19, 0x00	; 0
     3f0:	fc 01       	movw	r30, r24
     3f2:	35 83       	std	Z+5, r19	; 0x05
     3f4:	24 83       	std	Z+4, r18	; 0x04
     3f6:	dc 01       	movw	r26, r24
     3f8:	ed 91       	ld	r30, X+
     3fa:	fc 91       	ld	r31, X
     3fc:	00 88       	ldd	r0, Z+16	; 0x10
     3fe:	f1 89       	ldd	r31, Z+17	; 0x11
     400:	e0 2d       	mov	r30, r0
     402:	09 95       	icall
     404:	08 95       	ret

00000406 <_ZN9Info_menu4backEv>:
     406:	cf 93       	push	r28
     408:	df 93       	push	r29
     40a:	ec 01       	movw	r28, r24
     40c:	e8 81       	ld	r30, Y
     40e:	f9 81       	ldd	r31, Y+1	; 0x01
     410:	04 80       	ldd	r0, Z+4	; 0x04
     412:	f5 81       	ldd	r31, Z+5	; 0x05
     414:	e0 2d       	mov	r30, r0
     416:	09 95       	icall
     418:	1d 82       	std	Y+5, r1	; 0x05
     41a:	1c 82       	std	Y+4, r1	; 0x04
     41c:	df 91       	pop	r29
     41e:	cf 91       	pop	r28
     420:	08 95       	ret

00000422 <_ZN9Info_menu7animateEv>:
     422:	08 95       	ret

00000424 <_ZN9User_Info7DefaultEv>:
     424:	08 95       	ret

00000426 <_ZN9User_Info7refreshEv>:
     426:	cf 93       	push	r28
     428:	df 93       	push	r29
     42a:	ec 01       	movw	r28, r24
     42c:	e8 81       	ld	r30, Y
     42e:	f9 81       	ldd	r31, Y+1	; 0x01
     430:	01 90       	ld	r0, Z+
     432:	f0 81       	ld	r31, Z
     434:	e0 2d       	mov	r30, r0
     436:	09 95       	icall
     438:	e8 81       	ld	r30, Y
     43a:	f9 81       	ldd	r31, Y+1	; 0x01
     43c:	00 88       	ldd	r0, Z+16	; 0x10
     43e:	f1 89       	ldd	r31, Z+17	; 0x11
     440:	e0 2d       	mov	r30, r0
     442:	ce 01       	movw	r24, r28
     444:	09 95       	icall
     446:	df 91       	pop	r29
     448:	cf 91       	pop	r28
     44a:	08 95       	ret

0000044c <_ZN9User_Info4nextEv>:
     44c:	cf 93       	push	r28
     44e:	df 93       	push	r29
     450:	ec 01       	movw	r28, r24
     452:	e8 81       	ld	r30, Y
     454:	f9 81       	ldd	r31, Y+1	; 0x01
     456:	04 80       	ldd	r0, Z+4	; 0x04
     458:	f5 81       	ldd	r31, Z+5	; 0x05
     45a:	e0 2d       	mov	r30, r0
     45c:	09 95       	icall
     45e:	e8 81       	ld	r30, Y
     460:	f9 81       	ldd	r31, Y+1	; 0x01
     462:	00 88       	ldd	r0, Z+16	; 0x10
     464:	f1 89       	ldd	r31, Z+17	; 0x11
     466:	e0 2d       	mov	r30, r0
     468:	ce 01       	movw	r24, r28
     46a:	09 95       	icall
     46c:	df 91       	pop	r29
     46e:	cf 91       	pop	r28
     470:	08 95       	ret

00000472 <_ZN9User_Info8previousEv>:
     472:	cf 93       	push	r28
     474:	df 93       	push	r29
     476:	ec 01       	movw	r28, r24
     478:	e8 81       	ld	r30, Y
     47a:	f9 81       	ldd	r31, Y+1	; 0x01
     47c:	04 80       	ldd	r0, Z+4	; 0x04
     47e:	f5 81       	ldd	r31, Z+5	; 0x05
     480:	e0 2d       	mov	r30, r0
     482:	09 95       	icall
     484:	e8 81       	ld	r30, Y
     486:	f9 81       	ldd	r31, Y+1	; 0x01
     488:	00 88       	ldd	r0, Z+16	; 0x10
     48a:	f1 89       	ldd	r31, Z+17	; 0x11
     48c:	e0 2d       	mov	r30, r0
     48e:	ce 01       	movw	r24, r28
     490:	09 95       	icall
     492:	df 91       	pop	r29
     494:	cf 91       	pop	r28
     496:	08 95       	ret

00000498 <_ZN9User_Info6choiseEv>:
     498:	dc 01       	movw	r26, r24
     49a:	ed 91       	ld	r30, X+
     49c:	fc 91       	ld	r31, X
     49e:	04 80       	ldd	r0, Z+4	; 0x04
     4a0:	f5 81       	ldd	r31, Z+5	; 0x05
     4a2:	e0 2d       	mov	r30, r0
     4a4:	09 95       	icall
     4a6:	08 95       	ret

000004a8 <_ZN9User_Info4backEv>:
     4a8:	cf 93       	push	r28
     4aa:	df 93       	push	r29
     4ac:	ec 01       	movw	r28, r24
     4ae:	e8 81       	ld	r30, Y
     4b0:	f9 81       	ldd	r31, Y+1	; 0x01
     4b2:	04 80       	ldd	r0, Z+4	; 0x04
     4b4:	f5 81       	ldd	r31, Z+5	; 0x05
     4b6:	e0 2d       	mov	r30, r0
     4b8:	09 95       	icall
     4ba:	1d 82       	std	Y+5, r1	; 0x05
     4bc:	1c 82       	std	Y+4, r1	; 0x04
     4be:	df 91       	pop	r29
     4c0:	cf 91       	pop	r28
     4c2:	08 95       	ret

000004c4 <_ZN9User_Info7animateEv>:
     4c4:	08 95       	ret

000004c6 <_ZN11Device_info7DefaultEv>:
     4c6:	08 95       	ret

000004c8 <_ZN11Device_info7refreshEv>:
     4c8:	cf 93       	push	r28
     4ca:	df 93       	push	r29
     4cc:	ec 01       	movw	r28, r24
     4ce:	e8 81       	ld	r30, Y
     4d0:	f9 81       	ldd	r31, Y+1	; 0x01
     4d2:	01 90       	ld	r0, Z+
     4d4:	f0 81       	ld	r31, Z
     4d6:	e0 2d       	mov	r30, r0
     4d8:	09 95       	icall
     4da:	e8 81       	ld	r30, Y
     4dc:	f9 81       	ldd	r31, Y+1	; 0x01
     4de:	00 88       	ldd	r0, Z+16	; 0x10
     4e0:	f1 89       	ldd	r31, Z+17	; 0x11
     4e2:	e0 2d       	mov	r30, r0
     4e4:	ce 01       	movw	r24, r28
     4e6:	09 95       	icall
     4e8:	df 91       	pop	r29
     4ea:	cf 91       	pop	r28
     4ec:	08 95       	ret

000004ee <_ZN11Device_info4nextEv>:
     4ee:	dc 01       	movw	r26, r24
     4f0:	ed 91       	ld	r30, X+
     4f2:	fc 91       	ld	r31, X
     4f4:	04 80       	ldd	r0, Z+4	; 0x04
     4f6:	f5 81       	ldd	r31, Z+5	; 0x05
     4f8:	e0 2d       	mov	r30, r0
     4fa:	09 95       	icall
     4fc:	08 95       	ret

000004fe <_ZN11Device_info8previousEv>:
     4fe:	dc 01       	movw	r26, r24
     500:	ed 91       	ld	r30, X+
     502:	fc 91       	ld	r31, X
     504:	04 80       	ldd	r0, Z+4	; 0x04
     506:	f5 81       	ldd	r31, Z+5	; 0x05
     508:	e0 2d       	mov	r30, r0
     50a:	09 95       	icall
     50c:	08 95       	ret

0000050e <_ZN11Device_info6choiseEv>:
     50e:	dc 01       	movw	r26, r24
     510:	ed 91       	ld	r30, X+
     512:	fc 91       	ld	r31, X
     514:	04 80       	ldd	r0, Z+4	; 0x04
     516:	f5 81       	ldd	r31, Z+5	; 0x05
     518:	e0 2d       	mov	r30, r0
     51a:	09 95       	icall
     51c:	08 95       	ret

0000051e <_ZN11Device_info4backEv>:
     51e:	dc 01       	movw	r26, r24
     520:	ed 91       	ld	r30, X+
     522:	fc 91       	ld	r31, X
     524:	04 80       	ldd	r0, Z+4	; 0x04
     526:	f5 81       	ldd	r31, Z+5	; 0x05
     528:	e0 2d       	mov	r30, r0
     52a:	09 95       	icall
     52c:	08 95       	ret

0000052e <_ZN11Device_info7animateEv>:
     52e:	08 95       	ret

00000530 <_ZN13Password_Menu6choiseEv>:
     530:	af 92       	push	r10
     532:	bf 92       	push	r11
     534:	cf 92       	push	r12
     536:	df 92       	push	r13
     538:	ef 92       	push	r14
     53a:	ff 92       	push	r15
     53c:	0f 93       	push	r16
     53e:	1f 93       	push	r17
     540:	cf 93       	push	r28
     542:	df 93       	push	r29
     544:	ec 01       	movw	r28, r24
     546:	ee 81       	ldd	r30, Y+6	; 0x06
     548:	ff 81       	ldd	r31, Y+7	; 0x07
     54a:	eb 30       	cpi	r30, 0x0B	; 11
     54c:	f1 05       	cpc	r31, r1
     54e:	08 f0       	brcs	.+2      	; 0x552 <_ZN13Password_Menu6choiseEv+0x22>
     550:	25 c2       	rjmp	.+1098   	; 0x99c <_ZN13Password_Menu6choiseEv+0x46c>
     552:	ea 5b       	subi	r30, 0xBA	; 186
     554:	ff 4f       	sbci	r31, 0xFF	; 255
     556:	0c 94 95 21 	jmp	0x432a	; 0x432a <__tablejump2__>
     55a:	8c 81       	ldd	r24, Y+4	; 0x04
     55c:	9d 81       	ldd	r25, Y+5	; 0x05
     55e:	01 96       	adiw	r24, 0x01	; 1
     560:	9d 83       	std	Y+5, r25	; 0x05
     562:	8c 83       	std	Y+4, r24	; 0x04
     564:	18 16       	cp	r1, r24
     566:	19 06       	cpc	r1, r25
     568:	0c f0       	brlt	.+2      	; 0x56c <_ZN13Password_Menu6choiseEv+0x3c>
     56a:	18 c2       	rjmp	.+1072   	; 0x99c <_ZN13Password_Menu6choiseEv+0x46c>
     56c:	6e 01       	movw	r12, r28
     56e:	88 e0       	ldi	r24, 0x08	; 8
     570:	c8 0e       	add	r12, r24
     572:	d1 1c       	adc	r13, r1
     574:	e1 2c       	mov	r14, r1
     576:	f1 2c       	mov	r15, r1
     578:	56 01       	movw	r10, r12
     57a:	4a 89       	ldd	r20, Y+18	; 0x12
     57c:	5b 89       	ldd	r21, Y+19	; 0x13
     57e:	4e 5f       	subi	r20, 0xFE	; 254
     580:	5f 4f       	sbci	r21, 0xFF	; 255
     582:	f6 01       	movw	r30, r12
     584:	61 91       	ld	r22, Z+
     586:	71 91       	ld	r23, Z+
     588:	6f 01       	movw	r12, r30
     58a:	08 e0       	ldi	r16, 0x08	; 8
     58c:	10 e0       	ldi	r17, 0x00	; 0
     58e:	21 e0       	ldi	r18, 0x01	; 1
     590:	30 e0       	ldi	r19, 0x00	; 0
     592:	82 e7       	ldi	r24, 0x72	; 114
     594:	96 e0       	ldi	r25, 0x06	; 6
     596:	0e 94 7e 20 	call	0x40fc	; 0x40fc <_ZN4OLED21OLED_Clear_Bufer_partEiiii>
     59a:	4a 89       	ldd	r20, Y+18	; 0x12
     59c:	5b 89       	ldd	r21, Y+19	; 0x13
     59e:	41 50       	subi	r20, 0x01	; 1
     5a0:	51 09       	sbc	r21, r1
     5a2:	f5 01       	movw	r30, r10
     5a4:	60 81       	ld	r22, Z
     5a6:	71 81       	ldd	r23, Z+1	; 0x01
     5a8:	21 e0       	ldi	r18, 0x01	; 1
     5aa:	30 e0       	ldi	r19, 0x00	; 0
     5ac:	82 e7       	ldi	r24, 0x72	; 114
     5ae:	96 e0       	ldi	r25, 0x06	; 6
     5b0:	0e 94 7e 20 	call	0x40fc	; 0x40fc <_ZN4OLED21OLED_Clear_Bufer_partEiiii>
     5b4:	ff ef       	ldi	r31, 0xFF	; 255
     5b6:	ef 1a       	sub	r14, r31
     5b8:	ff 0a       	sbc	r15, r31
     5ba:	8c 81       	ldd	r24, Y+4	; 0x04
     5bc:	9d 81       	ldd	r25, Y+5	; 0x05
     5be:	e8 16       	cp	r14, r24
     5c0:	f9 06       	cpc	r15, r25
     5c2:	d4 f2       	brlt	.-76     	; 0x578 <_ZN13Password_Menu6choiseEv+0x48>
     5c4:	eb c1       	rjmp	.+982    	; 0x99c <_ZN13Password_Menu6choiseEv+0x46c>
     5c6:	8c 81       	ldd	r24, Y+4	; 0x04
     5c8:	9d 81       	ldd	r25, Y+5	; 0x05
     5ca:	01 96       	adiw	r24, 0x01	; 1
     5cc:	9d 83       	std	Y+5, r25	; 0x05
     5ce:	8c 83       	std	Y+4, r24	; 0x04
     5d0:	18 16       	cp	r1, r24
     5d2:	19 06       	cpc	r1, r25
     5d4:	0c f0       	brlt	.+2      	; 0x5d8 <_ZN13Password_Menu6choiseEv+0xa8>
     5d6:	e2 c1       	rjmp	.+964    	; 0x99c <_ZN13Password_Menu6choiseEv+0x46c>
     5d8:	6e 01       	movw	r12, r28
     5da:	88 e0       	ldi	r24, 0x08	; 8
     5dc:	c8 0e       	add	r12, r24
     5de:	d1 1c       	adc	r13, r1
     5e0:	e1 2c       	mov	r14, r1
     5e2:	f1 2c       	mov	r15, r1
     5e4:	56 01       	movw	r10, r12
     5e6:	4a 89       	ldd	r20, Y+18	; 0x12
     5e8:	5b 89       	ldd	r21, Y+19	; 0x13
     5ea:	4e 5f       	subi	r20, 0xFE	; 254
     5ec:	5f 4f       	sbci	r21, 0xFF	; 255
     5ee:	f6 01       	movw	r30, r12
     5f0:	61 91       	ld	r22, Z+
     5f2:	71 91       	ld	r23, Z+
     5f4:	6f 01       	movw	r12, r30
     5f6:	08 e0       	ldi	r16, 0x08	; 8
     5f8:	10 e0       	ldi	r17, 0x00	; 0
     5fa:	21 e0       	ldi	r18, 0x01	; 1
     5fc:	30 e0       	ldi	r19, 0x00	; 0
     5fe:	82 e7       	ldi	r24, 0x72	; 114
     600:	96 e0       	ldi	r25, 0x06	; 6
     602:	0e 94 7e 20 	call	0x40fc	; 0x40fc <_ZN4OLED21OLED_Clear_Bufer_partEiiii>
     606:	4a 89       	ldd	r20, Y+18	; 0x12
     608:	5b 89       	ldd	r21, Y+19	; 0x13
     60a:	41 50       	subi	r20, 0x01	; 1
     60c:	51 09       	sbc	r21, r1
     60e:	f5 01       	movw	r30, r10
     610:	60 81       	ld	r22, Z
     612:	71 81       	ldd	r23, Z+1	; 0x01
     614:	21 e0       	ldi	r18, 0x01	; 1
     616:	30 e0       	ldi	r19, 0x00	; 0
     618:	82 e7       	ldi	r24, 0x72	; 114
     61a:	96 e0       	ldi	r25, 0x06	; 6
     61c:	0e 94 7e 20 	call	0x40fc	; 0x40fc <_ZN4OLED21OLED_Clear_Bufer_partEiiii>
     620:	ff ef       	ldi	r31, 0xFF	; 255
     622:	ef 1a       	sub	r14, r31
     624:	ff 0a       	sbc	r15, r31
     626:	8c 81       	ldd	r24, Y+4	; 0x04
     628:	9d 81       	ldd	r25, Y+5	; 0x05
     62a:	e8 16       	cp	r14, r24
     62c:	f9 06       	cpc	r15, r25
     62e:	d4 f2       	brlt	.-76     	; 0x5e4 <_ZN13Password_Menu6choiseEv+0xb4>
     630:	b5 c1       	rjmp	.+874    	; 0x99c <_ZN13Password_Menu6choiseEv+0x46c>
     632:	8c 81       	ldd	r24, Y+4	; 0x04
     634:	9d 81       	ldd	r25, Y+5	; 0x05
     636:	01 96       	adiw	r24, 0x01	; 1
     638:	9d 83       	std	Y+5, r25	; 0x05
     63a:	8c 83       	std	Y+4, r24	; 0x04
     63c:	18 16       	cp	r1, r24
     63e:	19 06       	cpc	r1, r25
     640:	0c f0       	brlt	.+2      	; 0x644 <_ZN13Password_Menu6choiseEv+0x114>
     642:	ac c1       	rjmp	.+856    	; 0x99c <_ZN13Password_Menu6choiseEv+0x46c>
     644:	6e 01       	movw	r12, r28
     646:	88 e0       	ldi	r24, 0x08	; 8
     648:	c8 0e       	add	r12, r24
     64a:	d1 1c       	adc	r13, r1
     64c:	e1 2c       	mov	r14, r1
     64e:	f1 2c       	mov	r15, r1
     650:	56 01       	movw	r10, r12
     652:	4a 89       	ldd	r20, Y+18	; 0x12
     654:	5b 89       	ldd	r21, Y+19	; 0x13
     656:	4e 5f       	subi	r20, 0xFE	; 254
     658:	5f 4f       	sbci	r21, 0xFF	; 255
     65a:	f6 01       	movw	r30, r12
     65c:	61 91       	ld	r22, Z+
     65e:	71 91       	ld	r23, Z+
     660:	6f 01       	movw	r12, r30
     662:	08 e0       	ldi	r16, 0x08	; 8
     664:	10 e0       	ldi	r17, 0x00	; 0
     666:	21 e0       	ldi	r18, 0x01	; 1
     668:	30 e0       	ldi	r19, 0x00	; 0
     66a:	82 e7       	ldi	r24, 0x72	; 114
     66c:	96 e0       	ldi	r25, 0x06	; 6
     66e:	0e 94 7e 20 	call	0x40fc	; 0x40fc <_ZN4OLED21OLED_Clear_Bufer_partEiiii>
     672:	4a 89       	ldd	r20, Y+18	; 0x12
     674:	5b 89       	ldd	r21, Y+19	; 0x13
     676:	41 50       	subi	r20, 0x01	; 1
     678:	51 09       	sbc	r21, r1
     67a:	f5 01       	movw	r30, r10
     67c:	60 81       	ld	r22, Z
     67e:	71 81       	ldd	r23, Z+1	; 0x01
     680:	21 e0       	ldi	r18, 0x01	; 1
     682:	30 e0       	ldi	r19, 0x00	; 0
     684:	82 e7       	ldi	r24, 0x72	; 114
     686:	96 e0       	ldi	r25, 0x06	; 6
     688:	0e 94 7e 20 	call	0x40fc	; 0x40fc <_ZN4OLED21OLED_Clear_Bufer_partEiiii>
     68c:	ff ef       	ldi	r31, 0xFF	; 255
     68e:	ef 1a       	sub	r14, r31
     690:	ff 0a       	sbc	r15, r31
     692:	8c 81       	ldd	r24, Y+4	; 0x04
     694:	9d 81       	ldd	r25, Y+5	; 0x05
     696:	e8 16       	cp	r14, r24
     698:	f9 06       	cpc	r15, r25
     69a:	d4 f2       	brlt	.-76     	; 0x650 <_ZN13Password_Menu6choiseEv+0x120>
     69c:	7f c1       	rjmp	.+766    	; 0x99c <_ZN13Password_Menu6choiseEv+0x46c>
     69e:	8c 81       	ldd	r24, Y+4	; 0x04
     6a0:	9d 81       	ldd	r25, Y+5	; 0x05
     6a2:	01 96       	adiw	r24, 0x01	; 1
     6a4:	9d 83       	std	Y+5, r25	; 0x05
     6a6:	8c 83       	std	Y+4, r24	; 0x04
     6a8:	18 16       	cp	r1, r24
     6aa:	19 06       	cpc	r1, r25
     6ac:	0c f0       	brlt	.+2      	; 0x6b0 <_ZN13Password_Menu6choiseEv+0x180>
     6ae:	76 c1       	rjmp	.+748    	; 0x99c <_ZN13Password_Menu6choiseEv+0x46c>
     6b0:	6e 01       	movw	r12, r28
     6b2:	88 e0       	ldi	r24, 0x08	; 8
     6b4:	c8 0e       	add	r12, r24
     6b6:	d1 1c       	adc	r13, r1
     6b8:	e1 2c       	mov	r14, r1
     6ba:	f1 2c       	mov	r15, r1
     6bc:	56 01       	movw	r10, r12
     6be:	4a 89       	ldd	r20, Y+18	; 0x12
     6c0:	5b 89       	ldd	r21, Y+19	; 0x13
     6c2:	4e 5f       	subi	r20, 0xFE	; 254
     6c4:	5f 4f       	sbci	r21, 0xFF	; 255
     6c6:	f6 01       	movw	r30, r12
     6c8:	61 91       	ld	r22, Z+
     6ca:	71 91       	ld	r23, Z+
     6cc:	6f 01       	movw	r12, r30
     6ce:	08 e0       	ldi	r16, 0x08	; 8
     6d0:	10 e0       	ldi	r17, 0x00	; 0
     6d2:	21 e0       	ldi	r18, 0x01	; 1
     6d4:	30 e0       	ldi	r19, 0x00	; 0
     6d6:	82 e7       	ldi	r24, 0x72	; 114
     6d8:	96 e0       	ldi	r25, 0x06	; 6
     6da:	0e 94 7e 20 	call	0x40fc	; 0x40fc <_ZN4OLED21OLED_Clear_Bufer_partEiiii>
     6de:	4a 89       	ldd	r20, Y+18	; 0x12
     6e0:	5b 89       	ldd	r21, Y+19	; 0x13
     6e2:	41 50       	subi	r20, 0x01	; 1
     6e4:	51 09       	sbc	r21, r1
     6e6:	f5 01       	movw	r30, r10
     6e8:	60 81       	ld	r22, Z
     6ea:	71 81       	ldd	r23, Z+1	; 0x01
     6ec:	21 e0       	ldi	r18, 0x01	; 1
     6ee:	30 e0       	ldi	r19, 0x00	; 0
     6f0:	82 e7       	ldi	r24, 0x72	; 114
     6f2:	96 e0       	ldi	r25, 0x06	; 6
     6f4:	0e 94 7e 20 	call	0x40fc	; 0x40fc <_ZN4OLED21OLED_Clear_Bufer_partEiiii>
     6f8:	ff ef       	ldi	r31, 0xFF	; 255
     6fa:	ef 1a       	sub	r14, r31
     6fc:	ff 0a       	sbc	r15, r31
     6fe:	8c 81       	ldd	r24, Y+4	; 0x04
     700:	9d 81       	ldd	r25, Y+5	; 0x05
     702:	e8 16       	cp	r14, r24
     704:	f9 06       	cpc	r15, r25
     706:	d4 f2       	brlt	.-76     	; 0x6bc <_ZN13Password_Menu6choiseEv+0x18c>
     708:	49 c1       	rjmp	.+658    	; 0x99c <_ZN13Password_Menu6choiseEv+0x46c>
     70a:	8c 81       	ldd	r24, Y+4	; 0x04
     70c:	9d 81       	ldd	r25, Y+5	; 0x05
     70e:	01 96       	adiw	r24, 0x01	; 1
     710:	9d 83       	std	Y+5, r25	; 0x05
     712:	8c 83       	std	Y+4, r24	; 0x04
     714:	18 16       	cp	r1, r24
     716:	19 06       	cpc	r1, r25
     718:	0c f0       	brlt	.+2      	; 0x71c <_ZN13Password_Menu6choiseEv+0x1ec>
     71a:	40 c1       	rjmp	.+640    	; 0x99c <_ZN13Password_Menu6choiseEv+0x46c>
     71c:	6e 01       	movw	r12, r28
     71e:	88 e0       	ldi	r24, 0x08	; 8
     720:	c8 0e       	add	r12, r24
     722:	d1 1c       	adc	r13, r1
     724:	e1 2c       	mov	r14, r1
     726:	f1 2c       	mov	r15, r1
     728:	56 01       	movw	r10, r12
     72a:	4a 89       	ldd	r20, Y+18	; 0x12
     72c:	5b 89       	ldd	r21, Y+19	; 0x13
     72e:	4e 5f       	subi	r20, 0xFE	; 254
     730:	5f 4f       	sbci	r21, 0xFF	; 255
     732:	f6 01       	movw	r30, r12
     734:	61 91       	ld	r22, Z+
     736:	71 91       	ld	r23, Z+
     738:	6f 01       	movw	r12, r30
     73a:	08 e0       	ldi	r16, 0x08	; 8
     73c:	10 e0       	ldi	r17, 0x00	; 0
     73e:	21 e0       	ldi	r18, 0x01	; 1
     740:	30 e0       	ldi	r19, 0x00	; 0
     742:	82 e7       	ldi	r24, 0x72	; 114
     744:	96 e0       	ldi	r25, 0x06	; 6
     746:	0e 94 7e 20 	call	0x40fc	; 0x40fc <_ZN4OLED21OLED_Clear_Bufer_partEiiii>
     74a:	4a 89       	ldd	r20, Y+18	; 0x12
     74c:	5b 89       	ldd	r21, Y+19	; 0x13
     74e:	41 50       	subi	r20, 0x01	; 1
     750:	51 09       	sbc	r21, r1
     752:	f5 01       	movw	r30, r10
     754:	60 81       	ld	r22, Z
     756:	71 81       	ldd	r23, Z+1	; 0x01
     758:	21 e0       	ldi	r18, 0x01	; 1
     75a:	30 e0       	ldi	r19, 0x00	; 0
     75c:	82 e7       	ldi	r24, 0x72	; 114
     75e:	96 e0       	ldi	r25, 0x06	; 6
     760:	0e 94 7e 20 	call	0x40fc	; 0x40fc <_ZN4OLED21OLED_Clear_Bufer_partEiiii>
     764:	ff ef       	ldi	r31, 0xFF	; 255
     766:	ef 1a       	sub	r14, r31
     768:	ff 0a       	sbc	r15, r31
     76a:	8c 81       	ldd	r24, Y+4	; 0x04
     76c:	9d 81       	ldd	r25, Y+5	; 0x05
     76e:	e8 16       	cp	r14, r24
     770:	f9 06       	cpc	r15, r25
     772:	d4 f2       	brlt	.-76     	; 0x728 <_ZN13Password_Menu6choiseEv+0x1f8>
     774:	13 c1       	rjmp	.+550    	; 0x99c <_ZN13Password_Menu6choiseEv+0x46c>
     776:	8c 81       	ldd	r24, Y+4	; 0x04
     778:	9d 81       	ldd	r25, Y+5	; 0x05
     77a:	01 96       	adiw	r24, 0x01	; 1
     77c:	9d 83       	std	Y+5, r25	; 0x05
     77e:	8c 83       	std	Y+4, r24	; 0x04
     780:	18 16       	cp	r1, r24
     782:	19 06       	cpc	r1, r25
     784:	0c f0       	brlt	.+2      	; 0x788 <_ZN13Password_Menu6choiseEv+0x258>
     786:	0a c1       	rjmp	.+532    	; 0x99c <_ZN13Password_Menu6choiseEv+0x46c>
     788:	6e 01       	movw	r12, r28
     78a:	88 e0       	ldi	r24, 0x08	; 8
     78c:	c8 0e       	add	r12, r24
     78e:	d1 1c       	adc	r13, r1
     790:	e1 2c       	mov	r14, r1
     792:	f1 2c       	mov	r15, r1
     794:	56 01       	movw	r10, r12
     796:	4a 89       	ldd	r20, Y+18	; 0x12
     798:	5b 89       	ldd	r21, Y+19	; 0x13
     79a:	4e 5f       	subi	r20, 0xFE	; 254
     79c:	5f 4f       	sbci	r21, 0xFF	; 255
     79e:	f6 01       	movw	r30, r12
     7a0:	61 91       	ld	r22, Z+
     7a2:	71 91       	ld	r23, Z+
     7a4:	6f 01       	movw	r12, r30
     7a6:	08 e0       	ldi	r16, 0x08	; 8
     7a8:	10 e0       	ldi	r17, 0x00	; 0
     7aa:	21 e0       	ldi	r18, 0x01	; 1
     7ac:	30 e0       	ldi	r19, 0x00	; 0
     7ae:	82 e7       	ldi	r24, 0x72	; 114
     7b0:	96 e0       	ldi	r25, 0x06	; 6
     7b2:	0e 94 7e 20 	call	0x40fc	; 0x40fc <_ZN4OLED21OLED_Clear_Bufer_partEiiii>
     7b6:	4a 89       	ldd	r20, Y+18	; 0x12
     7b8:	5b 89       	ldd	r21, Y+19	; 0x13
     7ba:	41 50       	subi	r20, 0x01	; 1
     7bc:	51 09       	sbc	r21, r1
     7be:	f5 01       	movw	r30, r10
     7c0:	60 81       	ld	r22, Z
     7c2:	71 81       	ldd	r23, Z+1	; 0x01
     7c4:	21 e0       	ldi	r18, 0x01	; 1
     7c6:	30 e0       	ldi	r19, 0x00	; 0
     7c8:	82 e7       	ldi	r24, 0x72	; 114
     7ca:	96 e0       	ldi	r25, 0x06	; 6
     7cc:	0e 94 7e 20 	call	0x40fc	; 0x40fc <_ZN4OLED21OLED_Clear_Bufer_partEiiii>
     7d0:	ff ef       	ldi	r31, 0xFF	; 255
     7d2:	ef 1a       	sub	r14, r31
     7d4:	ff 0a       	sbc	r15, r31
     7d6:	8c 81       	ldd	r24, Y+4	; 0x04
     7d8:	9d 81       	ldd	r25, Y+5	; 0x05
     7da:	e8 16       	cp	r14, r24
     7dc:	f9 06       	cpc	r15, r25
     7de:	d4 f2       	brlt	.-76     	; 0x794 <_ZN13Password_Menu6choiseEv+0x264>
     7e0:	dd c0       	rjmp	.+442    	; 0x99c <_ZN13Password_Menu6choiseEv+0x46c>
     7e2:	8c 81       	ldd	r24, Y+4	; 0x04
     7e4:	9d 81       	ldd	r25, Y+5	; 0x05
     7e6:	01 96       	adiw	r24, 0x01	; 1
     7e8:	9d 83       	std	Y+5, r25	; 0x05
     7ea:	8c 83       	std	Y+4, r24	; 0x04
     7ec:	18 16       	cp	r1, r24
     7ee:	19 06       	cpc	r1, r25
     7f0:	0c f0       	brlt	.+2      	; 0x7f4 <_ZN13Password_Menu6choiseEv+0x2c4>
     7f2:	d4 c0       	rjmp	.+424    	; 0x99c <_ZN13Password_Menu6choiseEv+0x46c>
     7f4:	6e 01       	movw	r12, r28
     7f6:	88 e0       	ldi	r24, 0x08	; 8
     7f8:	c8 0e       	add	r12, r24
     7fa:	d1 1c       	adc	r13, r1
     7fc:	e1 2c       	mov	r14, r1
     7fe:	f1 2c       	mov	r15, r1
     800:	56 01       	movw	r10, r12
     802:	4a 89       	ldd	r20, Y+18	; 0x12
     804:	5b 89       	ldd	r21, Y+19	; 0x13
     806:	4e 5f       	subi	r20, 0xFE	; 254
     808:	5f 4f       	sbci	r21, 0xFF	; 255
     80a:	f6 01       	movw	r30, r12
     80c:	61 91       	ld	r22, Z+
     80e:	71 91       	ld	r23, Z+
     810:	6f 01       	movw	r12, r30
     812:	08 e0       	ldi	r16, 0x08	; 8
     814:	10 e0       	ldi	r17, 0x00	; 0
     816:	21 e0       	ldi	r18, 0x01	; 1
     818:	30 e0       	ldi	r19, 0x00	; 0
     81a:	82 e7       	ldi	r24, 0x72	; 114
     81c:	96 e0       	ldi	r25, 0x06	; 6
     81e:	0e 94 7e 20 	call	0x40fc	; 0x40fc <_ZN4OLED21OLED_Clear_Bufer_partEiiii>
     822:	4a 89       	ldd	r20, Y+18	; 0x12
     824:	5b 89       	ldd	r21, Y+19	; 0x13
     826:	41 50       	subi	r20, 0x01	; 1
     828:	51 09       	sbc	r21, r1
     82a:	f5 01       	movw	r30, r10
     82c:	60 81       	ld	r22, Z
     82e:	71 81       	ldd	r23, Z+1	; 0x01
     830:	21 e0       	ldi	r18, 0x01	; 1
     832:	30 e0       	ldi	r19, 0x00	; 0
     834:	82 e7       	ldi	r24, 0x72	; 114
     836:	96 e0       	ldi	r25, 0x06	; 6
     838:	0e 94 7e 20 	call	0x40fc	; 0x40fc <_ZN4OLED21OLED_Clear_Bufer_partEiiii>
     83c:	ff ef       	ldi	r31, 0xFF	; 255
     83e:	ef 1a       	sub	r14, r31
     840:	ff 0a       	sbc	r15, r31
     842:	8c 81       	ldd	r24, Y+4	; 0x04
     844:	9d 81       	ldd	r25, Y+5	; 0x05
     846:	e8 16       	cp	r14, r24
     848:	f9 06       	cpc	r15, r25
     84a:	d4 f2       	brlt	.-76     	; 0x800 <_ZN13Password_Menu6choiseEv+0x2d0>
     84c:	a7 c0       	rjmp	.+334    	; 0x99c <_ZN13Password_Menu6choiseEv+0x46c>
     84e:	8c 81       	ldd	r24, Y+4	; 0x04
     850:	9d 81       	ldd	r25, Y+5	; 0x05
     852:	01 96       	adiw	r24, 0x01	; 1
     854:	9d 83       	std	Y+5, r25	; 0x05
     856:	8c 83       	std	Y+4, r24	; 0x04
     858:	18 16       	cp	r1, r24
     85a:	19 06       	cpc	r1, r25
     85c:	0c f0       	brlt	.+2      	; 0x860 <_ZN13Password_Menu6choiseEv+0x330>
     85e:	9e c0       	rjmp	.+316    	; 0x99c <_ZN13Password_Menu6choiseEv+0x46c>
     860:	6e 01       	movw	r12, r28
     862:	88 e0       	ldi	r24, 0x08	; 8
     864:	c8 0e       	add	r12, r24
     866:	d1 1c       	adc	r13, r1
     868:	e1 2c       	mov	r14, r1
     86a:	f1 2c       	mov	r15, r1
     86c:	56 01       	movw	r10, r12
     86e:	4a 89       	ldd	r20, Y+18	; 0x12
     870:	5b 89       	ldd	r21, Y+19	; 0x13
     872:	4e 5f       	subi	r20, 0xFE	; 254
     874:	5f 4f       	sbci	r21, 0xFF	; 255
     876:	f6 01       	movw	r30, r12
     878:	61 91       	ld	r22, Z+
     87a:	71 91       	ld	r23, Z+
     87c:	6f 01       	movw	r12, r30
     87e:	08 e0       	ldi	r16, 0x08	; 8
     880:	10 e0       	ldi	r17, 0x00	; 0
     882:	21 e0       	ldi	r18, 0x01	; 1
     884:	30 e0       	ldi	r19, 0x00	; 0
     886:	82 e7       	ldi	r24, 0x72	; 114
     888:	96 e0       	ldi	r25, 0x06	; 6
     88a:	0e 94 7e 20 	call	0x40fc	; 0x40fc <_ZN4OLED21OLED_Clear_Bufer_partEiiii>
     88e:	4a 89       	ldd	r20, Y+18	; 0x12
     890:	5b 89       	ldd	r21, Y+19	; 0x13
     892:	41 50       	subi	r20, 0x01	; 1
     894:	51 09       	sbc	r21, r1
     896:	f5 01       	movw	r30, r10
     898:	60 81       	ld	r22, Z
     89a:	71 81       	ldd	r23, Z+1	; 0x01
     89c:	21 e0       	ldi	r18, 0x01	; 1
     89e:	30 e0       	ldi	r19, 0x00	; 0
     8a0:	82 e7       	ldi	r24, 0x72	; 114
     8a2:	96 e0       	ldi	r25, 0x06	; 6
     8a4:	0e 94 7e 20 	call	0x40fc	; 0x40fc <_ZN4OLED21OLED_Clear_Bufer_partEiiii>
     8a8:	ff ef       	ldi	r31, 0xFF	; 255
     8aa:	ef 1a       	sub	r14, r31
     8ac:	ff 0a       	sbc	r15, r31
     8ae:	8c 81       	ldd	r24, Y+4	; 0x04
     8b0:	9d 81       	ldd	r25, Y+5	; 0x05
     8b2:	e8 16       	cp	r14, r24
     8b4:	f9 06       	cpc	r15, r25
     8b6:	d4 f2       	brlt	.-76     	; 0x86c <_ZN13Password_Menu6choiseEv+0x33c>
     8b8:	71 c0       	rjmp	.+226    	; 0x99c <_ZN13Password_Menu6choiseEv+0x46c>
     8ba:	8c 81       	ldd	r24, Y+4	; 0x04
     8bc:	9d 81       	ldd	r25, Y+5	; 0x05
     8be:	01 96       	adiw	r24, 0x01	; 1
     8c0:	9d 83       	std	Y+5, r25	; 0x05
     8c2:	8c 83       	std	Y+4, r24	; 0x04
     8c4:	18 16       	cp	r1, r24
     8c6:	19 06       	cpc	r1, r25
     8c8:	0c f0       	brlt	.+2      	; 0x8cc <_ZN13Password_Menu6choiseEv+0x39c>
     8ca:	68 c0       	rjmp	.+208    	; 0x99c <_ZN13Password_Menu6choiseEv+0x46c>
     8cc:	6e 01       	movw	r12, r28
     8ce:	88 e0       	ldi	r24, 0x08	; 8
     8d0:	c8 0e       	add	r12, r24
     8d2:	d1 1c       	adc	r13, r1
     8d4:	e1 2c       	mov	r14, r1
     8d6:	f1 2c       	mov	r15, r1
     8d8:	56 01       	movw	r10, r12
     8da:	4a 89       	ldd	r20, Y+18	; 0x12
     8dc:	5b 89       	ldd	r21, Y+19	; 0x13
     8de:	4e 5f       	subi	r20, 0xFE	; 254
     8e0:	5f 4f       	sbci	r21, 0xFF	; 255
     8e2:	f6 01       	movw	r30, r12
     8e4:	61 91       	ld	r22, Z+
     8e6:	71 91       	ld	r23, Z+
     8e8:	6f 01       	movw	r12, r30
     8ea:	08 e0       	ldi	r16, 0x08	; 8
     8ec:	10 e0       	ldi	r17, 0x00	; 0
     8ee:	21 e0       	ldi	r18, 0x01	; 1
     8f0:	30 e0       	ldi	r19, 0x00	; 0
     8f2:	82 e7       	ldi	r24, 0x72	; 114
     8f4:	96 e0       	ldi	r25, 0x06	; 6
     8f6:	0e 94 7e 20 	call	0x40fc	; 0x40fc <_ZN4OLED21OLED_Clear_Bufer_partEiiii>
     8fa:	4a 89       	ldd	r20, Y+18	; 0x12
     8fc:	5b 89       	ldd	r21, Y+19	; 0x13
     8fe:	41 50       	subi	r20, 0x01	; 1
     900:	51 09       	sbc	r21, r1
     902:	f5 01       	movw	r30, r10
     904:	60 81       	ld	r22, Z
     906:	71 81       	ldd	r23, Z+1	; 0x01
     908:	21 e0       	ldi	r18, 0x01	; 1
     90a:	30 e0       	ldi	r19, 0x00	; 0
     90c:	82 e7       	ldi	r24, 0x72	; 114
     90e:	96 e0       	ldi	r25, 0x06	; 6
     910:	0e 94 7e 20 	call	0x40fc	; 0x40fc <_ZN4OLED21OLED_Clear_Bufer_partEiiii>
     914:	ff ef       	ldi	r31, 0xFF	; 255
     916:	ef 1a       	sub	r14, r31
     918:	ff 0a       	sbc	r15, r31
     91a:	8c 81       	ldd	r24, Y+4	; 0x04
     91c:	9d 81       	ldd	r25, Y+5	; 0x05
     91e:	e8 16       	cp	r14, r24
     920:	f9 06       	cpc	r15, r25
     922:	d4 f2       	brlt	.-76     	; 0x8d8 <_ZN13Password_Menu6choiseEv+0x3a8>
     924:	3b c0       	rjmp	.+118    	; 0x99c <_ZN13Password_Menu6choiseEv+0x46c>
     926:	8c 81       	ldd	r24, Y+4	; 0x04
     928:	9d 81       	ldd	r25, Y+5	; 0x05
     92a:	01 96       	adiw	r24, 0x01	; 1
     92c:	9d 83       	std	Y+5, r25	; 0x05
     92e:	8c 83       	std	Y+4, r24	; 0x04
     930:	18 16       	cp	r1, r24
     932:	19 06       	cpc	r1, r25
     934:	9c f5       	brge	.+102    	; 0x99c <_ZN13Password_Menu6choiseEv+0x46c>
     936:	6e 01       	movw	r12, r28
     938:	88 e0       	ldi	r24, 0x08	; 8
     93a:	c8 0e       	add	r12, r24
     93c:	d1 1c       	adc	r13, r1
     93e:	e1 2c       	mov	r14, r1
     940:	f1 2c       	mov	r15, r1
     942:	56 01       	movw	r10, r12
     944:	4a 89       	ldd	r20, Y+18	; 0x12
     946:	5b 89       	ldd	r21, Y+19	; 0x13
     948:	4e 5f       	subi	r20, 0xFE	; 254
     94a:	5f 4f       	sbci	r21, 0xFF	; 255
     94c:	f6 01       	movw	r30, r12
     94e:	61 91       	ld	r22, Z+
     950:	71 91       	ld	r23, Z+
     952:	6f 01       	movw	r12, r30
     954:	08 e0       	ldi	r16, 0x08	; 8
     956:	10 e0       	ldi	r17, 0x00	; 0
     958:	21 e0       	ldi	r18, 0x01	; 1
     95a:	30 e0       	ldi	r19, 0x00	; 0
     95c:	82 e7       	ldi	r24, 0x72	; 114
     95e:	96 e0       	ldi	r25, 0x06	; 6
     960:	0e 94 7e 20 	call	0x40fc	; 0x40fc <_ZN4OLED21OLED_Clear_Bufer_partEiiii>
     964:	4a 89       	ldd	r20, Y+18	; 0x12
     966:	5b 89       	ldd	r21, Y+19	; 0x13
     968:	41 50       	subi	r20, 0x01	; 1
     96a:	51 09       	sbc	r21, r1
     96c:	f5 01       	movw	r30, r10
     96e:	60 81       	ld	r22, Z
     970:	71 81       	ldd	r23, Z+1	; 0x01
     972:	21 e0       	ldi	r18, 0x01	; 1
     974:	30 e0       	ldi	r19, 0x00	; 0
     976:	82 e7       	ldi	r24, 0x72	; 114
     978:	96 e0       	ldi	r25, 0x06	; 6
     97a:	0e 94 7e 20 	call	0x40fc	; 0x40fc <_ZN4OLED21OLED_Clear_Bufer_partEiiii>
     97e:	ff ef       	ldi	r31, 0xFF	; 255
     980:	ef 1a       	sub	r14, r31
     982:	ff 0a       	sbc	r15, r31
     984:	8c 81       	ldd	r24, Y+4	; 0x04
     986:	9d 81       	ldd	r25, Y+5	; 0x05
     988:	e8 16       	cp	r14, r24
     98a:	f9 06       	cpc	r15, r25
     98c:	d4 f2       	brlt	.-76     	; 0x942 <_ZN13Password_Menu6choiseEv+0x412>
     98e:	06 c0       	rjmp	.+12     	; 0x99c <_ZN13Password_Menu6choiseEv+0x46c>
     990:	e8 81       	ld	r30, Y
     992:	f9 81       	ldd	r31, Y+1	; 0x01
     994:	04 84       	ldd	r0, Z+12	; 0x0c
     996:	f5 85       	ldd	r31, Z+13	; 0x0d
     998:	e0 2d       	mov	r30, r0
     99a:	09 95       	icall
     99c:	8c 81       	ldd	r24, Y+4	; 0x04
     99e:	9d 81       	ldd	r25, Y+5	; 0x05
     9a0:	05 97       	sbiw	r24, 0x05	; 5
     9a2:	6c f0       	brlt	.+26     	; 0x9be <_ZN13Password_Menu6choiseEv+0x48e>
     9a4:	81 e0       	ldi	r24, 0x01	; 1
     9a6:	80 93 00 01 	sts	0x0100, r24	; 0x800100 <Main_Menu_Status>
     9aa:	10 92 71 06 	sts	0x0671, r1	; 0x800671 <Password_Menu_Status>
     9ae:	e8 81       	ld	r30, Y
     9b0:	f9 81       	ldd	r31, Y+1	; 0x01
     9b2:	04 80       	ldd	r0, Z+4	; 0x04
     9b4:	f5 81       	ldd	r31, Z+5	; 0x05
     9b6:	e0 2d       	mov	r30, r0
     9b8:	ce 01       	movw	r24, r28
     9ba:	09 95       	icall
     9bc:	09 c0       	rjmp	.+18     	; 0x9d0 <_ZN13Password_Menu6choiseEv+0x4a0>
     9be:	1f 82       	std	Y+7, r1	; 0x07
     9c0:	1e 82       	std	Y+6, r1	; 0x06
     9c2:	e8 81       	ld	r30, Y
     9c4:	f9 81       	ldd	r31, Y+1	; 0x01
     9c6:	00 88       	ldd	r0, Z+16	; 0x10
     9c8:	f1 89       	ldd	r31, Z+17	; 0x11
     9ca:	e0 2d       	mov	r30, r0
     9cc:	ce 01       	movw	r24, r28
     9ce:	09 95       	icall
     9d0:	df 91       	pop	r29
     9d2:	cf 91       	pop	r28
     9d4:	1f 91       	pop	r17
     9d6:	0f 91       	pop	r16
     9d8:	ff 90       	pop	r15
     9da:	ef 90       	pop	r14
     9dc:	df 90       	pop	r13
     9de:	cf 90       	pop	r12
     9e0:	bf 90       	pop	r11
     9e2:	af 90       	pop	r10
     9e4:	08 95       	ret

000009e6 <_ZN13Password_Menu4backEv>:
     9e6:	0f 93       	push	r16
     9e8:	1f 93       	push	r17
     9ea:	cf 93       	push	r28
     9ec:	df 93       	push	r29
     9ee:	ec 01       	movw	r28, r24
     9f0:	4a 89       	ldd	r20, Y+18	; 0x12
     9f2:	5b 89       	ldd	r21, Y+19	; 0x13
     9f4:	ec 81       	ldd	r30, Y+4	; 0x04
     9f6:	fd 81       	ldd	r31, Y+5	; 0x05
     9f8:	34 96       	adiw	r30, 0x04	; 4
     9fa:	ee 0f       	add	r30, r30
     9fc:	ff 1f       	adc	r31, r31
     9fe:	e8 0f       	add	r30, r24
     a00:	f9 1f       	adc	r31, r25
     a02:	60 81       	ld	r22, Z
     a04:	71 81       	ldd	r23, Z+1	; 0x01
     a06:	08 e0       	ldi	r16, 0x08	; 8
     a08:	10 e0       	ldi	r17, 0x00	; 0
     a0a:	21 e0       	ldi	r18, 0x01	; 1
     a0c:	30 e0       	ldi	r19, 0x00	; 0
     a0e:	82 e7       	ldi	r24, 0x72	; 114
     a10:	96 e0       	ldi	r25, 0x06	; 6
     a12:	0e 94 7e 20 	call	0x40fc	; 0x40fc <_ZN4OLED21OLED_Clear_Bufer_partEiiii>
     a16:	4a 89       	ldd	r20, Y+18	; 0x12
     a18:	5b 89       	ldd	r21, Y+19	; 0x13
     a1a:	4e 5f       	subi	r20, 0xFE	; 254
     a1c:	5f 4f       	sbci	r21, 0xFF	; 255
     a1e:	ec 81       	ldd	r30, Y+4	; 0x04
     a20:	fd 81       	ldd	r31, Y+5	; 0x05
     a22:	34 96       	adiw	r30, 0x04	; 4
     a24:	ee 0f       	add	r30, r30
     a26:	ff 1f       	adc	r31, r31
     a28:	ec 0f       	add	r30, r28
     a2a:	fd 1f       	adc	r31, r29
     a2c:	60 81       	ld	r22, Z
     a2e:	71 81       	ldd	r23, Z+1	; 0x01
     a30:	21 e0       	ldi	r18, 0x01	; 1
     a32:	30 e0       	ldi	r19, 0x00	; 0
     a34:	82 e7       	ldi	r24, 0x72	; 114
     a36:	96 e0       	ldi	r25, 0x06	; 6
     a38:	0e 94 7e 20 	call	0x40fc	; 0x40fc <_ZN4OLED21OLED_Clear_Bufer_partEiiii>
     a3c:	4a 89       	ldd	r20, Y+18	; 0x12
     a3e:	5b 89       	ldd	r21, Y+19	; 0x13
     a40:	41 50       	subi	r20, 0x01	; 1
     a42:	51 09       	sbc	r21, r1
     a44:	ec 81       	ldd	r30, Y+4	; 0x04
     a46:	fd 81       	ldd	r31, Y+5	; 0x05
     a48:	34 96       	adiw	r30, 0x04	; 4
     a4a:	ee 0f       	add	r30, r30
     a4c:	ff 1f       	adc	r31, r31
     a4e:	ec 0f       	add	r30, r28
     a50:	fd 1f       	adc	r31, r29
     a52:	60 81       	ld	r22, Z
     a54:	71 81       	ldd	r23, Z+1	; 0x01
     a56:	21 e0       	ldi	r18, 0x01	; 1
     a58:	30 e0       	ldi	r19, 0x00	; 0
     a5a:	82 e7       	ldi	r24, 0x72	; 114
     a5c:	96 e0       	ldi	r25, 0x06	; 6
     a5e:	0e 94 7e 20 	call	0x40fc	; 0x40fc <_ZN4OLED21OLED_Clear_Bufer_partEiiii>
     a62:	8c 81       	ldd	r24, Y+4	; 0x04
     a64:	9d 81       	ldd	r25, Y+5	; 0x05
     a66:	01 97       	sbiw	r24, 0x01	; 1
     a68:	9d 83       	std	Y+5, r25	; 0x05
     a6a:	8c 83       	std	Y+4, r24	; 0x04
     a6c:	99 23       	and	r25, r25
     a6e:	7c f4       	brge	.+30     	; 0xa8e <_ZN13Password_Menu4backEv+0xa8>
     a70:	10 92 71 06 	sts	0x0671, r1	; 0x800671 <Password_Menu_Status>
     a74:	81 e0       	ldi	r24, 0x01	; 1
     a76:	80 93 00 01 	sts	0x0100, r24	; 0x800100 <Main_Menu_Status>
     a7a:	e8 81       	ld	r30, Y
     a7c:	f9 81       	ldd	r31, Y+1	; 0x01
     a7e:	04 80       	ldd	r0, Z+4	; 0x04
     a80:	f5 81       	ldd	r31, Z+5	; 0x05
     a82:	e0 2d       	mov	r30, r0
     a84:	ce 01       	movw	r24, r28
     a86:	09 95       	icall
     a88:	1d 82       	std	Y+5, r1	; 0x05
     a8a:	1c 82       	std	Y+4, r1	; 0x04
     a8c:	07 c0       	rjmp	.+14     	; 0xa9c <_ZN13Password_Menu4backEv+0xb6>
     a8e:	e8 81       	ld	r30, Y
     a90:	f9 81       	ldd	r31, Y+1	; 0x01
     a92:	00 88       	ldd	r0, Z+16	; 0x10
     a94:	f1 89       	ldd	r31, Z+17	; 0x11
     a96:	e0 2d       	mov	r30, r0
     a98:	ce 01       	movw	r24, r28
     a9a:	09 95       	icall
     a9c:	df 91       	pop	r29
     a9e:	cf 91       	pop	r28
     aa0:	1f 91       	pop	r17
     aa2:	0f 91       	pop	r16
     aa4:	08 95       	ret

00000aa6 <_ZN9Info_menu7actionsEv>:
     aa6:	ef 92       	push	r14
     aa8:	ff 92       	push	r15
     aaa:	0f 93       	push	r16
     aac:	1f 93       	push	r17
     aae:	cf 93       	push	r28
     ab0:	df 93       	push	r29
     ab2:	ec 01       	movw	r28, r24
     ab4:	90 91 6f 06 	lds	r25, 0x066F	; 0x80066f <Info_Menu_Status>
     ab8:	99 23       	and	r25, r25
     aba:	09 f4       	brne	.+2      	; 0xabe <_ZN9Info_menu7actionsEv+0x18>
     abc:	08 c2       	rjmp	.+1040   	; 0xece <_ZN9Info_menu7actionsEv+0x428>
     abe:	8c 81       	ldd	r24, Y+4	; 0x04
     ac0:	9d 81       	ldd	r25, Y+5	; 0x05
     ac2:	81 30       	cpi	r24, 0x01	; 1
     ac4:	91 05       	cpc	r25, r1
     ac6:	09 f4       	brne	.+2      	; 0xaca <_ZN9Info_menu7actionsEv+0x24>
     ac8:	0c c1       	rjmp	.+536    	; 0xce2 <_ZN9Info_menu7actionsEv+0x23c>
     aca:	82 30       	cpi	r24, 0x02	; 2
     acc:	91 05       	cpc	r25, r1
     ace:	09 f4       	brne	.+2      	; 0xad2 <_ZN9Info_menu7actionsEv+0x2c>
     ad0:	db c1       	rjmp	.+950    	; 0xe88 <_ZN9Info_menu7actionsEv+0x3e2>
     ad2:	89 2b       	or	r24, r25
     ad4:	09 f0       	breq	.+2      	; 0xad8 <_ZN9Info_menu7actionsEv+0x32>
     ad6:	fb c1       	rjmp	.+1014   	; 0xece <_ZN9Info_menu7actionsEv+0x428>
     ad8:	4c 85       	ldd	r20, Y+12	; 0x0c
     ada:	5d 85       	ldd	r21, Y+13	; 0x0d
     adc:	08 e0       	ldi	r16, 0x08	; 8
     ade:	10 e0       	ldi	r17, 0x00	; 0
     ae0:	20 e1       	ldi	r18, 0x10	; 16
     ae2:	30 e0       	ldi	r19, 0x00	; 0
     ae4:	60 e0       	ldi	r22, 0x00	; 0
     ae6:	70 e0       	ldi	r23, 0x00	; 0
     ae8:	82 e7       	ldi	r24, 0x72	; 114
     aea:	96 e0       	ldi	r25, 0x06	; 6
     aec:	0e 94 7e 20 	call	0x40fc	; 0x40fc <_ZN4OLED21OLED_Clear_Bufer_partEiiii>
     af0:	4c 85       	ldd	r20, Y+12	; 0x0c
     af2:	5d 85       	ldd	r21, Y+13	; 0x0d
     af4:	ec 81       	ldd	r30, Y+4	; 0x04
     af6:	fd 81       	ldd	r31, Y+5	; 0x05
     af8:	33 96       	adiw	r30, 0x03	; 3
     afa:	ee 0f       	add	r30, r30
     afc:	ff 1f       	adc	r31, r31
     afe:	ec 0f       	add	r30, r28
     b00:	fd 1f       	adc	r31, r29
     b02:	60 81       	ld	r22, Z
     b04:	71 81       	ldd	r23, Z+1	; 0x01
     b06:	0f 2e       	mov	r0, r31
     b08:	f9 e9       	ldi	r31, 0x99	; 153
     b0a:	ef 2e       	mov	r14, r31
     b0c:	f1 e0       	ldi	r31, 0x01	; 1
     b0e:	ff 2e       	mov	r15, r31
     b10:	f0 2d       	mov	r31, r0
     b12:	21 e0       	ldi	r18, 0x01	; 1
     b14:	30 e0       	ldi	r19, 0x00	; 0
     b16:	82 e7       	ldi	r24, 0x72	; 114
     b18:	96 e0       	ldi	r25, 0x06	; 6
     b1a:	0e 94 cd 20 	call	0x419a	; 0x419a <_ZN4OLED19OLED_Write_To_BuferEiiiiPKh>
     b1e:	4c 85       	ldd	r20, Y+12	; 0x0c
     b20:	5d 85       	ldd	r21, Y+13	; 0x0d
     b22:	ec 81       	ldd	r30, Y+4	; 0x04
     b24:	fd 81       	ldd	r31, Y+5	; 0x05
     b26:	33 96       	adiw	r30, 0x03	; 3
     b28:	ee 0f       	add	r30, r30
     b2a:	ff 1f       	adc	r31, r31
     b2c:	ec 0f       	add	r30, r28
     b2e:	fd 1f       	adc	r31, r29
     b30:	60 81       	ld	r22, Z
     b32:	71 81       	ldd	r23, Z+1	; 0x01
     b34:	68 5f       	subi	r22, 0xF8	; 248
     b36:	7f 4f       	sbci	r23, 0xFF	; 255
     b38:	0f 2e       	mov	r0, r31
     b3a:	f1 e9       	ldi	r31, 0x91	; 145
     b3c:	ef 2e       	mov	r14, r31
     b3e:	f1 e0       	ldi	r31, 0x01	; 1
     b40:	ff 2e       	mov	r15, r31
     b42:	f0 2d       	mov	r31, r0
     b44:	21 e0       	ldi	r18, 0x01	; 1
     b46:	30 e0       	ldi	r19, 0x00	; 0
     b48:	82 e7       	ldi	r24, 0x72	; 114
     b4a:	96 e0       	ldi	r25, 0x06	; 6
     b4c:	0e 94 cd 20 	call	0x419a	; 0x419a <_ZN4OLED19OLED_Write_To_BuferEiiiiPKh>
     b50:	4c 85       	ldd	r20, Y+12	; 0x0c
     b52:	5d 85       	ldd	r21, Y+13	; 0x0d
     b54:	ec 81       	ldd	r30, Y+4	; 0x04
     b56:	fd 81       	ldd	r31, Y+5	; 0x05
     b58:	33 96       	adiw	r30, 0x03	; 3
     b5a:	ee 0f       	add	r30, r30
     b5c:	ff 1f       	adc	r31, r31
     b5e:	ec 0f       	add	r30, r28
     b60:	fd 1f       	adc	r31, r29
     b62:	60 81       	ld	r22, Z
     b64:	71 81       	ldd	r23, Z+1	; 0x01
     b66:	60 5f       	subi	r22, 0xF0	; 240
     b68:	7f 4f       	sbci	r23, 0xFF	; 255
     b6a:	0f 2e       	mov	r0, r31
     b6c:	f1 e2       	ldi	r31, 0x21	; 33
     b6e:	ef 2e       	mov	r14, r31
     b70:	f1 e0       	ldi	r31, 0x01	; 1
     b72:	ff 2e       	mov	r15, r31
     b74:	f0 2d       	mov	r31, r0
     b76:	21 e0       	ldi	r18, 0x01	; 1
     b78:	30 e0       	ldi	r19, 0x00	; 0
     b7a:	82 e7       	ldi	r24, 0x72	; 114
     b7c:	96 e0       	ldi	r25, 0x06	; 6
     b7e:	0e 94 cd 20 	call	0x419a	; 0x419a <_ZN4OLED19OLED_Write_To_BuferEiiiiPKh>
     b82:	4c 85       	ldd	r20, Y+12	; 0x0c
     b84:	5d 85       	ldd	r21, Y+13	; 0x0d
     b86:	ec 81       	ldd	r30, Y+4	; 0x04
     b88:	fd 81       	ldd	r31, Y+5	; 0x05
     b8a:	33 96       	adiw	r30, 0x03	; 3
     b8c:	ee 0f       	add	r30, r30
     b8e:	ff 1f       	adc	r31, r31
     b90:	ec 0f       	add	r30, r28
     b92:	fd 1f       	adc	r31, r29
     b94:	60 81       	ld	r22, Z
     b96:	71 81       	ldd	r23, Z+1	; 0x01
     b98:	68 5e       	subi	r22, 0xE8	; 232
     b9a:	7f 4f       	sbci	r23, 0xFF	; 255
     b9c:	0f 2e       	mov	r0, r31
     b9e:	f1 e7       	ldi	r31, 0x71	; 113
     ba0:	ef 2e       	mov	r14, r31
     ba2:	f1 e0       	ldi	r31, 0x01	; 1
     ba4:	ff 2e       	mov	r15, r31
     ba6:	f0 2d       	mov	r31, r0
     ba8:	21 e0       	ldi	r18, 0x01	; 1
     baa:	30 e0       	ldi	r19, 0x00	; 0
     bac:	82 e7       	ldi	r24, 0x72	; 114
     bae:	96 e0       	ldi	r25, 0x06	; 6
     bb0:	0e 94 cd 20 	call	0x419a	; 0x419a <_ZN4OLED19OLED_Write_To_BuferEiiiiPKh>
     bb4:	4c 85       	ldd	r20, Y+12	; 0x0c
     bb6:	5d 85       	ldd	r21, Y+13	; 0x0d
     bb8:	ec 81       	ldd	r30, Y+4	; 0x04
     bba:	fd 81       	ldd	r31, Y+5	; 0x05
     bbc:	33 96       	adiw	r30, 0x03	; 3
     bbe:	ee 0f       	add	r30, r30
     bc0:	ff 1f       	adc	r31, r31
     bc2:	ec 0f       	add	r30, r28
     bc4:	fd 1f       	adc	r31, r29
     bc6:	60 81       	ld	r22, Z
     bc8:	71 81       	ldd	r23, Z+1	; 0x01
     bca:	60 5e       	subi	r22, 0xE0	; 224
     bcc:	7f 4f       	sbci	r23, 0xFF	; 255
     bce:	0f 2e       	mov	r0, r31
     bd0:	f1 ea       	ldi	r31, 0xA1	; 161
     bd2:	ef 2e       	mov	r14, r31
     bd4:	f1 e0       	ldi	r31, 0x01	; 1
     bd6:	ff 2e       	mov	r15, r31
     bd8:	f0 2d       	mov	r31, r0
     bda:	21 e0       	ldi	r18, 0x01	; 1
     bdc:	30 e0       	ldi	r19, 0x00	; 0
     bde:	82 e7       	ldi	r24, 0x72	; 114
     be0:	96 e0       	ldi	r25, 0x06	; 6
     be2:	0e 94 cd 20 	call	0x419a	; 0x419a <_ZN4OLED19OLED_Write_To_BuferEiiiiPKh>
     be6:	4c 85       	ldd	r20, Y+12	; 0x0c
     be8:	5d 85       	ldd	r21, Y+13	; 0x0d
     bea:	ec 81       	ldd	r30, Y+4	; 0x04
     bec:	fd 81       	ldd	r31, Y+5	; 0x05
     bee:	33 96       	adiw	r30, 0x03	; 3
     bf0:	ee 0f       	add	r30, r30
     bf2:	ff 1f       	adc	r31, r31
     bf4:	ec 0f       	add	r30, r28
     bf6:	fd 1f       	adc	r31, r29
     bf8:	60 81       	ld	r22, Z
     bfa:	71 81       	ldd	r23, Z+1	; 0x01
     bfc:	68 5d       	subi	r22, 0xD8	; 216
     bfe:	7f 4f       	sbci	r23, 0xFF	; 255
     c00:	0f 2e       	mov	r0, r31
     c02:	f1 e9       	ldi	r31, 0x91	; 145
     c04:	ef 2e       	mov	r14, r31
     c06:	f1 e0       	ldi	r31, 0x01	; 1
     c08:	ff 2e       	mov	r15, r31
     c0a:	f0 2d       	mov	r31, r0
     c0c:	21 e0       	ldi	r18, 0x01	; 1
     c0e:	30 e0       	ldi	r19, 0x00	; 0
     c10:	82 e7       	ldi	r24, 0x72	; 114
     c12:	96 e0       	ldi	r25, 0x06	; 6
     c14:	0e 94 cd 20 	call	0x419a	; 0x419a <_ZN4OLED19OLED_Write_To_BuferEiiiiPKh>
     c18:	4c 85       	ldd	r20, Y+12	; 0x0c
     c1a:	5d 85       	ldd	r21, Y+13	; 0x0d
     c1c:	ec 81       	ldd	r30, Y+4	; 0x04
     c1e:	fd 81       	ldd	r31, Y+5	; 0x05
     c20:	33 96       	adiw	r30, 0x03	; 3
     c22:	ee 0f       	add	r30, r30
     c24:	ff 1f       	adc	r31, r31
     c26:	ec 0f       	add	r30, r28
     c28:	fd 1f       	adc	r31, r29
     c2a:	60 81       	ld	r22, Z
     c2c:	71 81       	ldd	r23, Z+1	; 0x01
     c2e:	68 5c       	subi	r22, 0xC8	; 200
     c30:	7f 4f       	sbci	r23, 0xFF	; 255
     c32:	0f 2e       	mov	r0, r31
     c34:	f1 e7       	ldi	r31, 0x71	; 113
     c36:	ef 2e       	mov	r14, r31
     c38:	f1 e0       	ldi	r31, 0x01	; 1
     c3a:	ff 2e       	mov	r15, r31
     c3c:	f0 2d       	mov	r31, r0
     c3e:	21 e0       	ldi	r18, 0x01	; 1
     c40:	30 e0       	ldi	r19, 0x00	; 0
     c42:	82 e7       	ldi	r24, 0x72	; 114
     c44:	96 e0       	ldi	r25, 0x06	; 6
     c46:	0e 94 cd 20 	call	0x419a	; 0x419a <_ZN4OLED19OLED_Write_To_BuferEiiiiPKh>
     c4a:	4c 85       	ldd	r20, Y+12	; 0x0c
     c4c:	5d 85       	ldd	r21, Y+13	; 0x0d
     c4e:	ec 81       	ldd	r30, Y+4	; 0x04
     c50:	fd 81       	ldd	r31, Y+5	; 0x05
     c52:	33 96       	adiw	r30, 0x03	; 3
     c54:	ee 0f       	add	r30, r30
     c56:	ff 1f       	adc	r31, r31
     c58:	ec 0f       	add	r30, r28
     c5a:	fd 1f       	adc	r31, r29
     c5c:	60 81       	ld	r22, Z
     c5e:	71 81       	ldd	r23, Z+1	; 0x01
     c60:	60 5c       	subi	r22, 0xC0	; 192
     c62:	7f 4f       	sbci	r23, 0xFF	; 255
     c64:	0f 2e       	mov	r0, r31
     c66:	f1 e5       	ldi	r31, 0x51	; 81
     c68:	ef 2e       	mov	r14, r31
     c6a:	f1 e0       	ldi	r31, 0x01	; 1
     c6c:	ff 2e       	mov	r15, r31
     c6e:	f0 2d       	mov	r31, r0
     c70:	21 e0       	ldi	r18, 0x01	; 1
     c72:	30 e0       	ldi	r19, 0x00	; 0
     c74:	82 e7       	ldi	r24, 0x72	; 114
     c76:	96 e0       	ldi	r25, 0x06	; 6
     c78:	0e 94 cd 20 	call	0x419a	; 0x419a <_ZN4OLED19OLED_Write_To_BuferEiiiiPKh>
     c7c:	4c 85       	ldd	r20, Y+12	; 0x0c
     c7e:	5d 85       	ldd	r21, Y+13	; 0x0d
     c80:	ec 81       	ldd	r30, Y+4	; 0x04
     c82:	fd 81       	ldd	r31, Y+5	; 0x05
     c84:	33 96       	adiw	r30, 0x03	; 3
     c86:	ee 0f       	add	r30, r30
     c88:	ff 1f       	adc	r31, r31
     c8a:	ec 0f       	add	r30, r28
     c8c:	fd 1f       	adc	r31, r29
     c8e:	60 81       	ld	r22, Z
     c90:	71 81       	ldd	r23, Z+1	; 0x01
     c92:	68 5b       	subi	r22, 0xB8	; 184
     c94:	7f 4f       	sbci	r23, 0xFF	; 255
     c96:	0f 2e       	mov	r0, r31
     c98:	f9 e8       	ldi	r31, 0x89	; 137
     c9a:	ef 2e       	mov	r14, r31
     c9c:	f1 e0       	ldi	r31, 0x01	; 1
     c9e:	ff 2e       	mov	r15, r31
     ca0:	f0 2d       	mov	r31, r0
     ca2:	21 e0       	ldi	r18, 0x01	; 1
     ca4:	30 e0       	ldi	r19, 0x00	; 0
     ca6:	82 e7       	ldi	r24, 0x72	; 114
     ca8:	96 e0       	ldi	r25, 0x06	; 6
     caa:	0e 94 cd 20 	call	0x419a	; 0x419a <_ZN4OLED19OLED_Write_To_BuferEiiiiPKh>
     cae:	4c 85       	ldd	r20, Y+12	; 0x0c
     cb0:	5d 85       	ldd	r21, Y+13	; 0x0d
     cb2:	8c 81       	ldd	r24, Y+4	; 0x04
     cb4:	9d 81       	ldd	r25, Y+5	; 0x05
     cb6:	03 96       	adiw	r24, 0x03	; 3
     cb8:	88 0f       	add	r24, r24
     cba:	99 1f       	adc	r25, r25
     cbc:	c8 0f       	add	r28, r24
     cbe:	d9 1f       	adc	r29, r25
     cc0:	68 81       	ld	r22, Y
     cc2:	79 81       	ldd	r23, Y+1	; 0x01
     cc4:	60 5b       	subi	r22, 0xB0	; 176
     cc6:	7f 4f       	sbci	r23, 0xFF	; 255
     cc8:	0f 2e       	mov	r0, r31
     cca:	f9 e4       	ldi	r31, 0x49	; 73
     ccc:	ef 2e       	mov	r14, r31
     cce:	f1 e0       	ldi	r31, 0x01	; 1
     cd0:	ff 2e       	mov	r15, r31
     cd2:	f0 2d       	mov	r31, r0
     cd4:	21 e0       	ldi	r18, 0x01	; 1
     cd6:	30 e0       	ldi	r19, 0x00	; 0
     cd8:	82 e7       	ldi	r24, 0x72	; 114
     cda:	96 e0       	ldi	r25, 0x06	; 6
     cdc:	0e 94 cd 20 	call	0x419a	; 0x419a <_ZN4OLED19OLED_Write_To_BuferEiiiiPKh>
     ce0:	f6 c0       	rjmp	.+492    	; 0xece <_ZN9Info_menu7actionsEv+0x428>
     ce2:	4c 85       	ldd	r20, Y+12	; 0x0c
     ce4:	5d 85       	ldd	r21, Y+13	; 0x0d
     ce6:	08 e0       	ldi	r16, 0x08	; 8
     ce8:	10 e0       	ldi	r17, 0x00	; 0
     cea:	20 e1       	ldi	r18, 0x10	; 16
     cec:	30 e0       	ldi	r19, 0x00	; 0
     cee:	60 e0       	ldi	r22, 0x00	; 0
     cf0:	70 e0       	ldi	r23, 0x00	; 0
     cf2:	82 e7       	ldi	r24, 0x72	; 114
     cf4:	96 e0       	ldi	r25, 0x06	; 6
     cf6:	0e 94 7e 20 	call	0x40fc	; 0x40fc <_ZN4OLED21OLED_Clear_Bufer_partEiiii>
     cfa:	4c 85       	ldd	r20, Y+12	; 0x0c
     cfc:	5d 85       	ldd	r21, Y+13	; 0x0d
     cfe:	ec 81       	ldd	r30, Y+4	; 0x04
     d00:	fd 81       	ldd	r31, Y+5	; 0x05
     d02:	33 96       	adiw	r30, 0x03	; 3
     d04:	ee 0f       	add	r30, r30
     d06:	ff 1f       	adc	r31, r31
     d08:	ec 0f       	add	r30, r28
     d0a:	fd 1f       	adc	r31, r29
     d0c:	60 81       	ld	r22, Z
     d0e:	71 81       	ldd	r23, Z+1	; 0x01
     d10:	0f 2e       	mov	r0, r31
     d12:	f9 e2       	ldi	r31, 0x29	; 41
     d14:	ef 2e       	mov	r14, r31
     d16:	f1 e0       	ldi	r31, 0x01	; 1
     d18:	ff 2e       	mov	r15, r31
     d1a:	f0 2d       	mov	r31, r0
     d1c:	21 e0       	ldi	r18, 0x01	; 1
     d1e:	30 e0       	ldi	r19, 0x00	; 0
     d20:	82 e7       	ldi	r24, 0x72	; 114
     d22:	96 e0       	ldi	r25, 0x06	; 6
     d24:	0e 94 cd 20 	call	0x419a	; 0x419a <_ZN4OLED19OLED_Write_To_BuferEiiiiPKh>
     d28:	4c 85       	ldd	r20, Y+12	; 0x0c
     d2a:	5d 85       	ldd	r21, Y+13	; 0x0d
     d2c:	ec 81       	ldd	r30, Y+4	; 0x04
     d2e:	fd 81       	ldd	r31, Y+5	; 0x05
     d30:	33 96       	adiw	r30, 0x03	; 3
     d32:	ee 0f       	add	r30, r30
     d34:	ff 1f       	adc	r31, r31
     d36:	ec 0f       	add	r30, r28
     d38:	fd 1f       	adc	r31, r29
     d3a:	60 81       	ld	r22, Z
     d3c:	71 81       	ldd	r23, Z+1	; 0x01
     d3e:	68 5f       	subi	r22, 0xF8	; 248
     d40:	7f 4f       	sbci	r23, 0xFF	; 255
     d42:	0f 2e       	mov	r0, r31
     d44:	f9 e3       	ldi	r31, 0x39	; 57
     d46:	ef 2e       	mov	r14, r31
     d48:	f1 e0       	ldi	r31, 0x01	; 1
     d4a:	ff 2e       	mov	r15, r31
     d4c:	f0 2d       	mov	r31, r0
     d4e:	21 e0       	ldi	r18, 0x01	; 1
     d50:	30 e0       	ldi	r19, 0x00	; 0
     d52:	82 e7       	ldi	r24, 0x72	; 114
     d54:	96 e0       	ldi	r25, 0x06	; 6
     d56:	0e 94 cd 20 	call	0x419a	; 0x419a <_ZN4OLED19OLED_Write_To_BuferEiiiiPKh>
     d5a:	4c 85       	ldd	r20, Y+12	; 0x0c
     d5c:	5d 85       	ldd	r21, Y+13	; 0x0d
     d5e:	ec 81       	ldd	r30, Y+4	; 0x04
     d60:	fd 81       	ldd	r31, Y+5	; 0x05
     d62:	33 96       	adiw	r30, 0x03	; 3
     d64:	ee 0f       	add	r30, r30
     d66:	ff 1f       	adc	r31, r31
     d68:	ec 0f       	add	r30, r28
     d6a:	fd 1f       	adc	r31, r29
     d6c:	60 81       	ld	r22, Z
     d6e:	71 81       	ldd	r23, Z+1	; 0x01
     d70:	60 5f       	subi	r22, 0xF0	; 240
     d72:	7f 4f       	sbci	r23, 0xFF	; 255
     d74:	0f 2e       	mov	r0, r31
     d76:	f1 e9       	ldi	r31, 0x91	; 145
     d78:	ef 2e       	mov	r14, r31
     d7a:	f1 e0       	ldi	r31, 0x01	; 1
     d7c:	ff 2e       	mov	r15, r31
     d7e:	f0 2d       	mov	r31, r0
     d80:	21 e0       	ldi	r18, 0x01	; 1
     d82:	30 e0       	ldi	r19, 0x00	; 0
     d84:	82 e7       	ldi	r24, 0x72	; 114
     d86:	96 e0       	ldi	r25, 0x06	; 6
     d88:	0e 94 cd 20 	call	0x419a	; 0x419a <_ZN4OLED19OLED_Write_To_BuferEiiiiPKh>
     d8c:	4c 85       	ldd	r20, Y+12	; 0x0c
     d8e:	5d 85       	ldd	r21, Y+13	; 0x0d
     d90:	ec 81       	ldd	r30, Y+4	; 0x04
     d92:	fd 81       	ldd	r31, Y+5	; 0x05
     d94:	33 96       	adiw	r30, 0x03	; 3
     d96:	ee 0f       	add	r30, r30
     d98:	ff 1f       	adc	r31, r31
     d9a:	ec 0f       	add	r30, r28
     d9c:	fd 1f       	adc	r31, r29
     d9e:	60 81       	ld	r22, Z
     da0:	71 81       	ldd	r23, Z+1	; 0x01
     da2:	68 5e       	subi	r22, 0xE8	; 232
     da4:	7f 4f       	sbci	r23, 0xFF	; 255
     da6:	0f 2e       	mov	r0, r31
     da8:	f1 e4       	ldi	r31, 0x41	; 65
     daa:	ef 2e       	mov	r14, r31
     dac:	f1 e0       	ldi	r31, 0x01	; 1
     dae:	ff 2e       	mov	r15, r31
     db0:	f0 2d       	mov	r31, r0
     db2:	21 e0       	ldi	r18, 0x01	; 1
     db4:	30 e0       	ldi	r19, 0x00	; 0
     db6:	82 e7       	ldi	r24, 0x72	; 114
     db8:	96 e0       	ldi	r25, 0x06	; 6
     dba:	0e 94 cd 20 	call	0x419a	; 0x419a <_ZN4OLED19OLED_Write_To_BuferEiiiiPKh>
     dbe:	4c 85       	ldd	r20, Y+12	; 0x0c
     dc0:	5d 85       	ldd	r21, Y+13	; 0x0d
     dc2:	ec 81       	ldd	r30, Y+4	; 0x04
     dc4:	fd 81       	ldd	r31, Y+5	; 0x05
     dc6:	33 96       	adiw	r30, 0x03	; 3
     dc8:	ee 0f       	add	r30, r30
     dca:	ff 1f       	adc	r31, r31
     dcc:	ec 0f       	add	r30, r28
     dce:	fd 1f       	adc	r31, r29
     dd0:	60 81       	ld	r22, Z
     dd2:	71 81       	ldd	r23, Z+1	; 0x01
     dd4:	68 5d       	subi	r22, 0xD8	; 216
     dd6:	7f 4f       	sbci	r23, 0xFF	; 255
     dd8:	0f 2e       	mov	r0, r31
     dda:	f1 e7       	ldi	r31, 0x71	; 113
     ddc:	ef 2e       	mov	r14, r31
     dde:	f1 e0       	ldi	r31, 0x01	; 1
     de0:	ff 2e       	mov	r15, r31
     de2:	f0 2d       	mov	r31, r0
     de4:	21 e0       	ldi	r18, 0x01	; 1
     de6:	30 e0       	ldi	r19, 0x00	; 0
     de8:	82 e7       	ldi	r24, 0x72	; 114
     dea:	96 e0       	ldi	r25, 0x06	; 6
     dec:	0e 94 cd 20 	call	0x419a	; 0x419a <_ZN4OLED19OLED_Write_To_BuferEiiiiPKh>
     df0:	4c 85       	ldd	r20, Y+12	; 0x0c
     df2:	5d 85       	ldd	r21, Y+13	; 0x0d
     df4:	ec 81       	ldd	r30, Y+4	; 0x04
     df6:	fd 81       	ldd	r31, Y+5	; 0x05
     df8:	33 96       	adiw	r30, 0x03	; 3
     dfa:	ee 0f       	add	r30, r30
     dfc:	ff 1f       	adc	r31, r31
     dfe:	ec 0f       	add	r30, r28
     e00:	fd 1f       	adc	r31, r29
     e02:	60 81       	ld	r22, Z
     e04:	71 81       	ldd	r23, Z+1	; 0x01
     e06:	60 5d       	subi	r22, 0xD0	; 208
     e08:	7f 4f       	sbci	r23, 0xFF	; 255
     e0a:	0f 2e       	mov	r0, r31
     e0c:	f1 e5       	ldi	r31, 0x51	; 81
     e0e:	ef 2e       	mov	r14, r31
     e10:	f1 e0       	ldi	r31, 0x01	; 1
     e12:	ff 2e       	mov	r15, r31
     e14:	f0 2d       	mov	r31, r0
     e16:	21 e0       	ldi	r18, 0x01	; 1
     e18:	30 e0       	ldi	r19, 0x00	; 0
     e1a:	82 e7       	ldi	r24, 0x72	; 114
     e1c:	96 e0       	ldi	r25, 0x06	; 6
     e1e:	0e 94 cd 20 	call	0x419a	; 0x419a <_ZN4OLED19OLED_Write_To_BuferEiiiiPKh>
     e22:	4c 85       	ldd	r20, Y+12	; 0x0c
     e24:	5d 85       	ldd	r21, Y+13	; 0x0d
     e26:	ec 81       	ldd	r30, Y+4	; 0x04
     e28:	fd 81       	ldd	r31, Y+5	; 0x05
     e2a:	33 96       	adiw	r30, 0x03	; 3
     e2c:	ee 0f       	add	r30, r30
     e2e:	ff 1f       	adc	r31, r31
     e30:	ec 0f       	add	r30, r28
     e32:	fd 1f       	adc	r31, r29
     e34:	60 81       	ld	r22, Z
     e36:	71 81       	ldd	r23, Z+1	; 0x01
     e38:	68 5c       	subi	r22, 0xC8	; 200
     e3a:	7f 4f       	sbci	r23, 0xFF	; 255
     e3c:	0f 2e       	mov	r0, r31
     e3e:	f9 e8       	ldi	r31, 0x89	; 137
     e40:	ef 2e       	mov	r14, r31
     e42:	f1 e0       	ldi	r31, 0x01	; 1
     e44:	ff 2e       	mov	r15, r31
     e46:	f0 2d       	mov	r31, r0
     e48:	21 e0       	ldi	r18, 0x01	; 1
     e4a:	30 e0       	ldi	r19, 0x00	; 0
     e4c:	82 e7       	ldi	r24, 0x72	; 114
     e4e:	96 e0       	ldi	r25, 0x06	; 6
     e50:	0e 94 cd 20 	call	0x419a	; 0x419a <_ZN4OLED19OLED_Write_To_BuferEiiiiPKh>
     e54:	4c 85       	ldd	r20, Y+12	; 0x0c
     e56:	5d 85       	ldd	r21, Y+13	; 0x0d
     e58:	8c 81       	ldd	r24, Y+4	; 0x04
     e5a:	9d 81       	ldd	r25, Y+5	; 0x05
     e5c:	03 96       	adiw	r24, 0x03	; 3
     e5e:	88 0f       	add	r24, r24
     e60:	99 1f       	adc	r25, r25
     e62:	c8 0f       	add	r28, r24
     e64:	d9 1f       	adc	r29, r25
     e66:	68 81       	ld	r22, Y
     e68:	79 81       	ldd	r23, Y+1	; 0x01
     e6a:	60 5c       	subi	r22, 0xC0	; 192
     e6c:	7f 4f       	sbci	r23, 0xFF	; 255
     e6e:	0f 2e       	mov	r0, r31
     e70:	f9 e4       	ldi	r31, 0x49	; 73
     e72:	ef 2e       	mov	r14, r31
     e74:	f1 e0       	ldi	r31, 0x01	; 1
     e76:	ff 2e       	mov	r15, r31
     e78:	f0 2d       	mov	r31, r0
     e7a:	21 e0       	ldi	r18, 0x01	; 1
     e7c:	30 e0       	ldi	r19, 0x00	; 0
     e7e:	82 e7       	ldi	r24, 0x72	; 114
     e80:	96 e0       	ldi	r25, 0x06	; 6
     e82:	0e 94 cd 20 	call	0x419a	; 0x419a <_ZN4OLED19OLED_Write_To_BuferEiiiiPKh>
     e86:	23 c0       	rjmp	.+70     	; 0xece <_ZN9Info_menu7actionsEv+0x428>
     e88:	4c 85       	ldd	r20, Y+12	; 0x0c
     e8a:	5d 85       	ldd	r21, Y+13	; 0x0d
     e8c:	08 e0       	ldi	r16, 0x08	; 8
     e8e:	10 e0       	ldi	r17, 0x00	; 0
     e90:	20 e1       	ldi	r18, 0x10	; 16
     e92:	30 e0       	ldi	r19, 0x00	; 0
     e94:	60 e0       	ldi	r22, 0x00	; 0
     e96:	70 e0       	ldi	r23, 0x00	; 0
     e98:	82 e7       	ldi	r24, 0x72	; 114
     e9a:	96 e0       	ldi	r25, 0x06	; 6
     e9c:	0e 94 7e 20 	call	0x40fc	; 0x40fc <_ZN4OLED21OLED_Clear_Bufer_partEiiii>
     ea0:	4c 85       	ldd	r20, Y+12	; 0x0c
     ea2:	5d 85       	ldd	r21, Y+13	; 0x0d
     ea4:	8c 81       	ldd	r24, Y+4	; 0x04
     ea6:	9d 81       	ldd	r25, Y+5	; 0x05
     ea8:	03 96       	adiw	r24, 0x03	; 3
     eaa:	88 0f       	add	r24, r24
     eac:	99 1f       	adc	r25, r25
     eae:	c8 0f       	add	r28, r24
     eb0:	d9 1f       	adc	r29, r25
     eb2:	68 81       	ld	r22, Y
     eb4:	79 81       	ldd	r23, Y+1	; 0x01
     eb6:	0f 2e       	mov	r0, r31
     eb8:	f1 e0       	ldi	r31, 0x01	; 1
     eba:	ef 2e       	mov	r14, r31
     ebc:	f1 e0       	ldi	r31, 0x01	; 1
     ebe:	ff 2e       	mov	r15, r31
     ec0:	f0 2d       	mov	r31, r0
     ec2:	22 e0       	ldi	r18, 0x02	; 2
     ec4:	30 e0       	ldi	r19, 0x00	; 0
     ec6:	82 e7       	ldi	r24, 0x72	; 114
     ec8:	96 e0       	ldi	r25, 0x06	; 6
     eca:	0e 94 cd 20 	call	0x419a	; 0x419a <_ZN4OLED19OLED_Write_To_BuferEiiiiPKh>
     ece:	df 91       	pop	r29
     ed0:	cf 91       	pop	r28
     ed2:	1f 91       	pop	r17
     ed4:	0f 91       	pop	r16
     ed6:	ff 90       	pop	r15
     ed8:	ef 90       	pop	r14
     eda:	08 95       	ret

00000edc <_ZN9Info_menu7DefaultEv>:
     edc:	ef 92       	push	r14
     ede:	ff 92       	push	r15
     ee0:	0f 93       	push	r16
     ee2:	1f 93       	push	r17
     ee4:	cf 93       	push	r28
     ee6:	df 93       	push	r29
     ee8:	ec 01       	movw	r28, r24
     eea:	4c 85       	ldd	r20, Y+12	; 0x0c
     eec:	5d 85       	ldd	r21, Y+13	; 0x0d
     eee:	4e 5f       	subi	r20, 0xFE	; 254
     ef0:	5f 4f       	sbci	r21, 0xFF	; 255
     ef2:	0f 2e       	mov	r0, r31
     ef4:	f9 e6       	ldi	r31, 0x69	; 105
     ef6:	ef 2e       	mov	r14, r31
     ef8:	f2 e0       	ldi	r31, 0x02	; 2
     efa:	ff 2e       	mov	r15, r31
     efc:	f0 2d       	mov	r31, r0
     efe:	08 e0       	ldi	r16, 0x08	; 8
     f00:	10 e0       	ldi	r17, 0x00	; 0
     f02:	22 e0       	ldi	r18, 0x02	; 2
     f04:	30 e0       	ldi	r19, 0x00	; 0
     f06:	68 e3       	ldi	r22, 0x38	; 56
     f08:	70 e0       	ldi	r23, 0x00	; 0
     f0a:	82 e7       	ldi	r24, 0x72	; 114
     f0c:	96 e0       	ldi	r25, 0x06	; 6
     f0e:	0e 94 cd 20 	call	0x419a	; 0x419a <_ZN4OLED19OLED_Write_To_BuferEiiiiPKh>
     f12:	4c 85       	ldd	r20, Y+12	; 0x0c
     f14:	5d 85       	ldd	r21, Y+13	; 0x0d
     f16:	42 50       	subi	r20, 0x02	; 2
     f18:	51 09       	sbc	r21, r1
     f1a:	0f 2e       	mov	r0, r31
     f1c:	f9 e7       	ldi	r31, 0x79	; 121
     f1e:	ef 2e       	mov	r14, r31
     f20:	f2 e0       	ldi	r31, 0x02	; 2
     f22:	ff 2e       	mov	r15, r31
     f24:	f0 2d       	mov	r31, r0
     f26:	22 e0       	ldi	r18, 0x02	; 2
     f28:	30 e0       	ldi	r19, 0x00	; 0
     f2a:	68 e3       	ldi	r22, 0x38	; 56
     f2c:	70 e0       	ldi	r23, 0x00	; 0
     f2e:	82 e7       	ldi	r24, 0x72	; 114
     f30:	96 e0       	ldi	r25, 0x06	; 6
     f32:	0e 94 cd 20 	call	0x419a	; 0x419a <_ZN4OLED19OLED_Write_To_BuferEiiiiPKh>
     f36:	df 91       	pop	r29
     f38:	cf 91       	pop	r28
     f3a:	1f 91       	pop	r17
     f3c:	0f 91       	pop	r16
     f3e:	ff 90       	pop	r15
     f40:	ef 90       	pop	r14
     f42:	08 95       	ret

00000f44 <_ZN13Settings_Menu7actionsEv>:
     f44:	ef 92       	push	r14
     f46:	ff 92       	push	r15
     f48:	0f 93       	push	r16
     f4a:	1f 93       	push	r17
     f4c:	cf 93       	push	r28
     f4e:	df 93       	push	r29
     f50:	ec 01       	movw	r28, r24
     f52:	90 91 70 06 	lds	r25, 0x0670	; 0x800670 <Settings_Menu_Status>
     f56:	99 23       	and	r25, r25
     f58:	09 f4       	brne	.+2      	; 0xf5c <_ZN13Settings_Menu7actionsEv+0x18>
     f5a:	6a c3       	rjmp	.+1748   	; 0x1630 <_ZN13Settings_Menu7actionsEv+0x6ec>
     f5c:	8c 81       	ldd	r24, Y+4	; 0x04
     f5e:	9d 81       	ldd	r25, Y+5	; 0x05
     f60:	81 30       	cpi	r24, 0x01	; 1
     f62:	91 05       	cpc	r25, r1
     f64:	09 f4       	brne	.+2      	; 0xf68 <_ZN13Settings_Menu7actionsEv+0x24>
     f66:	56 c1       	rjmp	.+684    	; 0x1214 <_ZN13Settings_Menu7actionsEv+0x2d0>
     f68:	1c f4       	brge	.+6      	; 0xf70 <_ZN13Settings_Menu7actionsEv+0x2c>
     f6a:	89 2b       	or	r24, r25
     f6c:	49 f0       	breq	.+18     	; 0xf80 <_ZN13Settings_Menu7actionsEv+0x3c>
     f6e:	60 c3       	rjmp	.+1728   	; 0x1630 <_ZN13Settings_Menu7actionsEv+0x6ec>
     f70:	82 30       	cpi	r24, 0x02	; 2
     f72:	91 05       	cpc	r25, r1
     f74:	09 f4       	brne	.+2      	; 0xf78 <_ZN13Settings_Menu7actionsEv+0x34>
     f76:	6c c2       	rjmp	.+1240   	; 0x1450 <_ZN13Settings_Menu7actionsEv+0x50c>
     f78:	03 97       	sbiw	r24, 0x03	; 3
     f7a:	09 f4       	brne	.+2      	; 0xf7e <_ZN13Settings_Menu7actionsEv+0x3a>
     f7c:	36 c3       	rjmp	.+1644   	; 0x15ea <_ZN13Settings_Menu7actionsEv+0x6a6>
     f7e:	58 c3       	rjmp	.+1712   	; 0x1630 <_ZN13Settings_Menu7actionsEv+0x6ec>
     f80:	4e 85       	ldd	r20, Y+14	; 0x0e
     f82:	5f 85       	ldd	r21, Y+15	; 0x0f
     f84:	08 e0       	ldi	r16, 0x08	; 8
     f86:	10 e0       	ldi	r17, 0x00	; 0
     f88:	20 e1       	ldi	r18, 0x10	; 16
     f8a:	30 e0       	ldi	r19, 0x00	; 0
     f8c:	60 e0       	ldi	r22, 0x00	; 0
     f8e:	70 e0       	ldi	r23, 0x00	; 0
     f90:	82 e7       	ldi	r24, 0x72	; 114
     f92:	96 e0       	ldi	r25, 0x06	; 6
     f94:	0e 94 7e 20 	call	0x40fc	; 0x40fc <_ZN4OLED21OLED_Clear_Bufer_partEiiii>
     f98:	4e 85       	ldd	r20, Y+14	; 0x0e
     f9a:	5f 85       	ldd	r21, Y+15	; 0x0f
     f9c:	ec 81       	ldd	r30, Y+4	; 0x04
     f9e:	fd 81       	ldd	r31, Y+5	; 0x05
     fa0:	33 96       	adiw	r30, 0x03	; 3
     fa2:	ee 0f       	add	r30, r30
     fa4:	ff 1f       	adc	r31, r31
     fa6:	ec 0f       	add	r30, r28
     fa8:	fd 1f       	adc	r31, r29
     faa:	60 81       	ld	r22, Z
     fac:	71 81       	ldd	r23, Z+1	; 0x01
     fae:	0f 2e       	mov	r0, r31
     fb0:	f9 e3       	ldi	r31, 0x39	; 57
     fb2:	ef 2e       	mov	r14, r31
     fb4:	f1 e0       	ldi	r31, 0x01	; 1
     fb6:	ff 2e       	mov	r15, r31
     fb8:	f0 2d       	mov	r31, r0
     fba:	21 e0       	ldi	r18, 0x01	; 1
     fbc:	30 e0       	ldi	r19, 0x00	; 0
     fbe:	82 e7       	ldi	r24, 0x72	; 114
     fc0:	96 e0       	ldi	r25, 0x06	; 6
     fc2:	0e 94 cd 20 	call	0x419a	; 0x419a <_ZN4OLED19OLED_Write_To_BuferEiiiiPKh>
     fc6:	4e 85       	ldd	r20, Y+14	; 0x0e
     fc8:	5f 85       	ldd	r21, Y+15	; 0x0f
     fca:	ec 81       	ldd	r30, Y+4	; 0x04
     fcc:	fd 81       	ldd	r31, Y+5	; 0x05
     fce:	33 96       	adiw	r30, 0x03	; 3
     fd0:	ee 0f       	add	r30, r30
     fd2:	ff 1f       	adc	r31, r31
     fd4:	ec 0f       	add	r30, r28
     fd6:	fd 1f       	adc	r31, r29
     fd8:	60 81       	ld	r22, Z
     fda:	71 81       	ldd	r23, Z+1	; 0x01
     fdc:	68 5f       	subi	r22, 0xF8	; 248
     fde:	7f 4f       	sbci	r23, 0xFF	; 255
     fe0:	0f 2e       	mov	r0, r31
     fe2:	f1 e9       	ldi	r31, 0x91	; 145
     fe4:	ef 2e       	mov	r14, r31
     fe6:	f1 e0       	ldi	r31, 0x01	; 1
     fe8:	ff 2e       	mov	r15, r31
     fea:	f0 2d       	mov	r31, r0
     fec:	21 e0       	ldi	r18, 0x01	; 1
     fee:	30 e0       	ldi	r19, 0x00	; 0
     ff0:	82 e7       	ldi	r24, 0x72	; 114
     ff2:	96 e0       	ldi	r25, 0x06	; 6
     ff4:	0e 94 cd 20 	call	0x419a	; 0x419a <_ZN4OLED19OLED_Write_To_BuferEiiiiPKh>
     ff8:	4e 85       	ldd	r20, Y+14	; 0x0e
     ffa:	5f 85       	ldd	r21, Y+15	; 0x0f
     ffc:	ec 81       	ldd	r30, Y+4	; 0x04
     ffe:	fd 81       	ldd	r31, Y+5	; 0x05
    1000:	33 96       	adiw	r30, 0x03	; 3
    1002:	ee 0f       	add	r30, r30
    1004:	ff 1f       	adc	r31, r31
    1006:	ec 0f       	add	r30, r28
    1008:	fd 1f       	adc	r31, r29
    100a:	60 81       	ld	r22, Z
    100c:	71 81       	ldd	r23, Z+1	; 0x01
    100e:	60 5f       	subi	r22, 0xF0	; 240
    1010:	7f 4f       	sbci	r23, 0xFF	; 255
    1012:	0f 2e       	mov	r0, r31
    1014:	f1 e3       	ldi	r31, 0x31	; 49
    1016:	ef 2e       	mov	r14, r31
    1018:	f1 e0       	ldi	r31, 0x01	; 1
    101a:	ff 2e       	mov	r15, r31
    101c:	f0 2d       	mov	r31, r0
    101e:	21 e0       	ldi	r18, 0x01	; 1
    1020:	30 e0       	ldi	r19, 0x00	; 0
    1022:	82 e7       	ldi	r24, 0x72	; 114
    1024:	96 e0       	ldi	r25, 0x06	; 6
    1026:	0e 94 cd 20 	call	0x419a	; 0x419a <_ZN4OLED19OLED_Write_To_BuferEiiiiPKh>
    102a:	4e 85       	ldd	r20, Y+14	; 0x0e
    102c:	5f 85       	ldd	r21, Y+15	; 0x0f
    102e:	ec 81       	ldd	r30, Y+4	; 0x04
    1030:	fd 81       	ldd	r31, Y+5	; 0x05
    1032:	33 96       	adiw	r30, 0x03	; 3
    1034:	ee 0f       	add	r30, r30
    1036:	ff 1f       	adc	r31, r31
    1038:	ec 0f       	add	r30, r28
    103a:	fd 1f       	adc	r31, r29
    103c:	60 81       	ld	r22, Z
    103e:	71 81       	ldd	r23, Z+1	; 0x01
    1040:	60 5e       	subi	r22, 0xE0	; 224
    1042:	7f 4f       	sbci	r23, 0xFF	; 255
    1044:	0f 2e       	mov	r0, r31
    1046:	f9 ea       	ldi	r31, 0xA9	; 169
    1048:	ef 2e       	mov	r14, r31
    104a:	f1 e0       	ldi	r31, 0x01	; 1
    104c:	ff 2e       	mov	r15, r31
    104e:	f0 2d       	mov	r31, r0
    1050:	21 e0       	ldi	r18, 0x01	; 1
    1052:	30 e0       	ldi	r19, 0x00	; 0
    1054:	82 e7       	ldi	r24, 0x72	; 114
    1056:	96 e0       	ldi	r25, 0x06	; 6
    1058:	0e 94 cd 20 	call	0x419a	; 0x419a <_ZN4OLED19OLED_Write_To_BuferEiiiiPKh>
    105c:	4e 85       	ldd	r20, Y+14	; 0x0e
    105e:	5f 85       	ldd	r21, Y+15	; 0x0f
    1060:	ec 81       	ldd	r30, Y+4	; 0x04
    1062:	fd 81       	ldd	r31, Y+5	; 0x05
    1064:	33 96       	adiw	r30, 0x03	; 3
    1066:	ee 0f       	add	r30, r30
    1068:	ff 1f       	adc	r31, r31
    106a:	ec 0f       	add	r30, r28
    106c:	fd 1f       	adc	r31, r29
    106e:	60 81       	ld	r22, Z
    1070:	71 81       	ldd	r23, Z+1	; 0x01
    1072:	68 5d       	subi	r22, 0xD8	; 216
    1074:	7f 4f       	sbci	r23, 0xFF	; 255
    1076:	0f 2e       	mov	r0, r31
    1078:	f1 e4       	ldi	r31, 0x41	; 65
    107a:	ef 2e       	mov	r14, r31
    107c:	f1 e0       	ldi	r31, 0x01	; 1
    107e:	ff 2e       	mov	r15, r31
    1080:	f0 2d       	mov	r31, r0
    1082:	21 e0       	ldi	r18, 0x01	; 1
    1084:	30 e0       	ldi	r19, 0x00	; 0
    1086:	82 e7       	ldi	r24, 0x72	; 114
    1088:	96 e0       	ldi	r25, 0x06	; 6
    108a:	0e 94 cd 20 	call	0x419a	; 0x419a <_ZN4OLED19OLED_Write_To_BuferEiiiiPKh>
    108e:	4e 85       	ldd	r20, Y+14	; 0x0e
    1090:	5f 85       	ldd	r21, Y+15	; 0x0f
    1092:	ec 81       	ldd	r30, Y+4	; 0x04
    1094:	fd 81       	ldd	r31, Y+5	; 0x05
    1096:	33 96       	adiw	r30, 0x03	; 3
    1098:	ee 0f       	add	r30, r30
    109a:	ff 1f       	adc	r31, r31
    109c:	ec 0f       	add	r30, r28
    109e:	fd 1f       	adc	r31, r29
    10a0:	60 81       	ld	r22, Z
    10a2:	71 81       	ldd	r23, Z+1	; 0x01
    10a4:	60 5d       	subi	r22, 0xD0	; 208
    10a6:	7f 4f       	sbci	r23, 0xFF	; 255
    10a8:	0f 2e       	mov	r0, r31
    10aa:	f1 e7       	ldi	r31, 0x71	; 113
    10ac:	ef 2e       	mov	r14, r31
    10ae:	f1 e0       	ldi	r31, 0x01	; 1
    10b0:	ff 2e       	mov	r15, r31
    10b2:	f0 2d       	mov	r31, r0
    10b4:	21 e0       	ldi	r18, 0x01	; 1
    10b6:	30 e0       	ldi	r19, 0x00	; 0
    10b8:	82 e7       	ldi	r24, 0x72	; 114
    10ba:	96 e0       	ldi	r25, 0x06	; 6
    10bc:	0e 94 cd 20 	call	0x419a	; 0x419a <_ZN4OLED19OLED_Write_To_BuferEiiiiPKh>
    10c0:	4e 85       	ldd	r20, Y+14	; 0x0e
    10c2:	5f 85       	ldd	r21, Y+15	; 0x0f
    10c4:	ec 81       	ldd	r30, Y+4	; 0x04
    10c6:	fd 81       	ldd	r31, Y+5	; 0x05
    10c8:	33 96       	adiw	r30, 0x03	; 3
    10ca:	ee 0f       	add	r30, r30
    10cc:	ff 1f       	adc	r31, r31
    10ce:	ec 0f       	add	r30, r28
    10d0:	fd 1f       	adc	r31, r29
    10d2:	60 81       	ld	r22, Z
    10d4:	71 81       	ldd	r23, Z+1	; 0x01
    10d6:	68 5c       	subi	r22, 0xC8	; 200
    10d8:	7f 4f       	sbci	r23, 0xFF	; 255
    10da:	0f 2e       	mov	r0, r31
    10dc:	f1 e8       	ldi	r31, 0x81	; 129
    10de:	ef 2e       	mov	r14, r31
    10e0:	f1 e0       	ldi	r31, 0x01	; 1
    10e2:	ff 2e       	mov	r15, r31
    10e4:	f0 2d       	mov	r31, r0
    10e6:	21 e0       	ldi	r18, 0x01	; 1
    10e8:	30 e0       	ldi	r19, 0x00	; 0
    10ea:	82 e7       	ldi	r24, 0x72	; 114
    10ec:	96 e0       	ldi	r25, 0x06	; 6
    10ee:	0e 94 cd 20 	call	0x419a	; 0x419a <_ZN4OLED19OLED_Write_To_BuferEiiiiPKh>
    10f2:	4e 85       	ldd	r20, Y+14	; 0x0e
    10f4:	5f 85       	ldd	r21, Y+15	; 0x0f
    10f6:	ec 81       	ldd	r30, Y+4	; 0x04
    10f8:	fd 81       	ldd	r31, Y+5	; 0x05
    10fa:	33 96       	adiw	r30, 0x03	; 3
    10fc:	ee 0f       	add	r30, r30
    10fe:	ff 1f       	adc	r31, r31
    1100:	ec 0f       	add	r30, r28
    1102:	fd 1f       	adc	r31, r29
    1104:	60 81       	ld	r22, Z
    1106:	71 81       	ldd	r23, Z+1	; 0x01
    1108:	60 5c       	subi	r22, 0xC0	; 192
    110a:	7f 4f       	sbci	r23, 0xFF	; 255
    110c:	0f 2e       	mov	r0, r31
    110e:	f9 e7       	ldi	r31, 0x79	; 121
    1110:	ef 2e       	mov	r14, r31
    1112:	f1 e0       	ldi	r31, 0x01	; 1
    1114:	ff 2e       	mov	r15, r31
    1116:	f0 2d       	mov	r31, r0
    1118:	21 e0       	ldi	r18, 0x01	; 1
    111a:	30 e0       	ldi	r19, 0x00	; 0
    111c:	82 e7       	ldi	r24, 0x72	; 114
    111e:	96 e0       	ldi	r25, 0x06	; 6
    1120:	0e 94 cd 20 	call	0x419a	; 0x419a <_ZN4OLED19OLED_Write_To_BuferEiiiiPKh>
    1124:	4e 85       	ldd	r20, Y+14	; 0x0e
    1126:	5f 85       	ldd	r21, Y+15	; 0x0f
    1128:	ec 81       	ldd	r30, Y+4	; 0x04
    112a:	fd 81       	ldd	r31, Y+5	; 0x05
    112c:	33 96       	adiw	r30, 0x03	; 3
    112e:	ee 0f       	add	r30, r30
    1130:	ff 1f       	adc	r31, r31
    1132:	ec 0f       	add	r30, r28
    1134:	fd 1f       	adc	r31, r29
    1136:	60 81       	ld	r22, Z
    1138:	71 81       	ldd	r23, Z+1	; 0x01
    113a:	68 5b       	subi	r22, 0xB8	; 184
    113c:	7f 4f       	sbci	r23, 0xFF	; 255
    113e:	0f 2e       	mov	r0, r31
    1140:	f1 e3       	ldi	r31, 0x31	; 49
    1142:	ef 2e       	mov	r14, r31
    1144:	f1 e0       	ldi	r31, 0x01	; 1
    1146:	ff 2e       	mov	r15, r31
    1148:	f0 2d       	mov	r31, r0
    114a:	21 e0       	ldi	r18, 0x01	; 1
    114c:	30 e0       	ldi	r19, 0x00	; 0
    114e:	82 e7       	ldi	r24, 0x72	; 114
    1150:	96 e0       	ldi	r25, 0x06	; 6
    1152:	0e 94 cd 20 	call	0x419a	; 0x419a <_ZN4OLED19OLED_Write_To_BuferEiiiiPKh>
    1156:	4e 85       	ldd	r20, Y+14	; 0x0e
    1158:	5f 85       	ldd	r21, Y+15	; 0x0f
    115a:	ec 81       	ldd	r30, Y+4	; 0x04
    115c:	fd 81       	ldd	r31, Y+5	; 0x05
    115e:	33 96       	adiw	r30, 0x03	; 3
    1160:	ee 0f       	add	r30, r30
    1162:	ff 1f       	adc	r31, r31
    1164:	ec 0f       	add	r30, r28
    1166:	fd 1f       	adc	r31, r29
    1168:	60 81       	ld	r22, Z
    116a:	71 81       	ldd	r23, Z+1	; 0x01
    116c:	60 5b       	subi	r22, 0xB0	; 176
    116e:	7f 4f       	sbci	r23, 0xFF	; 255
    1170:	0f 2e       	mov	r0, r31
    1172:	f1 e5       	ldi	r31, 0x51	; 81
    1174:	ef 2e       	mov	r14, r31
    1176:	f1 e0       	ldi	r31, 0x01	; 1
    1178:	ff 2e       	mov	r15, r31
    117a:	f0 2d       	mov	r31, r0
    117c:	21 e0       	ldi	r18, 0x01	; 1
    117e:	30 e0       	ldi	r19, 0x00	; 0
    1180:	82 e7       	ldi	r24, 0x72	; 114
    1182:	96 e0       	ldi	r25, 0x06	; 6
    1184:	0e 94 cd 20 	call	0x419a	; 0x419a <_ZN4OLED19OLED_Write_To_BuferEiiiiPKh>
    1188:	4e 85       	ldd	r20, Y+14	; 0x0e
    118a:	5f 85       	ldd	r21, Y+15	; 0x0f
    118c:	ec 81       	ldd	r30, Y+4	; 0x04
    118e:	fd 81       	ldd	r31, Y+5	; 0x05
    1190:	33 96       	adiw	r30, 0x03	; 3
    1192:	ee 0f       	add	r30, r30
    1194:	ff 1f       	adc	r31, r31
    1196:	ec 0f       	add	r30, r28
    1198:	fd 1f       	adc	r31, r29
    119a:	60 81       	ld	r22, Z
    119c:	71 81       	ldd	r23, Z+1	; 0x01
    119e:	68 5a       	subi	r22, 0xA8	; 168
    11a0:	7f 4f       	sbci	r23, 0xFF	; 255
    11a2:	0f 2e       	mov	r0, r31
    11a4:	f1 e9       	ldi	r31, 0x91	; 145
    11a6:	ef 2e       	mov	r14, r31
    11a8:	f1 e0       	ldi	r31, 0x01	; 1
    11aa:	ff 2e       	mov	r15, r31
    11ac:	f0 2d       	mov	r31, r0
    11ae:	21 e0       	ldi	r18, 0x01	; 1
    11b0:	30 e0       	ldi	r19, 0x00	; 0
    11b2:	82 e7       	ldi	r24, 0x72	; 114
    11b4:	96 e0       	ldi	r25, 0x06	; 6
    11b6:	0e 94 cd 20 	call	0x419a	; 0x419a <_ZN4OLED19OLED_Write_To_BuferEiiiiPKh>
    11ba:	4e 85       	ldd	r20, Y+14	; 0x0e
    11bc:	5f 85       	ldd	r21, Y+15	; 0x0f
    11be:	ec 81       	ldd	r30, Y+4	; 0x04
    11c0:	fd 81       	ldd	r31, Y+5	; 0x05
    11c2:	33 96       	adiw	r30, 0x03	; 3
    11c4:	ee 0f       	add	r30, r30
    11c6:	ff 1f       	adc	r31, r31
    11c8:	ec 0f       	add	r30, r28
    11ca:	fd 1f       	adc	r31, r29
    11cc:	60 81       	ld	r22, Z
    11ce:	71 81       	ldd	r23, Z+1	; 0x01
    11d0:	60 5a       	subi	r22, 0xA0	; 160
    11d2:	7f 4f       	sbci	r23, 0xFF	; 255
    11d4:	0f 2e       	mov	r0, r31
    11d6:	f9 e3       	ldi	r31, 0x39	; 57
    11d8:	ef 2e       	mov	r14, r31
    11da:	f1 e0       	ldi	r31, 0x01	; 1
    11dc:	ff 2e       	mov	r15, r31
    11de:	f0 2d       	mov	r31, r0
    11e0:	21 e0       	ldi	r18, 0x01	; 1
    11e2:	30 e0       	ldi	r19, 0x00	; 0
    11e4:	82 e7       	ldi	r24, 0x72	; 114
    11e6:	96 e0       	ldi	r25, 0x06	; 6
    11e8:	0e 94 cd 20 	call	0x419a	; 0x419a <_ZN4OLED19OLED_Write_To_BuferEiiiiPKh>
    11ec:	4e 85       	ldd	r20, Y+14	; 0x0e
    11ee:	5f 85       	ldd	r21, Y+15	; 0x0f
    11f0:	8c 81       	ldd	r24, Y+4	; 0x04
    11f2:	9d 81       	ldd	r25, Y+5	; 0x05
    11f4:	03 96       	adiw	r24, 0x03	; 3
    11f6:	88 0f       	add	r24, r24
    11f8:	99 1f       	adc	r25, r25
    11fa:	c8 0f       	add	r28, r24
    11fc:	d9 1f       	adc	r29, r25
    11fe:	68 81       	ld	r22, Y
    1200:	79 81       	ldd	r23, Y+1	; 0x01
    1202:	68 59       	subi	r22, 0x98	; 152
    1204:	7f 4f       	sbci	r23, 0xFF	; 255
    1206:	21 e0       	ldi	r18, 0x01	; 1
    1208:	30 e0       	ldi	r19, 0x00	; 0
    120a:	82 e7       	ldi	r24, 0x72	; 114
    120c:	96 e0       	ldi	r25, 0x06	; 6
    120e:	0e 94 cd 20 	call	0x419a	; 0x419a <_ZN4OLED19OLED_Write_To_BuferEiiiiPKh>
    1212:	0e c2       	rjmp	.+1052   	; 0x1630 <_ZN13Settings_Menu7actionsEv+0x6ec>
    1214:	4e 85       	ldd	r20, Y+14	; 0x0e
    1216:	5f 85       	ldd	r21, Y+15	; 0x0f
    1218:	08 e0       	ldi	r16, 0x08	; 8
    121a:	10 e0       	ldi	r17, 0x00	; 0
    121c:	20 e1       	ldi	r18, 0x10	; 16
    121e:	30 e0       	ldi	r19, 0x00	; 0
    1220:	60 e0       	ldi	r22, 0x00	; 0
    1222:	70 e0       	ldi	r23, 0x00	; 0
    1224:	82 e7       	ldi	r24, 0x72	; 114
    1226:	96 e0       	ldi	r25, 0x06	; 6
    1228:	0e 94 7e 20 	call	0x40fc	; 0x40fc <_ZN4OLED21OLED_Clear_Bufer_partEiiii>
    122c:	4e 85       	ldd	r20, Y+14	; 0x0e
    122e:	5f 85       	ldd	r21, Y+15	; 0x0f
    1230:	ec 81       	ldd	r30, Y+4	; 0x04
    1232:	fd 81       	ldd	r31, Y+5	; 0x05
    1234:	33 96       	adiw	r30, 0x03	; 3
    1236:	ee 0f       	add	r30, r30
    1238:	ff 1f       	adc	r31, r31
    123a:	ec 0f       	add	r30, r28
    123c:	fd 1f       	adc	r31, r29
    123e:	60 81       	ld	r22, Z
    1240:	71 81       	ldd	r23, Z+1	; 0x01
    1242:	0f 2e       	mov	r0, r31
    1244:	f1 e4       	ldi	r31, 0x41	; 65
    1246:	ef 2e       	mov	r14, r31
    1248:	f1 e0       	ldi	r31, 0x01	; 1
    124a:	ff 2e       	mov	r15, r31
    124c:	f0 2d       	mov	r31, r0
    124e:	21 e0       	ldi	r18, 0x01	; 1
    1250:	30 e0       	ldi	r19, 0x00	; 0
    1252:	82 e7       	ldi	r24, 0x72	; 114
    1254:	96 e0       	ldi	r25, 0x06	; 6
    1256:	0e 94 cd 20 	call	0x419a	; 0x419a <_ZN4OLED19OLED_Write_To_BuferEiiiiPKh>
    125a:	4e 85       	ldd	r20, Y+14	; 0x0e
    125c:	5f 85       	ldd	r21, Y+15	; 0x0f
    125e:	ec 81       	ldd	r30, Y+4	; 0x04
    1260:	fd 81       	ldd	r31, Y+5	; 0x05
    1262:	33 96       	adiw	r30, 0x03	; 3
    1264:	ee 0f       	add	r30, r30
    1266:	ff 1f       	adc	r31, r31
    1268:	ec 0f       	add	r30, r28
    126a:	fd 1f       	adc	r31, r29
    126c:	60 81       	ld	r22, Z
    126e:	71 81       	ldd	r23, Z+1	; 0x01
    1270:	68 5f       	subi	r22, 0xF8	; 248
    1272:	7f 4f       	sbci	r23, 0xFF	; 255
    1274:	0f 2e       	mov	r0, r31
    1276:	f1 e9       	ldi	r31, 0x91	; 145
    1278:	ef 2e       	mov	r14, r31
    127a:	f1 e0       	ldi	r31, 0x01	; 1
    127c:	ff 2e       	mov	r15, r31
    127e:	f0 2d       	mov	r31, r0
    1280:	21 e0       	ldi	r18, 0x01	; 1
    1282:	30 e0       	ldi	r19, 0x00	; 0
    1284:	82 e7       	ldi	r24, 0x72	; 114
    1286:	96 e0       	ldi	r25, 0x06	; 6
    1288:	0e 94 cd 20 	call	0x419a	; 0x419a <_ZN4OLED19OLED_Write_To_BuferEiiiiPKh>
    128c:	4e 85       	ldd	r20, Y+14	; 0x0e
    128e:	5f 85       	ldd	r21, Y+15	; 0x0f
    1290:	ec 81       	ldd	r30, Y+4	; 0x04
    1292:	fd 81       	ldd	r31, Y+5	; 0x05
    1294:	33 96       	adiw	r30, 0x03	; 3
    1296:	ee 0f       	add	r30, r30
    1298:	ff 1f       	adc	r31, r31
    129a:	ec 0f       	add	r30, r28
    129c:	fd 1f       	adc	r31, r29
    129e:	60 81       	ld	r22, Z
    12a0:	71 81       	ldd	r23, Z+1	; 0x01
    12a2:	60 5f       	subi	r22, 0xF0	; 240
    12a4:	7f 4f       	sbci	r23, 0xFF	; 255
    12a6:	0f 2e       	mov	r0, r31
    12a8:	f9 e3       	ldi	r31, 0x39	; 57
    12aa:	ef 2e       	mov	r14, r31
    12ac:	f1 e0       	ldi	r31, 0x01	; 1
    12ae:	ff 2e       	mov	r15, r31
    12b0:	f0 2d       	mov	r31, r0
    12b2:	21 e0       	ldi	r18, 0x01	; 1
    12b4:	30 e0       	ldi	r19, 0x00	; 0
    12b6:	82 e7       	ldi	r24, 0x72	; 114
    12b8:	96 e0       	ldi	r25, 0x06	; 6
    12ba:	0e 94 cd 20 	call	0x419a	; 0x419a <_ZN4OLED19OLED_Write_To_BuferEiiiiPKh>
    12be:	4e 85       	ldd	r20, Y+14	; 0x0e
    12c0:	5f 85       	ldd	r21, Y+15	; 0x0f
    12c2:	ec 81       	ldd	r30, Y+4	; 0x04
    12c4:	fd 81       	ldd	r31, Y+5	; 0x05
    12c6:	33 96       	adiw	r30, 0x03	; 3
    12c8:	ee 0f       	add	r30, r30
    12ca:	ff 1f       	adc	r31, r31
    12cc:	ec 0f       	add	r30, r28
    12ce:	fd 1f       	adc	r31, r29
    12d0:	60 81       	ld	r22, Z
    12d2:	71 81       	ldd	r23, Z+1	; 0x01
    12d4:	68 5e       	subi	r22, 0xE8	; 232
    12d6:	7f 4f       	sbci	r23, 0xFF	; 255
    12d8:	0f 2e       	mov	r0, r31
    12da:	f1 e9       	ldi	r31, 0x91	; 145
    12dc:	ef 2e       	mov	r14, r31
    12de:	f1 e0       	ldi	r31, 0x01	; 1
    12e0:	ff 2e       	mov	r15, r31
    12e2:	f0 2d       	mov	r31, r0
    12e4:	21 e0       	ldi	r18, 0x01	; 1
    12e6:	30 e0       	ldi	r19, 0x00	; 0
    12e8:	82 e7       	ldi	r24, 0x72	; 114
    12ea:	96 e0       	ldi	r25, 0x06	; 6
    12ec:	0e 94 cd 20 	call	0x419a	; 0x419a <_ZN4OLED19OLED_Write_To_BuferEiiiiPKh>
    12f0:	4e 85       	ldd	r20, Y+14	; 0x0e
    12f2:	5f 85       	ldd	r21, Y+15	; 0x0f
    12f4:	ec 81       	ldd	r30, Y+4	; 0x04
    12f6:	fd 81       	ldd	r31, Y+5	; 0x05
    12f8:	33 96       	adiw	r30, 0x03	; 3
    12fa:	ee 0f       	add	r30, r30
    12fc:	ff 1f       	adc	r31, r31
    12fe:	ec 0f       	add	r30, r28
    1300:	fd 1f       	adc	r31, r29
    1302:	60 81       	ld	r22, Z
    1304:	71 81       	ldd	r23, Z+1	; 0x01
    1306:	60 5e       	subi	r22, 0xE0	; 224
    1308:	7f 4f       	sbci	r23, 0xFF	; 255
    130a:	0f 2e       	mov	r0, r31
    130c:	f1 e3       	ldi	r31, 0x31	; 49
    130e:	ef 2e       	mov	r14, r31
    1310:	f1 e0       	ldi	r31, 0x01	; 1
    1312:	ff 2e       	mov	r15, r31
    1314:	f0 2d       	mov	r31, r0
    1316:	21 e0       	ldi	r18, 0x01	; 1
    1318:	30 e0       	ldi	r19, 0x00	; 0
    131a:	82 e7       	ldi	r24, 0x72	; 114
    131c:	96 e0       	ldi	r25, 0x06	; 6
    131e:	0e 94 cd 20 	call	0x419a	; 0x419a <_ZN4OLED19OLED_Write_To_BuferEiiiiPKh>
    1322:	4e 85       	ldd	r20, Y+14	; 0x0e
    1324:	5f 85       	ldd	r21, Y+15	; 0x0f
    1326:	ec 81       	ldd	r30, Y+4	; 0x04
    1328:	fd 81       	ldd	r31, Y+5	; 0x05
    132a:	33 96       	adiw	r30, 0x03	; 3
    132c:	ee 0f       	add	r30, r30
    132e:	ff 1f       	adc	r31, r31
    1330:	ec 0f       	add	r30, r28
    1332:	fd 1f       	adc	r31, r29
    1334:	60 81       	ld	r22, Z
    1336:	71 81       	ldd	r23, Z+1	; 0x01
    1338:	60 5d       	subi	r22, 0xD0	; 208
    133a:	7f 4f       	sbci	r23, 0xFF	; 255
    133c:	0f 2e       	mov	r0, r31
    133e:	f9 e9       	ldi	r31, 0x99	; 153
    1340:	ef 2e       	mov	r14, r31
    1342:	f1 e0       	ldi	r31, 0x01	; 1
    1344:	ff 2e       	mov	r15, r31
    1346:	f0 2d       	mov	r31, r0
    1348:	21 e0       	ldi	r18, 0x01	; 1
    134a:	30 e0       	ldi	r19, 0x00	; 0
    134c:	82 e7       	ldi	r24, 0x72	; 114
    134e:	96 e0       	ldi	r25, 0x06	; 6
    1350:	0e 94 cd 20 	call	0x419a	; 0x419a <_ZN4OLED19OLED_Write_To_BuferEiiiiPKh>
    1354:	4e 85       	ldd	r20, Y+14	; 0x0e
    1356:	5f 85       	ldd	r21, Y+15	; 0x0f
    1358:	ec 81       	ldd	r30, Y+4	; 0x04
    135a:	fd 81       	ldd	r31, Y+5	; 0x05
    135c:	33 96       	adiw	r30, 0x03	; 3
    135e:	ee 0f       	add	r30, r30
    1360:	ff 1f       	adc	r31, r31
    1362:	ec 0f       	add	r30, r28
    1364:	fd 1f       	adc	r31, r29
    1366:	60 81       	ld	r22, Z
    1368:	71 81       	ldd	r23, Z+1	; 0x01
    136a:	68 5c       	subi	r22, 0xC8	; 200
    136c:	7f 4f       	sbci	r23, 0xFF	; 255
    136e:	0f 2e       	mov	r0, r31
    1370:	f1 e9       	ldi	r31, 0x91	; 145
    1372:	ef 2e       	mov	r14, r31
    1374:	f1 e0       	ldi	r31, 0x01	; 1
    1376:	ff 2e       	mov	r15, r31
    1378:	f0 2d       	mov	r31, r0
    137a:	21 e0       	ldi	r18, 0x01	; 1
    137c:	30 e0       	ldi	r19, 0x00	; 0
    137e:	82 e7       	ldi	r24, 0x72	; 114
    1380:	96 e0       	ldi	r25, 0x06	; 6
    1382:	0e 94 cd 20 	call	0x419a	; 0x419a <_ZN4OLED19OLED_Write_To_BuferEiiiiPKh>
    1386:	4e 85       	ldd	r20, Y+14	; 0x0e
    1388:	5f 85       	ldd	r21, Y+15	; 0x0f
    138a:	ec 81       	ldd	r30, Y+4	; 0x04
    138c:	fd 81       	ldd	r31, Y+5	; 0x05
    138e:	33 96       	adiw	r30, 0x03	; 3
    1390:	ee 0f       	add	r30, r30
    1392:	ff 1f       	adc	r31, r31
    1394:	ec 0f       	add	r30, r28
    1396:	fd 1f       	adc	r31, r29
    1398:	60 81       	ld	r22, Z
    139a:	71 81       	ldd	r23, Z+1	; 0x01
    139c:	60 5c       	subi	r22, 0xC0	; 192
    139e:	7f 4f       	sbci	r23, 0xFF	; 255
    13a0:	0f 2e       	mov	r0, r31
    13a2:	f1 e2       	ldi	r31, 0x21	; 33
    13a4:	ef 2e       	mov	r14, r31
    13a6:	f1 e0       	ldi	r31, 0x01	; 1
    13a8:	ff 2e       	mov	r15, r31
    13aa:	f0 2d       	mov	r31, r0
    13ac:	21 e0       	ldi	r18, 0x01	; 1
    13ae:	30 e0       	ldi	r19, 0x00	; 0
    13b0:	82 e7       	ldi	r24, 0x72	; 114
    13b2:	96 e0       	ldi	r25, 0x06	; 6
    13b4:	0e 94 cd 20 	call	0x419a	; 0x419a <_ZN4OLED19OLED_Write_To_BuferEiiiiPKh>
    13b8:	4e 85       	ldd	r20, Y+14	; 0x0e
    13ba:	5f 85       	ldd	r21, Y+15	; 0x0f
    13bc:	ec 81       	ldd	r30, Y+4	; 0x04
    13be:	fd 81       	ldd	r31, Y+5	; 0x05
    13c0:	33 96       	adiw	r30, 0x03	; 3
    13c2:	ee 0f       	add	r30, r30
    13c4:	ff 1f       	adc	r31, r31
    13c6:	ec 0f       	add	r30, r28
    13c8:	fd 1f       	adc	r31, r29
    13ca:	60 81       	ld	r22, Z
    13cc:	71 81       	ldd	r23, Z+1	; 0x01
    13ce:	68 5b       	subi	r22, 0xB8	; 184
    13d0:	7f 4f       	sbci	r23, 0xFF	; 255
    13d2:	0f 2e       	mov	r0, r31
    13d4:	f1 e7       	ldi	r31, 0x71	; 113
    13d6:	ef 2e       	mov	r14, r31
    13d8:	f1 e0       	ldi	r31, 0x01	; 1
    13da:	ff 2e       	mov	r15, r31
    13dc:	f0 2d       	mov	r31, r0
    13de:	21 e0       	ldi	r18, 0x01	; 1
    13e0:	30 e0       	ldi	r19, 0x00	; 0
    13e2:	82 e7       	ldi	r24, 0x72	; 114
    13e4:	96 e0       	ldi	r25, 0x06	; 6
    13e6:	0e 94 cd 20 	call	0x419a	; 0x419a <_ZN4OLED19OLED_Write_To_BuferEiiiiPKh>
    13ea:	4e 85       	ldd	r20, Y+14	; 0x0e
    13ec:	5f 85       	ldd	r21, Y+15	; 0x0f
    13ee:	ec 81       	ldd	r30, Y+4	; 0x04
    13f0:	fd 81       	ldd	r31, Y+5	; 0x05
    13f2:	33 96       	adiw	r30, 0x03	; 3
    13f4:	ee 0f       	add	r30, r30
    13f6:	ff 1f       	adc	r31, r31
    13f8:	ec 0f       	add	r30, r28
    13fa:	fd 1f       	adc	r31, r29
    13fc:	60 81       	ld	r22, Z
    13fe:	71 81       	ldd	r23, Z+1	; 0x01
    1400:	60 5b       	subi	r22, 0xB0	; 176
    1402:	7f 4f       	sbci	r23, 0xFF	; 255
    1404:	0f 2e       	mov	r0, r31
    1406:	f1 ea       	ldi	r31, 0xA1	; 161
    1408:	ef 2e       	mov	r14, r31
    140a:	f1 e0       	ldi	r31, 0x01	; 1
    140c:	ff 2e       	mov	r15, r31
    140e:	f0 2d       	mov	r31, r0
    1410:	21 e0       	ldi	r18, 0x01	; 1
    1412:	30 e0       	ldi	r19, 0x00	; 0
    1414:	82 e7       	ldi	r24, 0x72	; 114
    1416:	96 e0       	ldi	r25, 0x06	; 6
    1418:	0e 94 cd 20 	call	0x419a	; 0x419a <_ZN4OLED19OLED_Write_To_BuferEiiiiPKh>
    141c:	4e 85       	ldd	r20, Y+14	; 0x0e
    141e:	5f 85       	ldd	r21, Y+15	; 0x0f
    1420:	8c 81       	ldd	r24, Y+4	; 0x04
    1422:	9d 81       	ldd	r25, Y+5	; 0x05
    1424:	03 96       	adiw	r24, 0x03	; 3
    1426:	88 0f       	add	r24, r24
    1428:	99 1f       	adc	r25, r25
    142a:	c8 0f       	add	r28, r24
    142c:	d9 1f       	adc	r29, r25
    142e:	68 81       	ld	r22, Y
    1430:	79 81       	ldd	r23, Y+1	; 0x01
    1432:	68 5a       	subi	r22, 0xA8	; 168
    1434:	7f 4f       	sbci	r23, 0xFF	; 255
    1436:	0f 2e       	mov	r0, r31
    1438:	f1 e9       	ldi	r31, 0x91	; 145
    143a:	ef 2e       	mov	r14, r31
    143c:	f1 e0       	ldi	r31, 0x01	; 1
    143e:	ff 2e       	mov	r15, r31
    1440:	f0 2d       	mov	r31, r0
    1442:	21 e0       	ldi	r18, 0x01	; 1
    1444:	30 e0       	ldi	r19, 0x00	; 0
    1446:	82 e7       	ldi	r24, 0x72	; 114
    1448:	96 e0       	ldi	r25, 0x06	; 6
    144a:	0e 94 cd 20 	call	0x419a	; 0x419a <_ZN4OLED19OLED_Write_To_BuferEiiiiPKh>
    144e:	f0 c0       	rjmp	.+480    	; 0x1630 <_ZN13Settings_Menu7actionsEv+0x6ec>
    1450:	4e 85       	ldd	r20, Y+14	; 0x0e
    1452:	5f 85       	ldd	r21, Y+15	; 0x0f
    1454:	08 e0       	ldi	r16, 0x08	; 8
    1456:	10 e0       	ldi	r17, 0x00	; 0
    1458:	20 e1       	ldi	r18, 0x10	; 16
    145a:	30 e0       	ldi	r19, 0x00	; 0
    145c:	60 e0       	ldi	r22, 0x00	; 0
    145e:	70 e0       	ldi	r23, 0x00	; 0
    1460:	82 e7       	ldi	r24, 0x72	; 114
    1462:	96 e0       	ldi	r25, 0x06	; 6
    1464:	0e 94 7e 20 	call	0x40fc	; 0x40fc <_ZN4OLED21OLED_Clear_Bufer_partEiiii>
    1468:	4e 85       	ldd	r20, Y+14	; 0x0e
    146a:	5f 85       	ldd	r21, Y+15	; 0x0f
    146c:	ec 81       	ldd	r30, Y+4	; 0x04
    146e:	fd 81       	ldd	r31, Y+5	; 0x05
    1470:	33 96       	adiw	r30, 0x03	; 3
    1472:	ee 0f       	add	r30, r30
    1474:	ff 1f       	adc	r31, r31
    1476:	ec 0f       	add	r30, r28
    1478:	fd 1f       	adc	r31, r29
    147a:	60 81       	ld	r22, Z
    147c:	71 81       	ldd	r23, Z+1	; 0x01
    147e:	0f 2e       	mov	r0, r31
    1480:	f1 eb       	ldi	r31, 0xB1	; 177
    1482:	ef 2e       	mov	r14, r31
    1484:	f1 e0       	ldi	r31, 0x01	; 1
    1486:	ff 2e       	mov	r15, r31
    1488:	f0 2d       	mov	r31, r0
    148a:	21 e0       	ldi	r18, 0x01	; 1
    148c:	30 e0       	ldi	r19, 0x00	; 0
    148e:	82 e7       	ldi	r24, 0x72	; 114
    1490:	96 e0       	ldi	r25, 0x06	; 6
    1492:	0e 94 cd 20 	call	0x419a	; 0x419a <_ZN4OLED19OLED_Write_To_BuferEiiiiPKh>
    1496:	4e 85       	ldd	r20, Y+14	; 0x0e
    1498:	5f 85       	ldd	r21, Y+15	; 0x0f
    149a:	ec 81       	ldd	r30, Y+4	; 0x04
    149c:	fd 81       	ldd	r31, Y+5	; 0x05
    149e:	33 96       	adiw	r30, 0x03	; 3
    14a0:	ee 0f       	add	r30, r30
    14a2:	ff 1f       	adc	r31, r31
    14a4:	ec 0f       	add	r30, r28
    14a6:	fd 1f       	adc	r31, r29
    14a8:	60 81       	ld	r22, Z
    14aa:	71 81       	ldd	r23, Z+1	; 0x01
    14ac:	68 5f       	subi	r22, 0xF8	; 248
    14ae:	7f 4f       	sbci	r23, 0xFF	; 255
    14b0:	0f 2e       	mov	r0, r31
    14b2:	f9 e9       	ldi	r31, 0x99	; 153
    14b4:	ef 2e       	mov	r14, r31
    14b6:	f1 e0       	ldi	r31, 0x01	; 1
    14b8:	ff 2e       	mov	r15, r31
    14ba:	f0 2d       	mov	r31, r0
    14bc:	21 e0       	ldi	r18, 0x01	; 1
    14be:	30 e0       	ldi	r19, 0x00	; 0
    14c0:	82 e7       	ldi	r24, 0x72	; 114
    14c2:	96 e0       	ldi	r25, 0x06	; 6
    14c4:	0e 94 cd 20 	call	0x419a	; 0x419a <_ZN4OLED19OLED_Write_To_BuferEiiiiPKh>
    14c8:	4e 85       	ldd	r20, Y+14	; 0x0e
    14ca:	5f 85       	ldd	r21, Y+15	; 0x0f
    14cc:	ec 81       	ldd	r30, Y+4	; 0x04
    14ce:	fd 81       	ldd	r31, Y+5	; 0x05
    14d0:	33 96       	adiw	r30, 0x03	; 3
    14d2:	ee 0f       	add	r30, r30
    14d4:	ff 1f       	adc	r31, r31
    14d6:	ec 0f       	add	r30, r28
    14d8:	fd 1f       	adc	r31, r29
    14da:	60 81       	ld	r22, Z
    14dc:	71 81       	ldd	r23, Z+1	; 0x01
    14de:	60 5f       	subi	r22, 0xF0	; 240
    14e0:	7f 4f       	sbci	r23, 0xFF	; 255
    14e2:	21 e0       	ldi	r18, 0x01	; 1
    14e4:	30 e0       	ldi	r19, 0x00	; 0
    14e6:	82 e7       	ldi	r24, 0x72	; 114
    14e8:	96 e0       	ldi	r25, 0x06	; 6
    14ea:	0e 94 cd 20 	call	0x419a	; 0x419a <_ZN4OLED19OLED_Write_To_BuferEiiiiPKh>
    14ee:	4e 85       	ldd	r20, Y+14	; 0x0e
    14f0:	5f 85       	ldd	r21, Y+15	; 0x0f
    14f2:	ec 81       	ldd	r30, Y+4	; 0x04
    14f4:	fd 81       	ldd	r31, Y+5	; 0x05
    14f6:	33 96       	adiw	r30, 0x03	; 3
    14f8:	ee 0f       	add	r30, r30
    14fa:	ff 1f       	adc	r31, r31
    14fc:	ec 0f       	add	r30, r28
    14fe:	fd 1f       	adc	r31, r29
    1500:	60 81       	ld	r22, Z
    1502:	71 81       	ldd	r23, Z+1	; 0x01
    1504:	60 5e       	subi	r22, 0xE0	; 224
    1506:	7f 4f       	sbci	r23, 0xFF	; 255
    1508:	0f 2e       	mov	r0, r31
    150a:	f9 e4       	ldi	r31, 0x49	; 73
    150c:	ef 2e       	mov	r14, r31
    150e:	f1 e0       	ldi	r31, 0x01	; 1
    1510:	ff 2e       	mov	r15, r31
    1512:	f0 2d       	mov	r31, r0
    1514:	21 e0       	ldi	r18, 0x01	; 1
    1516:	30 e0       	ldi	r19, 0x00	; 0
    1518:	82 e7       	ldi	r24, 0x72	; 114
    151a:	96 e0       	ldi	r25, 0x06	; 6
    151c:	0e 94 cd 20 	call	0x419a	; 0x419a <_ZN4OLED19OLED_Write_To_BuferEiiiiPKh>
    1520:	4e 85       	ldd	r20, Y+14	; 0x0e
    1522:	5f 85       	ldd	r21, Y+15	; 0x0f
    1524:	ec 81       	ldd	r30, Y+4	; 0x04
    1526:	fd 81       	ldd	r31, Y+5	; 0x05
    1528:	33 96       	adiw	r30, 0x03	; 3
    152a:	ee 0f       	add	r30, r30
    152c:	ff 1f       	adc	r31, r31
    152e:	ec 0f       	add	r30, r28
    1530:	fd 1f       	adc	r31, r29
    1532:	60 81       	ld	r22, Z
    1534:	71 81       	ldd	r23, Z+1	; 0x01
    1536:	68 5d       	subi	r22, 0xD8	; 216
    1538:	7f 4f       	sbci	r23, 0xFF	; 255
    153a:	0f 2e       	mov	r0, r31
    153c:	f9 e1       	ldi	r31, 0x19	; 25
    153e:	ef 2e       	mov	r14, r31
    1540:	f1 e0       	ldi	r31, 0x01	; 1
    1542:	ff 2e       	mov	r15, r31
    1544:	f0 2d       	mov	r31, r0
    1546:	21 e0       	ldi	r18, 0x01	; 1
    1548:	30 e0       	ldi	r19, 0x00	; 0
    154a:	82 e7       	ldi	r24, 0x72	; 114
    154c:	96 e0       	ldi	r25, 0x06	; 6
    154e:	0e 94 cd 20 	call	0x419a	; 0x419a <_ZN4OLED19OLED_Write_To_BuferEiiiiPKh>
    1552:	4e 85       	ldd	r20, Y+14	; 0x0e
    1554:	5f 85       	ldd	r21, Y+15	; 0x0f
    1556:	ec 81       	ldd	r30, Y+4	; 0x04
    1558:	fd 81       	ldd	r31, Y+5	; 0x05
    155a:	33 96       	adiw	r30, 0x03	; 3
    155c:	ee 0f       	add	r30, r30
    155e:	ff 1f       	adc	r31, r31
    1560:	ec 0f       	add	r30, r28
    1562:	fd 1f       	adc	r31, r29
    1564:	60 81       	ld	r22, Z
    1566:	71 81       	ldd	r23, Z+1	; 0x01
    1568:	60 5d       	subi	r22, 0xD0	; 208
    156a:	7f 4f       	sbci	r23, 0xFF	; 255
    156c:	0f 2e       	mov	r0, r31
    156e:	f1 e5       	ldi	r31, 0x51	; 81
    1570:	ef 2e       	mov	r14, r31
    1572:	f1 e0       	ldi	r31, 0x01	; 1
    1574:	ff 2e       	mov	r15, r31
    1576:	f0 2d       	mov	r31, r0
    1578:	21 e0       	ldi	r18, 0x01	; 1
    157a:	30 e0       	ldi	r19, 0x00	; 0
    157c:	82 e7       	ldi	r24, 0x72	; 114
    157e:	96 e0       	ldi	r25, 0x06	; 6
    1580:	0e 94 cd 20 	call	0x419a	; 0x419a <_ZN4OLED19OLED_Write_To_BuferEiiiiPKh>
    1584:	4e 85       	ldd	r20, Y+14	; 0x0e
    1586:	5f 85       	ldd	r21, Y+15	; 0x0f
    1588:	ec 81       	ldd	r30, Y+4	; 0x04
    158a:	fd 81       	ldd	r31, Y+5	; 0x05
    158c:	33 96       	adiw	r30, 0x03	; 3
    158e:	ee 0f       	add	r30, r30
    1590:	ff 1f       	adc	r31, r31
    1592:	ec 0f       	add	r30, r28
    1594:	fd 1f       	adc	r31, r29
    1596:	60 81       	ld	r22, Z
    1598:	71 81       	ldd	r23, Z+1	; 0x01
    159a:	68 5c       	subi	r22, 0xC8	; 200
    159c:	7f 4f       	sbci	r23, 0xFF	; 255
    159e:	0f 2e       	mov	r0, r31
    15a0:	f1 e9       	ldi	r31, 0x91	; 145
    15a2:	ef 2e       	mov	r14, r31
    15a4:	f1 e0       	ldi	r31, 0x01	; 1
    15a6:	ff 2e       	mov	r15, r31
    15a8:	f0 2d       	mov	r31, r0
    15aa:	21 e0       	ldi	r18, 0x01	; 1
    15ac:	30 e0       	ldi	r19, 0x00	; 0
    15ae:	82 e7       	ldi	r24, 0x72	; 114
    15b0:	96 e0       	ldi	r25, 0x06	; 6
    15b2:	0e 94 cd 20 	call	0x419a	; 0x419a <_ZN4OLED19OLED_Write_To_BuferEiiiiPKh>
    15b6:	4e 85       	ldd	r20, Y+14	; 0x0e
    15b8:	5f 85       	ldd	r21, Y+15	; 0x0f
    15ba:	8c 81       	ldd	r24, Y+4	; 0x04
    15bc:	9d 81       	ldd	r25, Y+5	; 0x05
    15be:	03 96       	adiw	r24, 0x03	; 3
    15c0:	88 0f       	add	r24, r24
    15c2:	99 1f       	adc	r25, r25
    15c4:	c8 0f       	add	r28, r24
    15c6:	d9 1f       	adc	r29, r25
    15c8:	68 81       	ld	r22, Y
    15ca:	79 81       	ldd	r23, Y+1	; 0x01
    15cc:	60 5c       	subi	r22, 0xC0	; 192
    15ce:	7f 4f       	sbci	r23, 0xFF	; 255
    15d0:	0f 2e       	mov	r0, r31
    15d2:	f1 e4       	ldi	r31, 0x41	; 65
    15d4:	ef 2e       	mov	r14, r31
    15d6:	f1 e0       	ldi	r31, 0x01	; 1
    15d8:	ff 2e       	mov	r15, r31
    15da:	f0 2d       	mov	r31, r0
    15dc:	21 e0       	ldi	r18, 0x01	; 1
    15de:	30 e0       	ldi	r19, 0x00	; 0
    15e0:	82 e7       	ldi	r24, 0x72	; 114
    15e2:	96 e0       	ldi	r25, 0x06	; 6
    15e4:	0e 94 cd 20 	call	0x419a	; 0x419a <_ZN4OLED19OLED_Write_To_BuferEiiiiPKh>
    15e8:	23 c0       	rjmp	.+70     	; 0x1630 <_ZN13Settings_Menu7actionsEv+0x6ec>
    15ea:	4e 85       	ldd	r20, Y+14	; 0x0e
    15ec:	5f 85       	ldd	r21, Y+15	; 0x0f
    15ee:	08 e0       	ldi	r16, 0x08	; 8
    15f0:	10 e0       	ldi	r17, 0x00	; 0
    15f2:	20 e1       	ldi	r18, 0x10	; 16
    15f4:	30 e0       	ldi	r19, 0x00	; 0
    15f6:	60 e0       	ldi	r22, 0x00	; 0
    15f8:	70 e0       	ldi	r23, 0x00	; 0
    15fa:	82 e7       	ldi	r24, 0x72	; 114
    15fc:	96 e0       	ldi	r25, 0x06	; 6
    15fe:	0e 94 7e 20 	call	0x40fc	; 0x40fc <_ZN4OLED21OLED_Clear_Bufer_partEiiii>
    1602:	4e 85       	ldd	r20, Y+14	; 0x0e
    1604:	5f 85       	ldd	r21, Y+15	; 0x0f
    1606:	8c 81       	ldd	r24, Y+4	; 0x04
    1608:	9d 81       	ldd	r25, Y+5	; 0x05
    160a:	03 96       	adiw	r24, 0x03	; 3
    160c:	88 0f       	add	r24, r24
    160e:	99 1f       	adc	r25, r25
    1610:	c8 0f       	add	r28, r24
    1612:	d9 1f       	adc	r29, r25
    1614:	68 81       	ld	r22, Y
    1616:	79 81       	ldd	r23, Y+1	; 0x01
    1618:	0f 2e       	mov	r0, r31
    161a:	f1 e0       	ldi	r31, 0x01	; 1
    161c:	ef 2e       	mov	r14, r31
    161e:	f1 e0       	ldi	r31, 0x01	; 1
    1620:	ff 2e       	mov	r15, r31
    1622:	f0 2d       	mov	r31, r0
    1624:	22 e0       	ldi	r18, 0x02	; 2
    1626:	30 e0       	ldi	r19, 0x00	; 0
    1628:	82 e7       	ldi	r24, 0x72	; 114
    162a:	96 e0       	ldi	r25, 0x06	; 6
    162c:	0e 94 cd 20 	call	0x419a	; 0x419a <_ZN4OLED19OLED_Write_To_BuferEiiiiPKh>
    1630:	df 91       	pop	r29
    1632:	cf 91       	pop	r28
    1634:	1f 91       	pop	r17
    1636:	0f 91       	pop	r16
    1638:	ff 90       	pop	r15
    163a:	ef 90       	pop	r14
    163c:	08 95       	ret

0000163e <_ZN13Settings_Menu7DefaultEv>:
    163e:	ef 92       	push	r14
    1640:	ff 92       	push	r15
    1642:	0f 93       	push	r16
    1644:	1f 93       	push	r17
    1646:	cf 93       	push	r28
    1648:	df 93       	push	r29
    164a:	ec 01       	movw	r28, r24
    164c:	4e 85       	ldd	r20, Y+14	; 0x0e
    164e:	5f 85       	ldd	r21, Y+15	; 0x0f
    1650:	4e 5f       	subi	r20, 0xFE	; 254
    1652:	5f 4f       	sbci	r21, 0xFF	; 255
    1654:	0f 2e       	mov	r0, r31
    1656:	f9 e6       	ldi	r31, 0x69	; 105
    1658:	ef 2e       	mov	r14, r31
    165a:	f2 e0       	ldi	r31, 0x02	; 2
    165c:	ff 2e       	mov	r15, r31
    165e:	f0 2d       	mov	r31, r0
    1660:	08 e0       	ldi	r16, 0x08	; 8
    1662:	10 e0       	ldi	r17, 0x00	; 0
    1664:	22 e0       	ldi	r18, 0x02	; 2
    1666:	30 e0       	ldi	r19, 0x00	; 0
    1668:	68 e3       	ldi	r22, 0x38	; 56
    166a:	70 e0       	ldi	r23, 0x00	; 0
    166c:	82 e7       	ldi	r24, 0x72	; 114
    166e:	96 e0       	ldi	r25, 0x06	; 6
    1670:	0e 94 cd 20 	call	0x419a	; 0x419a <_ZN4OLED19OLED_Write_To_BuferEiiiiPKh>
    1674:	4e 85       	ldd	r20, Y+14	; 0x0e
    1676:	5f 85       	ldd	r21, Y+15	; 0x0f
    1678:	42 50       	subi	r20, 0x02	; 2
    167a:	51 09       	sbc	r21, r1
    167c:	0f 2e       	mov	r0, r31
    167e:	f9 e7       	ldi	r31, 0x79	; 121
    1680:	ef 2e       	mov	r14, r31
    1682:	f2 e0       	ldi	r31, 0x02	; 2
    1684:	ff 2e       	mov	r15, r31
    1686:	f0 2d       	mov	r31, r0
    1688:	22 e0       	ldi	r18, 0x02	; 2
    168a:	30 e0       	ldi	r19, 0x00	; 0
    168c:	68 e3       	ldi	r22, 0x38	; 56
    168e:	70 e0       	ldi	r23, 0x00	; 0
    1690:	82 e7       	ldi	r24, 0x72	; 114
    1692:	96 e0       	ldi	r25, 0x06	; 6
    1694:	0e 94 cd 20 	call	0x419a	; 0x419a <_ZN4OLED19OLED_Write_To_BuferEiiiiPKh>
    1698:	df 91       	pop	r29
    169a:	cf 91       	pop	r28
    169c:	1f 91       	pop	r17
    169e:	0f 91       	pop	r16
    16a0:	ff 90       	pop	r15
    16a2:	ef 90       	pop	r14
    16a4:	08 95       	ret

000016a6 <_ZN13Password_Menu7actionsEv>:
    16a6:	ef 92       	push	r14
    16a8:	ff 92       	push	r15
    16aa:	0f 93       	push	r16
    16ac:	1f 93       	push	r17
    16ae:	cf 93       	push	r28
    16b0:	df 93       	push	r29
    16b2:	ec 01       	movw	r28, r24
    16b4:	90 91 71 06 	lds	r25, 0x0671	; 0x800671 <Password_Menu_Status>
    16b8:	99 23       	and	r25, r25
    16ba:	09 f4       	brne	.+2      	; 0x16be <_ZN13Password_Menu7actionsEv+0x18>
    16bc:	08 c4       	rjmp	.+2064   	; 0x1ece <_ZN13Password_Menu7actionsEv+0x828>
    16be:	ee 81       	ldd	r30, Y+6	; 0x06
    16c0:	ff 81       	ldd	r31, Y+7	; 0x07
    16c2:	eb 30       	cpi	r30, 0x0B	; 11
    16c4:	f1 05       	cpc	r31, r1
    16c6:	08 f0       	brcs	.+2      	; 0x16ca <_ZN13Password_Menu7actionsEv+0x24>
    16c8:	02 c4       	rjmp	.+2052   	; 0x1ece <_ZN13Password_Menu7actionsEv+0x828>
    16ca:	ef 5a       	subi	r30, 0xAF	; 175
    16cc:	ff 4f       	sbci	r31, 0xFF	; 255
    16ce:	0c 94 95 21 	jmp	0x432a	; 0x432a <__tablejump2__>
    16d2:	4a 89       	ldd	r20, Y+18	; 0x12
    16d4:	5b 89       	ldd	r21, Y+19	; 0x13
    16d6:	ec 81       	ldd	r30, Y+4	; 0x04
    16d8:	fd 81       	ldd	r31, Y+5	; 0x05
    16da:	34 96       	adiw	r30, 0x04	; 4
    16dc:	ee 0f       	add	r30, r30
    16de:	ff 1f       	adc	r31, r31
    16e0:	ec 0f       	add	r30, r28
    16e2:	fd 1f       	adc	r31, r29
    16e4:	60 81       	ld	r22, Z
    16e6:	71 81       	ldd	r23, Z+1	; 0x01
    16e8:	08 e0       	ldi	r16, 0x08	; 8
    16ea:	10 e0       	ldi	r17, 0x00	; 0
    16ec:	21 e0       	ldi	r18, 0x01	; 1
    16ee:	30 e0       	ldi	r19, 0x00	; 0
    16f0:	82 e7       	ldi	r24, 0x72	; 114
    16f2:	96 e0       	ldi	r25, 0x06	; 6
    16f4:	0e 94 7e 20 	call	0x40fc	; 0x40fc <_ZN4OLED21OLED_Clear_Bufer_partEiiii>
    16f8:	4a 89       	ldd	r20, Y+18	; 0x12
    16fa:	5b 89       	ldd	r21, Y+19	; 0x13
    16fc:	ec 81       	ldd	r30, Y+4	; 0x04
    16fe:	fd 81       	ldd	r31, Y+5	; 0x05
    1700:	34 96       	adiw	r30, 0x04	; 4
    1702:	ee 0f       	add	r30, r30
    1704:	ff 1f       	adc	r31, r31
    1706:	ec 0f       	add	r30, r28
    1708:	fd 1f       	adc	r31, r29
    170a:	60 81       	ld	r22, Z
    170c:	71 81       	ldd	r23, Z+1	; 0x01
    170e:	0f 2e       	mov	r0, r31
    1710:	f1 e3       	ldi	r31, 0x31	; 49
    1712:	ef 2e       	mov	r14, r31
    1714:	f5 e0       	ldi	r31, 0x05	; 5
    1716:	ff 2e       	mov	r15, r31
    1718:	f0 2d       	mov	r31, r0
    171a:	21 e0       	ldi	r18, 0x01	; 1
    171c:	30 e0       	ldi	r19, 0x00	; 0
    171e:	82 e7       	ldi	r24, 0x72	; 114
    1720:	96 e0       	ldi	r25, 0x06	; 6
    1722:	0e 94 cd 20 	call	0x419a	; 0x419a <_ZN4OLED19OLED_Write_To_BuferEiiiiPKh>
    1726:	4a 89       	ldd	r20, Y+18	; 0x12
    1728:	5b 89       	ldd	r21, Y+19	; 0x13
    172a:	4e 5f       	subi	r20, 0xFE	; 254
    172c:	5f 4f       	sbci	r21, 0xFF	; 255
    172e:	ec 81       	ldd	r30, Y+4	; 0x04
    1730:	fd 81       	ldd	r31, Y+5	; 0x05
    1732:	34 96       	adiw	r30, 0x04	; 4
    1734:	ee 0f       	add	r30, r30
    1736:	ff 1f       	adc	r31, r31
    1738:	ec 0f       	add	r30, r28
    173a:	fd 1f       	adc	r31, r29
    173c:	60 81       	ld	r22, Z
    173e:	71 81       	ldd	r23, Z+1	; 0x01
    1740:	0f 2e       	mov	r0, r31
    1742:	f9 ec       	ldi	r31, 0xC9	; 201
    1744:	ef 2e       	mov	r14, r31
    1746:	f4 e0       	ldi	r31, 0x04	; 4
    1748:	ff 2e       	mov	r15, r31
    174a:	f0 2d       	mov	r31, r0
    174c:	21 e0       	ldi	r18, 0x01	; 1
    174e:	30 e0       	ldi	r19, 0x00	; 0
    1750:	82 e7       	ldi	r24, 0x72	; 114
    1752:	96 e0       	ldi	r25, 0x06	; 6
    1754:	0e 94 cd 20 	call	0x419a	; 0x419a <_ZN4OLED19OLED_Write_To_BuferEiiiiPKh>
    1758:	4a 89       	ldd	r20, Y+18	; 0x12
    175a:	5b 89       	ldd	r21, Y+19	; 0x13
    175c:	41 50       	subi	r20, 0x01	; 1
    175e:	51 09       	sbc	r21, r1
    1760:	8c 81       	ldd	r24, Y+4	; 0x04
    1762:	9d 81       	ldd	r25, Y+5	; 0x05
    1764:	04 96       	adiw	r24, 0x04	; 4
    1766:	88 0f       	add	r24, r24
    1768:	99 1f       	adc	r25, r25
    176a:	c8 0f       	add	r28, r24
    176c:	d9 1f       	adc	r29, r25
    176e:	68 81       	ld	r22, Y
    1770:	79 81       	ldd	r23, Y+1	; 0x01
    1772:	0f 2e       	mov	r0, r31
    1774:	f1 ed       	ldi	r31, 0xD1	; 209
    1776:	ef 2e       	mov	r14, r31
    1778:	f4 e0       	ldi	r31, 0x04	; 4
    177a:	ff 2e       	mov	r15, r31
    177c:	f0 2d       	mov	r31, r0
    177e:	21 e0       	ldi	r18, 0x01	; 1
    1780:	30 e0       	ldi	r19, 0x00	; 0
    1782:	82 e7       	ldi	r24, 0x72	; 114
    1784:	96 e0       	ldi	r25, 0x06	; 6
    1786:	0e 94 cd 20 	call	0x419a	; 0x419a <_ZN4OLED19OLED_Write_To_BuferEiiiiPKh>
    178a:	a1 c3       	rjmp	.+1858   	; 0x1ece <_ZN13Password_Menu7actionsEv+0x828>
    178c:	4a 89       	ldd	r20, Y+18	; 0x12
    178e:	5b 89       	ldd	r21, Y+19	; 0x13
    1790:	ec 81       	ldd	r30, Y+4	; 0x04
    1792:	fd 81       	ldd	r31, Y+5	; 0x05
    1794:	34 96       	adiw	r30, 0x04	; 4
    1796:	ee 0f       	add	r30, r30
    1798:	ff 1f       	adc	r31, r31
    179a:	ec 0f       	add	r30, r28
    179c:	fd 1f       	adc	r31, r29
    179e:	60 81       	ld	r22, Z
    17a0:	71 81       	ldd	r23, Z+1	; 0x01
    17a2:	08 e0       	ldi	r16, 0x08	; 8
    17a4:	10 e0       	ldi	r17, 0x00	; 0
    17a6:	21 e0       	ldi	r18, 0x01	; 1
    17a8:	30 e0       	ldi	r19, 0x00	; 0
    17aa:	82 e7       	ldi	r24, 0x72	; 114
    17ac:	96 e0       	ldi	r25, 0x06	; 6
    17ae:	0e 94 7e 20 	call	0x40fc	; 0x40fc <_ZN4OLED21OLED_Clear_Bufer_partEiiii>
    17b2:	4a 89       	ldd	r20, Y+18	; 0x12
    17b4:	5b 89       	ldd	r21, Y+19	; 0x13
    17b6:	ec 81       	ldd	r30, Y+4	; 0x04
    17b8:	fd 81       	ldd	r31, Y+5	; 0x05
    17ba:	34 96       	adiw	r30, 0x04	; 4
    17bc:	ee 0f       	add	r30, r30
    17be:	ff 1f       	adc	r31, r31
    17c0:	ec 0f       	add	r30, r28
    17c2:	fd 1f       	adc	r31, r29
    17c4:	60 81       	ld	r22, Z
    17c6:	71 81       	ldd	r23, Z+1	; 0x01
    17c8:	0f 2e       	mov	r0, r31
    17ca:	f9 e2       	ldi	r31, 0x29	; 41
    17cc:	ef 2e       	mov	r14, r31
    17ce:	f5 e0       	ldi	r31, 0x05	; 5
    17d0:	ff 2e       	mov	r15, r31
    17d2:	f0 2d       	mov	r31, r0
    17d4:	21 e0       	ldi	r18, 0x01	; 1
    17d6:	30 e0       	ldi	r19, 0x00	; 0
    17d8:	82 e7       	ldi	r24, 0x72	; 114
    17da:	96 e0       	ldi	r25, 0x06	; 6
    17dc:	0e 94 cd 20 	call	0x419a	; 0x419a <_ZN4OLED19OLED_Write_To_BuferEiiiiPKh>
    17e0:	4a 89       	ldd	r20, Y+18	; 0x12
    17e2:	5b 89       	ldd	r21, Y+19	; 0x13
    17e4:	4e 5f       	subi	r20, 0xFE	; 254
    17e6:	5f 4f       	sbci	r21, 0xFF	; 255
    17e8:	ec 81       	ldd	r30, Y+4	; 0x04
    17ea:	fd 81       	ldd	r31, Y+5	; 0x05
    17ec:	34 96       	adiw	r30, 0x04	; 4
    17ee:	ee 0f       	add	r30, r30
    17f0:	ff 1f       	adc	r31, r31
    17f2:	ec 0f       	add	r30, r28
    17f4:	fd 1f       	adc	r31, r29
    17f6:	60 81       	ld	r22, Z
    17f8:	71 81       	ldd	r23, Z+1	; 0x01
    17fa:	0f 2e       	mov	r0, r31
    17fc:	f9 ec       	ldi	r31, 0xC9	; 201
    17fe:	ef 2e       	mov	r14, r31
    1800:	f4 e0       	ldi	r31, 0x04	; 4
    1802:	ff 2e       	mov	r15, r31
    1804:	f0 2d       	mov	r31, r0
    1806:	21 e0       	ldi	r18, 0x01	; 1
    1808:	30 e0       	ldi	r19, 0x00	; 0
    180a:	82 e7       	ldi	r24, 0x72	; 114
    180c:	96 e0       	ldi	r25, 0x06	; 6
    180e:	0e 94 cd 20 	call	0x419a	; 0x419a <_ZN4OLED19OLED_Write_To_BuferEiiiiPKh>
    1812:	4a 89       	ldd	r20, Y+18	; 0x12
    1814:	5b 89       	ldd	r21, Y+19	; 0x13
    1816:	41 50       	subi	r20, 0x01	; 1
    1818:	51 09       	sbc	r21, r1
    181a:	8c 81       	ldd	r24, Y+4	; 0x04
    181c:	9d 81       	ldd	r25, Y+5	; 0x05
    181e:	04 96       	adiw	r24, 0x04	; 4
    1820:	88 0f       	add	r24, r24
    1822:	99 1f       	adc	r25, r25
    1824:	c8 0f       	add	r28, r24
    1826:	d9 1f       	adc	r29, r25
    1828:	68 81       	ld	r22, Y
    182a:	79 81       	ldd	r23, Y+1	; 0x01
    182c:	0f 2e       	mov	r0, r31
    182e:	f1 ed       	ldi	r31, 0xD1	; 209
    1830:	ef 2e       	mov	r14, r31
    1832:	f4 e0       	ldi	r31, 0x04	; 4
    1834:	ff 2e       	mov	r15, r31
    1836:	f0 2d       	mov	r31, r0
    1838:	21 e0       	ldi	r18, 0x01	; 1
    183a:	30 e0       	ldi	r19, 0x00	; 0
    183c:	82 e7       	ldi	r24, 0x72	; 114
    183e:	96 e0       	ldi	r25, 0x06	; 6
    1840:	0e 94 cd 20 	call	0x419a	; 0x419a <_ZN4OLED19OLED_Write_To_BuferEiiiiPKh>
    1844:	44 c3       	rjmp	.+1672   	; 0x1ece <_ZN13Password_Menu7actionsEv+0x828>
    1846:	4a 89       	ldd	r20, Y+18	; 0x12
    1848:	5b 89       	ldd	r21, Y+19	; 0x13
    184a:	ec 81       	ldd	r30, Y+4	; 0x04
    184c:	fd 81       	ldd	r31, Y+5	; 0x05
    184e:	34 96       	adiw	r30, 0x04	; 4
    1850:	ee 0f       	add	r30, r30
    1852:	ff 1f       	adc	r31, r31
    1854:	ec 0f       	add	r30, r28
    1856:	fd 1f       	adc	r31, r29
    1858:	60 81       	ld	r22, Z
    185a:	71 81       	ldd	r23, Z+1	; 0x01
    185c:	08 e0       	ldi	r16, 0x08	; 8
    185e:	10 e0       	ldi	r17, 0x00	; 0
    1860:	21 e0       	ldi	r18, 0x01	; 1
    1862:	30 e0       	ldi	r19, 0x00	; 0
    1864:	82 e7       	ldi	r24, 0x72	; 114
    1866:	96 e0       	ldi	r25, 0x06	; 6
    1868:	0e 94 7e 20 	call	0x40fc	; 0x40fc <_ZN4OLED21OLED_Clear_Bufer_partEiiii>
    186c:	4a 89       	ldd	r20, Y+18	; 0x12
    186e:	5b 89       	ldd	r21, Y+19	; 0x13
    1870:	ec 81       	ldd	r30, Y+4	; 0x04
    1872:	fd 81       	ldd	r31, Y+5	; 0x05
    1874:	34 96       	adiw	r30, 0x04	; 4
    1876:	ee 0f       	add	r30, r30
    1878:	ff 1f       	adc	r31, r31
    187a:	ec 0f       	add	r30, r28
    187c:	fd 1f       	adc	r31, r29
    187e:	60 81       	ld	r22, Z
    1880:	71 81       	ldd	r23, Z+1	; 0x01
    1882:	0f 2e       	mov	r0, r31
    1884:	f1 e2       	ldi	r31, 0x21	; 33
    1886:	ef 2e       	mov	r14, r31
    1888:	f5 e0       	ldi	r31, 0x05	; 5
    188a:	ff 2e       	mov	r15, r31
    188c:	f0 2d       	mov	r31, r0
    188e:	21 e0       	ldi	r18, 0x01	; 1
    1890:	30 e0       	ldi	r19, 0x00	; 0
    1892:	82 e7       	ldi	r24, 0x72	; 114
    1894:	96 e0       	ldi	r25, 0x06	; 6
    1896:	0e 94 cd 20 	call	0x419a	; 0x419a <_ZN4OLED19OLED_Write_To_BuferEiiiiPKh>
    189a:	4a 89       	ldd	r20, Y+18	; 0x12
    189c:	5b 89       	ldd	r21, Y+19	; 0x13
    189e:	4e 5f       	subi	r20, 0xFE	; 254
    18a0:	5f 4f       	sbci	r21, 0xFF	; 255
    18a2:	ec 81       	ldd	r30, Y+4	; 0x04
    18a4:	fd 81       	ldd	r31, Y+5	; 0x05
    18a6:	34 96       	adiw	r30, 0x04	; 4
    18a8:	ee 0f       	add	r30, r30
    18aa:	ff 1f       	adc	r31, r31
    18ac:	ec 0f       	add	r30, r28
    18ae:	fd 1f       	adc	r31, r29
    18b0:	60 81       	ld	r22, Z
    18b2:	71 81       	ldd	r23, Z+1	; 0x01
    18b4:	0f 2e       	mov	r0, r31
    18b6:	f9 ec       	ldi	r31, 0xC9	; 201
    18b8:	ef 2e       	mov	r14, r31
    18ba:	f4 e0       	ldi	r31, 0x04	; 4
    18bc:	ff 2e       	mov	r15, r31
    18be:	f0 2d       	mov	r31, r0
    18c0:	21 e0       	ldi	r18, 0x01	; 1
    18c2:	30 e0       	ldi	r19, 0x00	; 0
    18c4:	82 e7       	ldi	r24, 0x72	; 114
    18c6:	96 e0       	ldi	r25, 0x06	; 6
    18c8:	0e 94 cd 20 	call	0x419a	; 0x419a <_ZN4OLED19OLED_Write_To_BuferEiiiiPKh>
    18cc:	4a 89       	ldd	r20, Y+18	; 0x12
    18ce:	5b 89       	ldd	r21, Y+19	; 0x13
    18d0:	41 50       	subi	r20, 0x01	; 1
    18d2:	51 09       	sbc	r21, r1
    18d4:	8c 81       	ldd	r24, Y+4	; 0x04
    18d6:	9d 81       	ldd	r25, Y+5	; 0x05
    18d8:	04 96       	adiw	r24, 0x04	; 4
    18da:	88 0f       	add	r24, r24
    18dc:	99 1f       	adc	r25, r25
    18de:	c8 0f       	add	r28, r24
    18e0:	d9 1f       	adc	r29, r25
    18e2:	68 81       	ld	r22, Y
    18e4:	79 81       	ldd	r23, Y+1	; 0x01
    18e6:	0f 2e       	mov	r0, r31
    18e8:	f1 ed       	ldi	r31, 0xD1	; 209
    18ea:	ef 2e       	mov	r14, r31
    18ec:	f4 e0       	ldi	r31, 0x04	; 4
    18ee:	ff 2e       	mov	r15, r31
    18f0:	f0 2d       	mov	r31, r0
    18f2:	21 e0       	ldi	r18, 0x01	; 1
    18f4:	30 e0       	ldi	r19, 0x00	; 0
    18f6:	82 e7       	ldi	r24, 0x72	; 114
    18f8:	96 e0       	ldi	r25, 0x06	; 6
    18fa:	0e 94 cd 20 	call	0x419a	; 0x419a <_ZN4OLED19OLED_Write_To_BuferEiiiiPKh>
    18fe:	e7 c2       	rjmp	.+1486   	; 0x1ece <_ZN13Password_Menu7actionsEv+0x828>
    1900:	4a 89       	ldd	r20, Y+18	; 0x12
    1902:	5b 89       	ldd	r21, Y+19	; 0x13
    1904:	ec 81       	ldd	r30, Y+4	; 0x04
    1906:	fd 81       	ldd	r31, Y+5	; 0x05
    1908:	34 96       	adiw	r30, 0x04	; 4
    190a:	ee 0f       	add	r30, r30
    190c:	ff 1f       	adc	r31, r31
    190e:	ec 0f       	add	r30, r28
    1910:	fd 1f       	adc	r31, r29
    1912:	60 81       	ld	r22, Z
    1914:	71 81       	ldd	r23, Z+1	; 0x01
    1916:	08 e0       	ldi	r16, 0x08	; 8
    1918:	10 e0       	ldi	r17, 0x00	; 0
    191a:	21 e0       	ldi	r18, 0x01	; 1
    191c:	30 e0       	ldi	r19, 0x00	; 0
    191e:	82 e7       	ldi	r24, 0x72	; 114
    1920:	96 e0       	ldi	r25, 0x06	; 6
    1922:	0e 94 7e 20 	call	0x40fc	; 0x40fc <_ZN4OLED21OLED_Clear_Bufer_partEiiii>
    1926:	4a 89       	ldd	r20, Y+18	; 0x12
    1928:	5b 89       	ldd	r21, Y+19	; 0x13
    192a:	ec 81       	ldd	r30, Y+4	; 0x04
    192c:	fd 81       	ldd	r31, Y+5	; 0x05
    192e:	34 96       	adiw	r30, 0x04	; 4
    1930:	ee 0f       	add	r30, r30
    1932:	ff 1f       	adc	r31, r31
    1934:	ec 0f       	add	r30, r28
    1936:	fd 1f       	adc	r31, r29
    1938:	60 81       	ld	r22, Z
    193a:	71 81       	ldd	r23, Z+1	; 0x01
    193c:	0f 2e       	mov	r0, r31
    193e:	f9 e1       	ldi	r31, 0x19	; 25
    1940:	ef 2e       	mov	r14, r31
    1942:	f5 e0       	ldi	r31, 0x05	; 5
    1944:	ff 2e       	mov	r15, r31
    1946:	f0 2d       	mov	r31, r0
    1948:	21 e0       	ldi	r18, 0x01	; 1
    194a:	30 e0       	ldi	r19, 0x00	; 0
    194c:	82 e7       	ldi	r24, 0x72	; 114
    194e:	96 e0       	ldi	r25, 0x06	; 6
    1950:	0e 94 cd 20 	call	0x419a	; 0x419a <_ZN4OLED19OLED_Write_To_BuferEiiiiPKh>
    1954:	4a 89       	ldd	r20, Y+18	; 0x12
    1956:	5b 89       	ldd	r21, Y+19	; 0x13
    1958:	4e 5f       	subi	r20, 0xFE	; 254
    195a:	5f 4f       	sbci	r21, 0xFF	; 255
    195c:	ec 81       	ldd	r30, Y+4	; 0x04
    195e:	fd 81       	ldd	r31, Y+5	; 0x05
    1960:	34 96       	adiw	r30, 0x04	; 4
    1962:	ee 0f       	add	r30, r30
    1964:	ff 1f       	adc	r31, r31
    1966:	ec 0f       	add	r30, r28
    1968:	fd 1f       	adc	r31, r29
    196a:	60 81       	ld	r22, Z
    196c:	71 81       	ldd	r23, Z+1	; 0x01
    196e:	0f 2e       	mov	r0, r31
    1970:	f9 ec       	ldi	r31, 0xC9	; 201
    1972:	ef 2e       	mov	r14, r31
    1974:	f4 e0       	ldi	r31, 0x04	; 4
    1976:	ff 2e       	mov	r15, r31
    1978:	f0 2d       	mov	r31, r0
    197a:	21 e0       	ldi	r18, 0x01	; 1
    197c:	30 e0       	ldi	r19, 0x00	; 0
    197e:	82 e7       	ldi	r24, 0x72	; 114
    1980:	96 e0       	ldi	r25, 0x06	; 6
    1982:	0e 94 cd 20 	call	0x419a	; 0x419a <_ZN4OLED19OLED_Write_To_BuferEiiiiPKh>
    1986:	4a 89       	ldd	r20, Y+18	; 0x12
    1988:	5b 89       	ldd	r21, Y+19	; 0x13
    198a:	41 50       	subi	r20, 0x01	; 1
    198c:	51 09       	sbc	r21, r1
    198e:	8c 81       	ldd	r24, Y+4	; 0x04
    1990:	9d 81       	ldd	r25, Y+5	; 0x05
    1992:	04 96       	adiw	r24, 0x04	; 4
    1994:	88 0f       	add	r24, r24
    1996:	99 1f       	adc	r25, r25
    1998:	c8 0f       	add	r28, r24
    199a:	d9 1f       	adc	r29, r25
    199c:	68 81       	ld	r22, Y
    199e:	79 81       	ldd	r23, Y+1	; 0x01
    19a0:	0f 2e       	mov	r0, r31
    19a2:	f1 ed       	ldi	r31, 0xD1	; 209
    19a4:	ef 2e       	mov	r14, r31
    19a6:	f4 e0       	ldi	r31, 0x04	; 4
    19a8:	ff 2e       	mov	r15, r31
    19aa:	f0 2d       	mov	r31, r0
    19ac:	21 e0       	ldi	r18, 0x01	; 1
    19ae:	30 e0       	ldi	r19, 0x00	; 0
    19b0:	82 e7       	ldi	r24, 0x72	; 114
    19b2:	96 e0       	ldi	r25, 0x06	; 6
    19b4:	0e 94 cd 20 	call	0x419a	; 0x419a <_ZN4OLED19OLED_Write_To_BuferEiiiiPKh>
    19b8:	8a c2       	rjmp	.+1300   	; 0x1ece <_ZN13Password_Menu7actionsEv+0x828>
    19ba:	4a 89       	ldd	r20, Y+18	; 0x12
    19bc:	5b 89       	ldd	r21, Y+19	; 0x13
    19be:	ec 81       	ldd	r30, Y+4	; 0x04
    19c0:	fd 81       	ldd	r31, Y+5	; 0x05
    19c2:	34 96       	adiw	r30, 0x04	; 4
    19c4:	ee 0f       	add	r30, r30
    19c6:	ff 1f       	adc	r31, r31
    19c8:	ec 0f       	add	r30, r28
    19ca:	fd 1f       	adc	r31, r29
    19cc:	60 81       	ld	r22, Z
    19ce:	71 81       	ldd	r23, Z+1	; 0x01
    19d0:	08 e0       	ldi	r16, 0x08	; 8
    19d2:	10 e0       	ldi	r17, 0x00	; 0
    19d4:	21 e0       	ldi	r18, 0x01	; 1
    19d6:	30 e0       	ldi	r19, 0x00	; 0
    19d8:	82 e7       	ldi	r24, 0x72	; 114
    19da:	96 e0       	ldi	r25, 0x06	; 6
    19dc:	0e 94 7e 20 	call	0x40fc	; 0x40fc <_ZN4OLED21OLED_Clear_Bufer_partEiiii>
    19e0:	4a 89       	ldd	r20, Y+18	; 0x12
    19e2:	5b 89       	ldd	r21, Y+19	; 0x13
    19e4:	ec 81       	ldd	r30, Y+4	; 0x04
    19e6:	fd 81       	ldd	r31, Y+5	; 0x05
    19e8:	34 96       	adiw	r30, 0x04	; 4
    19ea:	ee 0f       	add	r30, r30
    19ec:	ff 1f       	adc	r31, r31
    19ee:	ec 0f       	add	r30, r28
    19f0:	fd 1f       	adc	r31, r29
    19f2:	60 81       	ld	r22, Z
    19f4:	71 81       	ldd	r23, Z+1	; 0x01
    19f6:	0f 2e       	mov	r0, r31
    19f8:	f1 e1       	ldi	r31, 0x11	; 17
    19fa:	ef 2e       	mov	r14, r31
    19fc:	f5 e0       	ldi	r31, 0x05	; 5
    19fe:	ff 2e       	mov	r15, r31
    1a00:	f0 2d       	mov	r31, r0
    1a02:	21 e0       	ldi	r18, 0x01	; 1
    1a04:	30 e0       	ldi	r19, 0x00	; 0
    1a06:	82 e7       	ldi	r24, 0x72	; 114
    1a08:	96 e0       	ldi	r25, 0x06	; 6
    1a0a:	0e 94 cd 20 	call	0x419a	; 0x419a <_ZN4OLED19OLED_Write_To_BuferEiiiiPKh>
    1a0e:	4a 89       	ldd	r20, Y+18	; 0x12
    1a10:	5b 89       	ldd	r21, Y+19	; 0x13
    1a12:	4e 5f       	subi	r20, 0xFE	; 254
    1a14:	5f 4f       	sbci	r21, 0xFF	; 255
    1a16:	ec 81       	ldd	r30, Y+4	; 0x04
    1a18:	fd 81       	ldd	r31, Y+5	; 0x05
    1a1a:	34 96       	adiw	r30, 0x04	; 4
    1a1c:	ee 0f       	add	r30, r30
    1a1e:	ff 1f       	adc	r31, r31
    1a20:	ec 0f       	add	r30, r28
    1a22:	fd 1f       	adc	r31, r29
    1a24:	60 81       	ld	r22, Z
    1a26:	71 81       	ldd	r23, Z+1	; 0x01
    1a28:	0f 2e       	mov	r0, r31
    1a2a:	f9 ec       	ldi	r31, 0xC9	; 201
    1a2c:	ef 2e       	mov	r14, r31
    1a2e:	f4 e0       	ldi	r31, 0x04	; 4
    1a30:	ff 2e       	mov	r15, r31
    1a32:	f0 2d       	mov	r31, r0
    1a34:	21 e0       	ldi	r18, 0x01	; 1
    1a36:	30 e0       	ldi	r19, 0x00	; 0
    1a38:	82 e7       	ldi	r24, 0x72	; 114
    1a3a:	96 e0       	ldi	r25, 0x06	; 6
    1a3c:	0e 94 cd 20 	call	0x419a	; 0x419a <_ZN4OLED19OLED_Write_To_BuferEiiiiPKh>
    1a40:	4a 89       	ldd	r20, Y+18	; 0x12
    1a42:	5b 89       	ldd	r21, Y+19	; 0x13
    1a44:	41 50       	subi	r20, 0x01	; 1
    1a46:	51 09       	sbc	r21, r1
    1a48:	8c 81       	ldd	r24, Y+4	; 0x04
    1a4a:	9d 81       	ldd	r25, Y+5	; 0x05
    1a4c:	04 96       	adiw	r24, 0x04	; 4
    1a4e:	88 0f       	add	r24, r24
    1a50:	99 1f       	adc	r25, r25
    1a52:	c8 0f       	add	r28, r24
    1a54:	d9 1f       	adc	r29, r25
    1a56:	68 81       	ld	r22, Y
    1a58:	79 81       	ldd	r23, Y+1	; 0x01
    1a5a:	0f 2e       	mov	r0, r31
    1a5c:	f1 ed       	ldi	r31, 0xD1	; 209
    1a5e:	ef 2e       	mov	r14, r31
    1a60:	f4 e0       	ldi	r31, 0x04	; 4
    1a62:	ff 2e       	mov	r15, r31
    1a64:	f0 2d       	mov	r31, r0
    1a66:	21 e0       	ldi	r18, 0x01	; 1
    1a68:	30 e0       	ldi	r19, 0x00	; 0
    1a6a:	82 e7       	ldi	r24, 0x72	; 114
    1a6c:	96 e0       	ldi	r25, 0x06	; 6
    1a6e:	0e 94 cd 20 	call	0x419a	; 0x419a <_ZN4OLED19OLED_Write_To_BuferEiiiiPKh>
    1a72:	2d c2       	rjmp	.+1114   	; 0x1ece <_ZN13Password_Menu7actionsEv+0x828>
    1a74:	4a 89       	ldd	r20, Y+18	; 0x12
    1a76:	5b 89       	ldd	r21, Y+19	; 0x13
    1a78:	ec 81       	ldd	r30, Y+4	; 0x04
    1a7a:	fd 81       	ldd	r31, Y+5	; 0x05
    1a7c:	34 96       	adiw	r30, 0x04	; 4
    1a7e:	ee 0f       	add	r30, r30
    1a80:	ff 1f       	adc	r31, r31
    1a82:	ec 0f       	add	r30, r28
    1a84:	fd 1f       	adc	r31, r29
    1a86:	60 81       	ld	r22, Z
    1a88:	71 81       	ldd	r23, Z+1	; 0x01
    1a8a:	08 e0       	ldi	r16, 0x08	; 8
    1a8c:	10 e0       	ldi	r17, 0x00	; 0
    1a8e:	21 e0       	ldi	r18, 0x01	; 1
    1a90:	30 e0       	ldi	r19, 0x00	; 0
    1a92:	82 e7       	ldi	r24, 0x72	; 114
    1a94:	96 e0       	ldi	r25, 0x06	; 6
    1a96:	0e 94 7e 20 	call	0x40fc	; 0x40fc <_ZN4OLED21OLED_Clear_Bufer_partEiiii>
    1a9a:	4a 89       	ldd	r20, Y+18	; 0x12
    1a9c:	5b 89       	ldd	r21, Y+19	; 0x13
    1a9e:	ec 81       	ldd	r30, Y+4	; 0x04
    1aa0:	fd 81       	ldd	r31, Y+5	; 0x05
    1aa2:	34 96       	adiw	r30, 0x04	; 4
    1aa4:	ee 0f       	add	r30, r30
    1aa6:	ff 1f       	adc	r31, r31
    1aa8:	ec 0f       	add	r30, r28
    1aaa:	fd 1f       	adc	r31, r29
    1aac:	60 81       	ld	r22, Z
    1aae:	71 81       	ldd	r23, Z+1	; 0x01
    1ab0:	0f 2e       	mov	r0, r31
    1ab2:	f9 e0       	ldi	r31, 0x09	; 9
    1ab4:	ef 2e       	mov	r14, r31
    1ab6:	f5 e0       	ldi	r31, 0x05	; 5
    1ab8:	ff 2e       	mov	r15, r31
    1aba:	f0 2d       	mov	r31, r0
    1abc:	21 e0       	ldi	r18, 0x01	; 1
    1abe:	30 e0       	ldi	r19, 0x00	; 0
    1ac0:	82 e7       	ldi	r24, 0x72	; 114
    1ac2:	96 e0       	ldi	r25, 0x06	; 6
    1ac4:	0e 94 cd 20 	call	0x419a	; 0x419a <_ZN4OLED19OLED_Write_To_BuferEiiiiPKh>
    1ac8:	4a 89       	ldd	r20, Y+18	; 0x12
    1aca:	5b 89       	ldd	r21, Y+19	; 0x13
    1acc:	4e 5f       	subi	r20, 0xFE	; 254
    1ace:	5f 4f       	sbci	r21, 0xFF	; 255
    1ad0:	ec 81       	ldd	r30, Y+4	; 0x04
    1ad2:	fd 81       	ldd	r31, Y+5	; 0x05
    1ad4:	34 96       	adiw	r30, 0x04	; 4
    1ad6:	ee 0f       	add	r30, r30
    1ad8:	ff 1f       	adc	r31, r31
    1ada:	ec 0f       	add	r30, r28
    1adc:	fd 1f       	adc	r31, r29
    1ade:	60 81       	ld	r22, Z
    1ae0:	71 81       	ldd	r23, Z+1	; 0x01
    1ae2:	0f 2e       	mov	r0, r31
    1ae4:	f9 ec       	ldi	r31, 0xC9	; 201
    1ae6:	ef 2e       	mov	r14, r31
    1ae8:	f4 e0       	ldi	r31, 0x04	; 4
    1aea:	ff 2e       	mov	r15, r31
    1aec:	f0 2d       	mov	r31, r0
    1aee:	21 e0       	ldi	r18, 0x01	; 1
    1af0:	30 e0       	ldi	r19, 0x00	; 0
    1af2:	82 e7       	ldi	r24, 0x72	; 114
    1af4:	96 e0       	ldi	r25, 0x06	; 6
    1af6:	0e 94 cd 20 	call	0x419a	; 0x419a <_ZN4OLED19OLED_Write_To_BuferEiiiiPKh>
    1afa:	4a 89       	ldd	r20, Y+18	; 0x12
    1afc:	5b 89       	ldd	r21, Y+19	; 0x13
    1afe:	41 50       	subi	r20, 0x01	; 1
    1b00:	51 09       	sbc	r21, r1
    1b02:	8c 81       	ldd	r24, Y+4	; 0x04
    1b04:	9d 81       	ldd	r25, Y+5	; 0x05
    1b06:	04 96       	adiw	r24, 0x04	; 4
    1b08:	88 0f       	add	r24, r24
    1b0a:	99 1f       	adc	r25, r25
    1b0c:	c8 0f       	add	r28, r24
    1b0e:	d9 1f       	adc	r29, r25
    1b10:	68 81       	ld	r22, Y
    1b12:	79 81       	ldd	r23, Y+1	; 0x01
    1b14:	0f 2e       	mov	r0, r31
    1b16:	f1 ed       	ldi	r31, 0xD1	; 209
    1b18:	ef 2e       	mov	r14, r31
    1b1a:	f4 e0       	ldi	r31, 0x04	; 4
    1b1c:	ff 2e       	mov	r15, r31
    1b1e:	f0 2d       	mov	r31, r0
    1b20:	21 e0       	ldi	r18, 0x01	; 1
    1b22:	30 e0       	ldi	r19, 0x00	; 0
    1b24:	82 e7       	ldi	r24, 0x72	; 114
    1b26:	96 e0       	ldi	r25, 0x06	; 6
    1b28:	0e 94 cd 20 	call	0x419a	; 0x419a <_ZN4OLED19OLED_Write_To_BuferEiiiiPKh>
    1b2c:	d0 c1       	rjmp	.+928    	; 0x1ece <_ZN13Password_Menu7actionsEv+0x828>
    1b2e:	4a 89       	ldd	r20, Y+18	; 0x12
    1b30:	5b 89       	ldd	r21, Y+19	; 0x13
    1b32:	ec 81       	ldd	r30, Y+4	; 0x04
    1b34:	fd 81       	ldd	r31, Y+5	; 0x05
    1b36:	34 96       	adiw	r30, 0x04	; 4
    1b38:	ee 0f       	add	r30, r30
    1b3a:	ff 1f       	adc	r31, r31
    1b3c:	ec 0f       	add	r30, r28
    1b3e:	fd 1f       	adc	r31, r29
    1b40:	60 81       	ld	r22, Z
    1b42:	71 81       	ldd	r23, Z+1	; 0x01
    1b44:	08 e0       	ldi	r16, 0x08	; 8
    1b46:	10 e0       	ldi	r17, 0x00	; 0
    1b48:	21 e0       	ldi	r18, 0x01	; 1
    1b4a:	30 e0       	ldi	r19, 0x00	; 0
    1b4c:	82 e7       	ldi	r24, 0x72	; 114
    1b4e:	96 e0       	ldi	r25, 0x06	; 6
    1b50:	0e 94 7e 20 	call	0x40fc	; 0x40fc <_ZN4OLED21OLED_Clear_Bufer_partEiiii>
    1b54:	4a 89       	ldd	r20, Y+18	; 0x12
    1b56:	5b 89       	ldd	r21, Y+19	; 0x13
    1b58:	ec 81       	ldd	r30, Y+4	; 0x04
    1b5a:	fd 81       	ldd	r31, Y+5	; 0x05
    1b5c:	34 96       	adiw	r30, 0x04	; 4
    1b5e:	ee 0f       	add	r30, r30
    1b60:	ff 1f       	adc	r31, r31
    1b62:	ec 0f       	add	r30, r28
    1b64:	fd 1f       	adc	r31, r29
    1b66:	60 81       	ld	r22, Z
    1b68:	71 81       	ldd	r23, Z+1	; 0x01
    1b6a:	0f 2e       	mov	r0, r31
    1b6c:	f1 e0       	ldi	r31, 0x01	; 1
    1b6e:	ef 2e       	mov	r14, r31
    1b70:	f5 e0       	ldi	r31, 0x05	; 5
    1b72:	ff 2e       	mov	r15, r31
    1b74:	f0 2d       	mov	r31, r0
    1b76:	21 e0       	ldi	r18, 0x01	; 1
    1b78:	30 e0       	ldi	r19, 0x00	; 0
    1b7a:	82 e7       	ldi	r24, 0x72	; 114
    1b7c:	96 e0       	ldi	r25, 0x06	; 6
    1b7e:	0e 94 cd 20 	call	0x419a	; 0x419a <_ZN4OLED19OLED_Write_To_BuferEiiiiPKh>
    1b82:	4a 89       	ldd	r20, Y+18	; 0x12
    1b84:	5b 89       	ldd	r21, Y+19	; 0x13
    1b86:	4e 5f       	subi	r20, 0xFE	; 254
    1b88:	5f 4f       	sbci	r21, 0xFF	; 255
    1b8a:	ec 81       	ldd	r30, Y+4	; 0x04
    1b8c:	fd 81       	ldd	r31, Y+5	; 0x05
    1b8e:	34 96       	adiw	r30, 0x04	; 4
    1b90:	ee 0f       	add	r30, r30
    1b92:	ff 1f       	adc	r31, r31
    1b94:	ec 0f       	add	r30, r28
    1b96:	fd 1f       	adc	r31, r29
    1b98:	60 81       	ld	r22, Z
    1b9a:	71 81       	ldd	r23, Z+1	; 0x01
    1b9c:	0f 2e       	mov	r0, r31
    1b9e:	f9 ec       	ldi	r31, 0xC9	; 201
    1ba0:	ef 2e       	mov	r14, r31
    1ba2:	f4 e0       	ldi	r31, 0x04	; 4
    1ba4:	ff 2e       	mov	r15, r31
    1ba6:	f0 2d       	mov	r31, r0
    1ba8:	21 e0       	ldi	r18, 0x01	; 1
    1baa:	30 e0       	ldi	r19, 0x00	; 0
    1bac:	82 e7       	ldi	r24, 0x72	; 114
    1bae:	96 e0       	ldi	r25, 0x06	; 6
    1bb0:	0e 94 cd 20 	call	0x419a	; 0x419a <_ZN4OLED19OLED_Write_To_BuferEiiiiPKh>
    1bb4:	4a 89       	ldd	r20, Y+18	; 0x12
    1bb6:	5b 89       	ldd	r21, Y+19	; 0x13
    1bb8:	41 50       	subi	r20, 0x01	; 1
    1bba:	51 09       	sbc	r21, r1
    1bbc:	8c 81       	ldd	r24, Y+4	; 0x04
    1bbe:	9d 81       	ldd	r25, Y+5	; 0x05
    1bc0:	04 96       	adiw	r24, 0x04	; 4
    1bc2:	88 0f       	add	r24, r24
    1bc4:	99 1f       	adc	r25, r25
    1bc6:	c8 0f       	add	r28, r24
    1bc8:	d9 1f       	adc	r29, r25
    1bca:	68 81       	ld	r22, Y
    1bcc:	79 81       	ldd	r23, Y+1	; 0x01
    1bce:	0f 2e       	mov	r0, r31
    1bd0:	f1 ed       	ldi	r31, 0xD1	; 209
    1bd2:	ef 2e       	mov	r14, r31
    1bd4:	f4 e0       	ldi	r31, 0x04	; 4
    1bd6:	ff 2e       	mov	r15, r31
    1bd8:	f0 2d       	mov	r31, r0
    1bda:	21 e0       	ldi	r18, 0x01	; 1
    1bdc:	30 e0       	ldi	r19, 0x00	; 0
    1bde:	82 e7       	ldi	r24, 0x72	; 114
    1be0:	96 e0       	ldi	r25, 0x06	; 6
    1be2:	0e 94 cd 20 	call	0x419a	; 0x419a <_ZN4OLED19OLED_Write_To_BuferEiiiiPKh>
    1be6:	73 c1       	rjmp	.+742    	; 0x1ece <_ZN13Password_Menu7actionsEv+0x828>
    1be8:	4a 89       	ldd	r20, Y+18	; 0x12
    1bea:	5b 89       	ldd	r21, Y+19	; 0x13
    1bec:	ec 81       	ldd	r30, Y+4	; 0x04
    1bee:	fd 81       	ldd	r31, Y+5	; 0x05
    1bf0:	34 96       	adiw	r30, 0x04	; 4
    1bf2:	ee 0f       	add	r30, r30
    1bf4:	ff 1f       	adc	r31, r31
    1bf6:	ec 0f       	add	r30, r28
    1bf8:	fd 1f       	adc	r31, r29
    1bfa:	60 81       	ld	r22, Z
    1bfc:	71 81       	ldd	r23, Z+1	; 0x01
    1bfe:	08 e0       	ldi	r16, 0x08	; 8
    1c00:	10 e0       	ldi	r17, 0x00	; 0
    1c02:	21 e0       	ldi	r18, 0x01	; 1
    1c04:	30 e0       	ldi	r19, 0x00	; 0
    1c06:	82 e7       	ldi	r24, 0x72	; 114
    1c08:	96 e0       	ldi	r25, 0x06	; 6
    1c0a:	0e 94 7e 20 	call	0x40fc	; 0x40fc <_ZN4OLED21OLED_Clear_Bufer_partEiiii>
    1c0e:	4a 89       	ldd	r20, Y+18	; 0x12
    1c10:	5b 89       	ldd	r21, Y+19	; 0x13
    1c12:	ec 81       	ldd	r30, Y+4	; 0x04
    1c14:	fd 81       	ldd	r31, Y+5	; 0x05
    1c16:	34 96       	adiw	r30, 0x04	; 4
    1c18:	ee 0f       	add	r30, r30
    1c1a:	ff 1f       	adc	r31, r31
    1c1c:	ec 0f       	add	r30, r28
    1c1e:	fd 1f       	adc	r31, r29
    1c20:	60 81       	ld	r22, Z
    1c22:	71 81       	ldd	r23, Z+1	; 0x01
    1c24:	0f 2e       	mov	r0, r31
    1c26:	f9 ef       	ldi	r31, 0xF9	; 249
    1c28:	ef 2e       	mov	r14, r31
    1c2a:	f4 e0       	ldi	r31, 0x04	; 4
    1c2c:	ff 2e       	mov	r15, r31
    1c2e:	f0 2d       	mov	r31, r0
    1c30:	21 e0       	ldi	r18, 0x01	; 1
    1c32:	30 e0       	ldi	r19, 0x00	; 0
    1c34:	82 e7       	ldi	r24, 0x72	; 114
    1c36:	96 e0       	ldi	r25, 0x06	; 6
    1c38:	0e 94 cd 20 	call	0x419a	; 0x419a <_ZN4OLED19OLED_Write_To_BuferEiiiiPKh>
    1c3c:	4a 89       	ldd	r20, Y+18	; 0x12
    1c3e:	5b 89       	ldd	r21, Y+19	; 0x13
    1c40:	4e 5f       	subi	r20, 0xFE	; 254
    1c42:	5f 4f       	sbci	r21, 0xFF	; 255
    1c44:	ec 81       	ldd	r30, Y+4	; 0x04
    1c46:	fd 81       	ldd	r31, Y+5	; 0x05
    1c48:	34 96       	adiw	r30, 0x04	; 4
    1c4a:	ee 0f       	add	r30, r30
    1c4c:	ff 1f       	adc	r31, r31
    1c4e:	ec 0f       	add	r30, r28
    1c50:	fd 1f       	adc	r31, r29
    1c52:	60 81       	ld	r22, Z
    1c54:	71 81       	ldd	r23, Z+1	; 0x01
    1c56:	0f 2e       	mov	r0, r31
    1c58:	f9 ec       	ldi	r31, 0xC9	; 201
    1c5a:	ef 2e       	mov	r14, r31
    1c5c:	f4 e0       	ldi	r31, 0x04	; 4
    1c5e:	ff 2e       	mov	r15, r31
    1c60:	f0 2d       	mov	r31, r0
    1c62:	21 e0       	ldi	r18, 0x01	; 1
    1c64:	30 e0       	ldi	r19, 0x00	; 0
    1c66:	82 e7       	ldi	r24, 0x72	; 114
    1c68:	96 e0       	ldi	r25, 0x06	; 6
    1c6a:	0e 94 cd 20 	call	0x419a	; 0x419a <_ZN4OLED19OLED_Write_To_BuferEiiiiPKh>
    1c6e:	4a 89       	ldd	r20, Y+18	; 0x12
    1c70:	5b 89       	ldd	r21, Y+19	; 0x13
    1c72:	41 50       	subi	r20, 0x01	; 1
    1c74:	51 09       	sbc	r21, r1
    1c76:	8c 81       	ldd	r24, Y+4	; 0x04
    1c78:	9d 81       	ldd	r25, Y+5	; 0x05
    1c7a:	04 96       	adiw	r24, 0x04	; 4
    1c7c:	88 0f       	add	r24, r24
    1c7e:	99 1f       	adc	r25, r25
    1c80:	c8 0f       	add	r28, r24
    1c82:	d9 1f       	adc	r29, r25
    1c84:	68 81       	ld	r22, Y
    1c86:	79 81       	ldd	r23, Y+1	; 0x01
    1c88:	0f 2e       	mov	r0, r31
    1c8a:	f1 ed       	ldi	r31, 0xD1	; 209
    1c8c:	ef 2e       	mov	r14, r31
    1c8e:	f4 e0       	ldi	r31, 0x04	; 4
    1c90:	ff 2e       	mov	r15, r31
    1c92:	f0 2d       	mov	r31, r0
    1c94:	21 e0       	ldi	r18, 0x01	; 1
    1c96:	30 e0       	ldi	r19, 0x00	; 0
    1c98:	82 e7       	ldi	r24, 0x72	; 114
    1c9a:	96 e0       	ldi	r25, 0x06	; 6
    1c9c:	0e 94 cd 20 	call	0x419a	; 0x419a <_ZN4OLED19OLED_Write_To_BuferEiiiiPKh>
    1ca0:	16 c1       	rjmp	.+556    	; 0x1ece <_ZN13Password_Menu7actionsEv+0x828>
    1ca2:	4a 89       	ldd	r20, Y+18	; 0x12
    1ca4:	5b 89       	ldd	r21, Y+19	; 0x13
    1ca6:	ec 81       	ldd	r30, Y+4	; 0x04
    1ca8:	fd 81       	ldd	r31, Y+5	; 0x05
    1caa:	34 96       	adiw	r30, 0x04	; 4
    1cac:	ee 0f       	add	r30, r30
    1cae:	ff 1f       	adc	r31, r31
    1cb0:	ec 0f       	add	r30, r28
    1cb2:	fd 1f       	adc	r31, r29
    1cb4:	60 81       	ld	r22, Z
    1cb6:	71 81       	ldd	r23, Z+1	; 0x01
    1cb8:	08 e0       	ldi	r16, 0x08	; 8
    1cba:	10 e0       	ldi	r17, 0x00	; 0
    1cbc:	21 e0       	ldi	r18, 0x01	; 1
    1cbe:	30 e0       	ldi	r19, 0x00	; 0
    1cc0:	82 e7       	ldi	r24, 0x72	; 114
    1cc2:	96 e0       	ldi	r25, 0x06	; 6
    1cc4:	0e 94 7e 20 	call	0x40fc	; 0x40fc <_ZN4OLED21OLED_Clear_Bufer_partEiiii>
    1cc8:	4a 89       	ldd	r20, Y+18	; 0x12
    1cca:	5b 89       	ldd	r21, Y+19	; 0x13
    1ccc:	ec 81       	ldd	r30, Y+4	; 0x04
    1cce:	fd 81       	ldd	r31, Y+5	; 0x05
    1cd0:	34 96       	adiw	r30, 0x04	; 4
    1cd2:	ee 0f       	add	r30, r30
    1cd4:	ff 1f       	adc	r31, r31
    1cd6:	ec 0f       	add	r30, r28
    1cd8:	fd 1f       	adc	r31, r29
    1cda:	60 81       	ld	r22, Z
    1cdc:	71 81       	ldd	r23, Z+1	; 0x01
    1cde:	0f 2e       	mov	r0, r31
    1ce0:	f1 ef       	ldi	r31, 0xF1	; 241
    1ce2:	ef 2e       	mov	r14, r31
    1ce4:	f4 e0       	ldi	r31, 0x04	; 4
    1ce6:	ff 2e       	mov	r15, r31
    1ce8:	f0 2d       	mov	r31, r0
    1cea:	21 e0       	ldi	r18, 0x01	; 1
    1cec:	30 e0       	ldi	r19, 0x00	; 0
    1cee:	82 e7       	ldi	r24, 0x72	; 114
    1cf0:	96 e0       	ldi	r25, 0x06	; 6
    1cf2:	0e 94 cd 20 	call	0x419a	; 0x419a <_ZN4OLED19OLED_Write_To_BuferEiiiiPKh>
    1cf6:	4a 89       	ldd	r20, Y+18	; 0x12
    1cf8:	5b 89       	ldd	r21, Y+19	; 0x13
    1cfa:	4e 5f       	subi	r20, 0xFE	; 254
    1cfc:	5f 4f       	sbci	r21, 0xFF	; 255
    1cfe:	ec 81       	ldd	r30, Y+4	; 0x04
    1d00:	fd 81       	ldd	r31, Y+5	; 0x05
    1d02:	34 96       	adiw	r30, 0x04	; 4
    1d04:	ee 0f       	add	r30, r30
    1d06:	ff 1f       	adc	r31, r31
    1d08:	ec 0f       	add	r30, r28
    1d0a:	fd 1f       	adc	r31, r29
    1d0c:	60 81       	ld	r22, Z
    1d0e:	71 81       	ldd	r23, Z+1	; 0x01
    1d10:	0f 2e       	mov	r0, r31
    1d12:	f9 ec       	ldi	r31, 0xC9	; 201
    1d14:	ef 2e       	mov	r14, r31
    1d16:	f4 e0       	ldi	r31, 0x04	; 4
    1d18:	ff 2e       	mov	r15, r31
    1d1a:	f0 2d       	mov	r31, r0
    1d1c:	21 e0       	ldi	r18, 0x01	; 1
    1d1e:	30 e0       	ldi	r19, 0x00	; 0
    1d20:	82 e7       	ldi	r24, 0x72	; 114
    1d22:	96 e0       	ldi	r25, 0x06	; 6
    1d24:	0e 94 cd 20 	call	0x419a	; 0x419a <_ZN4OLED19OLED_Write_To_BuferEiiiiPKh>
    1d28:	4a 89       	ldd	r20, Y+18	; 0x12
    1d2a:	5b 89       	ldd	r21, Y+19	; 0x13
    1d2c:	41 50       	subi	r20, 0x01	; 1
    1d2e:	51 09       	sbc	r21, r1
    1d30:	8c 81       	ldd	r24, Y+4	; 0x04
    1d32:	9d 81       	ldd	r25, Y+5	; 0x05
    1d34:	04 96       	adiw	r24, 0x04	; 4
    1d36:	88 0f       	add	r24, r24
    1d38:	99 1f       	adc	r25, r25
    1d3a:	c8 0f       	add	r28, r24
    1d3c:	d9 1f       	adc	r29, r25
    1d3e:	68 81       	ld	r22, Y
    1d40:	79 81       	ldd	r23, Y+1	; 0x01
    1d42:	0f 2e       	mov	r0, r31
    1d44:	f1 ed       	ldi	r31, 0xD1	; 209
    1d46:	ef 2e       	mov	r14, r31
    1d48:	f4 e0       	ldi	r31, 0x04	; 4
    1d4a:	ff 2e       	mov	r15, r31
    1d4c:	f0 2d       	mov	r31, r0
    1d4e:	21 e0       	ldi	r18, 0x01	; 1
    1d50:	30 e0       	ldi	r19, 0x00	; 0
    1d52:	82 e7       	ldi	r24, 0x72	; 114
    1d54:	96 e0       	ldi	r25, 0x06	; 6
    1d56:	0e 94 cd 20 	call	0x419a	; 0x419a <_ZN4OLED19OLED_Write_To_BuferEiiiiPKh>
    1d5a:	b9 c0       	rjmp	.+370    	; 0x1ece <_ZN13Password_Menu7actionsEv+0x828>
    1d5c:	4a 89       	ldd	r20, Y+18	; 0x12
    1d5e:	5b 89       	ldd	r21, Y+19	; 0x13
    1d60:	ec 81       	ldd	r30, Y+4	; 0x04
    1d62:	fd 81       	ldd	r31, Y+5	; 0x05
    1d64:	34 96       	adiw	r30, 0x04	; 4
    1d66:	ee 0f       	add	r30, r30
    1d68:	ff 1f       	adc	r31, r31
    1d6a:	ec 0f       	add	r30, r28
    1d6c:	fd 1f       	adc	r31, r29
    1d6e:	60 81       	ld	r22, Z
    1d70:	71 81       	ldd	r23, Z+1	; 0x01
    1d72:	08 e0       	ldi	r16, 0x08	; 8
    1d74:	10 e0       	ldi	r17, 0x00	; 0
    1d76:	21 e0       	ldi	r18, 0x01	; 1
    1d78:	30 e0       	ldi	r19, 0x00	; 0
    1d7a:	82 e7       	ldi	r24, 0x72	; 114
    1d7c:	96 e0       	ldi	r25, 0x06	; 6
    1d7e:	0e 94 7e 20 	call	0x40fc	; 0x40fc <_ZN4OLED21OLED_Clear_Bufer_partEiiii>
    1d82:	4a 89       	ldd	r20, Y+18	; 0x12
    1d84:	5b 89       	ldd	r21, Y+19	; 0x13
    1d86:	ec 81       	ldd	r30, Y+4	; 0x04
    1d88:	fd 81       	ldd	r31, Y+5	; 0x05
    1d8a:	34 96       	adiw	r30, 0x04	; 4
    1d8c:	ee 0f       	add	r30, r30
    1d8e:	ff 1f       	adc	r31, r31
    1d90:	ec 0f       	add	r30, r28
    1d92:	fd 1f       	adc	r31, r29
    1d94:	60 81       	ld	r22, Z
    1d96:	71 81       	ldd	r23, Z+1	; 0x01
    1d98:	0f 2e       	mov	r0, r31
    1d9a:	f9 ee       	ldi	r31, 0xE9	; 233
    1d9c:	ef 2e       	mov	r14, r31
    1d9e:	f4 e0       	ldi	r31, 0x04	; 4
    1da0:	ff 2e       	mov	r15, r31
    1da2:	f0 2d       	mov	r31, r0
    1da4:	21 e0       	ldi	r18, 0x01	; 1
    1da6:	30 e0       	ldi	r19, 0x00	; 0
    1da8:	82 e7       	ldi	r24, 0x72	; 114
    1daa:	96 e0       	ldi	r25, 0x06	; 6
    1dac:	0e 94 cd 20 	call	0x419a	; 0x419a <_ZN4OLED19OLED_Write_To_BuferEiiiiPKh>
    1db0:	4a 89       	ldd	r20, Y+18	; 0x12
    1db2:	5b 89       	ldd	r21, Y+19	; 0x13
    1db4:	4e 5f       	subi	r20, 0xFE	; 254
    1db6:	5f 4f       	sbci	r21, 0xFF	; 255
    1db8:	ec 81       	ldd	r30, Y+4	; 0x04
    1dba:	fd 81       	ldd	r31, Y+5	; 0x05
    1dbc:	34 96       	adiw	r30, 0x04	; 4
    1dbe:	ee 0f       	add	r30, r30
    1dc0:	ff 1f       	adc	r31, r31
    1dc2:	ec 0f       	add	r30, r28
    1dc4:	fd 1f       	adc	r31, r29
    1dc6:	60 81       	ld	r22, Z
    1dc8:	71 81       	ldd	r23, Z+1	; 0x01
    1dca:	0f 2e       	mov	r0, r31
    1dcc:	f9 ec       	ldi	r31, 0xC9	; 201
    1dce:	ef 2e       	mov	r14, r31
    1dd0:	f4 e0       	ldi	r31, 0x04	; 4
    1dd2:	ff 2e       	mov	r15, r31
    1dd4:	f0 2d       	mov	r31, r0
    1dd6:	21 e0       	ldi	r18, 0x01	; 1
    1dd8:	30 e0       	ldi	r19, 0x00	; 0
    1dda:	82 e7       	ldi	r24, 0x72	; 114
    1ddc:	96 e0       	ldi	r25, 0x06	; 6
    1dde:	0e 94 cd 20 	call	0x419a	; 0x419a <_ZN4OLED19OLED_Write_To_BuferEiiiiPKh>
    1de2:	4a 89       	ldd	r20, Y+18	; 0x12
    1de4:	5b 89       	ldd	r21, Y+19	; 0x13
    1de6:	41 50       	subi	r20, 0x01	; 1
    1de8:	51 09       	sbc	r21, r1
    1dea:	8c 81       	ldd	r24, Y+4	; 0x04
    1dec:	9d 81       	ldd	r25, Y+5	; 0x05
    1dee:	04 96       	adiw	r24, 0x04	; 4
    1df0:	88 0f       	add	r24, r24
    1df2:	99 1f       	adc	r25, r25
    1df4:	c8 0f       	add	r28, r24
    1df6:	d9 1f       	adc	r29, r25
    1df8:	68 81       	ld	r22, Y
    1dfa:	79 81       	ldd	r23, Y+1	; 0x01
    1dfc:	0f 2e       	mov	r0, r31
    1dfe:	f1 ed       	ldi	r31, 0xD1	; 209
    1e00:	ef 2e       	mov	r14, r31
    1e02:	f4 e0       	ldi	r31, 0x04	; 4
    1e04:	ff 2e       	mov	r15, r31
    1e06:	f0 2d       	mov	r31, r0
    1e08:	21 e0       	ldi	r18, 0x01	; 1
    1e0a:	30 e0       	ldi	r19, 0x00	; 0
    1e0c:	82 e7       	ldi	r24, 0x72	; 114
    1e0e:	96 e0       	ldi	r25, 0x06	; 6
    1e10:	0e 94 cd 20 	call	0x419a	; 0x419a <_ZN4OLED19OLED_Write_To_BuferEiiiiPKh>
    1e14:	5c c0       	rjmp	.+184    	; 0x1ece <_ZN13Password_Menu7actionsEv+0x828>
    1e16:	4a 89       	ldd	r20, Y+18	; 0x12
    1e18:	5b 89       	ldd	r21, Y+19	; 0x13
    1e1a:	ec 81       	ldd	r30, Y+4	; 0x04
    1e1c:	fd 81       	ldd	r31, Y+5	; 0x05
    1e1e:	34 96       	adiw	r30, 0x04	; 4
    1e20:	ee 0f       	add	r30, r30
    1e22:	ff 1f       	adc	r31, r31
    1e24:	ec 0f       	add	r30, r28
    1e26:	fd 1f       	adc	r31, r29
    1e28:	60 81       	ld	r22, Z
    1e2a:	71 81       	ldd	r23, Z+1	; 0x01
    1e2c:	08 e0       	ldi	r16, 0x08	; 8
    1e2e:	10 e0       	ldi	r17, 0x00	; 0
    1e30:	21 e0       	ldi	r18, 0x01	; 1
    1e32:	30 e0       	ldi	r19, 0x00	; 0
    1e34:	82 e7       	ldi	r24, 0x72	; 114
    1e36:	96 e0       	ldi	r25, 0x06	; 6
    1e38:	0e 94 7e 20 	call	0x40fc	; 0x40fc <_ZN4OLED21OLED_Clear_Bufer_partEiiii>
    1e3c:	4a 89       	ldd	r20, Y+18	; 0x12
    1e3e:	5b 89       	ldd	r21, Y+19	; 0x13
    1e40:	ec 81       	ldd	r30, Y+4	; 0x04
    1e42:	fd 81       	ldd	r31, Y+5	; 0x05
    1e44:	34 96       	adiw	r30, 0x04	; 4
    1e46:	ee 0f       	add	r30, r30
    1e48:	ff 1f       	adc	r31, r31
    1e4a:	ec 0f       	add	r30, r28
    1e4c:	fd 1f       	adc	r31, r29
    1e4e:	60 81       	ld	r22, Z
    1e50:	71 81       	ldd	r23, Z+1	; 0x01
    1e52:	0f 2e       	mov	r0, r31
    1e54:	f9 ed       	ldi	r31, 0xD9	; 217
    1e56:	ef 2e       	mov	r14, r31
    1e58:	f4 e0       	ldi	r31, 0x04	; 4
    1e5a:	ff 2e       	mov	r15, r31
    1e5c:	f0 2d       	mov	r31, r0
    1e5e:	21 e0       	ldi	r18, 0x01	; 1
    1e60:	30 e0       	ldi	r19, 0x00	; 0
    1e62:	82 e7       	ldi	r24, 0x72	; 114
    1e64:	96 e0       	ldi	r25, 0x06	; 6
    1e66:	0e 94 cd 20 	call	0x419a	; 0x419a <_ZN4OLED19OLED_Write_To_BuferEiiiiPKh>
    1e6a:	4a 89       	ldd	r20, Y+18	; 0x12
    1e6c:	5b 89       	ldd	r21, Y+19	; 0x13
    1e6e:	4e 5f       	subi	r20, 0xFE	; 254
    1e70:	5f 4f       	sbci	r21, 0xFF	; 255
    1e72:	ec 81       	ldd	r30, Y+4	; 0x04
    1e74:	fd 81       	ldd	r31, Y+5	; 0x05
    1e76:	34 96       	adiw	r30, 0x04	; 4
    1e78:	ee 0f       	add	r30, r30
    1e7a:	ff 1f       	adc	r31, r31
    1e7c:	ec 0f       	add	r30, r28
    1e7e:	fd 1f       	adc	r31, r29
    1e80:	60 81       	ld	r22, Z
    1e82:	71 81       	ldd	r23, Z+1	; 0x01
    1e84:	0f 2e       	mov	r0, r31
    1e86:	f9 ec       	ldi	r31, 0xC9	; 201
    1e88:	ef 2e       	mov	r14, r31
    1e8a:	f4 e0       	ldi	r31, 0x04	; 4
    1e8c:	ff 2e       	mov	r15, r31
    1e8e:	f0 2d       	mov	r31, r0
    1e90:	21 e0       	ldi	r18, 0x01	; 1
    1e92:	30 e0       	ldi	r19, 0x00	; 0
    1e94:	82 e7       	ldi	r24, 0x72	; 114
    1e96:	96 e0       	ldi	r25, 0x06	; 6
    1e98:	0e 94 cd 20 	call	0x419a	; 0x419a <_ZN4OLED19OLED_Write_To_BuferEiiiiPKh>
    1e9c:	4a 89       	ldd	r20, Y+18	; 0x12
    1e9e:	5b 89       	ldd	r21, Y+19	; 0x13
    1ea0:	41 50       	subi	r20, 0x01	; 1
    1ea2:	51 09       	sbc	r21, r1
    1ea4:	8c 81       	ldd	r24, Y+4	; 0x04
    1ea6:	9d 81       	ldd	r25, Y+5	; 0x05
    1ea8:	04 96       	adiw	r24, 0x04	; 4
    1eaa:	88 0f       	add	r24, r24
    1eac:	99 1f       	adc	r25, r25
    1eae:	c8 0f       	add	r28, r24
    1eb0:	d9 1f       	adc	r29, r25
    1eb2:	68 81       	ld	r22, Y
    1eb4:	79 81       	ldd	r23, Y+1	; 0x01
    1eb6:	0f 2e       	mov	r0, r31
    1eb8:	f1 ed       	ldi	r31, 0xD1	; 209
    1eba:	ef 2e       	mov	r14, r31
    1ebc:	f4 e0       	ldi	r31, 0x04	; 4
    1ebe:	ff 2e       	mov	r15, r31
    1ec0:	f0 2d       	mov	r31, r0
    1ec2:	21 e0       	ldi	r18, 0x01	; 1
    1ec4:	30 e0       	ldi	r19, 0x00	; 0
    1ec6:	82 e7       	ldi	r24, 0x72	; 114
    1ec8:	96 e0       	ldi	r25, 0x06	; 6
    1eca:	0e 94 cd 20 	call	0x419a	; 0x419a <_ZN4OLED19OLED_Write_To_BuferEiiiiPKh>
    1ece:	df 91       	pop	r29
    1ed0:	cf 91       	pop	r28
    1ed2:	1f 91       	pop	r17
    1ed4:	0f 91       	pop	r16
    1ed6:	ff 90       	pop	r15
    1ed8:	ef 90       	pop	r14
    1eda:	08 95       	ret

00001edc <_ZN13Password_Menu7DefaultEv>:
    1edc:	ef 92       	push	r14
    1ede:	ff 92       	push	r15
    1ee0:	0f 93       	push	r16
    1ee2:	1f 93       	push	r17
    1ee4:	cf 93       	push	r28
    1ee6:	df 93       	push	r29
    1ee8:	ec 01       	movw	r28, r24
    1eea:	4a 89       	ldd	r20, Y+18	; 0x12
    1eec:	5b 89       	ldd	r21, Y+19	; 0x13
    1eee:	4f 5f       	subi	r20, 0xFF	; 255
    1ef0:	5f 4f       	sbci	r21, 0xFF	; 255
    1ef2:	68 85       	ldd	r22, Y+8	; 0x08
    1ef4:	79 85       	ldd	r23, Y+9	; 0x09
    1ef6:	0f 2e       	mov	r0, r31
    1ef8:	f1 ee       	ldi	r31, 0xE1	; 225
    1efa:	ef 2e       	mov	r14, r31
    1efc:	f4 e0       	ldi	r31, 0x04	; 4
    1efe:	ff 2e       	mov	r15, r31
    1f00:	f0 2d       	mov	r31, r0
    1f02:	08 e0       	ldi	r16, 0x08	; 8
    1f04:	10 e0       	ldi	r17, 0x00	; 0
    1f06:	21 e0       	ldi	r18, 0x01	; 1
    1f08:	30 e0       	ldi	r19, 0x00	; 0
    1f0a:	82 e7       	ldi	r24, 0x72	; 114
    1f0c:	96 e0       	ldi	r25, 0x06	; 6
    1f0e:	0e 94 cd 20 	call	0x419a	; 0x419a <_ZN4OLED19OLED_Write_To_BuferEiiiiPKh>
    1f12:	4a 89       	ldd	r20, Y+18	; 0x12
    1f14:	5b 89       	ldd	r21, Y+19	; 0x13
    1f16:	4f 5f       	subi	r20, 0xFF	; 255
    1f18:	5f 4f       	sbci	r21, 0xFF	; 255
    1f1a:	6a 85       	ldd	r22, Y+10	; 0x0a
    1f1c:	7b 85       	ldd	r23, Y+11	; 0x0b
    1f1e:	21 e0       	ldi	r18, 0x01	; 1
    1f20:	30 e0       	ldi	r19, 0x00	; 0
    1f22:	82 e7       	ldi	r24, 0x72	; 114
    1f24:	96 e0       	ldi	r25, 0x06	; 6
    1f26:	0e 94 cd 20 	call	0x419a	; 0x419a <_ZN4OLED19OLED_Write_To_BuferEiiiiPKh>
    1f2a:	4a 89       	ldd	r20, Y+18	; 0x12
    1f2c:	5b 89       	ldd	r21, Y+19	; 0x13
    1f2e:	4f 5f       	subi	r20, 0xFF	; 255
    1f30:	5f 4f       	sbci	r21, 0xFF	; 255
    1f32:	6c 85       	ldd	r22, Y+12	; 0x0c
    1f34:	7d 85       	ldd	r23, Y+13	; 0x0d
    1f36:	21 e0       	ldi	r18, 0x01	; 1
    1f38:	30 e0       	ldi	r19, 0x00	; 0
    1f3a:	82 e7       	ldi	r24, 0x72	; 114
    1f3c:	96 e0       	ldi	r25, 0x06	; 6
    1f3e:	0e 94 cd 20 	call	0x419a	; 0x419a <_ZN4OLED19OLED_Write_To_BuferEiiiiPKh>
    1f42:	4a 89       	ldd	r20, Y+18	; 0x12
    1f44:	5b 89       	ldd	r21, Y+19	; 0x13
    1f46:	4f 5f       	subi	r20, 0xFF	; 255
    1f48:	5f 4f       	sbci	r21, 0xFF	; 255
    1f4a:	6e 85       	ldd	r22, Y+14	; 0x0e
    1f4c:	7f 85       	ldd	r23, Y+15	; 0x0f
    1f4e:	21 e0       	ldi	r18, 0x01	; 1
    1f50:	30 e0       	ldi	r19, 0x00	; 0
    1f52:	82 e7       	ldi	r24, 0x72	; 114
    1f54:	96 e0       	ldi	r25, 0x06	; 6
    1f56:	0e 94 cd 20 	call	0x419a	; 0x419a <_ZN4OLED19OLED_Write_To_BuferEiiiiPKh>
    1f5a:	4a 89       	ldd	r20, Y+18	; 0x12
    1f5c:	5b 89       	ldd	r21, Y+19	; 0x13
    1f5e:	4f 5f       	subi	r20, 0xFF	; 255
    1f60:	5f 4f       	sbci	r21, 0xFF	; 255
    1f62:	68 89       	ldd	r22, Y+16	; 0x10
    1f64:	79 89       	ldd	r23, Y+17	; 0x11
    1f66:	21 e0       	ldi	r18, 0x01	; 1
    1f68:	30 e0       	ldi	r19, 0x00	; 0
    1f6a:	82 e7       	ldi	r24, 0x72	; 114
    1f6c:	96 e0       	ldi	r25, 0x06	; 6
    1f6e:	0e 94 cd 20 	call	0x419a	; 0x419a <_ZN4OLED19OLED_Write_To_BuferEiiiiPKh>
    1f72:	df 91       	pop	r29
    1f74:	cf 91       	pop	r28
    1f76:	1f 91       	pop	r17
    1f78:	0f 91       	pop	r16
    1f7a:	ff 90       	pop	r15
    1f7c:	ef 90       	pop	r14
    1f7e:	08 95       	ret

00001f80 <_ZN9Main_Menu7actionsEv>:
    1f80:	ef 92       	push	r14
    1f82:	ff 92       	push	r15
    1f84:	0f 93       	push	r16
    1f86:	1f 93       	push	r17
    1f88:	fc 01       	movw	r30, r24
    1f8a:	84 81       	ldd	r24, Z+4	; 0x04
    1f8c:	95 81       	ldd	r25, Z+5	; 0x05
    1f8e:	81 30       	cpi	r24, 0x01	; 1
    1f90:	91 05       	cpc	r25, r1
    1f92:	d9 f1       	breq	.+118    	; 0x200a <_ZN9Main_Menu7actionsEv+0x8a>
    1f94:	82 30       	cpi	r24, 0x02	; 2
    1f96:	91 05       	cpc	r25, r1
    1f98:	09 f4       	brne	.+2      	; 0x1f9c <_ZN9Main_Menu7actionsEv+0x1c>
    1f9a:	54 c0       	rjmp	.+168    	; 0x2044 <_ZN9Main_Menu7actionsEv+0xc4>
    1f9c:	89 2b       	or	r24, r25
    1f9e:	09 f0       	breq	.+2      	; 0x1fa2 <_ZN9Main_Menu7actionsEv+0x22>
    1fa0:	6d c0       	rjmp	.+218    	; 0x207c <_ZN9Main_Menu7actionsEv+0xfc>
    1fa2:	00 e2       	ldi	r16, 0x20	; 32
    1fa4:	10 e0       	ldi	r17, 0x00	; 0
    1fa6:	24 e0       	ldi	r18, 0x04	; 4
    1fa8:	30 e0       	ldi	r19, 0x00	; 0
    1faa:	42 e0       	ldi	r20, 0x02	; 2
    1fac:	50 e0       	ldi	r21, 0x00	; 0
    1fae:	62 e3       	ldi	r22, 0x32	; 50
    1fb0:	70 e0       	ldi	r23, 0x00	; 0
    1fb2:	82 e7       	ldi	r24, 0x72	; 114
    1fb4:	96 e0       	ldi	r25, 0x06	; 6
    1fb6:	0e 94 7e 20 	call	0x40fc	; 0x40fc <_ZN4OLED21OLED_Clear_Bufer_partEiiii>
    1fba:	80 91 6c 06 	lds	r24, 0x066C	; 0x80066c <locked>
    1fbe:	88 23       	and	r24, r24
    1fc0:	89 f0       	breq	.+34     	; 0x1fe4 <_ZN9Main_Menu7actionsEv+0x64>
    1fc2:	0f 2e       	mov	r0, r31
    1fc4:	f9 e9       	ldi	r31, 0x99	; 153
    1fc6:	ef 2e       	mov	r14, r31
    1fc8:	f2 e0       	ldi	r31, 0x02	; 2
    1fca:	ff 2e       	mov	r15, r31
    1fcc:	f0 2d       	mov	r31, r0
    1fce:	24 e0       	ldi	r18, 0x04	; 4
    1fd0:	30 e0       	ldi	r19, 0x00	; 0
    1fd2:	42 e0       	ldi	r20, 0x02	; 2
    1fd4:	50 e0       	ldi	r21, 0x00	; 0
    1fd6:	62 e3       	ldi	r22, 0x32	; 50
    1fd8:	70 e0       	ldi	r23, 0x00	; 0
    1fda:	82 e7       	ldi	r24, 0x72	; 114
    1fdc:	96 e0       	ldi	r25, 0x06	; 6
    1fde:	0e 94 cd 20 	call	0x419a	; 0x419a <_ZN4OLED19OLED_Write_To_BuferEiiiiPKh>
    1fe2:	4c c0       	rjmp	.+152    	; 0x207c <_ZN9Main_Menu7actionsEv+0xfc>
    1fe4:	0f 2e       	mov	r0, r31
    1fe6:	f9 e2       	ldi	r31, 0x29	; 41
    1fe8:	ef 2e       	mov	r14, r31
    1fea:	f3 e0       	ldi	r31, 0x03	; 3
    1fec:	ff 2e       	mov	r15, r31
    1fee:	f0 2d       	mov	r31, r0
    1ff0:	00 e2       	ldi	r16, 0x20	; 32
    1ff2:	10 e0       	ldi	r17, 0x00	; 0
    1ff4:	24 e0       	ldi	r18, 0x04	; 4
    1ff6:	30 e0       	ldi	r19, 0x00	; 0
    1ff8:	42 e0       	ldi	r20, 0x02	; 2
    1ffa:	50 e0       	ldi	r21, 0x00	; 0
    1ffc:	62 e3       	ldi	r22, 0x32	; 50
    1ffe:	70 e0       	ldi	r23, 0x00	; 0
    2000:	82 e7       	ldi	r24, 0x72	; 114
    2002:	96 e0       	ldi	r25, 0x06	; 6
    2004:	0e 94 cd 20 	call	0x419a	; 0x419a <_ZN4OLED19OLED_Write_To_BuferEiiiiPKh>
    2008:	39 c0       	rjmp	.+114    	; 0x207c <_ZN9Main_Menu7actionsEv+0xfc>
    200a:	00 e2       	ldi	r16, 0x20	; 32
    200c:	10 e0       	ldi	r17, 0x00	; 0
    200e:	24 e0       	ldi	r18, 0x04	; 4
    2010:	30 e0       	ldi	r19, 0x00	; 0
    2012:	42 e0       	ldi	r20, 0x02	; 2
    2014:	50 e0       	ldi	r21, 0x00	; 0
    2016:	62 e3       	ldi	r22, 0x32	; 50
    2018:	70 e0       	ldi	r23, 0x00	; 0
    201a:	82 e7       	ldi	r24, 0x72	; 114
    201c:	96 e0       	ldi	r25, 0x06	; 6
    201e:	0e 94 7e 20 	call	0x40fc	; 0x40fc <_ZN4OLED21OLED_Clear_Bufer_partEiiii>
    2022:	0f 2e       	mov	r0, r31
    2024:	f9 e3       	ldi	r31, 0x39	; 57
    2026:	ef 2e       	mov	r14, r31
    2028:	f4 e0       	ldi	r31, 0x04	; 4
    202a:	ff 2e       	mov	r15, r31
    202c:	f0 2d       	mov	r31, r0
    202e:	24 e0       	ldi	r18, 0x04	; 4
    2030:	30 e0       	ldi	r19, 0x00	; 0
    2032:	42 e0       	ldi	r20, 0x02	; 2
    2034:	50 e0       	ldi	r21, 0x00	; 0
    2036:	62 e3       	ldi	r22, 0x32	; 50
    2038:	70 e0       	ldi	r23, 0x00	; 0
    203a:	82 e7       	ldi	r24, 0x72	; 114
    203c:	96 e0       	ldi	r25, 0x06	; 6
    203e:	0e 94 cd 20 	call	0x419a	; 0x419a <_ZN4OLED19OLED_Write_To_BuferEiiiiPKh>
    2042:	1c c0       	rjmp	.+56     	; 0x207c <_ZN9Main_Menu7actionsEv+0xfc>
    2044:	00 e2       	ldi	r16, 0x20	; 32
    2046:	10 e0       	ldi	r17, 0x00	; 0
    2048:	24 e0       	ldi	r18, 0x04	; 4
    204a:	30 e0       	ldi	r19, 0x00	; 0
    204c:	42 e0       	ldi	r20, 0x02	; 2
    204e:	50 e0       	ldi	r21, 0x00	; 0
    2050:	62 e3       	ldi	r22, 0x32	; 50
    2052:	70 e0       	ldi	r23, 0x00	; 0
    2054:	82 e7       	ldi	r24, 0x72	; 114
    2056:	96 e0       	ldi	r25, 0x06	; 6
    2058:	0e 94 7e 20 	call	0x40fc	; 0x40fc <_ZN4OLED21OLED_Clear_Bufer_partEiiii>
    205c:	0f 2e       	mov	r0, r31
    205e:	f9 ea       	ldi	r31, 0xA9	; 169
    2060:	ef 2e       	mov	r14, r31
    2062:	f3 e0       	ldi	r31, 0x03	; 3
    2064:	ff 2e       	mov	r15, r31
    2066:	f0 2d       	mov	r31, r0
    2068:	24 e0       	ldi	r18, 0x04	; 4
    206a:	30 e0       	ldi	r19, 0x00	; 0
    206c:	42 e0       	ldi	r20, 0x02	; 2
    206e:	50 e0       	ldi	r21, 0x00	; 0
    2070:	62 e3       	ldi	r22, 0x32	; 50
    2072:	70 e0       	ldi	r23, 0x00	; 0
    2074:	82 e7       	ldi	r24, 0x72	; 114
    2076:	96 e0       	ldi	r25, 0x06	; 6
    2078:	0e 94 cd 20 	call	0x419a	; 0x419a <_ZN4OLED19OLED_Write_To_BuferEiiiiPKh>
    207c:	1f 91       	pop	r17
    207e:	0f 91       	pop	r16
    2080:	ff 90       	pop	r15
    2082:	ef 90       	pop	r14
    2084:	08 95       	ret

00002086 <_ZN9Main_Menu7DefaultEv>:
    2086:	ef 92       	push	r14
    2088:	ff 92       	push	r15
    208a:	0f 93       	push	r16
    208c:	1f 93       	push	r17
    208e:	0f 2e       	mov	r0, r31
    2090:	f9 e8       	ldi	r31, 0x89	; 137
    2092:	ef 2e       	mov	r14, r31
    2094:	f2 e0       	ldi	r31, 0x02	; 2
    2096:	ff 2e       	mov	r15, r31
    2098:	f0 2d       	mov	r31, r0
    209a:	00 e1       	ldi	r16, 0x10	; 16
    209c:	10 e0       	ldi	r17, 0x00	; 0
    209e:	21 e0       	ldi	r18, 0x01	; 1
    20a0:	30 e0       	ldi	r19, 0x00	; 0
    20a2:	43 e0       	ldi	r20, 0x03	; 3
    20a4:	50 e0       	ldi	r21, 0x00	; 0
    20a6:	6e e1       	ldi	r22, 0x1E	; 30
    20a8:	70 e0       	ldi	r23, 0x00	; 0
    20aa:	82 e7       	ldi	r24, 0x72	; 114
    20ac:	96 e0       	ldi	r25, 0x06	; 6
    20ae:	0e 94 cd 20 	call	0x419a	; 0x419a <_ZN4OLED19OLED_Write_To_BuferEiiiiPKh>
    20b2:	0f 2e       	mov	r0, r31
    20b4:	f9 e1       	ldi	r31, 0x19	; 25
    20b6:	ef 2e       	mov	r14, r31
    20b8:	f3 e0       	ldi	r31, 0x03	; 3
    20ba:	ff 2e       	mov	r15, r31
    20bc:	f0 2d       	mov	r31, r0
    20be:	21 e0       	ldi	r18, 0x01	; 1
    20c0:	30 e0       	ldi	r19, 0x00	; 0
    20c2:	43 e0       	ldi	r20, 0x03	; 3
    20c4:	50 e0       	ldi	r21, 0x00	; 0
    20c6:	6a e6       	ldi	r22, 0x6A	; 106
    20c8:	70 e0       	ldi	r23, 0x00	; 0
    20ca:	82 e7       	ldi	r24, 0x72	; 114
    20cc:	96 e0       	ldi	r25, 0x06	; 6
    20ce:	0e 94 cd 20 	call	0x419a	; 0x419a <_ZN4OLED19OLED_Write_To_BuferEiiiiPKh>
    20d2:	1f 91       	pop	r17
    20d4:	0f 91       	pop	r16
    20d6:	ff 90       	pop	r15
    20d8:	ef 90       	pop	r14
    20da:	08 95       	ret

000020dc <_ZN9User_Info7actionsEv>:
    20dc:	ef 92       	push	r14
    20de:	ff 92       	push	r15
    20e0:	0f 93       	push	r16
    20e2:	1f 93       	push	r17
    20e4:	cf 93       	push	r28
    20e6:	df 93       	push	r29
    20e8:	ec 01       	movw	r28, r24
    20ea:	90 91 6e 06 	lds	r25, 0x066E	; 0x80066e <User_Info_Status>
    20ee:	99 23       	and	r25, r25
    20f0:	09 f4       	brne	.+2      	; 0x20f4 <_ZN9User_Info7actionsEv+0x18>
    20f2:	23 c3       	rjmp	.+1606   	; 0x273a <_ZN9User_Info7actionsEv+0x65e>
    20f4:	4c 85       	ldd	r20, Y+12	; 0x0c
    20f6:	5d 85       	ldd	r21, Y+13	; 0x0d
    20f8:	08 e0       	ldi	r16, 0x08	; 8
    20fa:	10 e0       	ldi	r17, 0x00	; 0
    20fc:	20 e1       	ldi	r18, 0x10	; 16
    20fe:	30 e0       	ldi	r19, 0x00	; 0
    2100:	60 e0       	ldi	r22, 0x00	; 0
    2102:	70 e0       	ldi	r23, 0x00	; 0
    2104:	82 e7       	ldi	r24, 0x72	; 114
    2106:	96 e0       	ldi	r25, 0x06	; 6
    2108:	0e 94 7e 20 	call	0x40fc	; 0x40fc <_ZN4OLED21OLED_Clear_Bufer_partEiiii>
    210c:	4c 85       	ldd	r20, Y+12	; 0x0c
    210e:	5d 85       	ldd	r21, Y+13	; 0x0d
    2110:	6e 81       	ldd	r22, Y+6	; 0x06
    2112:	7f 81       	ldd	r23, Y+7	; 0x07
    2114:	0f 2e       	mov	r0, r31
    2116:	f9 e2       	ldi	r31, 0x29	; 41
    2118:	ef 2e       	mov	r14, r31
    211a:	f1 e0       	ldi	r31, 0x01	; 1
    211c:	ff 2e       	mov	r15, r31
    211e:	f0 2d       	mov	r31, r0
    2120:	21 e0       	ldi	r18, 0x01	; 1
    2122:	30 e0       	ldi	r19, 0x00	; 0
    2124:	82 e7       	ldi	r24, 0x72	; 114
    2126:	96 e0       	ldi	r25, 0x06	; 6
    2128:	0e 94 cd 20 	call	0x419a	; 0x419a <_ZN4OLED19OLED_Write_To_BuferEiiiiPKh>
    212c:	4c 85       	ldd	r20, Y+12	; 0x0c
    212e:	5d 85       	ldd	r21, Y+13	; 0x0d
    2130:	6e 81       	ldd	r22, Y+6	; 0x06
    2132:	7f 81       	ldd	r23, Y+7	; 0x07
    2134:	68 5f       	subi	r22, 0xF8	; 248
    2136:	7f 4f       	sbci	r23, 0xFF	; 255
    2138:	0f 2e       	mov	r0, r31
    213a:	f9 e6       	ldi	r31, 0x69	; 105
    213c:	ef 2e       	mov	r14, r31
    213e:	f1 e0       	ldi	r31, 0x01	; 1
    2140:	ff 2e       	mov	r15, r31
    2142:	f0 2d       	mov	r31, r0
    2144:	21 e0       	ldi	r18, 0x01	; 1
    2146:	30 e0       	ldi	r19, 0x00	; 0
    2148:	82 e7       	ldi	r24, 0x72	; 114
    214a:	96 e0       	ldi	r25, 0x06	; 6
    214c:	0e 94 cd 20 	call	0x419a	; 0x419a <_ZN4OLED19OLED_Write_To_BuferEiiiiPKh>
    2150:	4c 85       	ldd	r20, Y+12	; 0x0c
    2152:	5d 85       	ldd	r21, Y+13	; 0x0d
    2154:	6e 81       	ldd	r22, Y+6	; 0x06
    2156:	7f 81       	ldd	r23, Y+7	; 0x07
    2158:	60 5f       	subi	r22, 0xF0	; 240
    215a:	7f 4f       	sbci	r23, 0xFF	; 255
    215c:	0f 2e       	mov	r0, r31
    215e:	f1 e5       	ldi	r31, 0x51	; 81
    2160:	ef 2e       	mov	r14, r31
    2162:	f1 e0       	ldi	r31, 0x01	; 1
    2164:	ff 2e       	mov	r15, r31
    2166:	f0 2d       	mov	r31, r0
    2168:	21 e0       	ldi	r18, 0x01	; 1
    216a:	30 e0       	ldi	r19, 0x00	; 0
    216c:	82 e7       	ldi	r24, 0x72	; 114
    216e:	96 e0       	ldi	r25, 0x06	; 6
    2170:	0e 94 cd 20 	call	0x419a	; 0x419a <_ZN4OLED19OLED_Write_To_BuferEiiiiPKh>
    2174:	4c 85       	ldd	r20, Y+12	; 0x0c
    2176:	5d 85       	ldd	r21, Y+13	; 0x0d
    2178:	6e 81       	ldd	r22, Y+6	; 0x06
    217a:	7f 81       	ldd	r23, Y+7	; 0x07
    217c:	68 5e       	subi	r22, 0xE8	; 232
    217e:	7f 4f       	sbci	r23, 0xFF	; 255
    2180:	0f 2e       	mov	r0, r31
    2182:	f9 e4       	ldi	r31, 0x49	; 73
    2184:	ef 2e       	mov	r14, r31
    2186:	f1 e0       	ldi	r31, 0x01	; 1
    2188:	ff 2e       	mov	r15, r31
    218a:	f0 2d       	mov	r31, r0
    218c:	21 e0       	ldi	r18, 0x01	; 1
    218e:	30 e0       	ldi	r19, 0x00	; 0
    2190:	82 e7       	ldi	r24, 0x72	; 114
    2192:	96 e0       	ldi	r25, 0x06	; 6
    2194:	0e 94 cd 20 	call	0x419a	; 0x419a <_ZN4OLED19OLED_Write_To_BuferEiiiiPKh>
    2198:	4c 85       	ldd	r20, Y+12	; 0x0c
    219a:	5d 85       	ldd	r21, Y+13	; 0x0d
    219c:	6e 81       	ldd	r22, Y+6	; 0x06
    219e:	7f 81       	ldd	r23, Y+7	; 0x07
    21a0:	60 5e       	subi	r22, 0xE0	; 224
    21a2:	7f 4f       	sbci	r23, 0xFF	; 255
    21a4:	0f 2e       	mov	r0, r31
    21a6:	f9 ea       	ldi	r31, 0xA9	; 169
    21a8:	ef 2e       	mov	r14, r31
    21aa:	f1 e0       	ldi	r31, 0x01	; 1
    21ac:	ff 2e       	mov	r15, r31
    21ae:	f0 2d       	mov	r31, r0
    21b0:	21 e0       	ldi	r18, 0x01	; 1
    21b2:	30 e0       	ldi	r19, 0x00	; 0
    21b4:	82 e7       	ldi	r24, 0x72	; 114
    21b6:	96 e0       	ldi	r25, 0x06	; 6
    21b8:	0e 94 cd 20 	call	0x419a	; 0x419a <_ZN4OLED19OLED_Write_To_BuferEiiiiPKh>
    21bc:	4c 85       	ldd	r20, Y+12	; 0x0c
    21be:	5d 85       	ldd	r21, Y+13	; 0x0d
    21c0:	6e 81       	ldd	r22, Y+6	; 0x06
    21c2:	7f 81       	ldd	r23, Y+7	; 0x07
    21c4:	68 5d       	subi	r22, 0xD8	; 216
    21c6:	7f 4f       	sbci	r23, 0xFF	; 255
    21c8:	0f 2e       	mov	r0, r31
    21ca:	f9 e2       	ldi	r31, 0x29	; 41
    21cc:	ef 2e       	mov	r14, r31
    21ce:	f1 e0       	ldi	r31, 0x01	; 1
    21d0:	ff 2e       	mov	r15, r31
    21d2:	f0 2d       	mov	r31, r0
    21d4:	21 e0       	ldi	r18, 0x01	; 1
    21d6:	30 e0       	ldi	r19, 0x00	; 0
    21d8:	82 e7       	ldi	r24, 0x72	; 114
    21da:	96 e0       	ldi	r25, 0x06	; 6
    21dc:	0e 94 cd 20 	call	0x419a	; 0x419a <_ZN4OLED19OLED_Write_To_BuferEiiiiPKh>
    21e0:	4c 85       	ldd	r20, Y+12	; 0x0c
    21e2:	5d 85       	ldd	r21, Y+13	; 0x0d
    21e4:	6e 81       	ldd	r22, Y+6	; 0x06
    21e6:	7f 81       	ldd	r23, Y+7	; 0x07
    21e8:	60 5d       	subi	r22, 0xD0	; 208
    21ea:	7f 4f       	sbci	r23, 0xFF	; 255
    21ec:	0f 2e       	mov	r0, r31
    21ee:	f1 e3       	ldi	r31, 0x31	; 49
    21f0:	ef 2e       	mov	r14, r31
    21f2:	f1 e0       	ldi	r31, 0x01	; 1
    21f4:	ff 2e       	mov	r15, r31
    21f6:	f0 2d       	mov	r31, r0
    21f8:	21 e0       	ldi	r18, 0x01	; 1
    21fa:	30 e0       	ldi	r19, 0x00	; 0
    21fc:	82 e7       	ldi	r24, 0x72	; 114
    21fe:	96 e0       	ldi	r25, 0x06	; 6
    2200:	0e 94 cd 20 	call	0x419a	; 0x419a <_ZN4OLED19OLED_Write_To_BuferEiiiiPKh>
    2204:	4c 85       	ldd	r20, Y+12	; 0x0c
    2206:	5d 85       	ldd	r21, Y+13	; 0x0d
    2208:	6e 81       	ldd	r22, Y+6	; 0x06
    220a:	7f 81       	ldd	r23, Y+7	; 0x07
    220c:	68 5c       	subi	r22, 0xC8	; 200
    220e:	7f 4f       	sbci	r23, 0xFF	; 255
    2210:	0f 2e       	mov	r0, r31
    2212:	f9 e4       	ldi	r31, 0x49	; 73
    2214:	ef 2e       	mov	r14, r31
    2216:	f1 e0       	ldi	r31, 0x01	; 1
    2218:	ff 2e       	mov	r15, r31
    221a:	f0 2d       	mov	r31, r0
    221c:	21 e0       	ldi	r18, 0x01	; 1
    221e:	30 e0       	ldi	r19, 0x00	; 0
    2220:	82 e7       	ldi	r24, 0x72	; 114
    2222:	96 e0       	ldi	r25, 0x06	; 6
    2224:	0e 94 cd 20 	call	0x419a	; 0x419a <_ZN4OLED19OLED_Write_To_BuferEiiiiPKh>
    2228:	4c 85       	ldd	r20, Y+12	; 0x0c
    222a:	5d 85       	ldd	r21, Y+13	; 0x0d
    222c:	6e 81       	ldd	r22, Y+6	; 0x06
    222e:	7f 81       	ldd	r23, Y+7	; 0x07
    2230:	60 5c       	subi	r22, 0xC0	; 192
    2232:	7f 4f       	sbci	r23, 0xFF	; 255
    2234:	0f 2e       	mov	r0, r31
    2236:	f1 e2       	ldi	r31, 0x21	; 33
    2238:	ef 2e       	mov	r14, r31
    223a:	f1 e0       	ldi	r31, 0x01	; 1
    223c:	ff 2e       	mov	r15, r31
    223e:	f0 2d       	mov	r31, r0
    2240:	21 e0       	ldi	r18, 0x01	; 1
    2242:	30 e0       	ldi	r19, 0x00	; 0
    2244:	82 e7       	ldi	r24, 0x72	; 114
    2246:	96 e0       	ldi	r25, 0x06	; 6
    2248:	0e 94 cd 20 	call	0x419a	; 0x419a <_ZN4OLED19OLED_Write_To_BuferEiiiiPKh>
    224c:	4c 85       	ldd	r20, Y+12	; 0x0c
    224e:	5d 85       	ldd	r21, Y+13	; 0x0d
    2250:	6e 81       	ldd	r22, Y+6	; 0x06
    2252:	7f 81       	ldd	r23, Y+7	; 0x07
    2254:	68 5b       	subi	r22, 0xB8	; 184
    2256:	7f 4f       	sbci	r23, 0xFF	; 255
    2258:	0f 2e       	mov	r0, r31
    225a:	f9 e3       	ldi	r31, 0x39	; 57
    225c:	ef 2e       	mov	r14, r31
    225e:	f1 e0       	ldi	r31, 0x01	; 1
    2260:	ff 2e       	mov	r15, r31
    2262:	f0 2d       	mov	r31, r0
    2264:	21 e0       	ldi	r18, 0x01	; 1
    2266:	30 e0       	ldi	r19, 0x00	; 0
    2268:	82 e7       	ldi	r24, 0x72	; 114
    226a:	96 e0       	ldi	r25, 0x06	; 6
    226c:	0e 94 cd 20 	call	0x419a	; 0x419a <_ZN4OLED19OLED_Write_To_BuferEiiiiPKh>
    2270:	4c 85       	ldd	r20, Y+12	; 0x0c
    2272:	5d 85       	ldd	r21, Y+13	; 0x0d
    2274:	6e 81       	ldd	r22, Y+6	; 0x06
    2276:	7f 81       	ldd	r23, Y+7	; 0x07
    2278:	60 5b       	subi	r22, 0xB0	; 176
    227a:	7f 4f       	sbci	r23, 0xFF	; 255
    227c:	0f 2e       	mov	r0, r31
    227e:	f1 e6       	ldi	r31, 0x61	; 97
    2280:	ef 2e       	mov	r14, r31
    2282:	f1 e0       	ldi	r31, 0x01	; 1
    2284:	ff 2e       	mov	r15, r31
    2286:	f0 2d       	mov	r31, r0
    2288:	21 e0       	ldi	r18, 0x01	; 1
    228a:	30 e0       	ldi	r19, 0x00	; 0
    228c:	82 e7       	ldi	r24, 0x72	; 114
    228e:	96 e0       	ldi	r25, 0x06	; 6
    2290:	0e 94 cd 20 	call	0x419a	; 0x419a <_ZN4OLED19OLED_Write_To_BuferEiiiiPKh>
    2294:	4c 85       	ldd	r20, Y+12	; 0x0c
    2296:	5d 85       	ldd	r21, Y+13	; 0x0d
    2298:	6e 81       	ldd	r22, Y+6	; 0x06
    229a:	7f 81       	ldd	r23, Y+7	; 0x07
    229c:	68 5a       	subi	r22, 0xA8	; 168
    229e:	7f 4f       	sbci	r23, 0xFF	; 255
    22a0:	0f 2e       	mov	r0, r31
    22a2:	f1 eb       	ldi	r31, 0xB1	; 177
    22a4:	ef 2e       	mov	r14, r31
    22a6:	f1 e0       	ldi	r31, 0x01	; 1
    22a8:	ff 2e       	mov	r15, r31
    22aa:	f0 2d       	mov	r31, r0
    22ac:	21 e0       	ldi	r18, 0x01	; 1
    22ae:	30 e0       	ldi	r19, 0x00	; 0
    22b0:	82 e7       	ldi	r24, 0x72	; 114
    22b2:	96 e0       	ldi	r25, 0x06	; 6
    22b4:	0e 94 cd 20 	call	0x419a	; 0x419a <_ZN4OLED19OLED_Write_To_BuferEiiiiPKh>
    22b8:	4c 85       	ldd	r20, Y+12	; 0x0c
    22ba:	5d 85       	ldd	r21, Y+13	; 0x0d
    22bc:	6e 81       	ldd	r22, Y+6	; 0x06
    22be:	7f 81       	ldd	r23, Y+7	; 0x07
    22c0:	60 5a       	subi	r22, 0xA0	; 160
    22c2:	7f 4f       	sbci	r23, 0xFF	; 255
    22c4:	0f 2e       	mov	r0, r31
    22c6:	f1 e1       	ldi	r31, 0x11	; 17
    22c8:	ef 2e       	mov	r14, r31
    22ca:	f1 e0       	ldi	r31, 0x01	; 1
    22cc:	ff 2e       	mov	r15, r31
    22ce:	f0 2d       	mov	r31, r0
    22d0:	21 e0       	ldi	r18, 0x01	; 1
    22d2:	30 e0       	ldi	r19, 0x00	; 0
    22d4:	82 e7       	ldi	r24, 0x72	; 114
    22d6:	96 e0       	ldi	r25, 0x06	; 6
    22d8:	0e 94 cd 20 	call	0x419a	; 0x419a <_ZN4OLED19OLED_Write_To_BuferEiiiiPKh>
    22dc:	4c 85       	ldd	r20, Y+12	; 0x0c
    22de:	5d 85       	ldd	r21, Y+13	; 0x0d
    22e0:	6e 81       	ldd	r22, Y+6	; 0x06
    22e2:	7f 81       	ldd	r23, Y+7	; 0x07
    22e4:	68 59       	subi	r22, 0x98	; 152
    22e6:	7f 4f       	sbci	r23, 0xFF	; 255
    22e8:	0f 2e       	mov	r0, r31
    22ea:	f1 eb       	ldi	r31, 0xB1	; 177
    22ec:	ef 2e       	mov	r14, r31
    22ee:	f1 e0       	ldi	r31, 0x01	; 1
    22f0:	ff 2e       	mov	r15, r31
    22f2:	f0 2d       	mov	r31, r0
    22f4:	21 e0       	ldi	r18, 0x01	; 1
    22f6:	30 e0       	ldi	r19, 0x00	; 0
    22f8:	82 e7       	ldi	r24, 0x72	; 114
    22fa:	96 e0       	ldi	r25, 0x06	; 6
    22fc:	0e 94 cd 20 	call	0x419a	; 0x419a <_ZN4OLED19OLED_Write_To_BuferEiiiiPKh>
    2300:	4c 85       	ldd	r20, Y+12	; 0x0c
    2302:	5d 85       	ldd	r21, Y+13	; 0x0d
    2304:	4f 5f       	subi	r20, 0xFF	; 255
    2306:	5f 4f       	sbci	r21, 0xFF	; 255
    2308:	20 e1       	ldi	r18, 0x10	; 16
    230a:	30 e0       	ldi	r19, 0x00	; 0
    230c:	60 e0       	ldi	r22, 0x00	; 0
    230e:	70 e0       	ldi	r23, 0x00	; 0
    2310:	82 e7       	ldi	r24, 0x72	; 114
    2312:	96 e0       	ldi	r25, 0x06	; 6
    2314:	0e 94 7e 20 	call	0x40fc	; 0x40fc <_ZN4OLED21OLED_Clear_Bufer_partEiiii>
    2318:	4c 85       	ldd	r20, Y+12	; 0x0c
    231a:	5d 85       	ldd	r21, Y+13	; 0x0d
    231c:	4f 5f       	subi	r20, 0xFF	; 255
    231e:	5f 4f       	sbci	r21, 0xFF	; 255
    2320:	68 85       	ldd	r22, Y+8	; 0x08
    2322:	79 85       	ldd	r23, Y+9	; 0x09
    2324:	0f 2e       	mov	r0, r31
    2326:	f1 e0       	ldi	r31, 0x01	; 1
    2328:	ef 2e       	mov	r14, r31
    232a:	f5 e0       	ldi	r31, 0x05	; 5
    232c:	ff 2e       	mov	r15, r31
    232e:	f0 2d       	mov	r31, r0
    2330:	21 e0       	ldi	r18, 0x01	; 1
    2332:	30 e0       	ldi	r19, 0x00	; 0
    2334:	82 e7       	ldi	r24, 0x72	; 114
    2336:	96 e0       	ldi	r25, 0x06	; 6
    2338:	0e 94 cd 20 	call	0x419a	; 0x419a <_ZN4OLED19OLED_Write_To_BuferEiiiiPKh>
    233c:	4c 85       	ldd	r20, Y+12	; 0x0c
    233e:	5d 85       	ldd	r21, Y+13	; 0x0d
    2340:	4f 5f       	subi	r20, 0xFF	; 255
    2342:	5f 4f       	sbci	r21, 0xFF	; 255
    2344:	68 85       	ldd	r22, Y+8	; 0x08
    2346:	79 85       	ldd	r23, Y+9	; 0x09
    2348:	68 5f       	subi	r22, 0xF8	; 248
    234a:	7f 4f       	sbci	r23, 0xFF	; 255
    234c:	21 e0       	ldi	r18, 0x01	; 1
    234e:	30 e0       	ldi	r19, 0x00	; 0
    2350:	82 e7       	ldi	r24, 0x72	; 114
    2352:	96 e0       	ldi	r25, 0x06	; 6
    2354:	0e 94 cd 20 	call	0x419a	; 0x419a <_ZN4OLED19OLED_Write_To_BuferEiiiiPKh>
    2358:	4c 85       	ldd	r20, Y+12	; 0x0c
    235a:	5d 85       	ldd	r21, Y+13	; 0x0d
    235c:	4f 5f       	subi	r20, 0xFF	; 255
    235e:	5f 4f       	sbci	r21, 0xFF	; 255
    2360:	68 85       	ldd	r22, Y+8	; 0x08
    2362:	79 85       	ldd	r23, Y+9	; 0x09
    2364:	68 5e       	subi	r22, 0xE8	; 232
    2366:	7f 4f       	sbci	r23, 0xFF	; 255
    2368:	21 e0       	ldi	r18, 0x01	; 1
    236a:	30 e0       	ldi	r19, 0x00	; 0
    236c:	82 e7       	ldi	r24, 0x72	; 114
    236e:	96 e0       	ldi	r25, 0x06	; 6
    2370:	0e 94 cd 20 	call	0x419a	; 0x419a <_ZN4OLED19OLED_Write_To_BuferEiiiiPKh>
    2374:	4c 85       	ldd	r20, Y+12	; 0x0c
    2376:	5d 85       	ldd	r21, Y+13	; 0x0d
    2378:	4f 5f       	subi	r20, 0xFF	; 255
    237a:	5f 4f       	sbci	r21, 0xFF	; 255
    237c:	68 85       	ldd	r22, Y+8	; 0x08
    237e:	79 85       	ldd	r23, Y+9	; 0x09
    2380:	60 5e       	subi	r22, 0xE0	; 224
    2382:	7f 4f       	sbci	r23, 0xFF	; 255
    2384:	0f 2e       	mov	r0, r31
    2386:	f9 ee       	ldi	r31, 0xE9	; 233
    2388:	ef 2e       	mov	r14, r31
    238a:	f4 e0       	ldi	r31, 0x04	; 4
    238c:	ff 2e       	mov	r15, r31
    238e:	f0 2d       	mov	r31, r0
    2390:	21 e0       	ldi	r18, 0x01	; 1
    2392:	30 e0       	ldi	r19, 0x00	; 0
    2394:	82 e7       	ldi	r24, 0x72	; 114
    2396:	96 e0       	ldi	r25, 0x06	; 6
    2398:	0e 94 cd 20 	call	0x419a	; 0x419a <_ZN4OLED19OLED_Write_To_BuferEiiiiPKh>
    239c:	4c 85       	ldd	r20, Y+12	; 0x0c
    239e:	5d 85       	ldd	r21, Y+13	; 0x0d
    23a0:	4e 5f       	subi	r20, 0xFE	; 254
    23a2:	5f 4f       	sbci	r21, 0xFF	; 255
    23a4:	20 e1       	ldi	r18, 0x10	; 16
    23a6:	30 e0       	ldi	r19, 0x00	; 0
    23a8:	60 e0       	ldi	r22, 0x00	; 0
    23aa:	70 e0       	ldi	r23, 0x00	; 0
    23ac:	82 e7       	ldi	r24, 0x72	; 114
    23ae:	96 e0       	ldi	r25, 0x06	; 6
    23b0:	0e 94 7e 20 	call	0x40fc	; 0x40fc <_ZN4OLED21OLED_Clear_Bufer_partEiiii>
    23b4:	4c 85       	ldd	r20, Y+12	; 0x0c
    23b6:	5d 85       	ldd	r21, Y+13	; 0x0d
    23b8:	4e 5f       	subi	r20, 0xFE	; 254
    23ba:	5f 4f       	sbci	r21, 0xFF	; 255
    23bc:	6a 85       	ldd	r22, Y+10	; 0x0a
    23be:	7b 85       	ldd	r23, Y+11	; 0x0b
    23c0:	0f 2e       	mov	r0, r31
    23c2:	f9 e9       	ldi	r31, 0x99	; 153
    23c4:	ef 2e       	mov	r14, r31
    23c6:	f1 e0       	ldi	r31, 0x01	; 1
    23c8:	ff 2e       	mov	r15, r31
    23ca:	f0 2d       	mov	r31, r0
    23cc:	21 e0       	ldi	r18, 0x01	; 1
    23ce:	30 e0       	ldi	r19, 0x00	; 0
    23d0:	82 e7       	ldi	r24, 0x72	; 114
    23d2:	96 e0       	ldi	r25, 0x06	; 6
    23d4:	0e 94 cd 20 	call	0x419a	; 0x419a <_ZN4OLED19OLED_Write_To_BuferEiiiiPKh>
    23d8:	4c 85       	ldd	r20, Y+12	; 0x0c
    23da:	5d 85       	ldd	r21, Y+13	; 0x0d
    23dc:	4e 5f       	subi	r20, 0xFE	; 254
    23de:	5f 4f       	sbci	r21, 0xFF	; 255
    23e0:	6a 85       	ldd	r22, Y+10	; 0x0a
    23e2:	7b 85       	ldd	r23, Y+11	; 0x0b
    23e4:	68 5f       	subi	r22, 0xF8	; 248
    23e6:	7f 4f       	sbci	r23, 0xFF	; 255
    23e8:	0f 2e       	mov	r0, r31
    23ea:	f9 e5       	ldi	r31, 0x59	; 89
    23ec:	ef 2e       	mov	r14, r31
    23ee:	f1 e0       	ldi	r31, 0x01	; 1
    23f0:	ff 2e       	mov	r15, r31
    23f2:	f0 2d       	mov	r31, r0
    23f4:	21 e0       	ldi	r18, 0x01	; 1
    23f6:	30 e0       	ldi	r19, 0x00	; 0
    23f8:	82 e7       	ldi	r24, 0x72	; 114
    23fa:	96 e0       	ldi	r25, 0x06	; 6
    23fc:	0e 94 cd 20 	call	0x419a	; 0x419a <_ZN4OLED19OLED_Write_To_BuferEiiiiPKh>
    2400:	4c 85       	ldd	r20, Y+12	; 0x0c
    2402:	5d 85       	ldd	r21, Y+13	; 0x0d
    2404:	4e 5f       	subi	r20, 0xFE	; 254
    2406:	5f 4f       	sbci	r21, 0xFF	; 255
    2408:	6a 85       	ldd	r22, Y+10	; 0x0a
    240a:	7b 85       	ldd	r23, Y+11	; 0x0b
    240c:	60 5f       	subi	r22, 0xF0	; 240
    240e:	7f 4f       	sbci	r23, 0xFF	; 255
    2410:	0f 2e       	mov	r0, r31
    2412:	f1 e7       	ldi	r31, 0x71	; 113
    2414:	ef 2e       	mov	r14, r31
    2416:	f1 e0       	ldi	r31, 0x01	; 1
    2418:	ff 2e       	mov	r15, r31
    241a:	f0 2d       	mov	r31, r0
    241c:	21 e0       	ldi	r18, 0x01	; 1
    241e:	30 e0       	ldi	r19, 0x00	; 0
    2420:	82 e7       	ldi	r24, 0x72	; 114
    2422:	96 e0       	ldi	r25, 0x06	; 6
    2424:	0e 94 cd 20 	call	0x419a	; 0x419a <_ZN4OLED19OLED_Write_To_BuferEiiiiPKh>
    2428:	4c 85       	ldd	r20, Y+12	; 0x0c
    242a:	5d 85       	ldd	r21, Y+13	; 0x0d
    242c:	4e 5f       	subi	r20, 0xFE	; 254
    242e:	5f 4f       	sbci	r21, 0xFF	; 255
    2430:	6a 85       	ldd	r22, Y+10	; 0x0a
    2432:	7b 85       	ldd	r23, Y+11	; 0x0b
    2434:	68 5e       	subi	r22, 0xE8	; 232
    2436:	7f 4f       	sbci	r23, 0xFF	; 255
    2438:	0f 2e       	mov	r0, r31
    243a:	f1 e3       	ldi	r31, 0x31	; 49
    243c:	ef 2e       	mov	r14, r31
    243e:	f1 e0       	ldi	r31, 0x01	; 1
    2440:	ff 2e       	mov	r15, r31
    2442:	f0 2d       	mov	r31, r0
    2444:	21 e0       	ldi	r18, 0x01	; 1
    2446:	30 e0       	ldi	r19, 0x00	; 0
    2448:	82 e7       	ldi	r24, 0x72	; 114
    244a:	96 e0       	ldi	r25, 0x06	; 6
    244c:	0e 94 cd 20 	call	0x419a	; 0x419a <_ZN4OLED19OLED_Write_To_BuferEiiiiPKh>
    2450:	4c 85       	ldd	r20, Y+12	; 0x0c
    2452:	5d 85       	ldd	r21, Y+13	; 0x0d
    2454:	4e 5f       	subi	r20, 0xFE	; 254
    2456:	5f 4f       	sbci	r21, 0xFF	; 255
    2458:	6a 85       	ldd	r22, Y+10	; 0x0a
    245a:	7b 85       	ldd	r23, Y+11	; 0x0b
    245c:	60 5e       	subi	r22, 0xE0	; 224
    245e:	7f 4f       	sbci	r23, 0xFF	; 255
    2460:	0f 2e       	mov	r0, r31
    2462:	f1 e4       	ldi	r31, 0x41	; 65
    2464:	ef 2e       	mov	r14, r31
    2466:	f1 e0       	ldi	r31, 0x01	; 1
    2468:	ff 2e       	mov	r15, r31
    246a:	f0 2d       	mov	r31, r0
    246c:	21 e0       	ldi	r18, 0x01	; 1
    246e:	30 e0       	ldi	r19, 0x00	; 0
    2470:	82 e7       	ldi	r24, 0x72	; 114
    2472:	96 e0       	ldi	r25, 0x06	; 6
    2474:	0e 94 cd 20 	call	0x419a	; 0x419a <_ZN4OLED19OLED_Write_To_BuferEiiiiPKh>
    2478:	4c 85       	ldd	r20, Y+12	; 0x0c
    247a:	5d 85       	ldd	r21, Y+13	; 0x0d
    247c:	4e 5f       	subi	r20, 0xFE	; 254
    247e:	5f 4f       	sbci	r21, 0xFF	; 255
    2480:	6a 85       	ldd	r22, Y+10	; 0x0a
    2482:	7b 85       	ldd	r23, Y+11	; 0x0b
    2484:	68 5d       	subi	r22, 0xD8	; 216
    2486:	7f 4f       	sbci	r23, 0xFF	; 255
    2488:	0f 2e       	mov	r0, r31
    248a:	f1 e1       	ldi	r31, 0x11	; 17
    248c:	ef 2e       	mov	r14, r31
    248e:	f1 e0       	ldi	r31, 0x01	; 1
    2490:	ff 2e       	mov	r15, r31
    2492:	f0 2d       	mov	r31, r0
    2494:	21 e0       	ldi	r18, 0x01	; 1
    2496:	30 e0       	ldi	r19, 0x00	; 0
    2498:	82 e7       	ldi	r24, 0x72	; 114
    249a:	96 e0       	ldi	r25, 0x06	; 6
    249c:	0e 94 cd 20 	call	0x419a	; 0x419a <_ZN4OLED19OLED_Write_To_BuferEiiiiPKh>
    24a0:	4c 85       	ldd	r20, Y+12	; 0x0c
    24a2:	5d 85       	ldd	r21, Y+13	; 0x0d
    24a4:	4e 5f       	subi	r20, 0xFE	; 254
    24a6:	5f 4f       	sbci	r21, 0xFF	; 255
    24a8:	6a 85       	ldd	r22, Y+10	; 0x0a
    24aa:	7b 85       	ldd	r23, Y+11	; 0x0b
    24ac:	68 5c       	subi	r22, 0xC8	; 200
    24ae:	7f 4f       	sbci	r23, 0xFF	; 255
    24b0:	0f 2e       	mov	r0, r31
    24b2:	f9 e9       	ldi	r31, 0x99	; 153
    24b4:	ef 2e       	mov	r14, r31
    24b6:	f1 e0       	ldi	r31, 0x01	; 1
    24b8:	ff 2e       	mov	r15, r31
    24ba:	f0 2d       	mov	r31, r0
    24bc:	21 e0       	ldi	r18, 0x01	; 1
    24be:	30 e0       	ldi	r19, 0x00	; 0
    24c0:	82 e7       	ldi	r24, 0x72	; 114
    24c2:	96 e0       	ldi	r25, 0x06	; 6
    24c4:	0e 94 cd 20 	call	0x419a	; 0x419a <_ZN4OLED19OLED_Write_To_BuferEiiiiPKh>
    24c8:	4c 85       	ldd	r20, Y+12	; 0x0c
    24ca:	5d 85       	ldd	r21, Y+13	; 0x0d
    24cc:	4e 5f       	subi	r20, 0xFE	; 254
    24ce:	5f 4f       	sbci	r21, 0xFF	; 255
    24d0:	6a 85       	ldd	r22, Y+10	; 0x0a
    24d2:	7b 85       	ldd	r23, Y+11	; 0x0b
    24d4:	60 5c       	subi	r22, 0xC0	; 192
    24d6:	7f 4f       	sbci	r23, 0xFF	; 255
    24d8:	0f 2e       	mov	r0, r31
    24da:	f9 e2       	ldi	r31, 0x29	; 41
    24dc:	ef 2e       	mov	r14, r31
    24de:	f1 e0       	ldi	r31, 0x01	; 1
    24e0:	ff 2e       	mov	r15, r31
    24e2:	f0 2d       	mov	r31, r0
    24e4:	21 e0       	ldi	r18, 0x01	; 1
    24e6:	30 e0       	ldi	r19, 0x00	; 0
    24e8:	82 e7       	ldi	r24, 0x72	; 114
    24ea:	96 e0       	ldi	r25, 0x06	; 6
    24ec:	0e 94 cd 20 	call	0x419a	; 0x419a <_ZN4OLED19OLED_Write_To_BuferEiiiiPKh>
    24f0:	4c 85       	ldd	r20, Y+12	; 0x0c
    24f2:	5d 85       	ldd	r21, Y+13	; 0x0d
    24f4:	4e 5f       	subi	r20, 0xFE	; 254
    24f6:	5f 4f       	sbci	r21, 0xFF	; 255
    24f8:	6a 85       	ldd	r22, Y+10	; 0x0a
    24fa:	7b 85       	ldd	r23, Y+11	; 0x0b
    24fc:	68 5b       	subi	r22, 0xB8	; 184
    24fe:	7f 4f       	sbci	r23, 0xFF	; 255
    2500:	0f 2e       	mov	r0, r31
    2502:	f9 ea       	ldi	r31, 0xA9	; 169
    2504:	ef 2e       	mov	r14, r31
    2506:	f1 e0       	ldi	r31, 0x01	; 1
    2508:	ff 2e       	mov	r15, r31
    250a:	f0 2d       	mov	r31, r0
    250c:	21 e0       	ldi	r18, 0x01	; 1
    250e:	30 e0       	ldi	r19, 0x00	; 0
    2510:	82 e7       	ldi	r24, 0x72	; 114
    2512:	96 e0       	ldi	r25, 0x06	; 6
    2514:	0e 94 cd 20 	call	0x419a	; 0x419a <_ZN4OLED19OLED_Write_To_BuferEiiiiPKh>
    2518:	4c 85       	ldd	r20, Y+12	; 0x0c
    251a:	5d 85       	ldd	r21, Y+13	; 0x0d
    251c:	4e 5f       	subi	r20, 0xFE	; 254
    251e:	5f 4f       	sbci	r21, 0xFF	; 255
    2520:	6a 85       	ldd	r22, Y+10	; 0x0a
    2522:	7b 85       	ldd	r23, Y+11	; 0x0b
    2524:	60 5b       	subi	r22, 0xB0	; 176
    2526:	7f 4f       	sbci	r23, 0xFF	; 255
    2528:	0f 2e       	mov	r0, r31
    252a:	f1 e7       	ldi	r31, 0x71	; 113
    252c:	ef 2e       	mov	r14, r31
    252e:	f1 e0       	ldi	r31, 0x01	; 1
    2530:	ff 2e       	mov	r15, r31
    2532:	f0 2d       	mov	r31, r0
    2534:	21 e0       	ldi	r18, 0x01	; 1
    2536:	30 e0       	ldi	r19, 0x00	; 0
    2538:	82 e7       	ldi	r24, 0x72	; 114
    253a:	96 e0       	ldi	r25, 0x06	; 6
    253c:	0e 94 cd 20 	call	0x419a	; 0x419a <_ZN4OLED19OLED_Write_To_BuferEiiiiPKh>
    2540:	4c 85       	ldd	r20, Y+12	; 0x0c
    2542:	5d 85       	ldd	r21, Y+13	; 0x0d
    2544:	4e 5f       	subi	r20, 0xFE	; 254
    2546:	5f 4f       	sbci	r21, 0xFF	; 255
    2548:	6a 85       	ldd	r22, Y+10	; 0x0a
    254a:	7b 85       	ldd	r23, Y+11	; 0x0b
    254c:	68 5a       	subi	r22, 0xA8	; 168
    254e:	7f 4f       	sbci	r23, 0xFF	; 255
    2550:	0f 2e       	mov	r0, r31
    2552:	f1 e5       	ldi	r31, 0x51	; 81
    2554:	ef 2e       	mov	r14, r31
    2556:	f1 e0       	ldi	r31, 0x01	; 1
    2558:	ff 2e       	mov	r15, r31
    255a:	f0 2d       	mov	r31, r0
    255c:	21 e0       	ldi	r18, 0x01	; 1
    255e:	30 e0       	ldi	r19, 0x00	; 0
    2560:	82 e7       	ldi	r24, 0x72	; 114
    2562:	96 e0       	ldi	r25, 0x06	; 6
    2564:	0e 94 cd 20 	call	0x419a	; 0x419a <_ZN4OLED19OLED_Write_To_BuferEiiiiPKh>
    2568:	4c 85       	ldd	r20, Y+12	; 0x0c
    256a:	5d 85       	ldd	r21, Y+13	; 0x0d
    256c:	4e 5f       	subi	r20, 0xFE	; 254
    256e:	5f 4f       	sbci	r21, 0xFF	; 255
    2570:	6a 85       	ldd	r22, Y+10	; 0x0a
    2572:	7b 85       	ldd	r23, Y+11	; 0x0b
    2574:	60 5a       	subi	r22, 0xA0	; 160
    2576:	7f 4f       	sbci	r23, 0xFF	; 255
    2578:	0f 2e       	mov	r0, r31
    257a:	f1 eb       	ldi	r31, 0xB1	; 177
    257c:	ef 2e       	mov	r14, r31
    257e:	f1 e0       	ldi	r31, 0x01	; 1
    2580:	ff 2e       	mov	r15, r31
    2582:	f0 2d       	mov	r31, r0
    2584:	21 e0       	ldi	r18, 0x01	; 1
    2586:	30 e0       	ldi	r19, 0x00	; 0
    2588:	82 e7       	ldi	r24, 0x72	; 114
    258a:	96 e0       	ldi	r25, 0x06	; 6
    258c:	0e 94 cd 20 	call	0x419a	; 0x419a <_ZN4OLED19OLED_Write_To_BuferEiiiiPKh>
    2590:	4c 85       	ldd	r20, Y+12	; 0x0c
    2592:	5d 85       	ldd	r21, Y+13	; 0x0d
    2594:	4d 5f       	subi	r20, 0xFD	; 253
    2596:	5f 4f       	sbci	r21, 0xFF	; 255
    2598:	20 e1       	ldi	r18, 0x10	; 16
    259a:	30 e0       	ldi	r19, 0x00	; 0
    259c:	60 e0       	ldi	r22, 0x00	; 0
    259e:	70 e0       	ldi	r23, 0x00	; 0
    25a0:	82 e7       	ldi	r24, 0x72	; 114
    25a2:	96 e0       	ldi	r25, 0x06	; 6
    25a4:	0e 94 7e 20 	call	0x40fc	; 0x40fc <_ZN4OLED21OLED_Clear_Bufer_partEiiii>
    25a8:	6c 85       	ldd	r22, Y+12	; 0x0c
    25aa:	7d 85       	ldd	r23, Y+13	; 0x0d
    25ac:	ab 01       	movw	r20, r22
    25ae:	4d 5f       	subi	r20, 0xFD	; 253
    25b0:	5f 4f       	sbci	r21, 0xFF	; 255
    25b2:	0f 2e       	mov	r0, r31
    25b4:	f1 ef       	ldi	r31, 0xF1	; 241
    25b6:	ef 2e       	mov	r14, r31
    25b8:	f4 e0       	ldi	r31, 0x04	; 4
    25ba:	ff 2e       	mov	r15, r31
    25bc:	f0 2d       	mov	r31, r0
    25be:	21 e0       	ldi	r18, 0x01	; 1
    25c0:	30 e0       	ldi	r19, 0x00	; 0
    25c2:	82 e7       	ldi	r24, 0x72	; 114
    25c4:	96 e0       	ldi	r25, 0x06	; 6
    25c6:	0e 94 cd 20 	call	0x419a	; 0x419a <_ZN4OLED19OLED_Write_To_BuferEiiiiPKh>
    25ca:	6c 85       	ldd	r22, Y+12	; 0x0c
    25cc:	7d 85       	ldd	r23, Y+13	; 0x0d
    25ce:	ab 01       	movw	r20, r22
    25d0:	4d 5f       	subi	r20, 0xFD	; 253
    25d2:	5f 4f       	sbci	r21, 0xFF	; 255
    25d4:	68 5f       	subi	r22, 0xF8	; 248
    25d6:	7f 4f       	sbci	r23, 0xFF	; 255
    25d8:	0f 2e       	mov	r0, r31
    25da:	f9 ee       	ldi	r31, 0xE9	; 233
    25dc:	ef 2e       	mov	r14, r31
    25de:	f4 e0       	ldi	r31, 0x04	; 4
    25e0:	ff 2e       	mov	r15, r31
    25e2:	f0 2d       	mov	r31, r0
    25e4:	21 e0       	ldi	r18, 0x01	; 1
    25e6:	30 e0       	ldi	r19, 0x00	; 0
    25e8:	82 e7       	ldi	r24, 0x72	; 114
    25ea:	96 e0       	ldi	r25, 0x06	; 6
    25ec:	0e 94 cd 20 	call	0x419a	; 0x419a <_ZN4OLED19OLED_Write_To_BuferEiiiiPKh>
    25f0:	6c 85       	ldd	r22, Y+12	; 0x0c
    25f2:	7d 85       	ldd	r23, Y+13	; 0x0d
    25f4:	ab 01       	movw	r20, r22
    25f6:	4d 5f       	subi	r20, 0xFD	; 253
    25f8:	5f 4f       	sbci	r21, 0xFF	; 255
    25fa:	60 5f       	subi	r22, 0xF0	; 240
    25fc:	7f 4f       	sbci	r23, 0xFF	; 255
    25fe:	0f 2e       	mov	r0, r31
    2600:	f1 e2       	ldi	r31, 0x21	; 33
    2602:	ef 2e       	mov	r14, r31
    2604:	f5 e0       	ldi	r31, 0x05	; 5
    2606:	ff 2e       	mov	r15, r31
    2608:	f0 2d       	mov	r31, r0
    260a:	21 e0       	ldi	r18, 0x01	; 1
    260c:	30 e0       	ldi	r19, 0x00	; 0
    260e:	82 e7       	ldi	r24, 0x72	; 114
    2610:	96 e0       	ldi	r25, 0x06	; 6
    2612:	0e 94 cd 20 	call	0x419a	; 0x419a <_ZN4OLED19OLED_Write_To_BuferEiiiiPKh>
    2616:	6c 85       	ldd	r22, Y+12	; 0x0c
    2618:	7d 85       	ldd	r23, Y+13	; 0x0d
    261a:	ab 01       	movw	r20, r22
    261c:	4d 5f       	subi	r20, 0xFD	; 253
    261e:	5f 4f       	sbci	r21, 0xFF	; 255
    2620:	68 5e       	subi	r22, 0xE8	; 232
    2622:	7f 4f       	sbci	r23, 0xFF	; 255
    2624:	0f 2e       	mov	r0, r31
    2626:	f1 e0       	ldi	r31, 0x01	; 1
    2628:	ef 2e       	mov	r14, r31
    262a:	f5 e0       	ldi	r31, 0x05	; 5
    262c:	ff 2e       	mov	r15, r31
    262e:	f0 2d       	mov	r31, r0
    2630:	21 e0       	ldi	r18, 0x01	; 1
    2632:	30 e0       	ldi	r19, 0x00	; 0
    2634:	82 e7       	ldi	r24, 0x72	; 114
    2636:	96 e0       	ldi	r25, 0x06	; 6
    2638:	0e 94 cd 20 	call	0x419a	; 0x419a <_ZN4OLED19OLED_Write_To_BuferEiiiiPKh>
    263c:	6c 85       	ldd	r22, Y+12	; 0x0c
    263e:	7d 85       	ldd	r23, Y+13	; 0x0d
    2640:	ab 01       	movw	r20, r22
    2642:	4d 5f       	subi	r20, 0xFD	; 253
    2644:	5f 4f       	sbci	r21, 0xFF	; 255
    2646:	60 5e       	subi	r22, 0xE0	; 224
    2648:	7f 4f       	sbci	r23, 0xFF	; 255
    264a:	0f 2e       	mov	r0, r31
    264c:	f1 e3       	ldi	r31, 0x31	; 49
    264e:	ef 2e       	mov	r14, r31
    2650:	f5 e0       	ldi	r31, 0x05	; 5
    2652:	ff 2e       	mov	r15, r31
    2654:	f0 2d       	mov	r31, r0
    2656:	21 e0       	ldi	r18, 0x01	; 1
    2658:	30 e0       	ldi	r19, 0x00	; 0
    265a:	82 e7       	ldi	r24, 0x72	; 114
    265c:	96 e0       	ldi	r25, 0x06	; 6
    265e:	0e 94 cd 20 	call	0x419a	; 0x419a <_ZN4OLED19OLED_Write_To_BuferEiiiiPKh>
    2662:	6c 85       	ldd	r22, Y+12	; 0x0c
    2664:	7d 85       	ldd	r23, Y+13	; 0x0d
    2666:	ab 01       	movw	r20, r22
    2668:	4d 5f       	subi	r20, 0xFD	; 253
    266a:	5f 4f       	sbci	r21, 0xFF	; 255
    266c:	68 5d       	subi	r22, 0xD8	; 216
    266e:	7f 4f       	sbci	r23, 0xFF	; 255
    2670:	0f 2e       	mov	r0, r31
    2672:	f9 ef       	ldi	r31, 0xF9	; 249
    2674:	ef 2e       	mov	r14, r31
    2676:	f4 e0       	ldi	r31, 0x04	; 4
    2678:	ff 2e       	mov	r15, r31
    267a:	f0 2d       	mov	r31, r0
    267c:	21 e0       	ldi	r18, 0x01	; 1
    267e:	30 e0       	ldi	r19, 0x00	; 0
    2680:	82 e7       	ldi	r24, 0x72	; 114
    2682:	96 e0       	ldi	r25, 0x06	; 6
    2684:	0e 94 cd 20 	call	0x419a	; 0x419a <_ZN4OLED19OLED_Write_To_BuferEiiiiPKh>
    2688:	6c 85       	ldd	r22, Y+12	; 0x0c
    268a:	7d 85       	ldd	r23, Y+13	; 0x0d
    268c:	ab 01       	movw	r20, r22
    268e:	4d 5f       	subi	r20, 0xFD	; 253
    2690:	5f 4f       	sbci	r21, 0xFF	; 255
    2692:	60 5d       	subi	r22, 0xD0	; 208
    2694:	7f 4f       	sbci	r23, 0xFF	; 255
    2696:	0f 2e       	mov	r0, r31
    2698:	f9 e0       	ldi	r31, 0x09	; 9
    269a:	ef 2e       	mov	r14, r31
    269c:	f5 e0       	ldi	r31, 0x05	; 5
    269e:	ff 2e       	mov	r15, r31
    26a0:	f0 2d       	mov	r31, r0
    26a2:	21 e0       	ldi	r18, 0x01	; 1
    26a4:	30 e0       	ldi	r19, 0x00	; 0
    26a6:	82 e7       	ldi	r24, 0x72	; 114
    26a8:	96 e0       	ldi	r25, 0x06	; 6
    26aa:	0e 94 cd 20 	call	0x419a	; 0x419a <_ZN4OLED19OLED_Write_To_BuferEiiiiPKh>
    26ae:	6c 85       	ldd	r22, Y+12	; 0x0c
    26b0:	7d 85       	ldd	r23, Y+13	; 0x0d
    26b2:	ab 01       	movw	r20, r22
    26b4:	4d 5f       	subi	r20, 0xFD	; 253
    26b6:	5f 4f       	sbci	r21, 0xFF	; 255
    26b8:	68 5c       	subi	r22, 0xC8	; 200
    26ba:	7f 4f       	sbci	r23, 0xFF	; 255
    26bc:	21 e0       	ldi	r18, 0x01	; 1
    26be:	30 e0       	ldi	r19, 0x00	; 0
    26c0:	82 e7       	ldi	r24, 0x72	; 114
    26c2:	96 e0       	ldi	r25, 0x06	; 6
    26c4:	0e 94 cd 20 	call	0x419a	; 0x419a <_ZN4OLED19OLED_Write_To_BuferEiiiiPKh>
    26c8:	6c 85       	ldd	r22, Y+12	; 0x0c
    26ca:	7d 85       	ldd	r23, Y+13	; 0x0d
    26cc:	ab 01       	movw	r20, r22
    26ce:	4d 5f       	subi	r20, 0xFD	; 253
    26d0:	5f 4f       	sbci	r21, 0xFF	; 255
    26d2:	60 5c       	subi	r22, 0xC0	; 192
    26d4:	7f 4f       	sbci	r23, 0xFF	; 255
    26d6:	0f 2e       	mov	r0, r31
    26d8:	f9 ef       	ldi	r31, 0xF9	; 249
    26da:	ef 2e       	mov	r14, r31
    26dc:	f4 e0       	ldi	r31, 0x04	; 4
    26de:	ff 2e       	mov	r15, r31
    26e0:	f0 2d       	mov	r31, r0
    26e2:	21 e0       	ldi	r18, 0x01	; 1
    26e4:	30 e0       	ldi	r19, 0x00	; 0
    26e6:	82 e7       	ldi	r24, 0x72	; 114
    26e8:	96 e0       	ldi	r25, 0x06	; 6
    26ea:	0e 94 cd 20 	call	0x419a	; 0x419a <_ZN4OLED19OLED_Write_To_BuferEiiiiPKh>
    26ee:	6c 85       	ldd	r22, Y+12	; 0x0c
    26f0:	7d 85       	ldd	r23, Y+13	; 0x0d
    26f2:	ab 01       	movw	r20, r22
    26f4:	4d 5f       	subi	r20, 0xFD	; 253
    26f6:	5f 4f       	sbci	r21, 0xFF	; 255
    26f8:	68 5b       	subi	r22, 0xB8	; 184
    26fa:	7f 4f       	sbci	r23, 0xFF	; 255
    26fc:	0f 2e       	mov	r0, r31
    26fe:	f1 e2       	ldi	r31, 0x21	; 33
    2700:	ef 2e       	mov	r14, r31
    2702:	f5 e0       	ldi	r31, 0x05	; 5
    2704:	ff 2e       	mov	r15, r31
    2706:	f0 2d       	mov	r31, r0
    2708:	21 e0       	ldi	r18, 0x01	; 1
    270a:	30 e0       	ldi	r19, 0x00	; 0
    270c:	82 e7       	ldi	r24, 0x72	; 114
    270e:	96 e0       	ldi	r25, 0x06	; 6
    2710:	0e 94 cd 20 	call	0x419a	; 0x419a <_ZN4OLED19OLED_Write_To_BuferEiiiiPKh>
    2714:	6c 85       	ldd	r22, Y+12	; 0x0c
    2716:	7d 85       	ldd	r23, Y+13	; 0x0d
    2718:	ab 01       	movw	r20, r22
    271a:	4d 5f       	subi	r20, 0xFD	; 253
    271c:	5f 4f       	sbci	r21, 0xFF	; 255
    271e:	60 5b       	subi	r22, 0xB0	; 176
    2720:	7f 4f       	sbci	r23, 0xFF	; 255
    2722:	0f 2e       	mov	r0, r31
    2724:	f9 e0       	ldi	r31, 0x09	; 9
    2726:	ef 2e       	mov	r14, r31
    2728:	f5 e0       	ldi	r31, 0x05	; 5
    272a:	ff 2e       	mov	r15, r31
    272c:	f0 2d       	mov	r31, r0
    272e:	21 e0       	ldi	r18, 0x01	; 1
    2730:	30 e0       	ldi	r19, 0x00	; 0
    2732:	82 e7       	ldi	r24, 0x72	; 114
    2734:	96 e0       	ldi	r25, 0x06	; 6
    2736:	0e 94 cd 20 	call	0x419a	; 0x419a <_ZN4OLED19OLED_Write_To_BuferEiiiiPKh>
    273a:	df 91       	pop	r29
    273c:	cf 91       	pop	r28
    273e:	1f 91       	pop	r17
    2740:	0f 91       	pop	r16
    2742:	ff 90       	pop	r15
    2744:	ef 90       	pop	r14
    2746:	08 95       	ret

00002748 <_ZN11Device_info7actionsEv>:
    2748:	ef 92       	push	r14
    274a:	ff 92       	push	r15
    274c:	0f 93       	push	r16
    274e:	1f 93       	push	r17
    2750:	cf 93       	push	r28
    2752:	df 93       	push	r29
    2754:	ec 01       	movw	r28, r24
    2756:	90 91 6d 06 	lds	r25, 0x066D	; 0x80066d <Device_Info_Status>
    275a:	99 23       	and	r25, r25
    275c:	09 f4       	brne	.+2      	; 0x2760 <_ZN11Device_info7actionsEv+0x18>
    275e:	9a c1       	rjmp	.+820    	; 0x2a94 <_ZN11Device_info7actionsEv+0x34c>
    2760:	48 85       	ldd	r20, Y+8	; 0x08
    2762:	59 85       	ldd	r21, Y+9	; 0x09
    2764:	08 e0       	ldi	r16, 0x08	; 8
    2766:	10 e0       	ldi	r17, 0x00	; 0
    2768:	20 e1       	ldi	r18, 0x10	; 16
    276a:	30 e0       	ldi	r19, 0x00	; 0
    276c:	60 e0       	ldi	r22, 0x00	; 0
    276e:	70 e0       	ldi	r23, 0x00	; 0
    2770:	82 e7       	ldi	r24, 0x72	; 114
    2772:	96 e0       	ldi	r25, 0x06	; 6
    2774:	0e 94 7e 20 	call	0x40fc	; 0x40fc <_ZN4OLED21OLED_Clear_Bufer_partEiiii>
    2778:	48 85       	ldd	r20, Y+8	; 0x08
    277a:	59 85       	ldd	r21, Y+9	; 0x09
    277c:	6c 81       	ldd	r22, Y+4	; 0x04
    277e:	7d 81       	ldd	r23, Y+5	; 0x05
    2780:	0f 2e       	mov	r0, r31
    2782:	f9 e3       	ldi	r31, 0x39	; 57
    2784:	ef 2e       	mov	r14, r31
    2786:	f1 e0       	ldi	r31, 0x01	; 1
    2788:	ff 2e       	mov	r15, r31
    278a:	f0 2d       	mov	r31, r0
    278c:	21 e0       	ldi	r18, 0x01	; 1
    278e:	30 e0       	ldi	r19, 0x00	; 0
    2790:	82 e7       	ldi	r24, 0x72	; 114
    2792:	96 e0       	ldi	r25, 0x06	; 6
    2794:	0e 94 cd 20 	call	0x419a	; 0x419a <_ZN4OLED19OLED_Write_To_BuferEiiiiPKh>
    2798:	48 85       	ldd	r20, Y+8	; 0x08
    279a:	59 85       	ldd	r21, Y+9	; 0x09
    279c:	6c 81       	ldd	r22, Y+4	; 0x04
    279e:	7d 81       	ldd	r23, Y+5	; 0x05
    27a0:	68 5f       	subi	r22, 0xF8	; 248
    27a2:	7f 4f       	sbci	r23, 0xFF	; 255
    27a4:	0f 2e       	mov	r0, r31
    27a6:	f9 e4       	ldi	r31, 0x49	; 73
    27a8:	ef 2e       	mov	r14, r31
    27aa:	f1 e0       	ldi	r31, 0x01	; 1
    27ac:	ff 2e       	mov	r15, r31
    27ae:	f0 2d       	mov	r31, r0
    27b0:	21 e0       	ldi	r18, 0x01	; 1
    27b2:	30 e0       	ldi	r19, 0x00	; 0
    27b4:	82 e7       	ldi	r24, 0x72	; 114
    27b6:	96 e0       	ldi	r25, 0x06	; 6
    27b8:	0e 94 cd 20 	call	0x419a	; 0x419a <_ZN4OLED19OLED_Write_To_BuferEiiiiPKh>
    27bc:	48 85       	ldd	r20, Y+8	; 0x08
    27be:	59 85       	ldd	r21, Y+9	; 0x09
    27c0:	6c 81       	ldd	r22, Y+4	; 0x04
    27c2:	7d 81       	ldd	r23, Y+5	; 0x05
    27c4:	60 5f       	subi	r22, 0xF0	; 240
    27c6:	7f 4f       	sbci	r23, 0xFF	; 255
    27c8:	0f 2e       	mov	r0, r31
    27ca:	f9 e8       	ldi	r31, 0x89	; 137
    27cc:	ef 2e       	mov	r14, r31
    27ce:	f1 e0       	ldi	r31, 0x01	; 1
    27d0:	ff 2e       	mov	r15, r31
    27d2:	f0 2d       	mov	r31, r0
    27d4:	21 e0       	ldi	r18, 0x01	; 1
    27d6:	30 e0       	ldi	r19, 0x00	; 0
    27d8:	82 e7       	ldi	r24, 0x72	; 114
    27da:	96 e0       	ldi	r25, 0x06	; 6
    27dc:	0e 94 cd 20 	call	0x419a	; 0x419a <_ZN4OLED19OLED_Write_To_BuferEiiiiPKh>
    27e0:	48 85       	ldd	r20, Y+8	; 0x08
    27e2:	59 85       	ldd	r21, Y+9	; 0x09
    27e4:	6c 81       	ldd	r22, Y+4	; 0x04
    27e6:	7d 81       	ldd	r23, Y+5	; 0x05
    27e8:	68 5e       	subi	r22, 0xE8	; 232
    27ea:	7f 4f       	sbci	r23, 0xFF	; 255
    27ec:	0f 2e       	mov	r0, r31
    27ee:	f1 e3       	ldi	r31, 0x31	; 49
    27f0:	ef 2e       	mov	r14, r31
    27f2:	f1 e0       	ldi	r31, 0x01	; 1
    27f4:	ff 2e       	mov	r15, r31
    27f6:	f0 2d       	mov	r31, r0
    27f8:	21 e0       	ldi	r18, 0x01	; 1
    27fa:	30 e0       	ldi	r19, 0x00	; 0
    27fc:	82 e7       	ldi	r24, 0x72	; 114
    27fe:	96 e0       	ldi	r25, 0x06	; 6
    2800:	0e 94 cd 20 	call	0x419a	; 0x419a <_ZN4OLED19OLED_Write_To_BuferEiiiiPKh>
    2804:	48 85       	ldd	r20, Y+8	; 0x08
    2806:	59 85       	ldd	r21, Y+9	; 0x09
    2808:	6c 81       	ldd	r22, Y+4	; 0x04
    280a:	7d 81       	ldd	r23, Y+5	; 0x05
    280c:	60 5e       	subi	r22, 0xE0	; 224
    280e:	7f 4f       	sbci	r23, 0xFF	; 255
    2810:	0f 2e       	mov	r0, r31
    2812:	f9 e1       	ldi	r31, 0x19	; 25
    2814:	ef 2e       	mov	r14, r31
    2816:	f1 e0       	ldi	r31, 0x01	; 1
    2818:	ff 2e       	mov	r15, r31
    281a:	f0 2d       	mov	r31, r0
    281c:	21 e0       	ldi	r18, 0x01	; 1
    281e:	30 e0       	ldi	r19, 0x00	; 0
    2820:	82 e7       	ldi	r24, 0x72	; 114
    2822:	96 e0       	ldi	r25, 0x06	; 6
    2824:	0e 94 cd 20 	call	0x419a	; 0x419a <_ZN4OLED19OLED_Write_To_BuferEiiiiPKh>
    2828:	48 85       	ldd	r20, Y+8	; 0x08
    282a:	59 85       	ldd	r21, Y+9	; 0x09
    282c:	6c 81       	ldd	r22, Y+4	; 0x04
    282e:	7d 81       	ldd	r23, Y+5	; 0x05
    2830:	68 5d       	subi	r22, 0xD8	; 216
    2832:	7f 4f       	sbci	r23, 0xFF	; 255
    2834:	0f 2e       	mov	r0, r31
    2836:	f1 eb       	ldi	r31, 0xB1	; 177
    2838:	ef 2e       	mov	r14, r31
    283a:	f1 e0       	ldi	r31, 0x01	; 1
    283c:	ff 2e       	mov	r15, r31
    283e:	f0 2d       	mov	r31, r0
    2840:	21 e0       	ldi	r18, 0x01	; 1
    2842:	30 e0       	ldi	r19, 0x00	; 0
    2844:	82 e7       	ldi	r24, 0x72	; 114
    2846:	96 e0       	ldi	r25, 0x06	; 6
    2848:	0e 94 cd 20 	call	0x419a	; 0x419a <_ZN4OLED19OLED_Write_To_BuferEiiiiPKh>
    284c:	48 85       	ldd	r20, Y+8	; 0x08
    284e:	59 85       	ldd	r21, Y+9	; 0x09
    2850:	6c 81       	ldd	r22, Y+4	; 0x04
    2852:	7d 81       	ldd	r23, Y+5	; 0x05
    2854:	60 5d       	subi	r22, 0xD0	; 208
    2856:	7f 4f       	sbci	r23, 0xFF	; 255
    2858:	0f 2e       	mov	r0, r31
    285a:	f1 e4       	ldi	r31, 0x41	; 65
    285c:	ef 2e       	mov	r14, r31
    285e:	f1 e0       	ldi	r31, 0x01	; 1
    2860:	ff 2e       	mov	r15, r31
    2862:	f0 2d       	mov	r31, r0
    2864:	21 e0       	ldi	r18, 0x01	; 1
    2866:	30 e0       	ldi	r19, 0x00	; 0
    2868:	82 e7       	ldi	r24, 0x72	; 114
    286a:	96 e0       	ldi	r25, 0x06	; 6
    286c:	0e 94 cd 20 	call	0x419a	; 0x419a <_ZN4OLED19OLED_Write_To_BuferEiiiiPKh>
    2870:	48 85       	ldd	r20, Y+8	; 0x08
    2872:	59 85       	ldd	r21, Y+9	; 0x09
    2874:	6c 81       	ldd	r22, Y+4	; 0x04
    2876:	7d 81       	ldd	r23, Y+5	; 0x05
    2878:	68 5c       	subi	r22, 0xC8	; 200
    287a:	7f 4f       	sbci	r23, 0xFF	; 255
    287c:	0f 2e       	mov	r0, r31
    287e:	f1 e9       	ldi	r31, 0x91	; 145
    2880:	ef 2e       	mov	r14, r31
    2882:	f1 e0       	ldi	r31, 0x01	; 1
    2884:	ff 2e       	mov	r15, r31
    2886:	f0 2d       	mov	r31, r0
    2888:	21 e0       	ldi	r18, 0x01	; 1
    288a:	30 e0       	ldi	r19, 0x00	; 0
    288c:	82 e7       	ldi	r24, 0x72	; 114
    288e:	96 e0       	ldi	r25, 0x06	; 6
    2890:	0e 94 cd 20 	call	0x419a	; 0x419a <_ZN4OLED19OLED_Write_To_BuferEiiiiPKh>
    2894:	48 85       	ldd	r20, Y+8	; 0x08
    2896:	59 85       	ldd	r21, Y+9	; 0x09
    2898:	6c 81       	ldd	r22, Y+4	; 0x04
    289a:	7d 81       	ldd	r23, Y+5	; 0x05
    289c:	68 5b       	subi	r22, 0xB8	; 184
    289e:	7f 4f       	sbci	r23, 0xFF	; 255
    28a0:	0f 2e       	mov	r0, r31
    28a2:	f1 e2       	ldi	r31, 0x21	; 33
    28a4:	ef 2e       	mov	r14, r31
    28a6:	f1 e0       	ldi	r31, 0x01	; 1
    28a8:	ff 2e       	mov	r15, r31
    28aa:	f0 2d       	mov	r31, r0
    28ac:	21 e0       	ldi	r18, 0x01	; 1
    28ae:	30 e0       	ldi	r19, 0x00	; 0
    28b0:	82 e7       	ldi	r24, 0x72	; 114
    28b2:	96 e0       	ldi	r25, 0x06	; 6
    28b4:	0e 94 cd 20 	call	0x419a	; 0x419a <_ZN4OLED19OLED_Write_To_BuferEiiiiPKh>
    28b8:	48 85       	ldd	r20, Y+8	; 0x08
    28ba:	59 85       	ldd	r21, Y+9	; 0x09
    28bc:	6c 81       	ldd	r22, Y+4	; 0x04
    28be:	7d 81       	ldd	r23, Y+5	; 0x05
    28c0:	60 5b       	subi	r22, 0xB0	; 176
    28c2:	7f 4f       	sbci	r23, 0xFF	; 255
    28c4:	0f 2e       	mov	r0, r31
    28c6:	f1 e9       	ldi	r31, 0x91	; 145
    28c8:	ef 2e       	mov	r14, r31
    28ca:	f1 e0       	ldi	r31, 0x01	; 1
    28cc:	ff 2e       	mov	r15, r31
    28ce:	f0 2d       	mov	r31, r0
    28d0:	21 e0       	ldi	r18, 0x01	; 1
    28d2:	30 e0       	ldi	r19, 0x00	; 0
    28d4:	82 e7       	ldi	r24, 0x72	; 114
    28d6:	96 e0       	ldi	r25, 0x06	; 6
    28d8:	0e 94 cd 20 	call	0x419a	; 0x419a <_ZN4OLED19OLED_Write_To_BuferEiiiiPKh>
    28dc:	48 85       	ldd	r20, Y+8	; 0x08
    28de:	59 85       	ldd	r21, Y+9	; 0x09
    28e0:	6c 81       	ldd	r22, Y+4	; 0x04
    28e2:	7d 81       	ldd	r23, Y+5	; 0x05
    28e4:	68 5a       	subi	r22, 0xA8	; 168
    28e6:	7f 4f       	sbci	r23, 0xFF	; 255
    28e8:	0f 2e       	mov	r0, r31
    28ea:	f1 e4       	ldi	r31, 0x41	; 65
    28ec:	ef 2e       	mov	r14, r31
    28ee:	f1 e0       	ldi	r31, 0x01	; 1
    28f0:	ff 2e       	mov	r15, r31
    28f2:	f0 2d       	mov	r31, r0
    28f4:	21 e0       	ldi	r18, 0x01	; 1
    28f6:	30 e0       	ldi	r19, 0x00	; 0
    28f8:	82 e7       	ldi	r24, 0x72	; 114
    28fa:	96 e0       	ldi	r25, 0x06	; 6
    28fc:	0e 94 cd 20 	call	0x419a	; 0x419a <_ZN4OLED19OLED_Write_To_BuferEiiiiPKh>
    2900:	48 85       	ldd	r20, Y+8	; 0x08
    2902:	59 85       	ldd	r21, Y+9	; 0x09
    2904:	6c 81       	ldd	r22, Y+4	; 0x04
    2906:	7d 81       	ldd	r23, Y+5	; 0x05
    2908:	60 5a       	subi	r22, 0xA0	; 160
    290a:	7f 4f       	sbci	r23, 0xFF	; 255
    290c:	0f 2e       	mov	r0, r31
    290e:	f9 e3       	ldi	r31, 0x39	; 57
    2910:	ef 2e       	mov	r14, r31
    2912:	f1 e0       	ldi	r31, 0x01	; 1
    2914:	ff 2e       	mov	r15, r31
    2916:	f0 2d       	mov	r31, r0
    2918:	21 e0       	ldi	r18, 0x01	; 1
    291a:	30 e0       	ldi	r19, 0x00	; 0
    291c:	82 e7       	ldi	r24, 0x72	; 114
    291e:	96 e0       	ldi	r25, 0x06	; 6
    2920:	0e 94 cd 20 	call	0x419a	; 0x419a <_ZN4OLED19OLED_Write_To_BuferEiiiiPKh>
    2924:	48 85       	ldd	r20, Y+8	; 0x08
    2926:	59 85       	ldd	r21, Y+9	; 0x09
    2928:	6c 81       	ldd	r22, Y+4	; 0x04
    292a:	7d 81       	ldd	r23, Y+5	; 0x05
    292c:	68 59       	subi	r22, 0x98	; 152
    292e:	7f 4f       	sbci	r23, 0xFF	; 255
    2930:	0f 2e       	mov	r0, r31
    2932:	f1 e7       	ldi	r31, 0x71	; 113
    2934:	ef 2e       	mov	r14, r31
    2936:	f1 e0       	ldi	r31, 0x01	; 1
    2938:	ff 2e       	mov	r15, r31
    293a:	f0 2d       	mov	r31, r0
    293c:	21 e0       	ldi	r18, 0x01	; 1
    293e:	30 e0       	ldi	r19, 0x00	; 0
    2940:	82 e7       	ldi	r24, 0x72	; 114
    2942:	96 e0       	ldi	r25, 0x06	; 6
    2944:	0e 94 cd 20 	call	0x419a	; 0x419a <_ZN4OLED19OLED_Write_To_BuferEiiiiPKh>
    2948:	48 85       	ldd	r20, Y+8	; 0x08
    294a:	59 85       	ldd	r21, Y+9	; 0x09
    294c:	6c 81       	ldd	r22, Y+4	; 0x04
    294e:	7d 81       	ldd	r23, Y+5	; 0x05
    2950:	60 59       	subi	r22, 0x90	; 144
    2952:	7f 4f       	sbci	r23, 0xFF	; 255
    2954:	0f 2e       	mov	r0, r31
    2956:	f9 e4       	ldi	r31, 0x49	; 73
    2958:	ef 2e       	mov	r14, r31
    295a:	f1 e0       	ldi	r31, 0x01	; 1
    295c:	ff 2e       	mov	r15, r31
    295e:	f0 2d       	mov	r31, r0
    2960:	21 e0       	ldi	r18, 0x01	; 1
    2962:	30 e0       	ldi	r19, 0x00	; 0
    2964:	82 e7       	ldi	r24, 0x72	; 114
    2966:	96 e0       	ldi	r25, 0x06	; 6
    2968:	0e 94 cd 20 	call	0x419a	; 0x419a <_ZN4OLED19OLED_Write_To_BuferEiiiiPKh>
    296c:	48 85       	ldd	r20, Y+8	; 0x08
    296e:	59 85       	ldd	r21, Y+9	; 0x09
    2970:	6c 81       	ldd	r22, Y+4	; 0x04
    2972:	7d 81       	ldd	r23, Y+5	; 0x05
    2974:	68 58       	subi	r22, 0x88	; 136
    2976:	7f 4f       	sbci	r23, 0xFF	; 255
    2978:	0f 2e       	mov	r0, r31
    297a:	f1 e5       	ldi	r31, 0x51	; 81
    297c:	ef 2e       	mov	r14, r31
    297e:	f1 e0       	ldi	r31, 0x01	; 1
    2980:	ff 2e       	mov	r15, r31
    2982:	f0 2d       	mov	r31, r0
    2984:	21 e0       	ldi	r18, 0x01	; 1
    2986:	30 e0       	ldi	r19, 0x00	; 0
    2988:	82 e7       	ldi	r24, 0x72	; 114
    298a:	96 e0       	ldi	r25, 0x06	; 6
    298c:	0e 94 cd 20 	call	0x419a	; 0x419a <_ZN4OLED19OLED_Write_To_BuferEiiiiPKh>
    2990:	48 85       	ldd	r20, Y+8	; 0x08
    2992:	59 85       	ldd	r21, Y+9	; 0x09
    2994:	4f 5f       	subi	r20, 0xFF	; 255
    2996:	5f 4f       	sbci	r21, 0xFF	; 255
    2998:	20 e1       	ldi	r18, 0x10	; 16
    299a:	30 e0       	ldi	r19, 0x00	; 0
    299c:	60 e0       	ldi	r22, 0x00	; 0
    299e:	70 e0       	ldi	r23, 0x00	; 0
    29a0:	82 e7       	ldi	r24, 0x72	; 114
    29a2:	96 e0       	ldi	r25, 0x06	; 6
    29a4:	0e 94 7e 20 	call	0x40fc	; 0x40fc <_ZN4OLED21OLED_Clear_Bufer_partEiiii>
    29a8:	48 85       	ldd	r20, Y+8	; 0x08
    29aa:	59 85       	ldd	r21, Y+9	; 0x09
    29ac:	4f 5f       	subi	r20, 0xFF	; 255
    29ae:	5f 4f       	sbci	r21, 0xFF	; 255
    29b0:	6e 81       	ldd	r22, Y+6	; 0x06
    29b2:	7f 81       	ldd	r23, Y+7	; 0x07
    29b4:	0f 2e       	mov	r0, r31
    29b6:	f1 e3       	ldi	r31, 0x31	; 49
    29b8:	ef 2e       	mov	r14, r31
    29ba:	f5 e0       	ldi	r31, 0x05	; 5
    29bc:	ff 2e       	mov	r15, r31
    29be:	f0 2d       	mov	r31, r0
    29c0:	21 e0       	ldi	r18, 0x01	; 1
    29c2:	30 e0       	ldi	r19, 0x00	; 0
    29c4:	82 e7       	ldi	r24, 0x72	; 114
    29c6:	96 e0       	ldi	r25, 0x06	; 6
    29c8:	0e 94 cd 20 	call	0x419a	; 0x419a <_ZN4OLED19OLED_Write_To_BuferEiiiiPKh>
    29cc:	48 85       	ldd	r20, Y+8	; 0x08
    29ce:	59 85       	ldd	r21, Y+9	; 0x09
    29d0:	4f 5f       	subi	r20, 0xFF	; 255
    29d2:	5f 4f       	sbci	r21, 0xFF	; 255
    29d4:	6e 81       	ldd	r22, Y+6	; 0x06
    29d6:	7f 81       	ldd	r23, Y+7	; 0x07
    29d8:	68 5f       	subi	r22, 0xF8	; 248
    29da:	7f 4f       	sbci	r23, 0xFF	; 255
    29dc:	0f 2e       	mov	r0, r31
    29de:	f9 e2       	ldi	r31, 0x29	; 41
    29e0:	ef 2e       	mov	r14, r31
    29e2:	f5 e0       	ldi	r31, 0x05	; 5
    29e4:	ff 2e       	mov	r15, r31
    29e6:	f0 2d       	mov	r31, r0
    29e8:	21 e0       	ldi	r18, 0x01	; 1
    29ea:	30 e0       	ldi	r19, 0x00	; 0
    29ec:	82 e7       	ldi	r24, 0x72	; 114
    29ee:	96 e0       	ldi	r25, 0x06	; 6
    29f0:	0e 94 cd 20 	call	0x419a	; 0x419a <_ZN4OLED19OLED_Write_To_BuferEiiiiPKh>
    29f4:	48 85       	ldd	r20, Y+8	; 0x08
    29f6:	59 85       	ldd	r21, Y+9	; 0x09
    29f8:	4f 5f       	subi	r20, 0xFF	; 255
    29fa:	5f 4f       	sbci	r21, 0xFF	; 255
    29fc:	6e 81       	ldd	r22, Y+6	; 0x06
    29fe:	7f 81       	ldd	r23, Y+7	; 0x07
    2a00:	68 5e       	subi	r22, 0xE8	; 232
    2a02:	7f 4f       	sbci	r23, 0xFF	; 255
    2a04:	0f 2e       	mov	r0, r31
    2a06:	f9 ea       	ldi	r31, 0xA9	; 169
    2a08:	ef 2e       	mov	r14, r31
    2a0a:	f1 e0       	ldi	r31, 0x01	; 1
    2a0c:	ff 2e       	mov	r15, r31
    2a0e:	f0 2d       	mov	r31, r0
    2a10:	21 e0       	ldi	r18, 0x01	; 1
    2a12:	30 e0       	ldi	r19, 0x00	; 0
    2a14:	82 e7       	ldi	r24, 0x72	; 114
    2a16:	96 e0       	ldi	r25, 0x06	; 6
    2a18:	0e 94 cd 20 	call	0x419a	; 0x419a <_ZN4OLED19OLED_Write_To_BuferEiiiiPKh>
    2a1c:	48 85       	ldd	r20, Y+8	; 0x08
    2a1e:	59 85       	ldd	r21, Y+9	; 0x09
    2a20:	4f 5f       	subi	r20, 0xFF	; 255
    2a22:	5f 4f       	sbci	r21, 0xFF	; 255
    2a24:	6e 81       	ldd	r22, Y+6	; 0x06
    2a26:	7f 81       	ldd	r23, Y+7	; 0x07
    2a28:	60 5e       	subi	r22, 0xE0	; 224
    2a2a:	7f 4f       	sbci	r23, 0xFF	; 255
    2a2c:	0f 2e       	mov	r0, r31
    2a2e:	f1 e9       	ldi	r31, 0x91	; 145
    2a30:	ef 2e       	mov	r14, r31
    2a32:	f1 e0       	ldi	r31, 0x01	; 1
    2a34:	ff 2e       	mov	r15, r31
    2a36:	f0 2d       	mov	r31, r0
    2a38:	21 e0       	ldi	r18, 0x01	; 1
    2a3a:	30 e0       	ldi	r19, 0x00	; 0
    2a3c:	82 e7       	ldi	r24, 0x72	; 114
    2a3e:	96 e0       	ldi	r25, 0x06	; 6
    2a40:	0e 94 cd 20 	call	0x419a	; 0x419a <_ZN4OLED19OLED_Write_To_BuferEiiiiPKh>
    2a44:	48 85       	ldd	r20, Y+8	; 0x08
    2a46:	59 85       	ldd	r21, Y+9	; 0x09
    2a48:	4f 5f       	subi	r20, 0xFF	; 255
    2a4a:	5f 4f       	sbci	r21, 0xFF	; 255
    2a4c:	6e 81       	ldd	r22, Y+6	; 0x06
    2a4e:	7f 81       	ldd	r23, Y+7	; 0x07
    2a50:	68 5d       	subi	r22, 0xD8	; 216
    2a52:	7f 4f       	sbci	r23, 0xFF	; 255
    2a54:	0f 2e       	mov	r0, r31
    2a56:	f1 e3       	ldi	r31, 0x31	; 49
    2a58:	ef 2e       	mov	r14, r31
    2a5a:	f1 e0       	ldi	r31, 0x01	; 1
    2a5c:	ff 2e       	mov	r15, r31
    2a5e:	f0 2d       	mov	r31, r0
    2a60:	21 e0       	ldi	r18, 0x01	; 1
    2a62:	30 e0       	ldi	r19, 0x00	; 0
    2a64:	82 e7       	ldi	r24, 0x72	; 114
    2a66:	96 e0       	ldi	r25, 0x06	; 6
    2a68:	0e 94 cd 20 	call	0x419a	; 0x419a <_ZN4OLED19OLED_Write_To_BuferEiiiiPKh>
    2a6c:	48 85       	ldd	r20, Y+8	; 0x08
    2a6e:	59 85       	ldd	r21, Y+9	; 0x09
    2a70:	4f 5f       	subi	r20, 0xFF	; 255
    2a72:	5f 4f       	sbci	r21, 0xFF	; 255
    2a74:	6e 81       	ldd	r22, Y+6	; 0x06
    2a76:	7f 81       	ldd	r23, Y+7	; 0x07
    2a78:	60 5d       	subi	r22, 0xD0	; 208
    2a7a:	7f 4f       	sbci	r23, 0xFF	; 255
    2a7c:	0f 2e       	mov	r0, r31
    2a7e:	f1 eb       	ldi	r31, 0xB1	; 177
    2a80:	ef 2e       	mov	r14, r31
    2a82:	f1 e0       	ldi	r31, 0x01	; 1
    2a84:	ff 2e       	mov	r15, r31
    2a86:	f0 2d       	mov	r31, r0
    2a88:	21 e0       	ldi	r18, 0x01	; 1
    2a8a:	30 e0       	ldi	r19, 0x00	; 0
    2a8c:	82 e7       	ldi	r24, 0x72	; 114
    2a8e:	96 e0       	ldi	r25, 0x06	; 6
    2a90:	0e 94 cd 20 	call	0x419a	; 0x419a <_ZN4OLED19OLED_Write_To_BuferEiiiiPKh>
    2a94:	df 91       	pop	r29
    2a96:	cf 91       	pop	r28
    2a98:	1f 91       	pop	r17
    2a9a:	0f 91       	pop	r16
    2a9c:	ff 90       	pop	r15
    2a9e:	ef 90       	pop	r14
    2aa0:	08 95       	ret

00002aa2 <_ZN9Info_menu6choiseEv>:
    2aa2:	dc 01       	movw	r26, r24
    2aa4:	14 96       	adiw	r26, 0x04	; 4
    2aa6:	2d 91       	ld	r18, X+
    2aa8:	3c 91       	ld	r19, X
    2aaa:	15 97       	sbiw	r26, 0x05	; 5
    2aac:	21 30       	cpi	r18, 0x01	; 1
    2aae:	31 05       	cpc	r19, r1
    2ab0:	79 f0       	breq	.+30     	; 0x2ad0 <_ZN9Info_menu6choiseEv+0x2e>
    2ab2:	22 30       	cpi	r18, 0x02	; 2
    2ab4:	31 05       	cpc	r19, r1
    2ab6:	b1 f0       	breq	.+44     	; 0x2ae4 <_ZN9Info_menu6choiseEv+0x42>
    2ab8:	23 2b       	or	r18, r19
    2aba:	d9 f4       	brne	.+54     	; 0x2af2 <_ZN9Info_menu6choiseEv+0x50>
    2abc:	10 92 6f 06 	sts	0x066F, r1	; 0x80066f <Info_Menu_Status>
    2ac0:	81 e0       	ldi	r24, 0x01	; 1
    2ac2:	80 93 6d 06 	sts	0x066D, r24	; 0x80066d <Device_Info_Status>
    2ac6:	82 e7       	ldi	r24, 0x72	; 114
    2ac8:	96 e0       	ldi	r25, 0x06	; 6
    2aca:	0c 94 ed 1f 	jmp	0x3fda	; 0x3fda <_ZN4OLED16OLED_Bufer_ClearEv>
    2ace:	08 95       	ret
    2ad0:	10 92 6f 06 	sts	0x066F, r1	; 0x80066f <Info_Menu_Status>
    2ad4:	81 e0       	ldi	r24, 0x01	; 1
    2ad6:	80 93 6e 06 	sts	0x066E, r24	; 0x80066e <User_Info_Status>
    2ada:	82 e7       	ldi	r24, 0x72	; 114
    2adc:	96 e0       	ldi	r25, 0x06	; 6
    2ade:	0c 94 ed 1f 	jmp	0x3fda	; 0x3fda <_ZN4OLED16OLED_Bufer_ClearEv>
    2ae2:	08 95       	ret
    2ae4:	dc 01       	movw	r26, r24
    2ae6:	ed 91       	ld	r30, X+
    2ae8:	fc 91       	ld	r31, X
    2aea:	04 84       	ldd	r0, Z+12	; 0x0c
    2aec:	f5 85       	ldd	r31, Z+13	; 0x0d
    2aee:	e0 2d       	mov	r30, r0
    2af0:	09 95       	icall
    2af2:	08 95       	ret

00002af4 <_ZN9User_Info5closeEv>:
    2af4:	fc 01       	movw	r30, r24
    2af6:	15 82       	std	Z+5, r1	; 0x05
    2af8:	14 82       	std	Z+4, r1	; 0x04
    2afa:	10 92 6e 06 	sts	0x066E, r1	; 0x80066e <User_Info_Status>
    2afe:	81 e0       	ldi	r24, 0x01	; 1
    2b00:	80 93 6f 06 	sts	0x066F, r24	; 0x80066f <Info_Menu_Status>
    2b04:	82 e7       	ldi	r24, 0x72	; 114
    2b06:	96 e0       	ldi	r25, 0x06	; 6
    2b08:	0c 94 ed 1f 	jmp	0x3fda	; 0x3fda <_ZN4OLED16OLED_Bufer_ClearEv>
    2b0c:	08 95       	ret

00002b0e <_ZN11Device_info5closeEv>:
    2b0e:	fc 01       	movw	r30, r24
    2b10:	13 82       	std	Z+3, r1	; 0x03
    2b12:	12 82       	std	Z+2, r1	; 0x02
    2b14:	10 92 6d 06 	sts	0x066D, r1	; 0x80066d <Device_Info_Status>
    2b18:	81 e0       	ldi	r24, 0x01	; 1
    2b1a:	80 93 6f 06 	sts	0x066F, r24	; 0x80066f <Info_Menu_Status>
    2b1e:	82 e7       	ldi	r24, 0x72	; 114
    2b20:	96 e0       	ldi	r25, 0x06	; 6
    2b22:	0c 94 ed 1f 	jmp	0x3fda	; 0x3fda <_ZN4OLED16OLED_Bufer_ClearEv>
    2b26:	08 95       	ret

00002b28 <_ZN9Info_menu5closeEv>:
    2b28:	fc 01       	movw	r30, r24
    2b2a:	15 82       	std	Z+5, r1	; 0x05
    2b2c:	14 82       	std	Z+4, r1	; 0x04
    2b2e:	10 92 6f 06 	sts	0x066F, r1	; 0x80066f <Info_Menu_Status>
    2b32:	81 e0       	ldi	r24, 0x01	; 1
    2b34:	80 93 00 01 	sts	0x0100, r24	; 0x800100 <Main_Menu_Status>
    2b38:	82 e7       	ldi	r24, 0x72	; 114
    2b3a:	96 e0       	ldi	r25, 0x06	; 6
    2b3c:	0c 94 ed 1f 	jmp	0x3fda	; 0x3fda <_ZN4OLED16OLED_Bufer_ClearEv>
    2b40:	08 95       	ret

00002b42 <_ZN13Settings_Menu5closeEv>:
    2b42:	fc 01       	movw	r30, r24
    2b44:	15 82       	std	Z+5, r1	; 0x05
    2b46:	14 82       	std	Z+4, r1	; 0x04
    2b48:	10 92 70 06 	sts	0x0670, r1	; 0x800670 <Settings_Menu_Status>
    2b4c:	81 e0       	ldi	r24, 0x01	; 1
    2b4e:	80 93 00 01 	sts	0x0100, r24	; 0x800100 <Main_Menu_Status>
    2b52:	82 e7       	ldi	r24, 0x72	; 114
    2b54:	96 e0       	ldi	r25, 0x06	; 6
    2b56:	0c 94 ed 1f 	jmp	0x3fda	; 0x3fda <_ZN4OLED16OLED_Bufer_ClearEv>
    2b5a:	08 95       	ret

00002b5c <_ZN13Password_Menu5closeEv>:
    2b5c:	fc 01       	movw	r30, r24
    2b5e:	15 82       	std	Z+5, r1	; 0x05
    2b60:	14 82       	std	Z+4, r1	; 0x04
    2b62:	10 92 71 06 	sts	0x0671, r1	; 0x800671 <Password_Menu_Status>
    2b66:	81 e0       	ldi	r24, 0x01	; 1
    2b68:	80 93 00 01 	sts	0x0100, r24	; 0x800100 <Main_Menu_Status>
    2b6c:	82 e7       	ldi	r24, 0x72	; 114
    2b6e:	96 e0       	ldi	r25, 0x06	; 6
    2b70:	0c 94 ed 1f 	jmp	0x3fda	; 0x3fda <_ZN4OLED16OLED_Bufer_ClearEv>
    2b74:	08 95       	ret

00002b76 <_ZN9Main_Menu5closeEv>:
    2b76:	82 e7       	ldi	r24, 0x72	; 114
    2b78:	96 e0       	ldi	r25, 0x06	; 6
    2b7a:	0c 94 ed 1f 	jmp	0x3fda	; 0x3fda <_ZN4OLED16OLED_Bufer_ClearEv>
    2b7e:	08 95       	ret

00002b80 <__vector_4>:
    2b80:	1f 92       	push	r1
    2b82:	0f 92       	push	r0
    2b84:	0f b6       	in	r0, 0x3f	; 63
    2b86:	0f 92       	push	r0
    2b88:	11 24       	eor	r1, r1
    2b8a:	0b b6       	in	r0, 0x3b	; 59
    2b8c:	0f 92       	push	r0
    2b8e:	ef 92       	push	r14
    2b90:	ff 92       	push	r15
    2b92:	0f 93       	push	r16
    2b94:	1f 93       	push	r17
    2b96:	2f 93       	push	r18
    2b98:	3f 93       	push	r19
    2b9a:	4f 93       	push	r20
    2b9c:	5f 93       	push	r21
    2b9e:	6f 93       	push	r22
    2ba0:	7f 93       	push	r23
    2ba2:	8f 93       	push	r24
    2ba4:	9f 93       	push	r25
    2ba6:	af 93       	push	r26
    2ba8:	bf 93       	push	r27
    2baa:	ef 93       	push	r30
    2bac:	ff 93       	push	r31
    2bae:	f8 94       	cli
    2bb0:	80 b1       	in	r24, 0x00	; 0
    2bb2:	82 fb       	bst	r24, 2
    2bb4:	99 27       	eor	r25, r25
    2bb6:	90 f9       	bld	r25, 0
    2bb8:	81 e0       	ldi	r24, 0x01	; 1
    2bba:	89 27       	eor	r24, r25
    2bbc:	90 91 19 06 	lds	r25, 0x0619	; 0x800619 <btn2>
    2bc0:	98 17       	cp	r25, r24
    2bc2:	f8 f4       	brcc	.+62     	; 0x2c02 <__vector_4+0x82>
    2bc4:	08 e0       	ldi	r16, 0x08	; 8
    2bc6:	10 e0       	ldi	r17, 0x00	; 0
    2bc8:	21 e0       	ldi	r18, 0x01	; 1
    2bca:	30 e0       	ldi	r19, 0x00	; 0
    2bcc:	40 e0       	ldi	r20, 0x00	; 0
    2bce:	50 e0       	ldi	r21, 0x00	; 0
    2bd0:	60 e0       	ldi	r22, 0x00	; 0
    2bd2:	70 e0       	ldi	r23, 0x00	; 0
    2bd4:	82 e7       	ldi	r24, 0x72	; 114
    2bd6:	96 e0       	ldi	r25, 0x06	; 6
    2bd8:	0e 94 7e 20 	call	0x40fc	; 0x40fc <_ZN4OLED21OLED_Clear_Bufer_partEiiii>
    2bdc:	0f 2e       	mov	r0, r31
    2bde:	f9 e2       	ldi	r31, 0x29	; 41
    2be0:	ef 2e       	mov	r14, r31
    2be2:	f5 e0       	ldi	r31, 0x05	; 5
    2be4:	ff 2e       	mov	r15, r31
    2be6:	f0 2d       	mov	r31, r0
    2be8:	21 e0       	ldi	r18, 0x01	; 1
    2bea:	30 e0       	ldi	r19, 0x00	; 0
    2bec:	40 e0       	ldi	r20, 0x00	; 0
    2bee:	50 e0       	ldi	r21, 0x00	; 0
    2bf0:	60 e0       	ldi	r22, 0x00	; 0
    2bf2:	70 e0       	ldi	r23, 0x00	; 0
    2bf4:	82 e7       	ldi	r24, 0x72	; 114
    2bf6:	96 e0       	ldi	r25, 0x06	; 6
    2bf8:	0e 94 cd 20 	call	0x419a	; 0x419a <_ZN4OLED19OLED_Write_To_BuferEiiiiPKh>
    2bfc:	81 e0       	ldi	r24, 0x01	; 1
    2bfe:	80 93 19 06 	sts	0x0619, r24	; 0x800619 <btn2>
    2c02:	80 b1       	in	r24, 0x00	; 0
    2c04:	83 fb       	bst	r24, 3
    2c06:	99 27       	eor	r25, r25
    2c08:	90 f9       	bld	r25, 0
    2c0a:	81 e0       	ldi	r24, 0x01	; 1
    2c0c:	89 27       	eor	r24, r25
    2c0e:	90 91 18 06 	lds	r25, 0x0618	; 0x800618 <btn3>
    2c12:	98 17       	cp	r25, r24
    2c14:	f8 f4       	brcc	.+62     	; 0x2c54 <__vector_4+0xd4>
    2c16:	08 e0       	ldi	r16, 0x08	; 8
    2c18:	10 e0       	ldi	r17, 0x00	; 0
    2c1a:	21 e0       	ldi	r18, 0x01	; 1
    2c1c:	30 e0       	ldi	r19, 0x00	; 0
    2c1e:	40 e0       	ldi	r20, 0x00	; 0
    2c20:	50 e0       	ldi	r21, 0x00	; 0
    2c22:	60 e0       	ldi	r22, 0x00	; 0
    2c24:	70 e0       	ldi	r23, 0x00	; 0
    2c26:	82 e7       	ldi	r24, 0x72	; 114
    2c28:	96 e0       	ldi	r25, 0x06	; 6
    2c2a:	0e 94 7e 20 	call	0x40fc	; 0x40fc <_ZN4OLED21OLED_Clear_Bufer_partEiiii>
    2c2e:	0f 2e       	mov	r0, r31
    2c30:	f1 e2       	ldi	r31, 0x21	; 33
    2c32:	ef 2e       	mov	r14, r31
    2c34:	f5 e0       	ldi	r31, 0x05	; 5
    2c36:	ff 2e       	mov	r15, r31
    2c38:	f0 2d       	mov	r31, r0
    2c3a:	21 e0       	ldi	r18, 0x01	; 1
    2c3c:	30 e0       	ldi	r19, 0x00	; 0
    2c3e:	40 e0       	ldi	r20, 0x00	; 0
    2c40:	50 e0       	ldi	r21, 0x00	; 0
    2c42:	60 e0       	ldi	r22, 0x00	; 0
    2c44:	70 e0       	ldi	r23, 0x00	; 0
    2c46:	82 e7       	ldi	r24, 0x72	; 114
    2c48:	96 e0       	ldi	r25, 0x06	; 6
    2c4a:	0e 94 cd 20 	call	0x419a	; 0x419a <_ZN4OLED19OLED_Write_To_BuferEiiiiPKh>
    2c4e:	81 e0       	ldi	r24, 0x01	; 1
    2c50:	80 93 18 06 	sts	0x0618, r24	; 0x800618 <btn3>
    2c54:	80 b1       	in	r24, 0x00	; 0
    2c56:	82 95       	swap	r24
    2c58:	81 70       	andi	r24, 0x01	; 1
    2c5a:	91 e0       	ldi	r25, 0x01	; 1
    2c5c:	89 27       	eor	r24, r25
    2c5e:	90 91 1b 06 	lds	r25, 0x061B	; 0x80061b <btn0>
    2c62:	98 17       	cp	r25, r24
    2c64:	f8 f4       	brcc	.+62     	; 0x2ca4 <__vector_4+0x124>
    2c66:	08 e0       	ldi	r16, 0x08	; 8
    2c68:	10 e0       	ldi	r17, 0x00	; 0
    2c6a:	21 e0       	ldi	r18, 0x01	; 1
    2c6c:	30 e0       	ldi	r19, 0x00	; 0
    2c6e:	40 e0       	ldi	r20, 0x00	; 0
    2c70:	50 e0       	ldi	r21, 0x00	; 0
    2c72:	60 e0       	ldi	r22, 0x00	; 0
    2c74:	70 e0       	ldi	r23, 0x00	; 0
    2c76:	82 e7       	ldi	r24, 0x72	; 114
    2c78:	96 e0       	ldi	r25, 0x06	; 6
    2c7a:	0e 94 7e 20 	call	0x40fc	; 0x40fc <_ZN4OLED21OLED_Clear_Bufer_partEiiii>
    2c7e:	0f 2e       	mov	r0, r31
    2c80:	f9 e1       	ldi	r31, 0x19	; 25
    2c82:	ef 2e       	mov	r14, r31
    2c84:	f5 e0       	ldi	r31, 0x05	; 5
    2c86:	ff 2e       	mov	r15, r31
    2c88:	f0 2d       	mov	r31, r0
    2c8a:	21 e0       	ldi	r18, 0x01	; 1
    2c8c:	30 e0       	ldi	r19, 0x00	; 0
    2c8e:	40 e0       	ldi	r20, 0x00	; 0
    2c90:	50 e0       	ldi	r21, 0x00	; 0
    2c92:	60 e0       	ldi	r22, 0x00	; 0
    2c94:	70 e0       	ldi	r23, 0x00	; 0
    2c96:	82 e7       	ldi	r24, 0x72	; 114
    2c98:	96 e0       	ldi	r25, 0x06	; 6
    2c9a:	0e 94 cd 20 	call	0x419a	; 0x419a <_ZN4OLED19OLED_Write_To_BuferEiiiiPKh>
    2c9e:	81 e0       	ldi	r24, 0x01	; 1
    2ca0:	80 93 1b 06 	sts	0x061B, r24	; 0x80061b <btn0>
    2ca4:	80 b1       	in	r24, 0x00	; 0
    2ca6:	85 fb       	bst	r24, 5
    2ca8:	99 27       	eor	r25, r25
    2caa:	90 f9       	bld	r25, 0
    2cac:	81 e0       	ldi	r24, 0x01	; 1
    2cae:	89 27       	eor	r24, r25
    2cb0:	90 91 1a 06 	lds	r25, 0x061A	; 0x80061a <btn1>
    2cb4:	98 17       	cp	r25, r24
    2cb6:	f8 f4       	brcc	.+62     	; 0x2cf6 <__vector_4+0x176>
    2cb8:	08 e0       	ldi	r16, 0x08	; 8
    2cba:	10 e0       	ldi	r17, 0x00	; 0
    2cbc:	21 e0       	ldi	r18, 0x01	; 1
    2cbe:	30 e0       	ldi	r19, 0x00	; 0
    2cc0:	40 e0       	ldi	r20, 0x00	; 0
    2cc2:	50 e0       	ldi	r21, 0x00	; 0
    2cc4:	60 e0       	ldi	r22, 0x00	; 0
    2cc6:	70 e0       	ldi	r23, 0x00	; 0
    2cc8:	82 e7       	ldi	r24, 0x72	; 114
    2cca:	96 e0       	ldi	r25, 0x06	; 6
    2ccc:	0e 94 7e 20 	call	0x40fc	; 0x40fc <_ZN4OLED21OLED_Clear_Bufer_partEiiii>
    2cd0:	0f 2e       	mov	r0, r31
    2cd2:	f1 e1       	ldi	r31, 0x11	; 17
    2cd4:	ef 2e       	mov	r14, r31
    2cd6:	f5 e0       	ldi	r31, 0x05	; 5
    2cd8:	ff 2e       	mov	r15, r31
    2cda:	f0 2d       	mov	r31, r0
    2cdc:	21 e0       	ldi	r18, 0x01	; 1
    2cde:	30 e0       	ldi	r19, 0x00	; 0
    2ce0:	40 e0       	ldi	r20, 0x00	; 0
    2ce2:	50 e0       	ldi	r21, 0x00	; 0
    2ce4:	60 e0       	ldi	r22, 0x00	; 0
    2ce6:	70 e0       	ldi	r23, 0x00	; 0
    2ce8:	82 e7       	ldi	r24, 0x72	; 114
    2cea:	96 e0       	ldi	r25, 0x06	; 6
    2cec:	0e 94 cd 20 	call	0x419a	; 0x419a <_ZN4OLED19OLED_Write_To_BuferEiiiiPKh>
    2cf0:	81 e0       	ldi	r24, 0x01	; 1
    2cf2:	80 93 1a 06 	sts	0x061A, r24	; 0x80061a <btn1>
    2cf6:	2f e9       	ldi	r18, 0x9F	; 159
    2cf8:	86 e8       	ldi	r24, 0x86	; 134
    2cfa:	91 e0       	ldi	r25, 0x01	; 1
    2cfc:	21 50       	subi	r18, 0x01	; 1
    2cfe:	80 40       	sbci	r24, 0x00	; 0
    2d00:	90 40       	sbci	r25, 0x00	; 0
    2d02:	e1 f7       	brne	.-8      	; 0x2cfc <__vector_4+0x17c>
    2d04:	00 c0       	rjmp	.+0      	; 0x2d06 <__vector_4+0x186>
    2d06:	00 00       	nop
    2d08:	78 94       	sei
    2d0a:	ff 91       	pop	r31
    2d0c:	ef 91       	pop	r30
    2d0e:	bf 91       	pop	r27
    2d10:	af 91       	pop	r26
    2d12:	9f 91       	pop	r25
    2d14:	8f 91       	pop	r24
    2d16:	7f 91       	pop	r23
    2d18:	6f 91       	pop	r22
    2d1a:	5f 91       	pop	r21
    2d1c:	4f 91       	pop	r20
    2d1e:	3f 91       	pop	r19
    2d20:	2f 91       	pop	r18
    2d22:	1f 91       	pop	r17
    2d24:	0f 91       	pop	r16
    2d26:	ff 90       	pop	r15
    2d28:	ef 90       	pop	r14
    2d2a:	0f 90       	pop	r0
    2d2c:	0b be       	out	0x3b, r0	; 59
    2d2e:	0f 90       	pop	r0
    2d30:	0f be       	out	0x3f, r0	; 63
    2d32:	0f 90       	pop	r0
    2d34:	1f 90       	pop	r1
    2d36:	18 95       	reti

00002d38 <_Z5checkv>:
    2d38:	af 92       	push	r10
    2d3a:	bf 92       	push	r11
    2d3c:	cf 92       	push	r12
    2d3e:	df 92       	push	r13
    2d40:	ef 92       	push	r14
    2d42:	ff 92       	push	r15
    2d44:	0f 93       	push	r16
    2d46:	1f 93       	push	r17
    2d48:	cf 93       	push	r28
    2d4a:	df 93       	push	r29
    2d4c:	50 91 1b 06 	lds	r21, 0x061B	; 0x80061b <btn0>
    2d50:	90 91 1a 06 	lds	r25, 0x061A	; 0x80061a <btn1>
    2d54:	81 e0       	ldi	r24, 0x01	; 1
    2d56:	39 2f       	mov	r19, r25
    2d58:	38 27       	eor	r19, r24
    2d5a:	20 91 19 06 	lds	r18, 0x0619	; 0x800619 <btn2>
    2d5e:	62 2f       	mov	r22, r18
    2d60:	68 27       	eor	r22, r24
    2d62:	a3 2f       	mov	r26, r19
    2d64:	a6 23       	and	r26, r22
    2d66:	75 2f       	mov	r23, r21
    2d68:	7a 23       	and	r23, r26
    2d6a:	b0 91 18 06 	lds	r27, 0x0618	; 0x800618 <btn3>
    2d6e:	fb 2f       	mov	r31, r27
    2d70:	f7 23       	and	r31, r23
    2d72:	49 f0       	breq	.+18     	; 0x2d86 <_Z5checkv+0x4e>
    2d74:	80 93 17 06 	sts	0x0617, r24	; 0x800617 <btn03>
    2d78:	58 27       	eor	r21, r24
    2d7a:	8b 27       	eor	r24, r27
    2d7c:	95 23       	and	r25, r21
    2d7e:	92 23       	and	r25, r18
    2d80:	b9 17       	cp	r27, r25
    2d82:	48 f0       	brcs	.+18     	; 0x2d96 <_Z5checkv+0x5e>
    2d84:	18 c6       	rjmp	.+3120   	; 0x39b6 <_Z5checkv+0xc7e>
    2d86:	81 e0       	ldi	r24, 0x01	; 1
    2d88:	58 27       	eor	r21, r24
    2d8a:	95 23       	and	r25, r21
    2d8c:	8b 27       	eor	r24, r27
    2d8e:	42 2f       	mov	r20, r18
    2d90:	49 23       	and	r20, r25
    2d92:	b4 17       	cp	r27, r20
    2d94:	40 f4       	brcc	.+16     	; 0x2da6 <_Z5checkv+0x6e>
    2d96:	91 e0       	ldi	r25, 0x01	; 1
    2d98:	90 93 16 06 	sts	0x0616, r25	; 0x800616 <btn12>
    2d9c:	f0 91 17 06 	lds	r31, 0x0617	; 0x800617 <btn03>
    2da0:	40 e0       	ldi	r20, 0x00	; 0
    2da2:	e1 e0       	ldi	r30, 0x01	; 1
    2da4:	32 c1       	rjmp	.+612    	; 0x300a <_Z5checkv+0x2d2>
    2da6:	e0 91 16 06 	lds	r30, 0x0616	; 0x800616 <btn12>
    2daa:	41 e0       	ldi	r20, 0x01	; 1
    2dac:	4e 27       	eor	r20, r30
    2dae:	f0 91 17 06 	lds	r31, 0x0617	; 0x800617 <btn03>
    2db2:	c8 2f       	mov	r28, r24
    2db4:	c4 23       	and	r28, r20
    2db6:	7c 23       	and	r23, r28
    2db8:	f7 17       	cp	r31, r23
    2dba:	08 f0       	brcs	.+2      	; 0x2dbe <_Z5checkv+0x86>
    2dbc:	c1 c0       	rjmp	.+386    	; 0x2f40 <_Z5checkv+0x208>
    2dbe:	08 e0       	ldi	r16, 0x08	; 8
    2dc0:	10 e0       	ldi	r17, 0x00	; 0
    2dc2:	21 e0       	ldi	r18, 0x01	; 1
    2dc4:	30 e0       	ldi	r19, 0x00	; 0
    2dc6:	40 e0       	ldi	r20, 0x00	; 0
    2dc8:	50 e0       	ldi	r21, 0x00	; 0
    2dca:	60 e0       	ldi	r22, 0x00	; 0
    2dcc:	70 e0       	ldi	r23, 0x00	; 0
    2dce:	82 e7       	ldi	r24, 0x72	; 114
    2dd0:	96 e0       	ldi	r25, 0x06	; 6
    2dd2:	0e 94 7e 20 	call	0x40fc	; 0x40fc <_ZN4OLED21OLED_Clear_Bufer_partEiiii>
    2dd6:	0f 2e       	mov	r0, r31
    2dd8:	f1 e3       	ldi	r31, 0x31	; 49
    2dda:	ef 2e       	mov	r14, r31
    2ddc:	f5 e0       	ldi	r31, 0x05	; 5
    2dde:	ff 2e       	mov	r15, r31
    2de0:	f0 2d       	mov	r31, r0
    2de2:	21 e0       	ldi	r18, 0x01	; 1
    2de4:	30 e0       	ldi	r19, 0x00	; 0
    2de6:	40 e0       	ldi	r20, 0x00	; 0
    2de8:	50 e0       	ldi	r21, 0x00	; 0
    2dea:	60 e0       	ldi	r22, 0x00	; 0
    2dec:	70 e0       	ldi	r23, 0x00	; 0
    2dee:	82 e7       	ldi	r24, 0x72	; 114
    2df0:	96 e0       	ldi	r25, 0x06	; 6
    2df2:	0e 94 cd 20 	call	0x419a	; 0x419a <_ZN4OLED19OLED_Write_To_BuferEiiiiPKh>
    2df6:	80 91 71 06 	lds	r24, 0x0671	; 0x800671 <Password_Menu_Status>
    2dfa:	88 23       	and	r24, r24
    2dfc:	e1 f0       	breq	.+56     	; 0x2e36 <_Z5checkv+0xfe>
    2dfe:	80 91 40 06 	lds	r24, 0x0640	; 0x800640 <passw_menu+0x6>
    2e02:	90 91 41 06 	lds	r25, 0x0641	; 0x800641 <passw_menu+0x7>
    2e06:	01 97       	sbiw	r24, 0x01	; 1
    2e08:	2a f0       	brmi	.+10     	; 0x2e14 <_Z5checkv+0xdc>
    2e0a:	90 93 41 06 	sts	0x0641, r25	; 0x800641 <passw_menu+0x7>
    2e0e:	80 93 40 06 	sts	0x0640, r24	; 0x800640 <passw_menu+0x6>
    2e12:	06 c0       	rjmp	.+12     	; 0x2e20 <_Z5checkv+0xe8>
    2e14:	8a e0       	ldi	r24, 0x0A	; 10
    2e16:	90 e0       	ldi	r25, 0x00	; 0
    2e18:	90 93 41 06 	sts	0x0641, r25	; 0x800641 <passw_menu+0x7>
    2e1c:	80 93 40 06 	sts	0x0640, r24	; 0x800640 <passw_menu+0x6>
    2e20:	e0 91 3a 06 	lds	r30, 0x063A	; 0x80063a <passw_menu>
    2e24:	f0 91 3b 06 	lds	r31, 0x063B	; 0x80063b <passw_menu+0x1>
    2e28:	00 88       	ldd	r0, Z+16	; 0x10
    2e2a:	f1 89       	ldd	r31, Z+17	; 0x11
    2e2c:	e0 2d       	mov	r30, r0
    2e2e:	8a e3       	ldi	r24, 0x3A	; 58
    2e30:	96 e0       	ldi	r25, 0x06	; 6
    2e32:	09 95       	icall
    2e34:	b3 c5       	rjmp	.+2918   	; 0x399c <_Z5checkv+0xc64>
    2e36:	80 91 00 01 	lds	r24, 0x0100	; 0x800100 <Main_Menu_Status>
    2e3a:	88 23       	and	r24, r24
    2e3c:	e1 f0       	breq	.+56     	; 0x2e76 <_Z5checkv+0x13e>
    2e3e:	80 91 38 06 	lds	r24, 0x0638	; 0x800638 <menu+0x4>
    2e42:	90 91 39 06 	lds	r25, 0x0639	; 0x800639 <menu+0x5>
    2e46:	01 97       	sbiw	r24, 0x01	; 1
    2e48:	2a f0       	brmi	.+10     	; 0x2e54 <_Z5checkv+0x11c>
    2e4a:	90 93 39 06 	sts	0x0639, r25	; 0x800639 <menu+0x5>
    2e4e:	80 93 38 06 	sts	0x0638, r24	; 0x800638 <menu+0x4>
    2e52:	06 c0       	rjmp	.+12     	; 0x2e60 <_Z5checkv+0x128>
    2e54:	82 e0       	ldi	r24, 0x02	; 2
    2e56:	90 e0       	ldi	r25, 0x00	; 0
    2e58:	90 93 39 06 	sts	0x0639, r25	; 0x800639 <menu+0x5>
    2e5c:	80 93 38 06 	sts	0x0638, r24	; 0x800638 <menu+0x4>
    2e60:	e0 91 34 06 	lds	r30, 0x0634	; 0x800634 <menu>
    2e64:	f0 91 35 06 	lds	r31, 0x0635	; 0x800635 <menu+0x1>
    2e68:	00 88       	ldd	r0, Z+16	; 0x10
    2e6a:	f1 89       	ldd	r31, Z+17	; 0x11
    2e6c:	e0 2d       	mov	r30, r0
    2e6e:	84 e3       	ldi	r24, 0x34	; 52
    2e70:	96 e0       	ldi	r25, 0x06	; 6
    2e72:	09 95       	icall
    2e74:	93 c5       	rjmp	.+2854   	; 0x399c <_Z5checkv+0xc64>
    2e76:	80 91 70 06 	lds	r24, 0x0670	; 0x800670 <Settings_Menu_Status>
    2e7a:	88 23       	and	r24, r24
    2e7c:	e1 f0       	breq	.+56     	; 0x2eb6 <_Z5checkv+0x17e>
    2e7e:	80 91 52 06 	lds	r24, 0x0652	; 0x800652 <sett_menu+0x4>
    2e82:	90 91 53 06 	lds	r25, 0x0653	; 0x800653 <sett_menu+0x5>
    2e86:	01 97       	sbiw	r24, 0x01	; 1
    2e88:	2a f0       	brmi	.+10     	; 0x2e94 <_Z5checkv+0x15c>
    2e8a:	90 93 53 06 	sts	0x0653, r25	; 0x800653 <sett_menu+0x5>
    2e8e:	80 93 52 06 	sts	0x0652, r24	; 0x800652 <sett_menu+0x4>
    2e92:	06 c0       	rjmp	.+12     	; 0x2ea0 <_Z5checkv+0x168>
    2e94:	83 e0       	ldi	r24, 0x03	; 3
    2e96:	90 e0       	ldi	r25, 0x00	; 0
    2e98:	90 93 53 06 	sts	0x0653, r25	; 0x800653 <sett_menu+0x5>
    2e9c:	80 93 52 06 	sts	0x0652, r24	; 0x800652 <sett_menu+0x4>
    2ea0:	e0 91 4e 06 	lds	r30, 0x064E	; 0x80064e <sett_menu>
    2ea4:	f0 91 4f 06 	lds	r31, 0x064F	; 0x80064f <sett_menu+0x1>
    2ea8:	00 88       	ldd	r0, Z+16	; 0x10
    2eaa:	f1 89       	ldd	r31, Z+17	; 0x11
    2eac:	e0 2d       	mov	r30, r0
    2eae:	8e e4       	ldi	r24, 0x4E	; 78
    2eb0:	96 e0       	ldi	r25, 0x06	; 6
    2eb2:	09 95       	icall
    2eb4:	73 c5       	rjmp	.+2790   	; 0x399c <_Z5checkv+0xc64>
    2eb6:	80 91 6f 06 	lds	r24, 0x066F	; 0x80066f <Info_Menu_Status>
    2eba:	88 23       	and	r24, r24
    2ebc:	e1 f0       	breq	.+56     	; 0x2ef6 <_Z5checkv+0x1be>
    2ebe:	80 91 62 06 	lds	r24, 0x0662	; 0x800662 <inf_menu+0x4>
    2ec2:	90 91 63 06 	lds	r25, 0x0663	; 0x800663 <inf_menu+0x5>
    2ec6:	01 97       	sbiw	r24, 0x01	; 1
    2ec8:	2a f0       	brmi	.+10     	; 0x2ed4 <_Z5checkv+0x19c>
    2eca:	90 93 63 06 	sts	0x0663, r25	; 0x800663 <inf_menu+0x5>
    2ece:	80 93 62 06 	sts	0x0662, r24	; 0x800662 <inf_menu+0x4>
    2ed2:	06 c0       	rjmp	.+12     	; 0x2ee0 <_Z5checkv+0x1a8>
    2ed4:	82 e0       	ldi	r24, 0x02	; 2
    2ed6:	90 e0       	ldi	r25, 0x00	; 0
    2ed8:	90 93 63 06 	sts	0x0663, r25	; 0x800663 <inf_menu+0x5>
    2edc:	80 93 62 06 	sts	0x0662, r24	; 0x800662 <inf_menu+0x4>
    2ee0:	e0 91 5e 06 	lds	r30, 0x065E	; 0x80065e <inf_menu>
    2ee4:	f0 91 5f 06 	lds	r31, 0x065F	; 0x80065f <inf_menu+0x1>
    2ee8:	00 88       	ldd	r0, Z+16	; 0x10
    2eea:	f1 89       	ldd	r31, Z+17	; 0x11
    2eec:	e0 2d       	mov	r30, r0
    2eee:	8e e5       	ldi	r24, 0x5E	; 94
    2ef0:	96 e0       	ldi	r25, 0x06	; 6
    2ef2:	09 95       	icall
    2ef4:	53 c5       	rjmp	.+2726   	; 0x399c <_Z5checkv+0xc64>
    2ef6:	80 91 6e 06 	lds	r24, 0x066E	; 0x80066e <User_Info_Status>
    2efa:	88 23       	and	r24, r24
    2efc:	71 f0       	breq	.+28     	; 0x2f1a <_Z5checkv+0x1e2>
    2efe:	10 92 2b 06 	sts	0x062B, r1	; 0x80062b <us_inf+0x5>
    2f02:	10 92 2a 06 	sts	0x062A, r1	; 0x80062a <us_inf+0x4>
    2f06:	10 92 6e 06 	sts	0x066E, r1	; 0x80066e <User_Info_Status>
    2f0a:	81 e0       	ldi	r24, 0x01	; 1
    2f0c:	80 93 6f 06 	sts	0x066F, r24	; 0x80066f <Info_Menu_Status>
    2f10:	82 e7       	ldi	r24, 0x72	; 114
    2f12:	96 e0       	ldi	r25, 0x06	; 6
    2f14:	0e 94 ed 1f 	call	0x3fda	; 0x3fda <_ZN4OLED16OLED_Bufer_ClearEv>
    2f18:	41 c5       	rjmp	.+2690   	; 0x399c <_Z5checkv+0xc64>
    2f1a:	80 91 6d 06 	lds	r24, 0x066D	; 0x80066d <Device_Info_Status>
    2f1e:	88 23       	and	r24, r24
    2f20:	09 f4       	brne	.+2      	; 0x2f24 <_Z5checkv+0x1ec>
    2f22:	3c c5       	rjmp	.+2680   	; 0x399c <_Z5checkv+0xc64>
    2f24:	10 92 1f 06 	sts	0x061F, r1	; 0x80061f <dev_inf+0x3>
    2f28:	10 92 1e 06 	sts	0x061E, r1	; 0x80061e <dev_inf+0x2>
    2f2c:	10 92 6d 06 	sts	0x066D, r1	; 0x80066d <Device_Info_Status>
    2f30:	81 e0       	ldi	r24, 0x01	; 1
    2f32:	80 93 6f 06 	sts	0x066F, r24	; 0x80066f <Info_Menu_Status>
    2f36:	82 e7       	ldi	r24, 0x72	; 114
    2f38:	96 e0       	ldi	r25, 0x06	; 6
    2f3a:	0e 94 ed 1f 	call	0x3fda	; 0x3fda <_ZN4OLED16OLED_Bufer_ClearEv>
    2f3e:	2e c5       	rjmp	.+2652   	; 0x399c <_Z5checkv+0xc64>
    2f40:	98 23       	and	r25, r24
    2f42:	96 23       	and	r25, r22
    2f44:	94 23       	and	r25, r20
    2f46:	f9 17       	cp	r31, r25
    2f48:	08 f0       	brcs	.+2      	; 0x2f4c <_Z5checkv+0x214>
    2f4a:	5f c0       	rjmp	.+190    	; 0x300a <_Z5checkv+0x2d2>
    2f4c:	08 e0       	ldi	r16, 0x08	; 8
    2f4e:	10 e0       	ldi	r17, 0x00	; 0
    2f50:	21 e0       	ldi	r18, 0x01	; 1
    2f52:	30 e0       	ldi	r19, 0x00	; 0
    2f54:	40 e0       	ldi	r20, 0x00	; 0
    2f56:	50 e0       	ldi	r21, 0x00	; 0
    2f58:	60 e0       	ldi	r22, 0x00	; 0
    2f5a:	70 e0       	ldi	r23, 0x00	; 0
    2f5c:	82 e7       	ldi	r24, 0x72	; 114
    2f5e:	96 e0       	ldi	r25, 0x06	; 6
    2f60:	0e 94 7e 20 	call	0x40fc	; 0x40fc <_ZN4OLED21OLED_Clear_Bufer_partEiiii>
    2f64:	0f 2e       	mov	r0, r31
    2f66:	f9 e2       	ldi	r31, 0x29	; 41
    2f68:	ef 2e       	mov	r14, r31
    2f6a:	f5 e0       	ldi	r31, 0x05	; 5
    2f6c:	ff 2e       	mov	r15, r31
    2f6e:	f0 2d       	mov	r31, r0
    2f70:	21 e0       	ldi	r18, 0x01	; 1
    2f72:	30 e0       	ldi	r19, 0x00	; 0
    2f74:	40 e0       	ldi	r20, 0x00	; 0
    2f76:	50 e0       	ldi	r21, 0x00	; 0
    2f78:	60 e0       	ldi	r22, 0x00	; 0
    2f7a:	70 e0       	ldi	r23, 0x00	; 0
    2f7c:	82 e7       	ldi	r24, 0x72	; 114
    2f7e:	96 e0       	ldi	r25, 0x06	; 6
    2f80:	0e 94 cd 20 	call	0x419a	; 0x419a <_ZN4OLED19OLED_Write_To_BuferEiiiiPKh>
    2f84:	80 91 71 06 	lds	r24, 0x0671	; 0x800671 <Password_Menu_Status>
    2f88:	81 11       	cpse	r24, r1
    2f8a:	2e c0       	rjmp	.+92     	; 0x2fe8 <_Z5checkv+0x2b0>
    2f8c:	80 91 00 01 	lds	r24, 0x0100	; 0x800100 <Main_Menu_Status>
    2f90:	81 11       	cpse	r24, r1
    2f92:	2a c0       	rjmp	.+84     	; 0x2fe8 <_Z5checkv+0x2b0>
    2f94:	80 91 70 06 	lds	r24, 0x0670	; 0x800670 <Settings_Menu_Status>
    2f98:	81 11       	cpse	r24, r1
    2f9a:	26 c0       	rjmp	.+76     	; 0x2fe8 <_Z5checkv+0x2b0>
    2f9c:	80 91 6f 06 	lds	r24, 0x066F	; 0x80066f <Info_Menu_Status>
    2fa0:	81 11       	cpse	r24, r1
    2fa2:	22 c0       	rjmp	.+68     	; 0x2fe8 <_Z5checkv+0x2b0>
    2fa4:	80 91 6e 06 	lds	r24, 0x066E	; 0x80066e <User_Info_Status>
    2fa8:	88 23       	and	r24, r24
    2faa:	71 f0       	breq	.+28     	; 0x2fc8 <_Z5checkv+0x290>
    2fac:	10 92 2b 06 	sts	0x062B, r1	; 0x80062b <us_inf+0x5>
    2fb0:	10 92 2a 06 	sts	0x062A, r1	; 0x80062a <us_inf+0x4>
    2fb4:	10 92 6e 06 	sts	0x066E, r1	; 0x80066e <User_Info_Status>
    2fb8:	81 e0       	ldi	r24, 0x01	; 1
    2fba:	80 93 6f 06 	sts	0x066F, r24	; 0x80066f <Info_Menu_Status>
    2fbe:	82 e7       	ldi	r24, 0x72	; 114
    2fc0:	96 e0       	ldi	r25, 0x06	; 6
    2fc2:	0e 94 ed 1f 	call	0x3fda	; 0x3fda <_ZN4OLED16OLED_Bufer_ClearEv>
    2fc6:	10 c0       	rjmp	.+32     	; 0x2fe8 <_Z5checkv+0x2b0>
    2fc8:	80 91 6d 06 	lds	r24, 0x066D	; 0x80066d <Device_Info_Status>
    2fcc:	88 23       	and	r24, r24
    2fce:	61 f0       	breq	.+24     	; 0x2fe8 <_Z5checkv+0x2b0>
    2fd0:	10 92 1f 06 	sts	0x061F, r1	; 0x80061f <dev_inf+0x3>
    2fd4:	10 92 1e 06 	sts	0x061E, r1	; 0x80061e <dev_inf+0x2>
    2fd8:	10 92 6d 06 	sts	0x066D, r1	; 0x80066d <Device_Info_Status>
    2fdc:	81 e0       	ldi	r24, 0x01	; 1
    2fde:	80 93 6f 06 	sts	0x066F, r24	; 0x80066f <Info_Menu_Status>
    2fe2:	82 e7       	ldi	r24, 0x72	; 114
    2fe4:	96 e0       	ldi	r25, 0x06	; 6
    2fe6:	f9 d7       	rcall	.+4082   	; 0x3fda <_ZN4OLED16OLED_Bufer_ClearEv>
    2fe8:	80 91 6c 06 	lds	r24, 0x066C	; 0x80066c <locked>
    2fec:	81 11       	cpse	r24, r1
    2fee:	d6 c4       	rjmp	.+2476   	; 0x399c <_Z5checkv+0xc64>
    2ff0:	80 e8       	ldi	r24, 0x80	; 128
    2ff2:	8b b9       	out	0x0b, r24	; 11
    2ff4:	2f eb       	ldi	r18, 0xBF	; 191
    2ff6:	86 ec       	ldi	r24, 0xC6	; 198
    2ff8:	9d e2       	ldi	r25, 0x2D	; 45
    2ffa:	21 50       	subi	r18, 0x01	; 1
    2ffc:	80 40       	sbci	r24, 0x00	; 0
    2ffe:	90 40       	sbci	r25, 0x00	; 0
    3000:	e1 f7       	brne	.-8      	; 0x2ffa <_Z5checkv+0x2c2>
    3002:	00 c0       	rjmp	.+0      	; 0x3004 <_Z5checkv+0x2cc>
    3004:	00 00       	nop
    3006:	1b b8       	out	0x0b, r1	; 11
    3008:	c9 c4       	rjmp	.+2450   	; 0x399c <_Z5checkv+0xc64>
    300a:	35 23       	and	r19, r21
    300c:	98 2f       	mov	r25, r24
    300e:	94 23       	and	r25, r20
    3010:	29 23       	and	r18, r25
    3012:	23 23       	and	r18, r19
    3014:	f2 17       	cp	r31, r18
    3016:	08 f0       	brcs	.+2      	; 0x301a <_Z5checkv+0x2e2>
    3018:	5e c0       	rjmp	.+188    	; 0x30d6 <_Z5checkv+0x39e>
    301a:	08 e0       	ldi	r16, 0x08	; 8
    301c:	10 e0       	ldi	r17, 0x00	; 0
    301e:	21 e0       	ldi	r18, 0x01	; 1
    3020:	30 e0       	ldi	r19, 0x00	; 0
    3022:	40 e0       	ldi	r20, 0x00	; 0
    3024:	50 e0       	ldi	r21, 0x00	; 0
    3026:	60 e0       	ldi	r22, 0x00	; 0
    3028:	70 e0       	ldi	r23, 0x00	; 0
    302a:	82 e7       	ldi	r24, 0x72	; 114
    302c:	96 e0       	ldi	r25, 0x06	; 6
    302e:	0e 94 7e 20 	call	0x40fc	; 0x40fc <_ZN4OLED21OLED_Clear_Bufer_partEiiii>
    3032:	0f 2e       	mov	r0, r31
    3034:	f1 e2       	ldi	r31, 0x21	; 33
    3036:	ef 2e       	mov	r14, r31
    3038:	f5 e0       	ldi	r31, 0x05	; 5
    303a:	ff 2e       	mov	r15, r31
    303c:	f0 2d       	mov	r31, r0
    303e:	21 e0       	ldi	r18, 0x01	; 1
    3040:	30 e0       	ldi	r19, 0x00	; 0
    3042:	40 e0       	ldi	r20, 0x00	; 0
    3044:	50 e0       	ldi	r21, 0x00	; 0
    3046:	60 e0       	ldi	r22, 0x00	; 0
    3048:	70 e0       	ldi	r23, 0x00	; 0
    304a:	82 e7       	ldi	r24, 0x72	; 114
    304c:	96 e0       	ldi	r25, 0x06	; 6
    304e:	0e 94 cd 20 	call	0x419a	; 0x419a <_ZN4OLED19OLED_Write_To_BuferEiiiiPKh>
    3052:	80 91 71 06 	lds	r24, 0x0671	; 0x800671 <Password_Menu_Status>
    3056:	81 11       	cpse	r24, r1
    3058:	2d c0       	rjmp	.+90     	; 0x30b4 <_Z5checkv+0x37c>
    305a:	80 91 00 01 	lds	r24, 0x0100	; 0x800100 <Main_Menu_Status>
    305e:	81 11       	cpse	r24, r1
    3060:	29 c0       	rjmp	.+82     	; 0x30b4 <_Z5checkv+0x37c>
    3062:	80 91 70 06 	lds	r24, 0x0670	; 0x800670 <Settings_Menu_Status>
    3066:	81 11       	cpse	r24, r1
    3068:	25 c0       	rjmp	.+74     	; 0x30b4 <_Z5checkv+0x37c>
    306a:	80 91 6f 06 	lds	r24, 0x066F	; 0x80066f <Info_Menu_Status>
    306e:	81 11       	cpse	r24, r1
    3070:	21 c0       	rjmp	.+66     	; 0x30b4 <_Z5checkv+0x37c>
    3072:	80 91 6e 06 	lds	r24, 0x066E	; 0x80066e <User_Info_Status>
    3076:	88 23       	and	r24, r24
    3078:	69 f0       	breq	.+26     	; 0x3094 <_Z5checkv+0x35c>
    307a:	10 92 2b 06 	sts	0x062B, r1	; 0x80062b <us_inf+0x5>
    307e:	10 92 2a 06 	sts	0x062A, r1	; 0x80062a <us_inf+0x4>
    3082:	10 92 6e 06 	sts	0x066E, r1	; 0x80066e <User_Info_Status>
    3086:	81 e0       	ldi	r24, 0x01	; 1
    3088:	80 93 6f 06 	sts	0x066F, r24	; 0x80066f <Info_Menu_Status>
    308c:	82 e7       	ldi	r24, 0x72	; 114
    308e:	96 e0       	ldi	r25, 0x06	; 6
    3090:	a4 d7       	rcall	.+3912   	; 0x3fda <_ZN4OLED16OLED_Bufer_ClearEv>
    3092:	10 c0       	rjmp	.+32     	; 0x30b4 <_Z5checkv+0x37c>
    3094:	80 91 6d 06 	lds	r24, 0x066D	; 0x80066d <Device_Info_Status>
    3098:	88 23       	and	r24, r24
    309a:	61 f0       	breq	.+24     	; 0x30b4 <_Z5checkv+0x37c>
    309c:	10 92 1f 06 	sts	0x061F, r1	; 0x80061f <dev_inf+0x3>
    30a0:	10 92 1e 06 	sts	0x061E, r1	; 0x80061e <dev_inf+0x2>
    30a4:	10 92 6d 06 	sts	0x066D, r1	; 0x80066d <Device_Info_Status>
    30a8:	81 e0       	ldi	r24, 0x01	; 1
    30aa:	80 93 6f 06 	sts	0x066F, r24	; 0x80066f <Info_Menu_Status>
    30ae:	82 e7       	ldi	r24, 0x72	; 114
    30b0:	96 e0       	ldi	r25, 0x06	; 6
    30b2:	93 d7       	rcall	.+3878   	; 0x3fda <_ZN4OLED16OLED_Bufer_ClearEv>
    30b4:	80 91 6c 06 	lds	r24, 0x066C	; 0x80066c <locked>
    30b8:	81 11       	cpse	r24, r1
    30ba:	70 c4       	rjmp	.+2272   	; 0x399c <_Z5checkv+0xc64>
    30bc:	80 e8       	ldi	r24, 0x80	; 128
    30be:	8b b9       	out	0x0b, r24	; 11
    30c0:	ef eb       	ldi	r30, 0xBF	; 191
    30c2:	f6 ec       	ldi	r31, 0xC6	; 198
    30c4:	2d e2       	ldi	r18, 0x2D	; 45
    30c6:	e1 50       	subi	r30, 0x01	; 1
    30c8:	f0 40       	sbci	r31, 0x00	; 0
    30ca:	20 40       	sbci	r18, 0x00	; 0
    30cc:	e1 f7       	brne	.-8      	; 0x30c6 <_Z5checkv+0x38e>
    30ce:	00 c0       	rjmp	.+0      	; 0x30d0 <_Z5checkv+0x398>
    30d0:	00 00       	nop
    30d2:	1b b8       	out	0x0b, r1	; 11
    30d4:	63 c4       	rjmp	.+2246   	; 0x399c <_Z5checkv+0xc64>
    30d6:	6b 23       	and	r22, r27
    30d8:	64 23       	and	r22, r20
    30da:	36 23       	and	r19, r22
    30dc:	f3 17       	cp	r31, r19
    30de:	08 f0       	brcs	.+2      	; 0x30e2 <_Z5checkv+0x3aa>
    30e0:	bf c0       	rjmp	.+382    	; 0x3260 <_Z5checkv+0x528>
    30e2:	08 e0       	ldi	r16, 0x08	; 8
    30e4:	10 e0       	ldi	r17, 0x00	; 0
    30e6:	21 e0       	ldi	r18, 0x01	; 1
    30e8:	30 e0       	ldi	r19, 0x00	; 0
    30ea:	40 e0       	ldi	r20, 0x00	; 0
    30ec:	50 e0       	ldi	r21, 0x00	; 0
    30ee:	60 e0       	ldi	r22, 0x00	; 0
    30f0:	70 e0       	ldi	r23, 0x00	; 0
    30f2:	82 e7       	ldi	r24, 0x72	; 114
    30f4:	96 e0       	ldi	r25, 0x06	; 6
    30f6:	0e 94 7e 20 	call	0x40fc	; 0x40fc <_ZN4OLED21OLED_Clear_Bufer_partEiiii>
    30fa:	0f 2e       	mov	r0, r31
    30fc:	f9 e1       	ldi	r31, 0x19	; 25
    30fe:	ef 2e       	mov	r14, r31
    3100:	f5 e0       	ldi	r31, 0x05	; 5
    3102:	ff 2e       	mov	r15, r31
    3104:	f0 2d       	mov	r31, r0
    3106:	21 e0       	ldi	r18, 0x01	; 1
    3108:	30 e0       	ldi	r19, 0x00	; 0
    310a:	40 e0       	ldi	r20, 0x00	; 0
    310c:	50 e0       	ldi	r21, 0x00	; 0
    310e:	60 e0       	ldi	r22, 0x00	; 0
    3110:	70 e0       	ldi	r23, 0x00	; 0
    3112:	82 e7       	ldi	r24, 0x72	; 114
    3114:	96 e0       	ldi	r25, 0x06	; 6
    3116:	0e 94 cd 20 	call	0x419a	; 0x419a <_ZN4OLED19OLED_Write_To_BuferEiiiiPKh>
    311a:	80 91 71 06 	lds	r24, 0x0671	; 0x800671 <Password_Menu_Status>
    311e:	88 23       	and	r24, r24
    3120:	e1 f0       	breq	.+56     	; 0x315a <_Z5checkv+0x422>
    3122:	80 91 40 06 	lds	r24, 0x0640	; 0x800640 <passw_menu+0x6>
    3126:	90 91 41 06 	lds	r25, 0x0641	; 0x800641 <passw_menu+0x7>
    312a:	01 96       	adiw	r24, 0x01	; 1
    312c:	8b 30       	cpi	r24, 0x0B	; 11
    312e:	91 05       	cpc	r25, r1
    3130:	2c f4       	brge	.+10     	; 0x313c <_Z5checkv+0x404>
    3132:	90 93 41 06 	sts	0x0641, r25	; 0x800641 <passw_menu+0x7>
    3136:	80 93 40 06 	sts	0x0640, r24	; 0x800640 <passw_menu+0x6>
    313a:	04 c0       	rjmp	.+8      	; 0x3144 <_Z5checkv+0x40c>
    313c:	10 92 41 06 	sts	0x0641, r1	; 0x800641 <passw_menu+0x7>
    3140:	10 92 40 06 	sts	0x0640, r1	; 0x800640 <passw_menu+0x6>
    3144:	e0 91 3a 06 	lds	r30, 0x063A	; 0x80063a <passw_menu>
    3148:	f0 91 3b 06 	lds	r31, 0x063B	; 0x80063b <passw_menu+0x1>
    314c:	00 88       	ldd	r0, Z+16	; 0x10
    314e:	f1 89       	ldd	r31, Z+17	; 0x11
    3150:	e0 2d       	mov	r30, r0
    3152:	8a e3       	ldi	r24, 0x3A	; 58
    3154:	96 e0       	ldi	r25, 0x06	; 6
    3156:	09 95       	icall
    3158:	21 c4       	rjmp	.+2114   	; 0x399c <_Z5checkv+0xc64>
    315a:	80 91 00 01 	lds	r24, 0x0100	; 0x800100 <Main_Menu_Status>
    315e:	88 23       	and	r24, r24
    3160:	e1 f0       	breq	.+56     	; 0x319a <_Z5checkv+0x462>
    3162:	80 91 38 06 	lds	r24, 0x0638	; 0x800638 <menu+0x4>
    3166:	90 91 39 06 	lds	r25, 0x0639	; 0x800639 <menu+0x5>
    316a:	01 96       	adiw	r24, 0x01	; 1
    316c:	83 30       	cpi	r24, 0x03	; 3
    316e:	91 05       	cpc	r25, r1
    3170:	2c f4       	brge	.+10     	; 0x317c <_Z5checkv+0x444>
    3172:	90 93 39 06 	sts	0x0639, r25	; 0x800639 <menu+0x5>
    3176:	80 93 38 06 	sts	0x0638, r24	; 0x800638 <menu+0x4>
    317a:	04 c0       	rjmp	.+8      	; 0x3184 <_Z5checkv+0x44c>
    317c:	10 92 39 06 	sts	0x0639, r1	; 0x800639 <menu+0x5>
    3180:	10 92 38 06 	sts	0x0638, r1	; 0x800638 <menu+0x4>
    3184:	e0 91 34 06 	lds	r30, 0x0634	; 0x800634 <menu>
    3188:	f0 91 35 06 	lds	r31, 0x0635	; 0x800635 <menu+0x1>
    318c:	00 88       	ldd	r0, Z+16	; 0x10
    318e:	f1 89       	ldd	r31, Z+17	; 0x11
    3190:	e0 2d       	mov	r30, r0
    3192:	84 e3       	ldi	r24, 0x34	; 52
    3194:	96 e0       	ldi	r25, 0x06	; 6
    3196:	09 95       	icall
    3198:	01 c4       	rjmp	.+2050   	; 0x399c <_Z5checkv+0xc64>
    319a:	80 91 70 06 	lds	r24, 0x0670	; 0x800670 <Settings_Menu_Status>
    319e:	88 23       	and	r24, r24
    31a0:	e1 f0       	breq	.+56     	; 0x31da <_Z5checkv+0x4a2>
    31a2:	80 91 52 06 	lds	r24, 0x0652	; 0x800652 <sett_menu+0x4>
    31a6:	90 91 53 06 	lds	r25, 0x0653	; 0x800653 <sett_menu+0x5>
    31aa:	01 96       	adiw	r24, 0x01	; 1
    31ac:	84 30       	cpi	r24, 0x04	; 4
    31ae:	91 05       	cpc	r25, r1
    31b0:	2c f4       	brge	.+10     	; 0x31bc <_Z5checkv+0x484>
    31b2:	90 93 53 06 	sts	0x0653, r25	; 0x800653 <sett_menu+0x5>
    31b6:	80 93 52 06 	sts	0x0652, r24	; 0x800652 <sett_menu+0x4>
    31ba:	04 c0       	rjmp	.+8      	; 0x31c4 <_Z5checkv+0x48c>
    31bc:	10 92 53 06 	sts	0x0653, r1	; 0x800653 <sett_menu+0x5>
    31c0:	10 92 52 06 	sts	0x0652, r1	; 0x800652 <sett_menu+0x4>
    31c4:	e0 91 4e 06 	lds	r30, 0x064E	; 0x80064e <sett_menu>
    31c8:	f0 91 4f 06 	lds	r31, 0x064F	; 0x80064f <sett_menu+0x1>
    31cc:	00 88       	ldd	r0, Z+16	; 0x10
    31ce:	f1 89       	ldd	r31, Z+17	; 0x11
    31d0:	e0 2d       	mov	r30, r0
    31d2:	8e e4       	ldi	r24, 0x4E	; 78
    31d4:	96 e0       	ldi	r25, 0x06	; 6
    31d6:	09 95       	icall
    31d8:	e1 c3       	rjmp	.+1986   	; 0x399c <_Z5checkv+0xc64>
    31da:	80 91 6f 06 	lds	r24, 0x066F	; 0x80066f <Info_Menu_Status>
    31de:	88 23       	and	r24, r24
    31e0:	e1 f0       	breq	.+56     	; 0x321a <_Z5checkv+0x4e2>
    31e2:	80 91 62 06 	lds	r24, 0x0662	; 0x800662 <inf_menu+0x4>
    31e6:	90 91 63 06 	lds	r25, 0x0663	; 0x800663 <inf_menu+0x5>
    31ea:	01 96       	adiw	r24, 0x01	; 1
    31ec:	83 30       	cpi	r24, 0x03	; 3
    31ee:	91 05       	cpc	r25, r1
    31f0:	2c f4       	brge	.+10     	; 0x31fc <_Z5checkv+0x4c4>
    31f2:	90 93 63 06 	sts	0x0663, r25	; 0x800663 <inf_menu+0x5>
    31f6:	80 93 62 06 	sts	0x0662, r24	; 0x800662 <inf_menu+0x4>
    31fa:	04 c0       	rjmp	.+8      	; 0x3204 <_Z5checkv+0x4cc>
    31fc:	10 92 63 06 	sts	0x0663, r1	; 0x800663 <inf_menu+0x5>
    3200:	10 92 62 06 	sts	0x0662, r1	; 0x800662 <inf_menu+0x4>
    3204:	e0 91 5e 06 	lds	r30, 0x065E	; 0x80065e <inf_menu>
    3208:	f0 91 5f 06 	lds	r31, 0x065F	; 0x80065f <inf_menu+0x1>
    320c:	00 88       	ldd	r0, Z+16	; 0x10
    320e:	f1 89       	ldd	r31, Z+17	; 0x11
    3210:	e0 2d       	mov	r30, r0
    3212:	8e e5       	ldi	r24, 0x5E	; 94
    3214:	96 e0       	ldi	r25, 0x06	; 6
    3216:	09 95       	icall
    3218:	c1 c3       	rjmp	.+1922   	; 0x399c <_Z5checkv+0xc64>
    321a:	80 91 6e 06 	lds	r24, 0x066E	; 0x80066e <User_Info_Status>
    321e:	88 23       	and	r24, r24
    3220:	69 f0       	breq	.+26     	; 0x323c <_Z5checkv+0x504>
    3222:	10 92 2b 06 	sts	0x062B, r1	; 0x80062b <us_inf+0x5>
    3226:	10 92 2a 06 	sts	0x062A, r1	; 0x80062a <us_inf+0x4>
    322a:	10 92 6e 06 	sts	0x066E, r1	; 0x80066e <User_Info_Status>
    322e:	81 e0       	ldi	r24, 0x01	; 1
    3230:	80 93 6f 06 	sts	0x066F, r24	; 0x80066f <Info_Menu_Status>
    3234:	82 e7       	ldi	r24, 0x72	; 114
    3236:	96 e0       	ldi	r25, 0x06	; 6
    3238:	d0 d6       	rcall	.+3488   	; 0x3fda <_ZN4OLED16OLED_Bufer_ClearEv>
    323a:	b0 c3       	rjmp	.+1888   	; 0x399c <_Z5checkv+0xc64>
    323c:	80 91 6d 06 	lds	r24, 0x066D	; 0x80066d <Device_Info_Status>
    3240:	88 23       	and	r24, r24
    3242:	09 f4       	brne	.+2      	; 0x3246 <_Z5checkv+0x50e>
    3244:	ab c3       	rjmp	.+1878   	; 0x399c <_Z5checkv+0xc64>
    3246:	10 92 1f 06 	sts	0x061F, r1	; 0x80061f <dev_inf+0x3>
    324a:	10 92 1e 06 	sts	0x061E, r1	; 0x80061e <dev_inf+0x2>
    324e:	10 92 6d 06 	sts	0x066D, r1	; 0x80066d <Device_Info_Status>
    3252:	81 e0       	ldi	r24, 0x01	; 1
    3254:	80 93 6f 06 	sts	0x066F, r24	; 0x80066f <Info_Menu_Status>
    3258:	82 e7       	ldi	r24, 0x72	; 114
    325a:	96 e0       	ldi	r25, 0x06	; 6
    325c:	be d6       	rcall	.+3452   	; 0x3fda <_ZN4OLED16OLED_Bufer_ClearEv>
    325e:	9e c3       	rjmp	.+1852   	; 0x399c <_Z5checkv+0xc64>
    3260:	58 23       	and	r21, r24
    3262:	e5 23       	and	r30, r21
    3264:	fe 17       	cp	r31, r30
    3266:	08 f0       	brcs	.+2      	; 0x326a <_Z5checkv+0x532>
    3268:	5c c0       	rjmp	.+184    	; 0x3322 <_Z5checkv+0x5ea>
    326a:	08 e0       	ldi	r16, 0x08	; 8
    326c:	10 e0       	ldi	r17, 0x00	; 0
    326e:	21 e0       	ldi	r18, 0x01	; 1
    3270:	30 e0       	ldi	r19, 0x00	; 0
    3272:	40 e0       	ldi	r20, 0x00	; 0
    3274:	50 e0       	ldi	r21, 0x00	; 0
    3276:	60 e0       	ldi	r22, 0x00	; 0
    3278:	70 e0       	ldi	r23, 0x00	; 0
    327a:	82 e7       	ldi	r24, 0x72	; 114
    327c:	96 e0       	ldi	r25, 0x06	; 6
    327e:	3e d7       	rcall	.+3708   	; 0x40fc <_ZN4OLED21OLED_Clear_Bufer_partEiiii>
    3280:	0f 2e       	mov	r0, r31
    3282:	f1 e1       	ldi	r31, 0x11	; 17
    3284:	ef 2e       	mov	r14, r31
    3286:	f5 e0       	ldi	r31, 0x05	; 5
    3288:	ff 2e       	mov	r15, r31
    328a:	f0 2d       	mov	r31, r0
    328c:	21 e0       	ldi	r18, 0x01	; 1
    328e:	30 e0       	ldi	r19, 0x00	; 0
    3290:	40 e0       	ldi	r20, 0x00	; 0
    3292:	50 e0       	ldi	r21, 0x00	; 0
    3294:	60 e0       	ldi	r22, 0x00	; 0
    3296:	70 e0       	ldi	r23, 0x00	; 0
    3298:	82 e7       	ldi	r24, 0x72	; 114
    329a:	96 e0       	ldi	r25, 0x06	; 6
    329c:	7e d7       	rcall	.+3836   	; 0x419a <_ZN4OLED19OLED_Write_To_BuferEiiiiPKh>
    329e:	80 91 71 06 	lds	r24, 0x0671	; 0x800671 <Password_Menu_Status>
    32a2:	81 11       	cpse	r24, r1
    32a4:	2d c0       	rjmp	.+90     	; 0x3300 <_Z5checkv+0x5c8>
    32a6:	80 91 00 01 	lds	r24, 0x0100	; 0x800100 <Main_Menu_Status>
    32aa:	81 11       	cpse	r24, r1
    32ac:	29 c0       	rjmp	.+82     	; 0x3300 <_Z5checkv+0x5c8>
    32ae:	80 91 70 06 	lds	r24, 0x0670	; 0x800670 <Settings_Menu_Status>
    32b2:	81 11       	cpse	r24, r1
    32b4:	25 c0       	rjmp	.+74     	; 0x3300 <_Z5checkv+0x5c8>
    32b6:	80 91 6f 06 	lds	r24, 0x066F	; 0x80066f <Info_Menu_Status>
    32ba:	81 11       	cpse	r24, r1
    32bc:	21 c0       	rjmp	.+66     	; 0x3300 <_Z5checkv+0x5c8>
    32be:	80 91 6e 06 	lds	r24, 0x066E	; 0x80066e <User_Info_Status>
    32c2:	88 23       	and	r24, r24
    32c4:	69 f0       	breq	.+26     	; 0x32e0 <_Z5checkv+0x5a8>
    32c6:	10 92 2b 06 	sts	0x062B, r1	; 0x80062b <us_inf+0x5>
    32ca:	10 92 2a 06 	sts	0x062A, r1	; 0x80062a <us_inf+0x4>
    32ce:	10 92 6e 06 	sts	0x066E, r1	; 0x80066e <User_Info_Status>
    32d2:	81 e0       	ldi	r24, 0x01	; 1
    32d4:	80 93 6f 06 	sts	0x066F, r24	; 0x80066f <Info_Menu_Status>
    32d8:	82 e7       	ldi	r24, 0x72	; 114
    32da:	96 e0       	ldi	r25, 0x06	; 6
    32dc:	7e d6       	rcall	.+3324   	; 0x3fda <_ZN4OLED16OLED_Bufer_ClearEv>
    32de:	10 c0       	rjmp	.+32     	; 0x3300 <_Z5checkv+0x5c8>
    32e0:	80 91 6d 06 	lds	r24, 0x066D	; 0x80066d <Device_Info_Status>
    32e4:	88 23       	and	r24, r24
    32e6:	61 f0       	breq	.+24     	; 0x3300 <_Z5checkv+0x5c8>
    32e8:	10 92 1f 06 	sts	0x061F, r1	; 0x80061f <dev_inf+0x3>
    32ec:	10 92 1e 06 	sts	0x061E, r1	; 0x80061e <dev_inf+0x2>
    32f0:	10 92 6d 06 	sts	0x066D, r1	; 0x80066d <Device_Info_Status>
    32f4:	81 e0       	ldi	r24, 0x01	; 1
    32f6:	80 93 6f 06 	sts	0x066F, r24	; 0x80066f <Info_Menu_Status>
    32fa:	82 e7       	ldi	r24, 0x72	; 114
    32fc:	96 e0       	ldi	r25, 0x06	; 6
    32fe:	6d d6       	rcall	.+3290   	; 0x3fda <_ZN4OLED16OLED_Bufer_ClearEv>
    3300:	80 91 6c 06 	lds	r24, 0x066C	; 0x80066c <locked>
    3304:	81 11       	cpse	r24, r1
    3306:	4a c3       	rjmp	.+1684   	; 0x399c <_Z5checkv+0xc64>
    3308:	80 e8       	ldi	r24, 0x80	; 128
    330a:	8b b9       	out	0x0b, r24	; 11
    330c:	8f eb       	ldi	r24, 0xBF	; 191
    330e:	96 ec       	ldi	r25, 0xC6	; 198
    3310:	ed e2       	ldi	r30, 0x2D	; 45
    3312:	81 50       	subi	r24, 0x01	; 1
    3314:	90 40       	sbci	r25, 0x00	; 0
    3316:	e0 40       	sbci	r30, 0x00	; 0
    3318:	e1 f7       	brne	.-8      	; 0x3312 <_Z5checkv+0x5da>
    331a:	00 c0       	rjmp	.+0      	; 0x331c <_Z5checkv+0x5e4>
    331c:	00 00       	nop
    331e:	1b b8       	out	0x0b, r1	; 11
    3320:	3d c3       	rjmp	.+1658   	; 0x399c <_Z5checkv+0xc64>
    3322:	4a 23       	and	r20, r26
    3324:	09 f4       	brne	.+2      	; 0x3328 <_Z5checkv+0x5f0>
    3326:	3a c3       	rjmp	.+1652   	; 0x399c <_Z5checkv+0xc64>
    3328:	ff 23       	and	r31, r31
    332a:	09 f4       	brne	.+2      	; 0x332e <_Z5checkv+0x5f6>
    332c:	37 c3       	rjmp	.+1646   	; 0x399c <_Z5checkv+0xc64>
    332e:	08 e0       	ldi	r16, 0x08	; 8
    3330:	10 e0       	ldi	r17, 0x00	; 0
    3332:	21 e0       	ldi	r18, 0x01	; 1
    3334:	30 e0       	ldi	r19, 0x00	; 0
    3336:	40 e0       	ldi	r20, 0x00	; 0
    3338:	50 e0       	ldi	r21, 0x00	; 0
    333a:	60 e0       	ldi	r22, 0x00	; 0
    333c:	70 e0       	ldi	r23, 0x00	; 0
    333e:	82 e7       	ldi	r24, 0x72	; 114
    3340:	96 e0       	ldi	r25, 0x06	; 6
    3342:	dc d6       	rcall	.+3512   	; 0x40fc <_ZN4OLED21OLED_Clear_Bufer_partEiiii>
    3344:	0f 2e       	mov	r0, r31
    3346:	f9 e0       	ldi	r31, 0x09	; 9
    3348:	ef 2e       	mov	r14, r31
    334a:	f5 e0       	ldi	r31, 0x05	; 5
    334c:	ff 2e       	mov	r15, r31
    334e:	f0 2d       	mov	r31, r0
    3350:	21 e0       	ldi	r18, 0x01	; 1
    3352:	30 e0       	ldi	r19, 0x00	; 0
    3354:	40 e0       	ldi	r20, 0x00	; 0
    3356:	50 e0       	ldi	r21, 0x00	; 0
    3358:	60 e0       	ldi	r22, 0x00	; 0
    335a:	70 e0       	ldi	r23, 0x00	; 0
    335c:	82 e7       	ldi	r24, 0x72	; 114
    335e:	96 e0       	ldi	r25, 0x06	; 6
    3360:	1c d7       	rcall	.+3640   	; 0x419a <_ZN4OLED19OLED_Write_To_BuferEiiiiPKh>
    3362:	80 91 71 06 	lds	r24, 0x0671	; 0x800671 <Password_Menu_Status>
    3366:	88 23       	and	r24, r24
    3368:	09 f4       	brne	.+2      	; 0x336c <_Z5checkv+0x634>
    336a:	72 c2       	rjmp	.+1252   	; 0x3850 <_Z5checkv+0xb18>
    336c:	e0 91 40 06 	lds	r30, 0x0640	; 0x800640 <passw_menu+0x6>
    3370:	f0 91 41 06 	lds	r31, 0x0641	; 0x800641 <passw_menu+0x7>
    3374:	eb 30       	cpi	r30, 0x0B	; 11
    3376:	f1 05       	cpc	r31, r1
    3378:	08 f0       	brcs	.+2      	; 0x337c <_Z5checkv+0x644>
    337a:	46 c2       	rjmp	.+1164   	; 0x3808 <_Z5checkv+0xad0>
    337c:	e4 5a       	subi	r30, 0xA4	; 164
    337e:	ff 4f       	sbci	r31, 0xFF	; 255
    3380:	d4 c7       	rjmp	.+4008   	; 0x432a <__tablejump2__>
    3382:	ea e3       	ldi	r30, 0x3A	; 58
    3384:	f6 e0       	ldi	r31, 0x06	; 6
    3386:	84 81       	ldd	r24, Z+4	; 0x04
    3388:	95 81       	ldd	r25, Z+5	; 0x05
    338a:	01 96       	adiw	r24, 0x01	; 1
    338c:	95 83       	std	Z+5, r25	; 0x05
    338e:	84 83       	std	Z+4, r24	; 0x04
    3390:	18 16       	cp	r1, r24
    3392:	19 06       	cpc	r1, r25
    3394:	0c f0       	brlt	.+2      	; 0x3398 <_Z5checkv+0x660>
    3396:	38 c2       	rjmp	.+1136   	; 0x3808 <_Z5checkv+0xad0>
    3398:	0f 2e       	mov	r0, r31
    339a:	f2 e4       	ldi	r31, 0x42	; 66
    339c:	cf 2e       	mov	r12, r31
    339e:	f6 e0       	ldi	r31, 0x06	; 6
    33a0:	df 2e       	mov	r13, r31
    33a2:	f0 2d       	mov	r31, r0
    33a4:	e1 2c       	mov	r14, r1
    33a6:	f1 2c       	mov	r15, r1
    33a8:	ef 01       	movw	r28, r30
    33aa:	56 01       	movw	r10, r12
    33ac:	4a 89       	ldd	r20, Y+18	; 0x12
    33ae:	5b 89       	ldd	r21, Y+19	; 0x13
    33b0:	4e 5f       	subi	r20, 0xFE	; 254
    33b2:	5f 4f       	sbci	r21, 0xFF	; 255
    33b4:	f6 01       	movw	r30, r12
    33b6:	61 91       	ld	r22, Z+
    33b8:	71 91       	ld	r23, Z+
    33ba:	6f 01       	movw	r12, r30
    33bc:	08 e0       	ldi	r16, 0x08	; 8
    33be:	10 e0       	ldi	r17, 0x00	; 0
    33c0:	21 e0       	ldi	r18, 0x01	; 1
    33c2:	30 e0       	ldi	r19, 0x00	; 0
    33c4:	82 e7       	ldi	r24, 0x72	; 114
    33c6:	96 e0       	ldi	r25, 0x06	; 6
    33c8:	99 d6       	rcall	.+3378   	; 0x40fc <_ZN4OLED21OLED_Clear_Bufer_partEiiii>
    33ca:	4a 89       	ldd	r20, Y+18	; 0x12
    33cc:	5b 89       	ldd	r21, Y+19	; 0x13
    33ce:	41 50       	subi	r20, 0x01	; 1
    33d0:	51 09       	sbc	r21, r1
    33d2:	f5 01       	movw	r30, r10
    33d4:	60 81       	ld	r22, Z
    33d6:	71 81       	ldd	r23, Z+1	; 0x01
    33d8:	21 e0       	ldi	r18, 0x01	; 1
    33da:	30 e0       	ldi	r19, 0x00	; 0
    33dc:	82 e7       	ldi	r24, 0x72	; 114
    33de:	96 e0       	ldi	r25, 0x06	; 6
    33e0:	8d d6       	rcall	.+3354   	; 0x40fc <_ZN4OLED21OLED_Clear_Bufer_partEiiii>
    33e2:	ff ef       	ldi	r31, 0xFF	; 255
    33e4:	ef 1a       	sub	r14, r31
    33e6:	ff 0a       	sbc	r15, r31
    33e8:	8c 81       	ldd	r24, Y+4	; 0x04
    33ea:	9d 81       	ldd	r25, Y+5	; 0x05
    33ec:	e8 16       	cp	r14, r24
    33ee:	f9 06       	cpc	r15, r25
    33f0:	e4 f2       	brlt	.-72     	; 0x33aa <_Z5checkv+0x672>
    33f2:	0a c2       	rjmp	.+1044   	; 0x3808 <_Z5checkv+0xad0>
    33f4:	ea e3       	ldi	r30, 0x3A	; 58
    33f6:	f6 e0       	ldi	r31, 0x06	; 6
    33f8:	84 81       	ldd	r24, Z+4	; 0x04
    33fa:	95 81       	ldd	r25, Z+5	; 0x05
    33fc:	01 96       	adiw	r24, 0x01	; 1
    33fe:	95 83       	std	Z+5, r25	; 0x05
    3400:	84 83       	std	Z+4, r24	; 0x04
    3402:	18 16       	cp	r1, r24
    3404:	19 06       	cpc	r1, r25
    3406:	0c f0       	brlt	.+2      	; 0x340a <_Z5checkv+0x6d2>
    3408:	ff c1       	rjmp	.+1022   	; 0x3808 <_Z5checkv+0xad0>
    340a:	0f 2e       	mov	r0, r31
    340c:	f2 e4       	ldi	r31, 0x42	; 66
    340e:	cf 2e       	mov	r12, r31
    3410:	f6 e0       	ldi	r31, 0x06	; 6
    3412:	df 2e       	mov	r13, r31
    3414:	f0 2d       	mov	r31, r0
    3416:	e1 2c       	mov	r14, r1
    3418:	f1 2c       	mov	r15, r1
    341a:	ef 01       	movw	r28, r30
    341c:	56 01       	movw	r10, r12
    341e:	4a 89       	ldd	r20, Y+18	; 0x12
    3420:	5b 89       	ldd	r21, Y+19	; 0x13
    3422:	4e 5f       	subi	r20, 0xFE	; 254
    3424:	5f 4f       	sbci	r21, 0xFF	; 255
    3426:	f6 01       	movw	r30, r12
    3428:	61 91       	ld	r22, Z+
    342a:	71 91       	ld	r23, Z+
    342c:	6f 01       	movw	r12, r30
    342e:	08 e0       	ldi	r16, 0x08	; 8
    3430:	10 e0       	ldi	r17, 0x00	; 0
    3432:	21 e0       	ldi	r18, 0x01	; 1
    3434:	30 e0       	ldi	r19, 0x00	; 0
    3436:	82 e7       	ldi	r24, 0x72	; 114
    3438:	96 e0       	ldi	r25, 0x06	; 6
    343a:	60 d6       	rcall	.+3264   	; 0x40fc <_ZN4OLED21OLED_Clear_Bufer_partEiiii>
    343c:	4a 89       	ldd	r20, Y+18	; 0x12
    343e:	5b 89       	ldd	r21, Y+19	; 0x13
    3440:	41 50       	subi	r20, 0x01	; 1
    3442:	51 09       	sbc	r21, r1
    3444:	f5 01       	movw	r30, r10
    3446:	60 81       	ld	r22, Z
    3448:	71 81       	ldd	r23, Z+1	; 0x01
    344a:	21 e0       	ldi	r18, 0x01	; 1
    344c:	30 e0       	ldi	r19, 0x00	; 0
    344e:	82 e7       	ldi	r24, 0x72	; 114
    3450:	96 e0       	ldi	r25, 0x06	; 6
    3452:	54 d6       	rcall	.+3240   	; 0x40fc <_ZN4OLED21OLED_Clear_Bufer_partEiiii>
    3454:	ff ef       	ldi	r31, 0xFF	; 255
    3456:	ef 1a       	sub	r14, r31
    3458:	ff 0a       	sbc	r15, r31
    345a:	8c 81       	ldd	r24, Y+4	; 0x04
    345c:	9d 81       	ldd	r25, Y+5	; 0x05
    345e:	e8 16       	cp	r14, r24
    3460:	f9 06       	cpc	r15, r25
    3462:	e4 f2       	brlt	.-72     	; 0x341c <_Z5checkv+0x6e4>
    3464:	d1 c1       	rjmp	.+930    	; 0x3808 <_Z5checkv+0xad0>
    3466:	ea e3       	ldi	r30, 0x3A	; 58
    3468:	f6 e0       	ldi	r31, 0x06	; 6
    346a:	84 81       	ldd	r24, Z+4	; 0x04
    346c:	95 81       	ldd	r25, Z+5	; 0x05
    346e:	01 96       	adiw	r24, 0x01	; 1
    3470:	95 83       	std	Z+5, r25	; 0x05
    3472:	84 83       	std	Z+4, r24	; 0x04
    3474:	18 16       	cp	r1, r24
    3476:	19 06       	cpc	r1, r25
    3478:	0c f0       	brlt	.+2      	; 0x347c <_Z5checkv+0x744>
    347a:	c6 c1       	rjmp	.+908    	; 0x3808 <_Z5checkv+0xad0>
    347c:	0f 2e       	mov	r0, r31
    347e:	f2 e4       	ldi	r31, 0x42	; 66
    3480:	cf 2e       	mov	r12, r31
    3482:	f6 e0       	ldi	r31, 0x06	; 6
    3484:	df 2e       	mov	r13, r31
    3486:	f0 2d       	mov	r31, r0
    3488:	e1 2c       	mov	r14, r1
    348a:	f1 2c       	mov	r15, r1
    348c:	ef 01       	movw	r28, r30
    348e:	56 01       	movw	r10, r12
    3490:	4a 89       	ldd	r20, Y+18	; 0x12
    3492:	5b 89       	ldd	r21, Y+19	; 0x13
    3494:	4e 5f       	subi	r20, 0xFE	; 254
    3496:	5f 4f       	sbci	r21, 0xFF	; 255
    3498:	f6 01       	movw	r30, r12
    349a:	61 91       	ld	r22, Z+
    349c:	71 91       	ld	r23, Z+
    349e:	6f 01       	movw	r12, r30
    34a0:	08 e0       	ldi	r16, 0x08	; 8
    34a2:	10 e0       	ldi	r17, 0x00	; 0
    34a4:	21 e0       	ldi	r18, 0x01	; 1
    34a6:	30 e0       	ldi	r19, 0x00	; 0
    34a8:	82 e7       	ldi	r24, 0x72	; 114
    34aa:	96 e0       	ldi	r25, 0x06	; 6
    34ac:	27 d6       	rcall	.+3150   	; 0x40fc <_ZN4OLED21OLED_Clear_Bufer_partEiiii>
    34ae:	4a 89       	ldd	r20, Y+18	; 0x12
    34b0:	5b 89       	ldd	r21, Y+19	; 0x13
    34b2:	41 50       	subi	r20, 0x01	; 1
    34b4:	51 09       	sbc	r21, r1
    34b6:	f5 01       	movw	r30, r10
    34b8:	60 81       	ld	r22, Z
    34ba:	71 81       	ldd	r23, Z+1	; 0x01
    34bc:	21 e0       	ldi	r18, 0x01	; 1
    34be:	30 e0       	ldi	r19, 0x00	; 0
    34c0:	82 e7       	ldi	r24, 0x72	; 114
    34c2:	96 e0       	ldi	r25, 0x06	; 6
    34c4:	1b d6       	rcall	.+3126   	; 0x40fc <_ZN4OLED21OLED_Clear_Bufer_partEiiii>
    34c6:	ff ef       	ldi	r31, 0xFF	; 255
    34c8:	ef 1a       	sub	r14, r31
    34ca:	ff 0a       	sbc	r15, r31
    34cc:	8c 81       	ldd	r24, Y+4	; 0x04
    34ce:	9d 81       	ldd	r25, Y+5	; 0x05
    34d0:	e8 16       	cp	r14, r24
    34d2:	f9 06       	cpc	r15, r25
    34d4:	e4 f2       	brlt	.-72     	; 0x348e <_Z5checkv+0x756>
    34d6:	98 c1       	rjmp	.+816    	; 0x3808 <_Z5checkv+0xad0>
    34d8:	ea e3       	ldi	r30, 0x3A	; 58
    34da:	f6 e0       	ldi	r31, 0x06	; 6
    34dc:	84 81       	ldd	r24, Z+4	; 0x04
    34de:	95 81       	ldd	r25, Z+5	; 0x05
    34e0:	01 96       	adiw	r24, 0x01	; 1
    34e2:	95 83       	std	Z+5, r25	; 0x05
    34e4:	84 83       	std	Z+4, r24	; 0x04
    34e6:	18 16       	cp	r1, r24
    34e8:	19 06       	cpc	r1, r25
    34ea:	0c f0       	brlt	.+2      	; 0x34ee <_Z5checkv+0x7b6>
    34ec:	8d c1       	rjmp	.+794    	; 0x3808 <_Z5checkv+0xad0>
    34ee:	0f 2e       	mov	r0, r31
    34f0:	f2 e4       	ldi	r31, 0x42	; 66
    34f2:	cf 2e       	mov	r12, r31
    34f4:	f6 e0       	ldi	r31, 0x06	; 6
    34f6:	df 2e       	mov	r13, r31
    34f8:	f0 2d       	mov	r31, r0
    34fa:	e1 2c       	mov	r14, r1
    34fc:	f1 2c       	mov	r15, r1
    34fe:	ef 01       	movw	r28, r30
    3500:	56 01       	movw	r10, r12
    3502:	4a 89       	ldd	r20, Y+18	; 0x12
    3504:	5b 89       	ldd	r21, Y+19	; 0x13
    3506:	4e 5f       	subi	r20, 0xFE	; 254
    3508:	5f 4f       	sbci	r21, 0xFF	; 255
    350a:	f6 01       	movw	r30, r12
    350c:	61 91       	ld	r22, Z+
    350e:	71 91       	ld	r23, Z+
    3510:	6f 01       	movw	r12, r30
    3512:	08 e0       	ldi	r16, 0x08	; 8
    3514:	10 e0       	ldi	r17, 0x00	; 0
    3516:	21 e0       	ldi	r18, 0x01	; 1
    3518:	30 e0       	ldi	r19, 0x00	; 0
    351a:	82 e7       	ldi	r24, 0x72	; 114
    351c:	96 e0       	ldi	r25, 0x06	; 6
    351e:	ee d5       	rcall	.+3036   	; 0x40fc <_ZN4OLED21OLED_Clear_Bufer_partEiiii>
    3520:	4a 89       	ldd	r20, Y+18	; 0x12
    3522:	5b 89       	ldd	r21, Y+19	; 0x13
    3524:	41 50       	subi	r20, 0x01	; 1
    3526:	51 09       	sbc	r21, r1
    3528:	f5 01       	movw	r30, r10
    352a:	60 81       	ld	r22, Z
    352c:	71 81       	ldd	r23, Z+1	; 0x01
    352e:	21 e0       	ldi	r18, 0x01	; 1
    3530:	30 e0       	ldi	r19, 0x00	; 0
    3532:	82 e7       	ldi	r24, 0x72	; 114
    3534:	96 e0       	ldi	r25, 0x06	; 6
    3536:	e2 d5       	rcall	.+3012   	; 0x40fc <_ZN4OLED21OLED_Clear_Bufer_partEiiii>
    3538:	ff ef       	ldi	r31, 0xFF	; 255
    353a:	ef 1a       	sub	r14, r31
    353c:	ff 0a       	sbc	r15, r31
    353e:	8c 81       	ldd	r24, Y+4	; 0x04
    3540:	9d 81       	ldd	r25, Y+5	; 0x05
    3542:	e8 16       	cp	r14, r24
    3544:	f9 06       	cpc	r15, r25
    3546:	e4 f2       	brlt	.-72     	; 0x3500 <_Z5checkv+0x7c8>
    3548:	5f c1       	rjmp	.+702    	; 0x3808 <_Z5checkv+0xad0>
    354a:	ea e3       	ldi	r30, 0x3A	; 58
    354c:	f6 e0       	ldi	r31, 0x06	; 6
    354e:	84 81       	ldd	r24, Z+4	; 0x04
    3550:	95 81       	ldd	r25, Z+5	; 0x05
    3552:	01 96       	adiw	r24, 0x01	; 1
    3554:	95 83       	std	Z+5, r25	; 0x05
    3556:	84 83       	std	Z+4, r24	; 0x04
    3558:	18 16       	cp	r1, r24
    355a:	19 06       	cpc	r1, r25
    355c:	0c f0       	brlt	.+2      	; 0x3560 <_Z5checkv+0x828>
    355e:	54 c1       	rjmp	.+680    	; 0x3808 <_Z5checkv+0xad0>
    3560:	0f 2e       	mov	r0, r31
    3562:	f2 e4       	ldi	r31, 0x42	; 66
    3564:	cf 2e       	mov	r12, r31
    3566:	f6 e0       	ldi	r31, 0x06	; 6
    3568:	df 2e       	mov	r13, r31
    356a:	f0 2d       	mov	r31, r0
    356c:	e1 2c       	mov	r14, r1
    356e:	f1 2c       	mov	r15, r1
    3570:	ef 01       	movw	r28, r30
    3572:	56 01       	movw	r10, r12
    3574:	4a 89       	ldd	r20, Y+18	; 0x12
    3576:	5b 89       	ldd	r21, Y+19	; 0x13
    3578:	4e 5f       	subi	r20, 0xFE	; 254
    357a:	5f 4f       	sbci	r21, 0xFF	; 255
    357c:	f6 01       	movw	r30, r12
    357e:	61 91       	ld	r22, Z+
    3580:	71 91       	ld	r23, Z+
    3582:	6f 01       	movw	r12, r30
    3584:	08 e0       	ldi	r16, 0x08	; 8
    3586:	10 e0       	ldi	r17, 0x00	; 0
    3588:	21 e0       	ldi	r18, 0x01	; 1
    358a:	30 e0       	ldi	r19, 0x00	; 0
    358c:	82 e7       	ldi	r24, 0x72	; 114
    358e:	96 e0       	ldi	r25, 0x06	; 6
    3590:	b5 d5       	rcall	.+2922   	; 0x40fc <_ZN4OLED21OLED_Clear_Bufer_partEiiii>
    3592:	4a 89       	ldd	r20, Y+18	; 0x12
    3594:	5b 89       	ldd	r21, Y+19	; 0x13
    3596:	41 50       	subi	r20, 0x01	; 1
    3598:	51 09       	sbc	r21, r1
    359a:	f5 01       	movw	r30, r10
    359c:	60 81       	ld	r22, Z
    359e:	71 81       	ldd	r23, Z+1	; 0x01
    35a0:	21 e0       	ldi	r18, 0x01	; 1
    35a2:	30 e0       	ldi	r19, 0x00	; 0
    35a4:	82 e7       	ldi	r24, 0x72	; 114
    35a6:	96 e0       	ldi	r25, 0x06	; 6
    35a8:	a9 d5       	rcall	.+2898   	; 0x40fc <_ZN4OLED21OLED_Clear_Bufer_partEiiii>
    35aa:	ff ef       	ldi	r31, 0xFF	; 255
    35ac:	ef 1a       	sub	r14, r31
    35ae:	ff 0a       	sbc	r15, r31
    35b0:	8c 81       	ldd	r24, Y+4	; 0x04
    35b2:	9d 81       	ldd	r25, Y+5	; 0x05
    35b4:	e8 16       	cp	r14, r24
    35b6:	f9 06       	cpc	r15, r25
    35b8:	e4 f2       	brlt	.-72     	; 0x3572 <_Z5checkv+0x83a>
    35ba:	26 c1       	rjmp	.+588    	; 0x3808 <_Z5checkv+0xad0>
    35bc:	ea e3       	ldi	r30, 0x3A	; 58
    35be:	f6 e0       	ldi	r31, 0x06	; 6
    35c0:	84 81       	ldd	r24, Z+4	; 0x04
    35c2:	95 81       	ldd	r25, Z+5	; 0x05
    35c4:	01 96       	adiw	r24, 0x01	; 1
    35c6:	95 83       	std	Z+5, r25	; 0x05
    35c8:	84 83       	std	Z+4, r24	; 0x04
    35ca:	18 16       	cp	r1, r24
    35cc:	19 06       	cpc	r1, r25
    35ce:	0c f0       	brlt	.+2      	; 0x35d2 <_Z5checkv+0x89a>
    35d0:	1b c1       	rjmp	.+566    	; 0x3808 <_Z5checkv+0xad0>
    35d2:	0f 2e       	mov	r0, r31
    35d4:	f2 e4       	ldi	r31, 0x42	; 66
    35d6:	cf 2e       	mov	r12, r31
    35d8:	f6 e0       	ldi	r31, 0x06	; 6
    35da:	df 2e       	mov	r13, r31
    35dc:	f0 2d       	mov	r31, r0
    35de:	e1 2c       	mov	r14, r1
    35e0:	f1 2c       	mov	r15, r1
    35e2:	ef 01       	movw	r28, r30
    35e4:	56 01       	movw	r10, r12
    35e6:	4a 89       	ldd	r20, Y+18	; 0x12
    35e8:	5b 89       	ldd	r21, Y+19	; 0x13
    35ea:	4e 5f       	subi	r20, 0xFE	; 254
    35ec:	5f 4f       	sbci	r21, 0xFF	; 255
    35ee:	f6 01       	movw	r30, r12
    35f0:	61 91       	ld	r22, Z+
    35f2:	71 91       	ld	r23, Z+
    35f4:	6f 01       	movw	r12, r30
    35f6:	08 e0       	ldi	r16, 0x08	; 8
    35f8:	10 e0       	ldi	r17, 0x00	; 0
    35fa:	21 e0       	ldi	r18, 0x01	; 1
    35fc:	30 e0       	ldi	r19, 0x00	; 0
    35fe:	82 e7       	ldi	r24, 0x72	; 114
    3600:	96 e0       	ldi	r25, 0x06	; 6
    3602:	7c d5       	rcall	.+2808   	; 0x40fc <_ZN4OLED21OLED_Clear_Bufer_partEiiii>
    3604:	4a 89       	ldd	r20, Y+18	; 0x12
    3606:	5b 89       	ldd	r21, Y+19	; 0x13
    3608:	41 50       	subi	r20, 0x01	; 1
    360a:	51 09       	sbc	r21, r1
    360c:	f5 01       	movw	r30, r10
    360e:	60 81       	ld	r22, Z
    3610:	71 81       	ldd	r23, Z+1	; 0x01
    3612:	21 e0       	ldi	r18, 0x01	; 1
    3614:	30 e0       	ldi	r19, 0x00	; 0
    3616:	82 e7       	ldi	r24, 0x72	; 114
    3618:	96 e0       	ldi	r25, 0x06	; 6
    361a:	70 d5       	rcall	.+2784   	; 0x40fc <_ZN4OLED21OLED_Clear_Bufer_partEiiii>
    361c:	ff ef       	ldi	r31, 0xFF	; 255
    361e:	ef 1a       	sub	r14, r31
    3620:	ff 0a       	sbc	r15, r31
    3622:	8c 81       	ldd	r24, Y+4	; 0x04
    3624:	9d 81       	ldd	r25, Y+5	; 0x05
    3626:	e8 16       	cp	r14, r24
    3628:	f9 06       	cpc	r15, r25
    362a:	e4 f2       	brlt	.-72     	; 0x35e4 <_Z5checkv+0x8ac>
    362c:	ed c0       	rjmp	.+474    	; 0x3808 <_Z5checkv+0xad0>
    362e:	ea e3       	ldi	r30, 0x3A	; 58
    3630:	f6 e0       	ldi	r31, 0x06	; 6
    3632:	84 81       	ldd	r24, Z+4	; 0x04
    3634:	95 81       	ldd	r25, Z+5	; 0x05
    3636:	01 96       	adiw	r24, 0x01	; 1
    3638:	95 83       	std	Z+5, r25	; 0x05
    363a:	84 83       	std	Z+4, r24	; 0x04
    363c:	18 16       	cp	r1, r24
    363e:	19 06       	cpc	r1, r25
    3640:	0c f0       	brlt	.+2      	; 0x3644 <_Z5checkv+0x90c>
    3642:	e2 c0       	rjmp	.+452    	; 0x3808 <_Z5checkv+0xad0>
    3644:	0f 2e       	mov	r0, r31
    3646:	f2 e4       	ldi	r31, 0x42	; 66
    3648:	cf 2e       	mov	r12, r31
    364a:	f6 e0       	ldi	r31, 0x06	; 6
    364c:	df 2e       	mov	r13, r31
    364e:	f0 2d       	mov	r31, r0
    3650:	e1 2c       	mov	r14, r1
    3652:	f1 2c       	mov	r15, r1
    3654:	ef 01       	movw	r28, r30
    3656:	56 01       	movw	r10, r12
    3658:	4a 89       	ldd	r20, Y+18	; 0x12
    365a:	5b 89       	ldd	r21, Y+19	; 0x13
    365c:	4e 5f       	subi	r20, 0xFE	; 254
    365e:	5f 4f       	sbci	r21, 0xFF	; 255
    3660:	f6 01       	movw	r30, r12
    3662:	61 91       	ld	r22, Z+
    3664:	71 91       	ld	r23, Z+
    3666:	6f 01       	movw	r12, r30
    3668:	08 e0       	ldi	r16, 0x08	; 8
    366a:	10 e0       	ldi	r17, 0x00	; 0
    366c:	21 e0       	ldi	r18, 0x01	; 1
    366e:	30 e0       	ldi	r19, 0x00	; 0
    3670:	82 e7       	ldi	r24, 0x72	; 114
    3672:	96 e0       	ldi	r25, 0x06	; 6
    3674:	43 d5       	rcall	.+2694   	; 0x40fc <_ZN4OLED21OLED_Clear_Bufer_partEiiii>
    3676:	4a 89       	ldd	r20, Y+18	; 0x12
    3678:	5b 89       	ldd	r21, Y+19	; 0x13
    367a:	41 50       	subi	r20, 0x01	; 1
    367c:	51 09       	sbc	r21, r1
    367e:	f5 01       	movw	r30, r10
    3680:	60 81       	ld	r22, Z
    3682:	71 81       	ldd	r23, Z+1	; 0x01
    3684:	21 e0       	ldi	r18, 0x01	; 1
    3686:	30 e0       	ldi	r19, 0x00	; 0
    3688:	82 e7       	ldi	r24, 0x72	; 114
    368a:	96 e0       	ldi	r25, 0x06	; 6
    368c:	37 d5       	rcall	.+2670   	; 0x40fc <_ZN4OLED21OLED_Clear_Bufer_partEiiii>
    368e:	ff ef       	ldi	r31, 0xFF	; 255
    3690:	ef 1a       	sub	r14, r31
    3692:	ff 0a       	sbc	r15, r31
    3694:	8c 81       	ldd	r24, Y+4	; 0x04
    3696:	9d 81       	ldd	r25, Y+5	; 0x05
    3698:	e8 16       	cp	r14, r24
    369a:	f9 06       	cpc	r15, r25
    369c:	e4 f2       	brlt	.-72     	; 0x3656 <_Z5checkv+0x91e>
    369e:	b4 c0       	rjmp	.+360    	; 0x3808 <_Z5checkv+0xad0>
    36a0:	ea e3       	ldi	r30, 0x3A	; 58
    36a2:	f6 e0       	ldi	r31, 0x06	; 6
    36a4:	84 81       	ldd	r24, Z+4	; 0x04
    36a6:	95 81       	ldd	r25, Z+5	; 0x05
    36a8:	01 96       	adiw	r24, 0x01	; 1
    36aa:	95 83       	std	Z+5, r25	; 0x05
    36ac:	84 83       	std	Z+4, r24	; 0x04
    36ae:	18 16       	cp	r1, r24
    36b0:	19 06       	cpc	r1, r25
    36b2:	0c f0       	brlt	.+2      	; 0x36b6 <_Z5checkv+0x97e>
    36b4:	a9 c0       	rjmp	.+338    	; 0x3808 <_Z5checkv+0xad0>
    36b6:	0f 2e       	mov	r0, r31
    36b8:	f2 e4       	ldi	r31, 0x42	; 66
    36ba:	cf 2e       	mov	r12, r31
    36bc:	f6 e0       	ldi	r31, 0x06	; 6
    36be:	df 2e       	mov	r13, r31
    36c0:	f0 2d       	mov	r31, r0
    36c2:	e1 2c       	mov	r14, r1
    36c4:	f1 2c       	mov	r15, r1
    36c6:	ef 01       	movw	r28, r30
    36c8:	56 01       	movw	r10, r12
    36ca:	4a 89       	ldd	r20, Y+18	; 0x12
    36cc:	5b 89       	ldd	r21, Y+19	; 0x13
    36ce:	4e 5f       	subi	r20, 0xFE	; 254
    36d0:	5f 4f       	sbci	r21, 0xFF	; 255
    36d2:	f6 01       	movw	r30, r12
    36d4:	61 91       	ld	r22, Z+
    36d6:	71 91       	ld	r23, Z+
    36d8:	6f 01       	movw	r12, r30
    36da:	08 e0       	ldi	r16, 0x08	; 8
    36dc:	10 e0       	ldi	r17, 0x00	; 0
    36de:	21 e0       	ldi	r18, 0x01	; 1
    36e0:	30 e0       	ldi	r19, 0x00	; 0
    36e2:	82 e7       	ldi	r24, 0x72	; 114
    36e4:	96 e0       	ldi	r25, 0x06	; 6
    36e6:	0a d5       	rcall	.+2580   	; 0x40fc <_ZN4OLED21OLED_Clear_Bufer_partEiiii>
    36e8:	4a 89       	ldd	r20, Y+18	; 0x12
    36ea:	5b 89       	ldd	r21, Y+19	; 0x13
    36ec:	41 50       	subi	r20, 0x01	; 1
    36ee:	51 09       	sbc	r21, r1
    36f0:	f5 01       	movw	r30, r10
    36f2:	60 81       	ld	r22, Z
    36f4:	71 81       	ldd	r23, Z+1	; 0x01
    36f6:	21 e0       	ldi	r18, 0x01	; 1
    36f8:	30 e0       	ldi	r19, 0x00	; 0
    36fa:	82 e7       	ldi	r24, 0x72	; 114
    36fc:	96 e0       	ldi	r25, 0x06	; 6
    36fe:	fe d4       	rcall	.+2556   	; 0x40fc <_ZN4OLED21OLED_Clear_Bufer_partEiiii>
    3700:	ff ef       	ldi	r31, 0xFF	; 255
    3702:	ef 1a       	sub	r14, r31
    3704:	ff 0a       	sbc	r15, r31
    3706:	8c 81       	ldd	r24, Y+4	; 0x04
    3708:	9d 81       	ldd	r25, Y+5	; 0x05
    370a:	e8 16       	cp	r14, r24
    370c:	f9 06       	cpc	r15, r25
    370e:	e4 f2       	brlt	.-72     	; 0x36c8 <_Z5checkv+0x990>
    3710:	7b c0       	rjmp	.+246    	; 0x3808 <_Z5checkv+0xad0>
    3712:	ea e3       	ldi	r30, 0x3A	; 58
    3714:	f6 e0       	ldi	r31, 0x06	; 6
    3716:	84 81       	ldd	r24, Z+4	; 0x04
    3718:	95 81       	ldd	r25, Z+5	; 0x05
    371a:	01 96       	adiw	r24, 0x01	; 1
    371c:	95 83       	std	Z+5, r25	; 0x05
    371e:	84 83       	std	Z+4, r24	; 0x04
    3720:	18 16       	cp	r1, r24
    3722:	19 06       	cpc	r1, r25
    3724:	0c f0       	brlt	.+2      	; 0x3728 <_Z5checkv+0x9f0>
    3726:	70 c0       	rjmp	.+224    	; 0x3808 <_Z5checkv+0xad0>
    3728:	0f 2e       	mov	r0, r31
    372a:	f2 e4       	ldi	r31, 0x42	; 66
    372c:	cf 2e       	mov	r12, r31
    372e:	f6 e0       	ldi	r31, 0x06	; 6
    3730:	df 2e       	mov	r13, r31
    3732:	f0 2d       	mov	r31, r0
    3734:	e1 2c       	mov	r14, r1
    3736:	f1 2c       	mov	r15, r1
    3738:	ef 01       	movw	r28, r30
    373a:	56 01       	movw	r10, r12
    373c:	4a 89       	ldd	r20, Y+18	; 0x12
    373e:	5b 89       	ldd	r21, Y+19	; 0x13
    3740:	4e 5f       	subi	r20, 0xFE	; 254
    3742:	5f 4f       	sbci	r21, 0xFF	; 255
    3744:	f6 01       	movw	r30, r12
    3746:	61 91       	ld	r22, Z+
    3748:	71 91       	ld	r23, Z+
    374a:	6f 01       	movw	r12, r30
    374c:	08 e0       	ldi	r16, 0x08	; 8
    374e:	10 e0       	ldi	r17, 0x00	; 0
    3750:	21 e0       	ldi	r18, 0x01	; 1
    3752:	30 e0       	ldi	r19, 0x00	; 0
    3754:	82 e7       	ldi	r24, 0x72	; 114
    3756:	96 e0       	ldi	r25, 0x06	; 6
    3758:	d1 d4       	rcall	.+2466   	; 0x40fc <_ZN4OLED21OLED_Clear_Bufer_partEiiii>
    375a:	4a 89       	ldd	r20, Y+18	; 0x12
    375c:	5b 89       	ldd	r21, Y+19	; 0x13
    375e:	41 50       	subi	r20, 0x01	; 1
    3760:	51 09       	sbc	r21, r1
    3762:	f5 01       	movw	r30, r10
    3764:	60 81       	ld	r22, Z
    3766:	71 81       	ldd	r23, Z+1	; 0x01
    3768:	21 e0       	ldi	r18, 0x01	; 1
    376a:	30 e0       	ldi	r19, 0x00	; 0
    376c:	82 e7       	ldi	r24, 0x72	; 114
    376e:	96 e0       	ldi	r25, 0x06	; 6
    3770:	c5 d4       	rcall	.+2442   	; 0x40fc <_ZN4OLED21OLED_Clear_Bufer_partEiiii>
    3772:	ff ef       	ldi	r31, 0xFF	; 255
    3774:	ef 1a       	sub	r14, r31
    3776:	ff 0a       	sbc	r15, r31
    3778:	8c 81       	ldd	r24, Y+4	; 0x04
    377a:	9d 81       	ldd	r25, Y+5	; 0x05
    377c:	e8 16       	cp	r14, r24
    377e:	f9 06       	cpc	r15, r25
    3780:	e4 f2       	brlt	.-72     	; 0x373a <_Z5checkv+0xa02>
    3782:	42 c0       	rjmp	.+132    	; 0x3808 <_Z5checkv+0xad0>
    3784:	ea e3       	ldi	r30, 0x3A	; 58
    3786:	f6 e0       	ldi	r31, 0x06	; 6
    3788:	84 81       	ldd	r24, Z+4	; 0x04
    378a:	95 81       	ldd	r25, Z+5	; 0x05
    378c:	01 96       	adiw	r24, 0x01	; 1
    378e:	95 83       	std	Z+5, r25	; 0x05
    3790:	84 83       	std	Z+4, r24	; 0x04
    3792:	18 16       	cp	r1, r24
    3794:	19 06       	cpc	r1, r25
    3796:	c4 f5       	brge	.+112    	; 0x3808 <_Z5checkv+0xad0>
    3798:	0f 2e       	mov	r0, r31
    379a:	f2 e4       	ldi	r31, 0x42	; 66
    379c:	cf 2e       	mov	r12, r31
    379e:	f6 e0       	ldi	r31, 0x06	; 6
    37a0:	df 2e       	mov	r13, r31
    37a2:	f0 2d       	mov	r31, r0
    37a4:	e1 2c       	mov	r14, r1
    37a6:	f1 2c       	mov	r15, r1
    37a8:	ef 01       	movw	r28, r30
    37aa:	56 01       	movw	r10, r12
    37ac:	4a 89       	ldd	r20, Y+18	; 0x12
    37ae:	5b 89       	ldd	r21, Y+19	; 0x13
    37b0:	4e 5f       	subi	r20, 0xFE	; 254
    37b2:	5f 4f       	sbci	r21, 0xFF	; 255
    37b4:	f6 01       	movw	r30, r12
    37b6:	61 91       	ld	r22, Z+
    37b8:	71 91       	ld	r23, Z+
    37ba:	6f 01       	movw	r12, r30
    37bc:	08 e0       	ldi	r16, 0x08	; 8
    37be:	10 e0       	ldi	r17, 0x00	; 0
    37c0:	21 e0       	ldi	r18, 0x01	; 1
    37c2:	30 e0       	ldi	r19, 0x00	; 0
    37c4:	82 e7       	ldi	r24, 0x72	; 114
    37c6:	96 e0       	ldi	r25, 0x06	; 6
    37c8:	99 d4       	rcall	.+2354   	; 0x40fc <_ZN4OLED21OLED_Clear_Bufer_partEiiii>
    37ca:	4a 89       	ldd	r20, Y+18	; 0x12
    37cc:	5b 89       	ldd	r21, Y+19	; 0x13
    37ce:	41 50       	subi	r20, 0x01	; 1
    37d0:	51 09       	sbc	r21, r1
    37d2:	f5 01       	movw	r30, r10
    37d4:	60 81       	ld	r22, Z
    37d6:	71 81       	ldd	r23, Z+1	; 0x01
    37d8:	21 e0       	ldi	r18, 0x01	; 1
    37da:	30 e0       	ldi	r19, 0x00	; 0
    37dc:	82 e7       	ldi	r24, 0x72	; 114
    37de:	96 e0       	ldi	r25, 0x06	; 6
    37e0:	8d d4       	rcall	.+2330   	; 0x40fc <_ZN4OLED21OLED_Clear_Bufer_partEiiii>
    37e2:	ff ef       	ldi	r31, 0xFF	; 255
    37e4:	ef 1a       	sub	r14, r31
    37e6:	ff 0a       	sbc	r15, r31
    37e8:	8c 81       	ldd	r24, Y+4	; 0x04
    37ea:	9d 81       	ldd	r25, Y+5	; 0x05
    37ec:	e8 16       	cp	r14, r24
    37ee:	f9 06       	cpc	r15, r25
    37f0:	e4 f2       	brlt	.-72     	; 0x37aa <_Z5checkv+0xa72>
    37f2:	0a c0       	rjmp	.+20     	; 0x3808 <_Z5checkv+0xad0>
    37f4:	e0 91 3a 06 	lds	r30, 0x063A	; 0x80063a <passw_menu>
    37f8:	f0 91 3b 06 	lds	r31, 0x063B	; 0x80063b <passw_menu+0x1>
    37fc:	04 84       	ldd	r0, Z+12	; 0x0c
    37fe:	f5 85       	ldd	r31, Z+13	; 0x0d
    3800:	e0 2d       	mov	r30, r0
    3802:	8a e3       	ldi	r24, 0x3A	; 58
    3804:	96 e0       	ldi	r25, 0x06	; 6
    3806:	09 95       	icall
    3808:	80 91 3e 06 	lds	r24, 0x063E	; 0x80063e <passw_menu+0x4>
    380c:	90 91 3f 06 	lds	r25, 0x063F	; 0x80063f <passw_menu+0x5>
    3810:	05 97       	sbiw	r24, 0x05	; 5
    3812:	84 f0       	brlt	.+32     	; 0x3834 <_Z5checkv+0xafc>
    3814:	81 e0       	ldi	r24, 0x01	; 1
    3816:	80 93 00 01 	sts	0x0100, r24	; 0x800100 <Main_Menu_Status>
    381a:	10 92 71 06 	sts	0x0671, r1	; 0x800671 <Password_Menu_Status>
    381e:	e0 91 3a 06 	lds	r30, 0x063A	; 0x80063a <passw_menu>
    3822:	f0 91 3b 06 	lds	r31, 0x063B	; 0x80063b <passw_menu+0x1>
    3826:	04 80       	ldd	r0, Z+4	; 0x04
    3828:	f5 81       	ldd	r31, Z+5	; 0x05
    382a:	e0 2d       	mov	r30, r0
    382c:	8a e3       	ldi	r24, 0x3A	; 58
    382e:	96 e0       	ldi	r25, 0x06	; 6
    3830:	09 95       	icall
    3832:	b4 c0       	rjmp	.+360    	; 0x399c <_Z5checkv+0xc64>
    3834:	ea e3       	ldi	r30, 0x3A	; 58
    3836:	f6 e0       	ldi	r31, 0x06	; 6
    3838:	17 82       	std	Z+7, r1	; 0x07
    383a:	16 82       	std	Z+6, r1	; 0x06
    383c:	01 90       	ld	r0, Z+
    383e:	f0 81       	ld	r31, Z
    3840:	e0 2d       	mov	r30, r0
    3842:	00 88       	ldd	r0, Z+16	; 0x10
    3844:	f1 89       	ldd	r31, Z+17	; 0x11
    3846:	e0 2d       	mov	r30, r0
    3848:	8a e3       	ldi	r24, 0x3A	; 58
    384a:	96 e0       	ldi	r25, 0x06	; 6
    384c:	09 95       	icall
    384e:	a6 c0       	rjmp	.+332    	; 0x399c <_Z5checkv+0xc64>
    3850:	80 91 00 01 	lds	r24, 0x0100	; 0x800100 <Main_Menu_Status>
    3854:	88 23       	and	r24, r24
    3856:	e9 f1       	breq	.+122    	; 0x38d2 <_Z5checkv+0xb9a>
    3858:	80 91 38 06 	lds	r24, 0x0638	; 0x800638 <menu+0x4>
    385c:	90 91 39 06 	lds	r25, 0x0639	; 0x800639 <menu+0x5>
    3860:	81 30       	cpi	r24, 0x01	; 1
    3862:	91 05       	cpc	r25, r1
    3864:	b1 f0       	breq	.+44     	; 0x3892 <_Z5checkv+0xb5a>
    3866:	82 30       	cpi	r24, 0x02	; 2
    3868:	91 05       	cpc	r25, r1
    386a:	19 f1       	breq	.+70     	; 0x38b2 <_Z5checkv+0xb7a>
    386c:	89 2b       	or	r24, r25
    386e:	09 f0       	breq	.+2      	; 0x3872 <_Z5checkv+0xb3a>
    3870:	95 c0       	rjmp	.+298    	; 0x399c <_Z5checkv+0xc64>
    3872:	10 92 00 01 	sts	0x0100, r1	; 0x800100 <Main_Menu_Status>
    3876:	81 e0       	ldi	r24, 0x01	; 1
    3878:	80 93 71 06 	sts	0x0671, r24	; 0x800671 <Password_Menu_Status>
    387c:	e0 91 34 06 	lds	r30, 0x0634	; 0x800634 <menu>
    3880:	f0 91 35 06 	lds	r31, 0x0635	; 0x800635 <menu+0x1>
    3884:	04 80       	ldd	r0, Z+4	; 0x04
    3886:	f5 81       	ldd	r31, Z+5	; 0x05
    3888:	e0 2d       	mov	r30, r0
    388a:	84 e3       	ldi	r24, 0x34	; 52
    388c:	96 e0       	ldi	r25, 0x06	; 6
    388e:	09 95       	icall
    3890:	85 c0       	rjmp	.+266    	; 0x399c <_Z5checkv+0xc64>
    3892:	10 92 00 01 	sts	0x0100, r1	; 0x800100 <Main_Menu_Status>
    3896:	81 e0       	ldi	r24, 0x01	; 1
    3898:	80 93 70 06 	sts	0x0670, r24	; 0x800670 <Settings_Menu_Status>
    389c:	e0 91 34 06 	lds	r30, 0x0634	; 0x800634 <menu>
    38a0:	f0 91 35 06 	lds	r31, 0x0635	; 0x800635 <menu+0x1>
    38a4:	04 80       	ldd	r0, Z+4	; 0x04
    38a6:	f5 81       	ldd	r31, Z+5	; 0x05
    38a8:	e0 2d       	mov	r30, r0
    38aa:	84 e3       	ldi	r24, 0x34	; 52
    38ac:	96 e0       	ldi	r25, 0x06	; 6
    38ae:	09 95       	icall
    38b0:	75 c0       	rjmp	.+234    	; 0x399c <_Z5checkv+0xc64>
    38b2:	10 92 00 01 	sts	0x0100, r1	; 0x800100 <Main_Menu_Status>
    38b6:	81 e0       	ldi	r24, 0x01	; 1
    38b8:	80 93 6f 06 	sts	0x066F, r24	; 0x80066f <Info_Menu_Status>
    38bc:	e0 91 34 06 	lds	r30, 0x0634	; 0x800634 <menu>
    38c0:	f0 91 35 06 	lds	r31, 0x0635	; 0x800635 <menu+0x1>
    38c4:	04 80       	ldd	r0, Z+4	; 0x04
    38c6:	f5 81       	ldd	r31, Z+5	; 0x05
    38c8:	e0 2d       	mov	r30, r0
    38ca:	84 e3       	ldi	r24, 0x34	; 52
    38cc:	96 e0       	ldi	r25, 0x06	; 6
    38ce:	09 95       	icall
    38d0:	65 c0       	rjmp	.+202    	; 0x399c <_Z5checkv+0xc64>
    38d2:	80 91 70 06 	lds	r24, 0x0670	; 0x800670 <Settings_Menu_Status>
    38d6:	88 23       	and	r24, r24
    38d8:	91 f0       	breq	.+36     	; 0x38fe <_Z5checkv+0xbc6>
    38da:	80 91 52 06 	lds	r24, 0x0652	; 0x800652 <sett_menu+0x4>
    38de:	90 91 53 06 	lds	r25, 0x0653	; 0x800653 <sett_menu+0x5>
    38e2:	03 97       	sbiw	r24, 0x03	; 3
    38e4:	09 f0       	breq	.+2      	; 0x38e8 <_Z5checkv+0xbb0>
    38e6:	5a c0       	rjmp	.+180    	; 0x399c <_Z5checkv+0xc64>
    38e8:	e0 91 4e 06 	lds	r30, 0x064E	; 0x80064e <sett_menu>
    38ec:	f0 91 4f 06 	lds	r31, 0x064F	; 0x80064f <sett_menu+0x1>
    38f0:	04 84       	ldd	r0, Z+12	; 0x0c
    38f2:	f5 85       	ldd	r31, Z+13	; 0x0d
    38f4:	e0 2d       	mov	r30, r0
    38f6:	8e e4       	ldi	r24, 0x4E	; 78
    38f8:	96 e0       	ldi	r25, 0x06	; 6
    38fa:	09 95       	icall
    38fc:	4f c0       	rjmp	.+158    	; 0x399c <_Z5checkv+0xc64>
    38fe:	80 91 6f 06 	lds	r24, 0x066F	; 0x80066f <Info_Menu_Status>
    3902:	88 23       	and	r24, r24
    3904:	51 f1       	breq	.+84     	; 0x395a <_Z5checkv+0xc22>
    3906:	80 91 62 06 	lds	r24, 0x0662	; 0x800662 <inf_menu+0x4>
    390a:	90 91 63 06 	lds	r25, 0x0663	; 0x800663 <inf_menu+0x5>
    390e:	81 30       	cpi	r24, 0x01	; 1
    3910:	91 05       	cpc	r25, r1
    3912:	79 f0       	breq	.+30     	; 0x3932 <_Z5checkv+0xbfa>
    3914:	82 30       	cpi	r24, 0x02	; 2
    3916:	91 05       	cpc	r25, r1
    3918:	a9 f0       	breq	.+42     	; 0x3944 <_Z5checkv+0xc0c>
    391a:	89 2b       	or	r24, r25
    391c:	09 f0       	breq	.+2      	; 0x3920 <_Z5checkv+0xbe8>
    391e:	3e c0       	rjmp	.+124    	; 0x399c <_Z5checkv+0xc64>
    3920:	10 92 6f 06 	sts	0x066F, r1	; 0x80066f <Info_Menu_Status>
    3924:	81 e0       	ldi	r24, 0x01	; 1
    3926:	80 93 6d 06 	sts	0x066D, r24	; 0x80066d <Device_Info_Status>
    392a:	82 e7       	ldi	r24, 0x72	; 114
    392c:	96 e0       	ldi	r25, 0x06	; 6
    392e:	55 d3       	rcall	.+1706   	; 0x3fda <_ZN4OLED16OLED_Bufer_ClearEv>
    3930:	35 c0       	rjmp	.+106    	; 0x399c <_Z5checkv+0xc64>
    3932:	10 92 6f 06 	sts	0x066F, r1	; 0x80066f <Info_Menu_Status>
    3936:	81 e0       	ldi	r24, 0x01	; 1
    3938:	80 93 6e 06 	sts	0x066E, r24	; 0x80066e <User_Info_Status>
    393c:	82 e7       	ldi	r24, 0x72	; 114
    393e:	96 e0       	ldi	r25, 0x06	; 6
    3940:	4c d3       	rcall	.+1688   	; 0x3fda <_ZN4OLED16OLED_Bufer_ClearEv>
    3942:	2c c0       	rjmp	.+88     	; 0x399c <_Z5checkv+0xc64>
    3944:	e0 91 5e 06 	lds	r30, 0x065E	; 0x80065e <inf_menu>
    3948:	f0 91 5f 06 	lds	r31, 0x065F	; 0x80065f <inf_menu+0x1>
    394c:	04 84       	ldd	r0, Z+12	; 0x0c
    394e:	f5 85       	ldd	r31, Z+13	; 0x0d
    3950:	e0 2d       	mov	r30, r0
    3952:	8e e5       	ldi	r24, 0x5E	; 94
    3954:	96 e0       	ldi	r25, 0x06	; 6
    3956:	09 95       	icall
    3958:	21 c0       	rjmp	.+66     	; 0x399c <_Z5checkv+0xc64>
    395a:	80 91 6e 06 	lds	r24, 0x066E	; 0x80066e <User_Info_Status>
    395e:	88 23       	and	r24, r24
    3960:	69 f0       	breq	.+26     	; 0x397c <_Z5checkv+0xc44>
    3962:	10 92 2b 06 	sts	0x062B, r1	; 0x80062b <us_inf+0x5>
    3966:	10 92 2a 06 	sts	0x062A, r1	; 0x80062a <us_inf+0x4>
    396a:	10 92 6e 06 	sts	0x066E, r1	; 0x80066e <User_Info_Status>
    396e:	81 e0       	ldi	r24, 0x01	; 1
    3970:	80 93 6f 06 	sts	0x066F, r24	; 0x80066f <Info_Menu_Status>
    3974:	82 e7       	ldi	r24, 0x72	; 114
    3976:	96 e0       	ldi	r25, 0x06	; 6
    3978:	30 d3       	rcall	.+1632   	; 0x3fda <_ZN4OLED16OLED_Bufer_ClearEv>
    397a:	10 c0       	rjmp	.+32     	; 0x399c <_Z5checkv+0xc64>
    397c:	80 91 6d 06 	lds	r24, 0x066D	; 0x80066d <Device_Info_Status>
    3980:	88 23       	and	r24, r24
    3982:	61 f0       	breq	.+24     	; 0x399c <_Z5checkv+0xc64>
    3984:	10 92 1f 06 	sts	0x061F, r1	; 0x80061f <dev_inf+0x3>
    3988:	10 92 1e 06 	sts	0x061E, r1	; 0x80061e <dev_inf+0x2>
    398c:	10 92 6d 06 	sts	0x066D, r1	; 0x80066d <Device_Info_Status>
    3990:	81 e0       	ldi	r24, 0x01	; 1
    3992:	80 93 6f 06 	sts	0x066F, r24	; 0x80066f <Info_Menu_Status>
    3996:	82 e7       	ldi	r24, 0x72	; 114
    3998:	96 e0       	ldi	r25, 0x06	; 6
    399a:	1f d3       	rcall	.+1598   	; 0x3fda <_ZN4OLED16OLED_Bufer_ClearEv>
    399c:	10 92 1b 06 	sts	0x061B, r1	; 0x80061b <btn0>
    39a0:	10 92 1a 06 	sts	0x061A, r1	; 0x80061a <btn1>
    39a4:	10 92 19 06 	sts	0x0619, r1	; 0x800619 <btn2>
    39a8:	10 92 18 06 	sts	0x0618, r1	; 0x800618 <btn3>
    39ac:	10 92 17 06 	sts	0x0617, r1	; 0x800617 <btn03>
    39b0:	10 92 16 06 	sts	0x0616, r1	; 0x800616 <btn12>
    39b4:	05 c0       	rjmp	.+10     	; 0x39c0 <_Z5checkv+0xc88>
    39b6:	e0 91 16 06 	lds	r30, 0x0616	; 0x800616 <btn12>
    39ba:	41 e0       	ldi	r20, 0x01	; 1
    39bc:	4e 27       	eor	r20, r30
    39be:	25 cb       	rjmp	.-2486   	; 0x300a <_Z5checkv+0x2d2>
    39c0:	df 91       	pop	r29
    39c2:	cf 91       	pop	r28
    39c4:	1f 91       	pop	r17
    39c6:	0f 91       	pop	r16
    39c8:	ff 90       	pop	r15
    39ca:	ef 90       	pop	r14
    39cc:	df 90       	pop	r13
    39ce:	cf 90       	pop	r12
    39d0:	bf 90       	pop	r11
    39d2:	af 90       	pop	r10
    39d4:	08 95       	ret

000039d6 <_ZN6Batary19printlvltoOLEDbuferEv>:
    39d6:	ef 92       	push	r14
    39d8:	ff 92       	push	r15
    39da:	0f 93       	push	r16
    39dc:	1f 93       	push	r17
    39de:	cf 93       	push	r28
    39e0:	df 93       	push	r29
    39e2:	ec 01       	movw	r28, r24
    39e4:	88 81       	ld	r24, Y
    39e6:	99 81       	ldd	r25, Y+1	; 0x01
    39e8:	89 2b       	or	r24, r25
    39ea:	89 f4       	brne	.+34     	; 0x3a0e <_ZN6Batary19printlvltoOLEDbuferEv+0x38>
    39ec:	0f 2e       	mov	r0, r31
    39ee:	f9 e4       	ldi	r31, 0x49	; 73
    39f0:	ef 2e       	mov	r14, r31
    39f2:	f2 e0       	ldi	r31, 0x02	; 2
    39f4:	ff 2e       	mov	r15, r31
    39f6:	f0 2d       	mov	r31, r0
    39f8:	08 e0       	ldi	r16, 0x08	; 8
    39fa:	10 e0       	ldi	r17, 0x00	; 0
    39fc:	24 e0       	ldi	r18, 0x04	; 4
    39fe:	30 e0       	ldi	r19, 0x00	; 0
    3a00:	40 e0       	ldi	r20, 0x00	; 0
    3a02:	50 e0       	ldi	r21, 0x00	; 0
    3a04:	60 e6       	ldi	r22, 0x60	; 96
    3a06:	70 e0       	ldi	r23, 0x00	; 0
    3a08:	82 e7       	ldi	r24, 0x72	; 114
    3a0a:	96 e0       	ldi	r25, 0x06	; 6
    3a0c:	c6 d3       	rcall	.+1932   	; 0x419a <_ZN4OLED19OLED_Write_To_BuferEiiiiPKh>
    3a0e:	88 81       	ld	r24, Y
    3a10:	99 81       	ldd	r25, Y+1	; 0x01
    3a12:	01 97       	sbiw	r24, 0x01	; 1
    3a14:	89 f4       	brne	.+34     	; 0x3a38 <_ZN6Batary19printlvltoOLEDbuferEv+0x62>
    3a16:	0f 2e       	mov	r0, r31
    3a18:	f9 e2       	ldi	r31, 0x29	; 41
    3a1a:	ef 2e       	mov	r14, r31
    3a1c:	f2 e0       	ldi	r31, 0x02	; 2
    3a1e:	ff 2e       	mov	r15, r31
    3a20:	f0 2d       	mov	r31, r0
    3a22:	08 e0       	ldi	r16, 0x08	; 8
    3a24:	10 e0       	ldi	r17, 0x00	; 0
    3a26:	24 e0       	ldi	r18, 0x04	; 4
    3a28:	30 e0       	ldi	r19, 0x00	; 0
    3a2a:	40 e0       	ldi	r20, 0x00	; 0
    3a2c:	50 e0       	ldi	r21, 0x00	; 0
    3a2e:	60 e6       	ldi	r22, 0x60	; 96
    3a30:	70 e0       	ldi	r23, 0x00	; 0
    3a32:	82 e7       	ldi	r24, 0x72	; 114
    3a34:	96 e0       	ldi	r25, 0x06	; 6
    3a36:	b1 d3       	rcall	.+1890   	; 0x419a <_ZN4OLED19OLED_Write_To_BuferEiiiiPKh>
    3a38:	88 81       	ld	r24, Y
    3a3a:	99 81       	ldd	r25, Y+1	; 0x01
    3a3c:	02 97       	sbiw	r24, 0x02	; 2
    3a3e:	89 f4       	brne	.+34     	; 0x3a62 <_ZN6Batary19printlvltoOLEDbuferEv+0x8c>
    3a40:	0f 2e       	mov	r0, r31
    3a42:	f9 e0       	ldi	r31, 0x09	; 9
    3a44:	ef 2e       	mov	r14, r31
    3a46:	f2 e0       	ldi	r31, 0x02	; 2
    3a48:	ff 2e       	mov	r15, r31
    3a4a:	f0 2d       	mov	r31, r0
    3a4c:	08 e0       	ldi	r16, 0x08	; 8
    3a4e:	10 e0       	ldi	r17, 0x00	; 0
    3a50:	24 e0       	ldi	r18, 0x04	; 4
    3a52:	30 e0       	ldi	r19, 0x00	; 0
    3a54:	40 e0       	ldi	r20, 0x00	; 0
    3a56:	50 e0       	ldi	r21, 0x00	; 0
    3a58:	60 e6       	ldi	r22, 0x60	; 96
    3a5a:	70 e0       	ldi	r23, 0x00	; 0
    3a5c:	82 e7       	ldi	r24, 0x72	; 114
    3a5e:	96 e0       	ldi	r25, 0x06	; 6
    3a60:	9c d3       	rcall	.+1848   	; 0x419a <_ZN4OLED19OLED_Write_To_BuferEiiiiPKh>
    3a62:	88 81       	ld	r24, Y
    3a64:	99 81       	ldd	r25, Y+1	; 0x01
    3a66:	03 97       	sbiw	r24, 0x03	; 3
    3a68:	89 f4       	brne	.+34     	; 0x3a8c <_ZN6Batary19printlvltoOLEDbuferEv+0xb6>
    3a6a:	0f 2e       	mov	r0, r31
    3a6c:	f9 ee       	ldi	r31, 0xE9	; 233
    3a6e:	ef 2e       	mov	r14, r31
    3a70:	f1 e0       	ldi	r31, 0x01	; 1
    3a72:	ff 2e       	mov	r15, r31
    3a74:	f0 2d       	mov	r31, r0
    3a76:	08 e0       	ldi	r16, 0x08	; 8
    3a78:	10 e0       	ldi	r17, 0x00	; 0
    3a7a:	24 e0       	ldi	r18, 0x04	; 4
    3a7c:	30 e0       	ldi	r19, 0x00	; 0
    3a7e:	40 e0       	ldi	r20, 0x00	; 0
    3a80:	50 e0       	ldi	r21, 0x00	; 0
    3a82:	60 e6       	ldi	r22, 0x60	; 96
    3a84:	70 e0       	ldi	r23, 0x00	; 0
    3a86:	82 e7       	ldi	r24, 0x72	; 114
    3a88:	96 e0       	ldi	r25, 0x06	; 6
    3a8a:	87 d3       	rcall	.+1806   	; 0x419a <_ZN4OLED19OLED_Write_To_BuferEiiiiPKh>
    3a8c:	88 81       	ld	r24, Y
    3a8e:	99 81       	ldd	r25, Y+1	; 0x01
    3a90:	04 97       	sbiw	r24, 0x04	; 4
    3a92:	89 f4       	brne	.+34     	; 0x3ab6 <_ZN6Batary19printlvltoOLEDbuferEv+0xe0>
    3a94:	0f 2e       	mov	r0, r31
    3a96:	f9 ec       	ldi	r31, 0xC9	; 201
    3a98:	ef 2e       	mov	r14, r31
    3a9a:	f1 e0       	ldi	r31, 0x01	; 1
    3a9c:	ff 2e       	mov	r15, r31
    3a9e:	f0 2d       	mov	r31, r0
    3aa0:	08 e0       	ldi	r16, 0x08	; 8
    3aa2:	10 e0       	ldi	r17, 0x00	; 0
    3aa4:	24 e0       	ldi	r18, 0x04	; 4
    3aa6:	30 e0       	ldi	r19, 0x00	; 0
    3aa8:	40 e0       	ldi	r20, 0x00	; 0
    3aaa:	50 e0       	ldi	r21, 0x00	; 0
    3aac:	60 e6       	ldi	r22, 0x60	; 96
    3aae:	70 e0       	ldi	r23, 0x00	; 0
    3ab0:	82 e7       	ldi	r24, 0x72	; 114
    3ab2:	96 e0       	ldi	r25, 0x06	; 6
    3ab4:	72 d3       	rcall	.+1764   	; 0x419a <_ZN4OLED19OLED_Write_To_BuferEiiiiPKh>
    3ab6:	df 91       	pop	r29
    3ab8:	cf 91       	pop	r28
    3aba:	1f 91       	pop	r17
    3abc:	0f 91       	pop	r16
    3abe:	ff 90       	pop	r15
    3ac0:	ef 90       	pop	r14
    3ac2:	08 95       	ret

00003ac4 <_Z10USART_Initv>:


void USART_Init()
{
	UBRR0L = 16;      
    3ac4:	80 e1       	ldi	r24, 0x10	; 16
    3ac6:	80 93 c4 00 	sts	0x00C4, r24	; 0x8000c4 <__TEXT_REGION_LENGTH__+0x7e00c4>
	UBRR0H = 16 >> 8; 
    3aca:	10 92 c5 00 	sts	0x00C5, r1	; 0x8000c5 <__TEXT_REGION_LENGTH__+0x7e00c5>
	UCSR0B |=(1<<RXEN0)|(1<<RXCIE0)|(1<<TXEN0);      
    3ace:	e1 ec       	ldi	r30, 0xC1	; 193
    3ad0:	f0 e0       	ldi	r31, 0x00	; 0
    3ad2:	80 81       	ld	r24, Z
    3ad4:	88 69       	ori	r24, 0x98	; 152
    3ad6:	80 83       	st	Z, r24
	UCSR0C = (0<<USBS0) | (1<<UCSZ00)| (1<<UCSZ01)| (0<<UCSZ02);
    3ad8:	86 e0       	ldi	r24, 0x06	; 6
    3ada:	80 93 c2 00 	sts	0x00C2, r24	; 0x8000c2 <__TEXT_REGION_LENGTH__+0x7e00c2>
    3ade:	08 95       	ret

00003ae0 <_Z9send_Uartc>:



void send_Uart(const char c)
{
	while(!(UCSR0A&(1<<UDRE0))) 
    3ae0:	e0 ec       	ldi	r30, 0xC0	; 192
    3ae2:	f0 e0       	ldi	r31, 0x00	; 0
    3ae4:	90 81       	ld	r25, Z
    3ae6:	95 ff       	sbrs	r25, 5
    3ae8:	fd cf       	rjmp	.-6      	; 0x3ae4 <_Z9send_Uartc+0x4>
	{}
	UDR0 = c;
    3aea:	80 93 c6 00 	sts	0x00C6, r24	; 0x8000c6 <__TEXT_REGION_LENGTH__+0x7e00c6>
    3aee:	08 95       	ret

00003af0 <_Z13send_Uart_strPKc>:
}

void send_Uart_str(const char *s)
{
    3af0:	cf 93       	push	r28
    3af2:	df 93       	push	r29
    3af4:	ec 01       	movw	r28, r24
	while (*s != 0) send_Uart(*s++);
    3af6:	88 81       	ld	r24, Y
    3af8:	88 23       	and	r24, r24
    3afa:	29 f0       	breq	.+10     	; 0x3b06 <_Z13send_Uart_strPKc+0x16>
    3afc:	21 96       	adiw	r28, 0x01	; 1
    3afe:	f0 df       	rcall	.-32     	; 0x3ae0 <_Z9send_Uartc>
    3b00:	89 91       	ld	r24, Y+
    3b02:	81 11       	cpse	r24, r1
    3b04:	fc cf       	rjmp	.-8      	; 0x3afe <_Z13send_Uart_strPKc+0xe>
}
    3b06:	df 91       	pop	r29
    3b08:	cf 91       	pop	r28
    3b0a:	08 95       	ret

00003b0c <main>:
	 

 }
*/
int main(void){
sei();
    3b0c:	78 94       	sei

		oled.OLED_Write_Bufer();
    3b0e:	82 e7       	ldi	r24, 0x72	; 114
    3b10:	96 e0       	ldi	r25, 0x06	; 6
    3b12:	4a d2       	rcall	.+1172   	; 0x3fa8 <_ZN4OLED16OLED_Write_BuferEv>
		DDRA = 0xff;  
    3b14:	8f ef       	ldi	r24, 0xFF	; 255
    3b16:	81 b9       	out	0x01, r24	; 1
		PORTA= 0x00;
    3b18:	12 b8       	out	0x02, r1	; 2
		DDRD = 0b10000000;
    3b1a:	80 e8       	ldi	r24, 0x80	; 128
    3b1c:	8a b9       	out	0x0a, r24	; 10
		//PORTD = 0b00000000;
		PCMSK0=0b00111100;
    3b1e:	8c e3       	ldi	r24, 0x3C	; 60
    3b20:	80 93 6b 00 	sts	0x006B, r24	; 0x80006b <__TEXT_REGION_LENGTH__+0x7e006b>
		PCICR|=0b00000001;
    3b24:	e8 e6       	ldi	r30, 0x68	; 104
    3b26:	f0 e0       	ldi	r31, 0x00	; 0
    3b28:	80 81       	ld	r24, Z
    3b2a:	81 60       	ori	r24, 0x01	; 1
	//	OCR0A=0b00010000;
	//	TCCR0A |= (3<<CS00);
		
		USART_Init();
    3b2c:	80 83       	st	Z, r24
    3b2e:	ca df       	rcall	.-108    	; 0x3ac4 <_Z10USART_Initv>
	#else
		//round up by default
		__ticks_dc = (uint32_t)(ceil(fabs(__tmp)));
	#endif

	__builtin_avr_delay_cycles(__ticks_dc);
    3b30:	2f e3       	ldi	r18, 0x3F	; 63
    3b32:	8d e0       	ldi	r24, 0x0D	; 13
    3b34:	93 e0       	ldi	r25, 0x03	; 3
    3b36:	21 50       	subi	r18, 0x01	; 1
    3b38:	80 40       	sbci	r24, 0x00	; 0
    3b3a:	90 40       	sbci	r25, 0x00	; 0
    3b3c:	e1 f7       	brne	.-8      	; 0x3b36 <main+0x2a>
    3b3e:	00 c0       	rjmp	.+0      	; 0x3b40 <main+0x34>
    3b40:	00 00       	nop
    3b42:	af e3       	ldi	r26, 0x3F	; 63
    3b44:	bd e0       	ldi	r27, 0x0D	; 13
    3b46:	23 e0       	ldi	r18, 0x03	; 3
    3b48:	a1 50       	subi	r26, 0x01	; 1
    3b4a:	b0 40       	sbci	r27, 0x00	; 0
    3b4c:	20 40       	sbci	r18, 0x00	; 0
    3b4e:	e1 f7       	brne	.-8      	; 0x3b48 <main+0x3c>
    3b50:	00 c0       	rjmp	.+0      	; 0x3b52 <main+0x46>
    3b52:	00 00       	nop
		_delay_ms(1000);
		_delay_ms(1000);	
		send_Uart_str("AT");
    3b54:	81 e5       	ldi	r24, 0x51	; 81
    3b56:	95 e0       	ldi	r25, 0x05	; 5
		send_Uart((char)13);
    3b58:	cb df       	rcall	.-106    	; 0x3af0 <_Z13send_Uart_strPKc>
    3b5a:	8d e0       	ldi	r24, 0x0D	; 13
    3b5c:	c1 df       	rcall	.-126    	; 0x3ae0 <_Z9send_Uartc>
    3b5e:	8f e3       	ldi	r24, 0x3F	; 63
    3b60:	9d e0       	ldi	r25, 0x0D	; 13
    3b62:	a3 e0       	ldi	r26, 0x03	; 3
    3b64:	81 50       	subi	r24, 0x01	; 1
    3b66:	90 40       	sbci	r25, 0x00	; 0
    3b68:	a0 40       	sbci	r26, 0x00	; 0
    3b6a:	e1 f7       	brne	.-8      	; 0x3b64 <main+0x58>
    3b6c:	00 c0       	rjmp	.+0      	; 0x3b6e <main+0x62>
		_delay_ms(1000);
		send_Uart_str("AT+CMGF=1");
    3b6e:	00 00       	nop
    3b70:	84 e5       	ldi	r24, 0x54	; 84
    3b72:	95 e0       	ldi	r25, 0x05	; 5
		//readSerial();
		send_Uart((char)13);
    3b74:	bd df       	rcall	.-134    	; 0x3af0 <_Z13send_Uart_strPKc>
    3b76:	8d e0       	ldi	r24, 0x0D	; 13
    3b78:	b3 df       	rcall	.-154    	; 0x3ae0 <_Z9send_Uartc>
    3b7a:	bf e3       	ldi	r27, 0x3F	; 63
    3b7c:	2d e0       	ldi	r18, 0x0D	; 13
    3b7e:	83 e0       	ldi	r24, 0x03	; 3
    3b80:	b1 50       	subi	r27, 0x01	; 1
    3b82:	20 40       	sbci	r18, 0x00	; 0
    3b84:	80 40       	sbci	r24, 0x00	; 0
    3b86:	e1 f7       	brne	.-8      	; 0x3b80 <main+0x74>
		_delay_ms(1000);
		send_Uart_str("AT+CMGS=\"89260755725\"");
    3b88:	00 c0       	rjmp	.+0      	; 0x3b8a <main+0x7e>
    3b8a:	00 00       	nop
    3b8c:	8e e5       	ldi	r24, 0x5E	; 94
    3b8e:	95 e0       	ldi	r25, 0x05	; 5
		send_Uart((char)13);
    3b90:	af df       	rcall	.-162    	; 0x3af0 <_Z13send_Uart_strPKc>
    3b92:	8d e0       	ldi	r24, 0x0D	; 13
    3b94:	a5 df       	rcall	.-182    	; 0x3ae0 <_Z9send_Uartc>
    3b96:	9f e3       	ldi	r25, 0x3F	; 63
    3b98:	ad e0       	ldi	r26, 0x0D	; 13
    3b9a:	b3 e0       	ldi	r27, 0x03	; 3
    3b9c:	91 50       	subi	r25, 0x01	; 1
    3b9e:	a0 40       	sbci	r26, 0x00	; 0
    3ba0:	b0 40       	sbci	r27, 0x00	; 0
    3ba2:	e1 f7       	brne	.-8      	; 0x3b9c <main+0x90>
    3ba4:	00 c0       	rjmp	.+0      	; 0x3ba6 <main+0x9a>
		_delay_ms(1000);
		send_Uart_str("STARTED, READY TO CONTROLL");
    3ba6:	00 00       	nop
    3ba8:	84 e7       	ldi	r24, 0x74	; 116
    3baa:	95 e0       	ldi	r25, 0x05	; 5
    3bac:	a1 df       	rcall	.-190    	; 0x3af0 <_Z13send_Uart_strPKc>
    3bae:	2f e3       	ldi	r18, 0x3F	; 63
    3bb0:	8d e0       	ldi	r24, 0x0D	; 13
    3bb2:	93 e0       	ldi	r25, 0x03	; 3
    3bb4:	21 50       	subi	r18, 0x01	; 1
    3bb6:	80 40       	sbci	r24, 0x00	; 0
    3bb8:	90 40       	sbci	r25, 0x00	; 0
    3bba:	e1 f7       	brne	.-8      	; 0x3bb4 <main+0xa8>
    3bbc:	00 c0       	rjmp	.+0      	; 0x3bbe <main+0xb2>
		_delay_ms(1000);
		send_Uart((char)26);
    3bbe:	00 00       	nop
    3bc0:	8a e1       	ldi	r24, 0x1A	; 26
    3bc2:	8e df       	rcall	.-228    	; 0x3ae0 <_Z9send_Uartc>
    3bc4:	af e3       	ldi	r26, 0x3F	; 63
    3bc6:	bd e0       	ldi	r27, 0x0D	; 13
    3bc8:	23 e0       	ldi	r18, 0x03	; 3
    3bca:	a1 50       	subi	r26, 0x01	; 1
    3bcc:	b0 40       	sbci	r27, 0x00	; 0
    3bce:	20 40       	sbci	r18, 0x00	; 0
    3bd0:	e1 f7       	brne	.-8      	; 0x3bca <main+0xbe>
    3bd2:	00 c0       	rjmp	.+0      	; 0x3bd4 <main+0xc8>
    3bd4:	00 00       	nop
		
	};
	
	void refresh() override
	{
		Default();
    3bd6:	0f 2e       	mov	r0, r31
    3bd8:	fc e1       	ldi	r31, 0x1C	; 28
    3bda:	2f 2e       	mov	r2, r31
    3bdc:	f6 e0       	ldi	r31, 0x06	; 6
    3bde:	3f 2e       	mov	r3, r31
    3be0:	f0 2d       	mov	r31, r0
		
	};
	
	void refresh() override
	{
		Default();
    3be2:	0f 2e       	mov	r0, r31
    3be4:	f6 e2       	ldi	r31, 0x26	; 38
    3be6:	4f 2e       	mov	r4, r31
    3be8:	f6 e0       	ldi	r31, 0x06	; 6
    3bea:	5f 2e       	mov	r5, r31
    3bec:	f0 2d       	mov	r31, r0
		oled.OLED_Write_To_Bufer(56,y-2,2,8,upwd);
	};
	
	void refresh() override
	{
		Default();
    3bee:	0f 2e       	mov	r0, r31
    3bf0:	fe e5       	ldi	r31, 0x5E	; 94
    3bf2:	6f 2e       	mov	r6, r31
    3bf4:	f6 e0       	ldi	r31, 0x06	; 6
    3bf6:	7f 2e       	mov	r7, r31
    3bf8:	f0 2d       	mov	r31, r0
	};
	
	void refresh() override
	{
		//oled.OLED_Bufer_Clear();
		Default();
    3bfa:	0f 2e       	mov	r0, r31
    3bfc:	fe e4       	ldi	r31, 0x4E	; 78
    3bfe:	8f 2e       	mov	r8, r31
    3c00:	f6 e0       	ldi	r31, 0x06	; 6
    3c02:	9f 2e       	mov	r9, r31
    3c04:	f0 2d       	mov	r31, r0
    };
	
    void refresh() override
	{
		//oled.OLED_Bufer_Clear();
		Default();
    3c06:	0f 2e       	mov	r0, r31
    3c08:	f4 e3       	ldi	r31, 0x34	; 52
    3c0a:	af 2e       	mov	r10, r31
    3c0c:	f6 e0       	ldi	r31, 0x06	; 6
    3c0e:	bf 2e       	mov	r11, r31
	};
	
	void refresh() override
	{
				//oled.OLED_Bufer_Clear();
				Default();
    3c10:	f0 2d       	mov	r31, r0
    3c12:	0f 2e       	mov	r0, r31
    3c14:	fa e3       	ldi	r31, 0x3A	; 58
    3c16:	cf 2e       	mov	r12, r31
    3c18:	f6 e0       	ldi	r31, 0x06	; 6
    3c1a:	df 2e       	mov	r13, r31
		 asciitoimg((j)*8,1,1,8,data_in[j]);
		 }
		 count=0;
		 read = false;
		}*/
		sei();
    3c1c:	f0 2d       	mov	r31, r0
		check();
    3c1e:	78 94       	sei
    3c20:	8b d8       	rcall	.-3818   	; 0x2d38 <_Z5checkv>
		if (Password_Menu_Status)
    3c22:	80 91 71 06 	lds	r24, 0x0671	; 0x800671 <Password_Menu_Status>
    3c26:	88 23       	and	r24, r24
    3c28:	89 f0       	breq	.+34     	; 0x3c4c <main+0x140>
	};
	
	void refresh() override
	{
				//oled.OLED_Bufer_Clear();
				Default();
    3c2a:	d6 01       	movw	r26, r12
    3c2c:	ed 91       	ld	r30, X+
    3c2e:	fc 91       	ld	r31, X
    3c30:	01 90       	ld	r0, Z+
    3c32:	f0 81       	ld	r31, Z
    3c34:	e0 2d       	mov	r30, r0
    3c36:	c6 01       	movw	r24, r12
    3c38:	09 95       	icall
				actions();
    3c3a:	d6 01       	movw	r26, r12
    3c3c:	ed 91       	ld	r30, X+
    3c3e:	fc 91       	ld	r31, X
    3c40:	00 88       	ldd	r0, Z+16	; 0x10
    3c42:	f1 89       	ldd	r31, Z+17	; 0x11
    3c44:	e0 2d       	mov	r30, r0
    3c46:	c6 01       	movw	r24, r12
    3c48:	09 95       	icall
    3c4a:	68 c0       	rjmp	.+208    	; 0x3d1c <main+0x210>
		check();
		if (Password_Menu_Status)
		{
			passw_menu.refresh();
		}
		else if (Main_Menu_Status)
    3c4c:	80 91 00 01 	lds	r24, 0x0100	; 0x800100 <Main_Menu_Status>
    3c50:	88 23       	and	r24, r24
    3c52:	89 f0       	breq	.+34     	; 0x3c76 <main+0x16a>
    };
	
    void refresh() override
	{
		//oled.OLED_Bufer_Clear();
		Default();
    3c54:	d5 01       	movw	r26, r10
    3c56:	ed 91       	ld	r30, X+
    3c58:	fc 91       	ld	r31, X
    3c5a:	01 90       	ld	r0, Z+
    3c5c:	f0 81       	ld	r31, Z
    3c5e:	e0 2d       	mov	r30, r0
    3c60:	c5 01       	movw	r24, r10
    3c62:	09 95       	icall
		actions();
    3c64:	d5 01       	movw	r26, r10
    3c66:	ed 91       	ld	r30, X+
    3c68:	fc 91       	ld	r31, X
    3c6a:	00 88       	ldd	r0, Z+16	; 0x10
    3c6c:	f1 89       	ldd	r31, Z+17	; 0x11
    3c6e:	e0 2d       	mov	r30, r0
    3c70:	c5 01       	movw	r24, r10
    3c72:	09 95       	icall
    3c74:	53 c0       	rjmp	.+166    	; 0x3d1c <main+0x210>
		}
		else if (Main_Menu_Status)
		{
			menu.refresh();
		}
		else if (Settings_Menu_Status)
    3c76:	80 91 70 06 	lds	r24, 0x0670	; 0x800670 <Settings_Menu_Status>
    3c7a:	88 23       	and	r24, r24
    3c7c:	89 f0       	breq	.+34     	; 0x3ca0 <main+0x194>
	};
	
	void refresh() override
	{
		//oled.OLED_Bufer_Clear();
		Default();
    3c7e:	d4 01       	movw	r26, r8
    3c80:	ed 91       	ld	r30, X+
    3c82:	fc 91       	ld	r31, X
    3c84:	01 90       	ld	r0, Z+
    3c86:	f0 81       	ld	r31, Z
    3c88:	e0 2d       	mov	r30, r0
    3c8a:	c4 01       	movw	r24, r8
    3c8c:	09 95       	icall
		actions();
    3c8e:	d4 01       	movw	r26, r8
    3c90:	ed 91       	ld	r30, X+
    3c92:	fc 91       	ld	r31, X
    3c94:	00 88       	ldd	r0, Z+16	; 0x10
    3c96:	f1 89       	ldd	r31, Z+17	; 0x11
    3c98:	e0 2d       	mov	r30, r0
    3c9a:	c4 01       	movw	r24, r8
    3c9c:	09 95       	icall
    3c9e:	3e c0       	rjmp	.+124    	; 0x3d1c <main+0x210>
		}
		else if (Settings_Menu_Status)
		{
			sett_menu.refresh();	
		}
		else if (Info_Menu_Status)
    3ca0:	80 91 6f 06 	lds	r24, 0x066F	; 0x80066f <Info_Menu_Status>
    3ca4:	88 23       	and	r24, r24
    3ca6:	89 f0       	breq	.+34     	; 0x3cca <main+0x1be>
		oled.OLED_Write_To_Bufer(56,y-2,2,8,upwd);
	};
	
	void refresh() override
	{
		Default();
    3ca8:	d3 01       	movw	r26, r6
    3caa:	ed 91       	ld	r30, X+
    3cac:	fc 91       	ld	r31, X
    3cae:	01 90       	ld	r0, Z+
    3cb0:	f0 81       	ld	r31, Z
    3cb2:	e0 2d       	mov	r30, r0
    3cb4:	c3 01       	movw	r24, r6
    3cb6:	09 95       	icall
		actions();
    3cb8:	d3 01       	movw	r26, r6
    3cba:	ed 91       	ld	r30, X+
    3cbc:	fc 91       	ld	r31, X
    3cbe:	00 88       	ldd	r0, Z+16	; 0x10
    3cc0:	f1 89       	ldd	r31, Z+17	; 0x11
    3cc2:	e0 2d       	mov	r30, r0
    3cc4:	c3 01       	movw	r24, r6
    3cc6:	09 95       	icall
    3cc8:	29 c0       	rjmp	.+82     	; 0x3d1c <main+0x210>
		}
		else if (Info_Menu_Status)
		{
			inf_menu.refresh();
		}
		else if (User_Info_Status)
    3cca:	80 91 6e 06 	lds	r24, 0x066E	; 0x80066e <User_Info_Status>
    3cce:	88 23       	and	r24, r24
    3cd0:	89 f0       	breq	.+34     	; 0x3cf4 <main+0x1e8>
		
	};
	
	void refresh() override
	{
		Default();
    3cd2:	d2 01       	movw	r26, r4
    3cd4:	ed 91       	ld	r30, X+
    3cd6:	fc 91       	ld	r31, X
    3cd8:	01 90       	ld	r0, Z+
    3cda:	f0 81       	ld	r31, Z
    3cdc:	e0 2d       	mov	r30, r0
    3cde:	c2 01       	movw	r24, r4
    3ce0:	09 95       	icall
		actions();
    3ce2:	d2 01       	movw	r26, r4
    3ce4:	ed 91       	ld	r30, X+
    3ce6:	fc 91       	ld	r31, X
    3ce8:	00 88       	ldd	r0, Z+16	; 0x10
    3cea:	f1 89       	ldd	r31, Z+17	; 0x11
    3cec:	e0 2d       	mov	r30, r0
    3cee:	c2 01       	movw	r24, r4
    3cf0:	09 95       	icall
    3cf2:	14 c0       	rjmp	.+40     	; 0x3d1c <main+0x210>
		}
		else if (User_Info_Status)
		{
			us_inf.refresh();
		}
		else if (Device_Info_Status)
    3cf4:	80 91 6d 06 	lds	r24, 0x066D	; 0x80066d <Device_Info_Status>
    3cf8:	88 23       	and	r24, r24
    3cfa:	81 f0       	breq	.+32     	; 0x3d1c <main+0x210>
		
	};
	
	void refresh() override
	{
		Default();
    3cfc:	d1 01       	movw	r26, r2
    3cfe:	ed 91       	ld	r30, X+
    3d00:	fc 91       	ld	r31, X
    3d02:	01 90       	ld	r0, Z+
    3d04:	f0 81       	ld	r31, Z
    3d06:	e0 2d       	mov	r30, r0
    3d08:	c1 01       	movw	r24, r2
    3d0a:	09 95       	icall
		actions();
    3d0c:	d1 01       	movw	r26, r2
    3d0e:	ed 91       	ld	r30, X+
    3d10:	fc 91       	ld	r31, X
    3d12:	00 88       	ldd	r0, Z+16	; 0x10
    3d14:	f1 89       	ldd	r31, Z+17	; 0x11
    3d16:	e0 2d       	mov	r30, r0
    3d18:	c1 01       	movw	r24, r2
    3d1a:	09 95       	icall
}

void refreshlvl()
{
	int kf=0;
	if((PINB>>0)&0b00000001==1) kf++;
    3d1c:	83 b1       	in	r24, 0x03	; 3
	printlvltoOLEDbufer();
}

void refreshlvl()
{
	int kf=0;
    3d1e:	81 70       	andi	r24, 0x01	; 1
    3d20:	c8 2f       	mov	r28, r24
    3d22:	b0 e0       	ldi	r27, 0x00	; 0
    3d24:	db 2f       	mov	r29, r27
    3d26:	ce 01       	movw	r24, r28
	if((PINB>>0)&0b00000001==1) kf++;
	if((PINB>>1)&0b00000001==1) kf++;
    3d28:	19 99       	sbic	0x03, 1	; 3
    3d2a:	01 96       	adiw	r24, 0x01	; 1
	if((PINB>>2)&0b00000001==1) kf++;
    3d2c:	1a 99       	sbic	0x03, 2	; 3
    3d2e:	01 96       	adiw	r24, 0x01	; 1
	if((PINB>>3)&0b00000001==1) kf++;
    3d30:	1b 99       	sbic	0x03, 3	; 3
    3d32:	01 96       	adiw	r24, 0x01	; 1
	curlvl=kf;
    3d34:	90 93 15 06 	sts	0x0615, r25	; 0x800615 <__data_end+0x1>
    3d38:	80 93 14 06 	sts	0x0614, r24	; 0x800614 <__data_end>
}

void printlvltoOLEDbufer()
{
	if(curlvl==0) oled.OLED_Write_To_Bufer(96,0,4,8,batary5);
    3d3c:	89 2b       	or	r24, r25
    3d3e:	89 f4       	brne	.+34     	; 0x3d62 <main+0x256>
    3d40:	0f 2e       	mov	r0, r31
    3d42:	f9 e4       	ldi	r31, 0x49	; 73
    3d44:	ef 2e       	mov	r14, r31
    3d46:	f2 e0       	ldi	r31, 0x02	; 2
    3d48:	ff 2e       	mov	r15, r31
    3d4a:	f0 2d       	mov	r31, r0
    3d4c:	08 e0       	ldi	r16, 0x08	; 8
    3d4e:	10 e0       	ldi	r17, 0x00	; 0
    3d50:	24 e0       	ldi	r18, 0x04	; 4
    3d52:	30 e0       	ldi	r19, 0x00	; 0
    3d54:	40 e0       	ldi	r20, 0x00	; 0
    3d56:	50 e0       	ldi	r21, 0x00	; 0
    3d58:	60 e6       	ldi	r22, 0x60	; 96
    3d5a:	70 e0       	ldi	r23, 0x00	; 0
    3d5c:	82 e7       	ldi	r24, 0x72	; 114
    3d5e:	96 e0       	ldi	r25, 0x06	; 6
    3d60:	1c d2       	rcall	.+1080   	; 0x419a <_ZN4OLED19OLED_Write_To_BuferEiiiiPKh>
	if(curlvl==1) oled.OLED_Write_To_Bufer(96,0,4,8,batary4);
    3d62:	80 91 14 06 	lds	r24, 0x0614	; 0x800614 <__data_end>
    3d66:	90 91 15 06 	lds	r25, 0x0615	; 0x800615 <__data_end+0x1>
    3d6a:	01 97       	sbiw	r24, 0x01	; 1
    3d6c:	89 f4       	brne	.+34     	; 0x3d90 <main+0x284>
    3d6e:	0f 2e       	mov	r0, r31
    3d70:	f9 e2       	ldi	r31, 0x29	; 41
    3d72:	ef 2e       	mov	r14, r31
    3d74:	f2 e0       	ldi	r31, 0x02	; 2
    3d76:	ff 2e       	mov	r15, r31
    3d78:	f0 2d       	mov	r31, r0
    3d7a:	08 e0       	ldi	r16, 0x08	; 8
    3d7c:	10 e0       	ldi	r17, 0x00	; 0
    3d7e:	24 e0       	ldi	r18, 0x04	; 4
    3d80:	30 e0       	ldi	r19, 0x00	; 0
    3d82:	40 e0       	ldi	r20, 0x00	; 0
    3d84:	50 e0       	ldi	r21, 0x00	; 0
    3d86:	60 e6       	ldi	r22, 0x60	; 96
    3d88:	70 e0       	ldi	r23, 0x00	; 0
    3d8a:	82 e7       	ldi	r24, 0x72	; 114
    3d8c:	96 e0       	ldi	r25, 0x06	; 6
    3d8e:	05 d2       	rcall	.+1034   	; 0x419a <_ZN4OLED19OLED_Write_To_BuferEiiiiPKh>
	if(curlvl==2) oled.OLED_Write_To_Bufer(96,0,4,8,batary3);
    3d90:	80 91 14 06 	lds	r24, 0x0614	; 0x800614 <__data_end>
    3d94:	90 91 15 06 	lds	r25, 0x0615	; 0x800615 <__data_end+0x1>
    3d98:	02 97       	sbiw	r24, 0x02	; 2
    3d9a:	89 f4       	brne	.+34     	; 0x3dbe <main+0x2b2>
    3d9c:	0f 2e       	mov	r0, r31
    3d9e:	f9 e0       	ldi	r31, 0x09	; 9
    3da0:	ef 2e       	mov	r14, r31
    3da2:	f2 e0       	ldi	r31, 0x02	; 2
    3da4:	ff 2e       	mov	r15, r31
    3da6:	f0 2d       	mov	r31, r0
    3da8:	08 e0       	ldi	r16, 0x08	; 8
    3daa:	10 e0       	ldi	r17, 0x00	; 0
    3dac:	24 e0       	ldi	r18, 0x04	; 4
    3dae:	30 e0       	ldi	r19, 0x00	; 0
    3db0:	40 e0       	ldi	r20, 0x00	; 0
    3db2:	50 e0       	ldi	r21, 0x00	; 0
    3db4:	60 e6       	ldi	r22, 0x60	; 96
    3db6:	70 e0       	ldi	r23, 0x00	; 0
    3db8:	82 e7       	ldi	r24, 0x72	; 114
    3dba:	96 e0       	ldi	r25, 0x06	; 6
    3dbc:	ee d1       	rcall	.+988    	; 0x419a <_ZN4OLED19OLED_Write_To_BuferEiiiiPKh>
	if(curlvl==3) oled.OLED_Write_To_Bufer(96,0,4,8,batary2);
    3dbe:	80 91 14 06 	lds	r24, 0x0614	; 0x800614 <__data_end>
    3dc2:	90 91 15 06 	lds	r25, 0x0615	; 0x800615 <__data_end+0x1>
    3dc6:	03 97       	sbiw	r24, 0x03	; 3
    3dc8:	89 f4       	brne	.+34     	; 0x3dec <main+0x2e0>
    3dca:	0f 2e       	mov	r0, r31
    3dcc:	f9 ee       	ldi	r31, 0xE9	; 233
    3dce:	ef 2e       	mov	r14, r31
    3dd0:	f1 e0       	ldi	r31, 0x01	; 1
    3dd2:	ff 2e       	mov	r15, r31
    3dd4:	f0 2d       	mov	r31, r0
    3dd6:	08 e0       	ldi	r16, 0x08	; 8
    3dd8:	10 e0       	ldi	r17, 0x00	; 0
    3dda:	24 e0       	ldi	r18, 0x04	; 4
    3ddc:	30 e0       	ldi	r19, 0x00	; 0
    3dde:	40 e0       	ldi	r20, 0x00	; 0
    3de0:	50 e0       	ldi	r21, 0x00	; 0
    3de2:	60 e6       	ldi	r22, 0x60	; 96
    3de4:	70 e0       	ldi	r23, 0x00	; 0
    3de6:	82 e7       	ldi	r24, 0x72	; 114
    3de8:	96 e0       	ldi	r25, 0x06	; 6
    3dea:	d7 d1       	rcall	.+942    	; 0x419a <_ZN4OLED19OLED_Write_To_BuferEiiiiPKh>
	if(curlvl==4) oled.OLED_Write_To_Bufer(96,0,4,8,batary1);
    3dec:	80 91 14 06 	lds	r24, 0x0614	; 0x800614 <__data_end>
    3df0:	90 91 15 06 	lds	r25, 0x0615	; 0x800615 <__data_end+0x1>
    3df4:	04 97       	sbiw	r24, 0x04	; 4
    3df6:	89 f4       	brne	.+34     	; 0x3e1a <main+0x30e>
    3df8:	0f 2e       	mov	r0, r31
    3dfa:	f9 ec       	ldi	r31, 0xC9	; 201
    3dfc:	ef 2e       	mov	r14, r31
    3dfe:	f1 e0       	ldi	r31, 0x01	; 1
    3e00:	ff 2e       	mov	r15, r31
    3e02:	f0 2d       	mov	r31, r0
    3e04:	08 e0       	ldi	r16, 0x08	; 8
    3e06:	10 e0       	ldi	r17, 0x00	; 0
    3e08:	24 e0       	ldi	r18, 0x04	; 4
    3e0a:	30 e0       	ldi	r19, 0x00	; 0
    3e0c:	40 e0       	ldi	r20, 0x00	; 0
    3e0e:	50 e0       	ldi	r21, 0x00	; 0
    3e10:	60 e6       	ldi	r22, 0x60	; 96
    3e12:	70 e0       	ldi	r23, 0x00	; 0
    3e14:	82 e7       	ldi	r24, 0x72	; 114
    3e16:	96 e0       	ldi	r25, 0x06	; 6
    3e18:	c0 d1       	rcall	.+896    	; 0x419a <_ZN4OLED19OLED_Write_To_BuferEiiiiPKh>
		{
			//	.refresh();
		}

		batary.refresh();
		oled.OLED_Write_To_Bufer(80,0,2,8,Net3);
    3e1a:	0f 2e       	mov	r0, r31
    3e1c:	f9 eb       	ldi	r31, 0xB9	; 185
    3e1e:	ef 2e       	mov	r14, r31
    3e20:	f1 e0       	ldi	r31, 0x01	; 1
    3e22:	ff 2e       	mov	r15, r31
    3e24:	f0 2d       	mov	r31, r0
    3e26:	08 e0       	ldi	r16, 0x08	; 8
    3e28:	10 e0       	ldi	r17, 0x00	; 0
    3e2a:	22 e0       	ldi	r18, 0x02	; 2
    3e2c:	30 e0       	ldi	r19, 0x00	; 0
    3e2e:	40 e0       	ldi	r20, 0x00	; 0
    3e30:	50 e0       	ldi	r21, 0x00	; 0
    3e32:	60 e5       	ldi	r22, 0x50	; 80
    3e34:	70 e0       	ldi	r23, 0x00	; 0
    3e36:	82 e7       	ldi	r24, 0x72	; 114
    3e38:	96 e0       	ldi	r25, 0x06	; 6
		oled.OLED_Write_Bufer();
    3e3a:	af d1       	rcall	.+862    	; 0x419a <_ZN4OLED19OLED_Write_To_BuferEiiiiPKh>
    3e3c:	82 e7       	ldi	r24, 0x72	; 114
    3e3e:	96 e0       	ldi	r25, 0x06	; 6
    3e40:	b3 d0       	rcall	.+358    	; 0x3fa8 <_ZN4OLED16OLED_Write_BuferEv>
    3e42:	2f e3       	ldi	r18, 0x3F	; 63
    3e44:	8d e0       	ldi	r24, 0x0D	; 13
    3e46:	93 e0       	ldi	r25, 0x03	; 3
    3e48:	21 50       	subi	r18, 0x01	; 1
    3e4a:	80 40       	sbci	r24, 0x00	; 0
    3e4c:	90 40       	sbci	r25, 0x00	; 0
    3e4e:	e1 f7       	brne	.-8      	; 0x3e48 <main+0x33c>
    3e50:	00 c0       	rjmp	.+0      	; 0x3e52 <main+0x346>
    3e52:	00 00       	nop
    3e54:	e4 ce       	rjmp	.-568    	; 0x3c1e <main+0x112>

00003e56 <_GLOBAL__sub_I_zero>:
		_delay_ms(1000);
	}
}
    3e56:	0f 93       	push	r16
    3e58:	1f 93       	push	r17
    3e5a:	cf 93       	push	r28
    3e5c:	df 93       	push	r29
#include "TWI.h"
#include "OLED.h"
#define CPU_F				20000000UL


TWI wire;
    3e5e:	83 e7       	ldi	r24, 0x73	; 115
    3e60:	9a e0       	ldi	r25, 0x0A	; 10
    3e62:	48 d2       	rcall	.+1168   	; 0x42f4 <_ZN3TWIC1Ev>
OLED oled(wire);
    3e64:	60 e0       	ldi	r22, 0x00	; 0
    3e66:	82 e7       	ldi	r24, 0x72	; 114
    3e68:	96 e0       	ldi	r25, 0x06	; 6
    3e6a:	be d0       	rcall	.+380    	; 0x3fe8 <_ZN4OLEDC1E3TWI>
	int pointer=0;
	int x[3]={ INFO_MENU_IMG_X_0, INFO_MENU_IMG_X_1, INFO_MENU_IMG_X_2};
	int y= INFO_MENU_IMG_Y;
	public:
	Info_menu()
	{
    3e6c:	ce e5       	ldi	r28, 0x5E	; 94
    3e6e:	d6 e0       	ldi	r29, 0x06	; 6
    3e70:	85 ed       	ldi	r24, 0xD5	; 213
    3e72:	95 e0       	ldi	r25, 0x05	; 5
    3e74:	99 83       	std	Y+1, r25	; 0x01
    3e76:	88 83       	st	Y, r24
    3e78:	1d 82       	std	Y+5, r1	; 0x05
    3e7a:	1c 82       	std	Y+4, r1	; 0x04
    3e7c:	86 e0       	ldi	r24, 0x06	; 6
    3e7e:	e9 e3       	ldi	r30, 0x39	; 57
    3e80:	f5 e0       	ldi	r31, 0x05	; 5
    3e82:	a4 e6       	ldi	r26, 0x64	; 100
    3e84:	b6 e0       	ldi	r27, 0x06	; 6
    3e86:	01 90       	ld	r0, Z+
    3e88:	0d 92       	st	X+, r0
    3e8a:	8a 95       	dec	r24
    3e8c:	e1 f7       	brne	.-8      	; 0x3e86 <_GLOBAL__sub_I_zero+0x30>
    3e8e:	84 e0       	ldi	r24, 0x04	; 4
    3e90:	90 e0       	ldi	r25, 0x00	; 0
    3e92:	9d 87       	std	Y+13, r25	; 0x0d
    3e94:	8c 87       	std	Y+12, r24	; 0x0c
	int pointer=0;
	int x[4]={SETTINGS_MENU_IMG_X_0,SETTINGS_MENU_IMG_X_1,SETTINGS_MENU_IMG_X_2,SETTINGS_MENU_IMG_X_3};
	int y=SETTINGS_MENU_IMG_Y;
	public:
	Settings_Menu()
	{
    3e96:	ce e4       	ldi	r28, 0x4E	; 78
    3e98:	d6 e0       	ldi	r29, 0x06	; 6
    3e9a:	2f eb       	ldi	r18, 0xBF	; 191
    3e9c:	35 e0       	ldi	r19, 0x05	; 5
    3e9e:	39 83       	std	Y+1, r19	; 0x01
    3ea0:	28 83       	st	Y, r18
    3ea2:	1d 82       	std	Y+5, r1	; 0x05
    3ea4:	1c 82       	std	Y+4, r1	; 0x04
    3ea6:	28 e0       	ldi	r18, 0x08	; 8
    3ea8:	ef e3       	ldi	r30, 0x3F	; 63
    3eaa:	f5 e0       	ldi	r31, 0x05	; 5
    3eac:	a4 e5       	ldi	r26, 0x54	; 84
    3eae:	b6 e0       	ldi	r27, 0x06	; 6
    3eb0:	01 90       	ld	r0, Z+
    3eb2:	0d 92       	st	X+, r0
    3eb4:	2a 95       	dec	r18
    3eb6:	e1 f7       	brne	.-8      	; 0x3eb0 <_GLOBAL__sub_I_zero+0x5a>
    3eb8:	9f 87       	std	Y+15, r25	; 0x0f
    3eba:	8e 87       	std	Y+14, r24	; 0x0e
	int symbol_pointer=0;
	int x[5]={PASSWORD_MENU_IMG_X_0,PASSWORD_MENU_IMG_X_1,PASSWORD_MENU_IMG_X_2,PASSWORD_MENU_IMG_X_3,PASSWORD_MENU_IMG_X_4};
	int y=PASSWORD_MENU_IMG_Y;
	public:
	Password_Menu()
	{
    3ebc:	ca e3       	ldi	r28, 0x3A	; 58
    3ebe:	d6 e0       	ldi	r29, 0x06	; 6
    3ec0:	89 ea       	ldi	r24, 0xA9	; 169
    3ec2:	95 e0       	ldi	r25, 0x05	; 5
    3ec4:	99 83       	std	Y+1, r25	; 0x01
    3ec6:	88 83       	st	Y, r24
    3ec8:	1d 82       	std	Y+5, r1	; 0x05
    3eca:	1c 82       	std	Y+4, r1	; 0x04
    3ecc:	1f 82       	std	Y+7, r1	; 0x07
    3ece:	1e 82       	std	Y+6, r1	; 0x06
    3ed0:	8a e0       	ldi	r24, 0x0A	; 10
    3ed2:	e7 e4       	ldi	r30, 0x47	; 71
    3ed4:	f5 e0       	ldi	r31, 0x05	; 5
    3ed6:	a2 e4       	ldi	r26, 0x42	; 66
    3ed8:	b6 e0       	ldi	r27, 0x06	; 6
    3eda:	01 90       	ld	r0, Z+
    3edc:	0d 92       	st	X+, r0
    3ede:	8a 95       	dec	r24
    3ee0:	e1 f7       	brne	.-8      	; 0x3eda <_GLOBAL__sub_I_zero+0x84>
    3ee2:	82 e0       	ldi	r24, 0x02	; 2
    3ee4:	90 e0       	ldi	r25, 0x00	; 0
    3ee6:	9b 8b       	std	Y+19, r25	; 0x13
    3ee8:	8a 8b       	std	Y+18, r24	; 0x12
{
	protected:
	int pointer=0;
	public:
	Main_Menu()
	{
    3eea:	e4 e3       	ldi	r30, 0x34	; 52
    3eec:	f6 e0       	ldi	r31, 0x06	; 6
    3eee:	23 e9       	ldi	r18, 0x93	; 147
    3ef0:	35 e0       	ldi	r19, 0x05	; 5
    3ef2:	31 83       	std	Z+1, r19	; 0x01
    3ef4:	20 83       	st	Z, r18
    3ef6:	15 82       	std	Z+5, r1	; 0x05
    3ef8:	14 82       	std	Z+4, r1	; 0x04
	int pointer=0;
	int x[3]={ US_INFO_IMG_X_0, US_INFO_IMG_X_1, US_INFO_IMG_X_2};
	int y= US_INFO_IMG_Y;
	public:
	User_Info()
	{
    3efa:	e6 e2       	ldi	r30, 0x26	; 38
    3efc:	f6 e0       	ldi	r31, 0x06	; 6
    3efe:	2b ee       	ldi	r18, 0xEB	; 235
    3f00:	35 e0       	ldi	r19, 0x05	; 5
    3f02:	31 83       	std	Z+1, r19	; 0x01
    3f04:	20 83       	st	Z, r18
    3f06:	15 82       	std	Z+5, r1	; 0x05
    3f08:	14 82       	std	Z+4, r1	; 0x04
    3f0a:	17 82       	std	Z+7, r1	; 0x07
    3f0c:	16 82       	std	Z+6, r1	; 0x06
    3f0e:	11 86       	std	Z+9, r1	; 0x09
    3f10:	10 86       	std	Z+8, r1	; 0x08
    3f12:	13 86       	std	Z+11, r1	; 0x0b
    3f14:	12 86       	std	Z+10, r1	; 0x0a
    3f16:	95 87       	std	Z+13, r25	; 0x0d
    3f18:	84 87       	std	Z+12, r24	; 0x0c
	protected:
	int x[2]={ DV_INFO_IMG_X_0, DV_INFO_IMG_X_1};
	int y= DV_INFO_IMG_Y;
	public:
	Device_info()
	{
    3f1a:	ec e1       	ldi	r30, 0x1C	; 28
    3f1c:	f6 e0       	ldi	r31, 0x06	; 6
    3f1e:	21 e0       	ldi	r18, 0x01	; 1
    3f20:	36 e0       	ldi	r19, 0x06	; 6
    3f22:	31 83       	std	Z+1, r19	; 0x01
    3f24:	20 83       	st	Z, r18
    3f26:	15 82       	std	Z+5, r1	; 0x05
    3f28:	14 82       	std	Z+4, r1	; 0x04
    3f2a:	17 82       	std	Z+7, r1	; 0x07
    3f2c:	16 82       	std	Z+6, r1	; 0x06
    3f2e:	91 87       	std	Z+9, r25	; 0x09
    3f30:	80 87       	std	Z+8, r24	; 0x08
private:
int curlvl;
public:
Batary()
{
	DDRB=0x00;
    3f32:	14 b8       	out	0x04, r1	; 4
	PORTB=0xFF;	
    3f34:	8f ef       	ldi	r24, 0xFF	; 255
    3f36:	85 b9       	out	0x05, r24	; 5
}

void refreshlvl()
{
	int kf=0;
	if((PINB>>0)&0b00000001==1) kf++;
    3f38:	83 b1       	in	r24, 0x03	; 3
	printlvltoOLEDbufer();
}

void refreshlvl()
{
	int kf=0;
    3f3a:	08 2f       	mov	r16, r24
    3f3c:	01 70       	andi	r16, 0x01	; 1
    3f3e:	10 e0       	ldi	r17, 0x00	; 0
    3f40:	c8 01       	movw	r24, r16
	if((PINB>>0)&0b00000001==1) kf++;
	if((PINB>>1)&0b00000001==1) kf++;
    3f42:	19 99       	sbic	0x03, 1	; 3
    3f44:	01 96       	adiw	r24, 0x01	; 1
	if((PINB>>2)&0b00000001==1) kf++;
    3f46:	1a 99       	sbic	0x03, 2	; 3
    3f48:	01 96       	adiw	r24, 0x01	; 1
	if((PINB>>3)&0b00000001==1) kf++;
    3f4a:	1b 99       	sbic	0x03, 3	; 3
    3f4c:	01 96       	adiw	r24, 0x01	; 1
	curlvl=kf;
    3f4e:	90 93 15 06 	sts	0x0615, r25	; 0x800615 <__data_end+0x1>
    3f52:	80 93 14 06 	sts	0x0614, r24	; 0x800614 <__data_end>
Batary()
{
	DDRB=0x00;
	PORTB=0xFF;	
	refreshlvl();
	printlvltoOLEDbufer();
    3f56:	84 e1       	ldi	r24, 0x14	; 20
    3f58:	96 e0       	ldi	r25, 0x06	; 6
    3f5a:	3d dd       	rcall	.-1414   	; 0x39d6 <_ZN6Batary19printlvltoOLEDbuferEv>
		batary.refresh();
		oled.OLED_Write_To_Bufer(80,0,2,8,Net3);
		oled.OLED_Write_Bufer();
		_delay_ms(1000);
	}
}
    3f5c:	df 91       	pop	r29
    3f5e:	cf 91       	pop	r28
    3f60:	1f 91       	pop	r17
    3f62:	0f 91       	pop	r16
    3f64:	08 95       	ret

00003f66 <_ZN4OLED12OLED_CommandEi>:
	}
	

	void OLED::OLED_Command(int command)
	{
		TWDR=0x80;
    3f66:	80 e8       	ldi	r24, 0x80	; 128
    3f68:	80 93 bb 00 	sts	0x00BB, r24	; 0x8000bb <__TEXT_REGION_LENGTH__+0x7e00bb>
		TWCR=(1<<TWINT)|(1<<TWEN);
    3f6c:	84 e8       	ldi	r24, 0x84	; 132
    3f6e:	80 93 bc 00 	sts	0x00BC, r24	; 0x8000bc <__TEXT_REGION_LENGTH__+0x7e00bc>
		while(!(TWCR & (1<<TWINT))){};
    3f72:	ec eb       	ldi	r30, 0xBC	; 188
    3f74:	f0 e0       	ldi	r31, 0x00	; 0
    3f76:	80 81       	ld	r24, Z
    3f78:	88 23       	and	r24, r24
    3f7a:	ec f7       	brge	.-6      	; 0x3f76 <_ZN4OLED12OLED_CommandEi+0x10>

		TWDR=command;
    3f7c:	60 93 bb 00 	sts	0x00BB, r22	; 0x8000bb <__TEXT_REGION_LENGTH__+0x7e00bb>
		TWCR=(1<<TWINT)|(1<<TWEN);
    3f80:	84 e8       	ldi	r24, 0x84	; 132
    3f82:	80 93 bc 00 	sts	0x00BC, r24	; 0x8000bc <__TEXT_REGION_LENGTH__+0x7e00bc>
		while(!(TWCR & (1<<TWINT))){};
    3f86:	ec eb       	ldi	r30, 0xBC	; 188
    3f88:	f0 e0       	ldi	r31, 0x00	; 0
    3f8a:	80 81       	ld	r24, Z
    3f8c:	88 23       	and	r24, r24
    3f8e:	ec f7       	brge	.-6      	; 0x3f8a <_ZN4OLED12OLED_CommandEi+0x24>
	}
    3f90:	08 95       	ret

00003f92 <_ZN4OLED9OLED_DataEi>:


	void OLED::OLED_Data(int data)
	{
		TWDR=data;
    3f92:	60 93 bb 00 	sts	0x00BB, r22	; 0x8000bb <__TEXT_REGION_LENGTH__+0x7e00bb>
		TWCR=(1<<TWINT)|(1<<TWEN);
    3f96:	84 e8       	ldi	r24, 0x84	; 132
    3f98:	80 93 bc 00 	sts	0x00BC, r24	; 0x8000bc <__TEXT_REGION_LENGTH__+0x7e00bc>
		while(!(TWCR & (1<<TWINT))){};
    3f9c:	ec eb       	ldi	r30, 0xBC	; 188
    3f9e:	f0 e0       	ldi	r31, 0x00	; 0
    3fa0:	80 81       	ld	r24, Z
    3fa2:	88 23       	and	r24, r24
    3fa4:	ec f7       	brge	.-6      	; 0x3fa0 <_ZN4OLED9OLED_DataEi+0xe>
	}
    3fa6:	08 95       	ret

00003fa8 <_ZN4OLED16OLED_Write_BuferEv>:


	void OLED::OLED_Write_Bufer()
	{
    3fa8:	ef 92       	push	r14
    3faa:	ff 92       	push	r15
    3fac:	0f 93       	push	r16
    3fae:	1f 93       	push	r17
    3fb0:	cf 93       	push	r28
    3fb2:	df 93       	push	r29
    3fb4:	8c 01       	movw	r16, r24
    3fb6:	ec 01       	movw	r28, r24
    3fb8:	7c 01       	movw	r14, r24
    3fba:	8c ef       	ldi	r24, 0xFC	; 252
    3fbc:	f8 1a       	sub	r15, r24
		for(int i=0;i<(OLED_HEIGHT/8)*OLED_WIDTH;i++)
		{
			OLED_Data(oled_bufer[i]);
    3fbe:	69 91       	ld	r22, Y+
    3fc0:	70 e0       	ldi	r23, 0x00	; 0
    3fc2:	c8 01       	movw	r24, r16
    3fc4:	e6 df       	rcall	.-52     	; 0x3f92 <_ZN4OLED9OLED_DataEi>
	}


	void OLED::OLED_Write_Bufer()
	{
		for(int i=0;i<(OLED_HEIGHT/8)*OLED_WIDTH;i++)
    3fc6:	ce 15       	cp	r28, r14
    3fc8:	df 05       	cpc	r29, r15
    3fca:	c9 f7       	brne	.-14     	; 0x3fbe <_ZN4OLED16OLED_Write_BuferEv+0x16>
		{
			OLED_Data(oled_bufer[i]);
		}
	}
    3fcc:	df 91       	pop	r29
    3fce:	cf 91       	pop	r28
    3fd0:	1f 91       	pop	r17
    3fd2:	0f 91       	pop	r16
    3fd4:	ff 90       	pop	r15
    3fd6:	ef 90       	pop	r14
    3fd8:	08 95       	ret

00003fda <_ZN4OLED16OLED_Bufer_ClearEv>:

	void OLED::OLED_Bufer_Clear()
	{
    3fda:	fc 01       	movw	r30, r24
    3fdc:	9c 5f       	subi	r25, 0xFC	; 252
		for(int i=0;i<(OLED_HEIGHT/8)*OLED_WIDTH;i++)
		{
			oled_bufer[i]=0b00000000;
    3fde:	11 92       	st	Z+, r1
		}
	}

	void OLED::OLED_Bufer_Clear()
	{
		for(int i=0;i<(OLED_HEIGHT/8)*OLED_WIDTH;i++)
    3fe0:	e8 17       	cp	r30, r24
    3fe2:	f9 07       	cpc	r31, r25
    3fe4:	e1 f7       	brne	.-8      	; 0x3fde <_ZN4OLED16OLED_Bufer_ClearEv+0x4>
		{
			oled_bufer[i]=0b00000000;
		}
	}
    3fe6:	08 95       	ret

00003fe8 <_ZN4OLEDC1E3TWI>:
#include "OLED.h"

	OLED::OLED(TWI _wire)
    3fe8:	0f 93       	push	r16
    3fea:	1f 93       	push	r17
    3fec:	cf 93       	push	r28
    3fee:	df 93       	push	r29
    3ff0:	ec 01       	movw	r28, r24
    3ff2:	8c 01       	movw	r16, r24
    3ff4:	1c 5f       	subi	r17, 0xFC	; 252
    3ff6:	c8 01       	movw	r24, r16
    3ff8:	7d d1       	rcall	.+762    	; 0x42f4 <_ZN3TWIC1Ev>
	{
		wire=_wire;
		wire.twi_Init();
    3ffa:	c8 01       	movw	r24, r16
    3ffc:	7c d1       	rcall	.+760    	; 0x42f6 <_ZN3TWI8twi_InitEv>
		wire.twi_Start();
    3ffe:	c8 01       	movw	r24, r16
    4000:	8b d1       	rcall	.+790    	; 0x4318 <_ZN3TWI9twi_StartEv>
		wire.twi_SendAdress();
    4002:	c8 01       	movw	r24, r16
    4004:	7d d1       	rcall	.+762    	; 0x4300 <_ZN3TWI14twi_SendAdressEv>
		OLED_Command(0xA8);
    4006:	68 ea       	ldi	r22, 0xA8	; 168
    4008:	70 e0       	ldi	r23, 0x00	; 0
    400a:	ce 01       	movw	r24, r28
    400c:	ac df       	rcall	.-168    	; 0x3f66 <_ZN4OLED12OLED_CommandEi>
		OLED_Command(0x3F);
    400e:	6f e3       	ldi	r22, 0x3F	; 63
    4010:	70 e0       	ldi	r23, 0x00	; 0
    4012:	ce 01       	movw	r24, r28
    4014:	a8 df       	rcall	.-176    	; 0x3f66 <_ZN4OLED12OLED_CommandEi>

		OLED_Command(0xD3);
    4016:	63 ed       	ldi	r22, 0xD3	; 211
    4018:	70 e0       	ldi	r23, 0x00	; 0
    401a:	ce 01       	movw	r24, r28
    401c:	a4 df       	rcall	.-184    	; 0x3f66 <_ZN4OLED12OLED_CommandEi>
		OLED_Command(0x00);
    401e:	60 e0       	ldi	r22, 0x00	; 0
    4020:	70 e0       	ldi	r23, 0x00	; 0
    4022:	ce 01       	movw	r24, r28
    4024:	a0 df       	rcall	.-192    	; 0x3f66 <_ZN4OLED12OLED_CommandEi>

		OLED_Command(0x40);
    4026:	60 e4       	ldi	r22, 0x40	; 64
    4028:	70 e0       	ldi	r23, 0x00	; 0
    402a:	ce 01       	movw	r24, r28
    402c:	9c df       	rcall	.-200    	; 0x3f66 <_ZN4OLED12OLED_CommandEi>
		OLED_Command(0xA1);
    402e:	61 ea       	ldi	r22, 0xA1	; 161
    4030:	70 e0       	ldi	r23, 0x00	; 0
    4032:	ce 01       	movw	r24, r28
    4034:	98 df       	rcall	.-208    	; 0x3f66 <_ZN4OLED12OLED_CommandEi>

		OLED_Command(0xC8);
    4036:	68 ec       	ldi	r22, 0xC8	; 200
    4038:	70 e0       	ldi	r23, 0x00	; 0
    403a:	ce 01       	movw	r24, r28
    403c:	94 df       	rcall	.-216    	; 0x3f66 <_ZN4OLED12OLED_CommandEi>
		OLED_Command(0xDA);
    403e:	6a ed       	ldi	r22, 0xDA	; 218
    4040:	70 e0       	ldi	r23, 0x00	; 0
    4042:	ce 01       	movw	r24, r28
    4044:	90 df       	rcall	.-224    	; 0x3f66 <_ZN4OLED12OLED_CommandEi>
		OLED_Command(0x12);
    4046:	62 e1       	ldi	r22, 0x12	; 18
    4048:	70 e0       	ldi	r23, 0x00	; 0
    404a:	ce 01       	movw	r24, r28
    404c:	8c df       	rcall	.-232    	; 0x3f66 <_ZN4OLED12OLED_CommandEi>

		OLED_Command(0x81);
    404e:	61 e8       	ldi	r22, 0x81	; 129
    4050:	70 e0       	ldi	r23, 0x00	; 0
    4052:	ce 01       	movw	r24, r28
    4054:	88 df       	rcall	.-240    	; 0x3f66 <_ZN4OLED12OLED_CommandEi>
		OLED_Command(0xFF);
    4056:	6f ef       	ldi	r22, 0xFF	; 255
    4058:	70 e0       	ldi	r23, 0x00	; 0
    405a:	ce 01       	movw	r24, r28
    405c:	84 df       	rcall	.-248    	; 0x3f66 <_ZN4OLED12OLED_CommandEi>
		OLED_Command(0xA4);
    405e:	64 ea       	ldi	r22, 0xA4	; 164
    4060:	70 e0       	ldi	r23, 0x00	; 0
    4062:	ce 01       	movw	r24, r28
    4064:	80 df       	rcall	.-256    	; 0x3f66 <_ZN4OLED12OLED_CommandEi>

		OLED_Command(0xA6);
    4066:	66 ea       	ldi	r22, 0xA6	; 166
    4068:	70 e0       	ldi	r23, 0x00	; 0
    406a:	ce 01       	movw	r24, r28
    406c:	7c df       	rcall	.-264    	; 0x3f66 <_ZN4OLED12OLED_CommandEi>
		OLED_Command(0xD5);
    406e:	65 ed       	ldi	r22, 0xD5	; 213
    4070:	70 e0       	ldi	r23, 0x00	; 0
    4072:	ce 01       	movw	r24, r28
    4074:	78 df       	rcall	.-272    	; 0x3f66 <_ZN4OLED12OLED_CommandEi>
		OLED_Command(0x80);
    4076:	60 e8       	ldi	r22, 0x80	; 128
    4078:	70 e0       	ldi	r23, 0x00	; 0
    407a:	ce 01       	movw	r24, r28
    407c:	74 df       	rcall	.-280    	; 0x3f66 <_ZN4OLED12OLED_CommandEi>
		OLED_Command(0x8D);
    407e:	6d e8       	ldi	r22, 0x8D	; 141
    4080:	70 e0       	ldi	r23, 0x00	; 0
    4082:	ce 01       	movw	r24, r28
    4084:	70 df       	rcall	.-288    	; 0x3f66 <_ZN4OLED12OLED_CommandEi>
		OLED_Command(0x14);
    4086:	64 e1       	ldi	r22, 0x14	; 20
    4088:	70 e0       	ldi	r23, 0x00	; 0
    408a:	ce 01       	movw	r24, r28
    408c:	6c df       	rcall	.-296    	; 0x3f66 <_ZN4OLED12OLED_CommandEi>
		OLED_Command(0xAF);
    408e:	6f ea       	ldi	r22, 0xAF	; 175
    4090:	70 e0       	ldi	r23, 0x00	; 0
    4092:	ce 01       	movw	r24, r28
    4094:	68 df       	rcall	.-304    	; 0x3f66 <_ZN4OLED12OLED_CommandEi>

		OLED_Command(0x20);
    4096:	60 e2       	ldi	r22, 0x20	; 32
    4098:	70 e0       	ldi	r23, 0x00	; 0
    409a:	ce 01       	movw	r24, r28
    409c:	64 df       	rcall	.-312    	; 0x3f66 <_ZN4OLED12OLED_CommandEi>
		OLED_Command(0x00);
    409e:	60 e0       	ldi	r22, 0x00	; 0
    40a0:	70 e0       	ldi	r23, 0x00	; 0
    40a2:	ce 01       	movw	r24, r28
    40a4:	60 df       	rcall	.-320    	; 0x3f66 <_ZN4OLED12OLED_CommandEi>
		OLED_Command(0x21);
    40a6:	61 e2       	ldi	r22, 0x21	; 33
    40a8:	70 e0       	ldi	r23, 0x00	; 0
    40aa:	ce 01       	movw	r24, r28
    40ac:	5c df       	rcall	.-328    	; 0x3f66 <_ZN4OLED12OLED_CommandEi>
    40ae:	60 e0       	ldi	r22, 0x00	; 0
		OLED_Command(0);
    40b0:	70 e0       	ldi	r23, 0x00	; 0
    40b2:	ce 01       	movw	r24, r28
    40b4:	58 df       	rcall	.-336    	; 0x3f66 <_ZN4OLED12OLED_CommandEi>
    40b6:	6f e7       	ldi	r22, 0x7F	; 127
		OLED_Command(127);
    40b8:	70 e0       	ldi	r23, 0x00	; 0
    40ba:	ce 01       	movw	r24, r28
    40bc:	54 df       	rcall	.-344    	; 0x3f66 <_ZN4OLED12OLED_CommandEi>
		OLED_Command(0x22);
    40be:	62 e2       	ldi	r22, 0x22	; 34
    40c0:	70 e0       	ldi	r23, 0x00	; 0
    40c2:	ce 01       	movw	r24, r28
    40c4:	50 df       	rcall	.-352    	; 0x3f66 <_ZN4OLED12OLED_CommandEi>
    40c6:	60 e0       	ldi	r22, 0x00	; 0
		OLED_Command(0);
    40c8:	70 e0       	ldi	r23, 0x00	; 0
    40ca:	ce 01       	movw	r24, r28
    40cc:	4c df       	rcall	.-360    	; 0x3f66 <_ZN4OLED12OLED_CommandEi>
    40ce:	67 e0       	ldi	r22, 0x07	; 7
    40d0:	70 e0       	ldi	r23, 0x00	; 0
		OLED_Command(7);
    40d2:	ce 01       	movw	r24, r28
    40d4:	48 df       	rcall	.-368    	; 0x3f66 <_ZN4OLED12OLED_CommandEi>
    40d6:	80 e4       	ldi	r24, 0x40	; 64
    40d8:	80 93 bb 00 	sts	0x00BB, r24	; 0x8000bb <__TEXT_REGION_LENGTH__+0x7e00bb>
		TWDR=0x40;
    40dc:	84 e8       	ldi	r24, 0x84	; 132
    40de:	80 93 bc 00 	sts	0x00BC, r24	; 0x8000bc <__TEXT_REGION_LENGTH__+0x7e00bc>
		TWCR=(1<<TWINT)|(1<<TWEN);
    40e2:	ce 01       	movw	r24, r28
    40e4:	7a df       	rcall	.-268    	; 0x3fda <_ZN4OLED16OLED_Bufer_ClearEv>
    40e6:	60 e0       	ldi	r22, 0x00	; 0
		OLED_Bufer_Clear();
    40e8:	70 e0       	ldi	r23, 0x00	; 0
    40ea:	ce 01       	movw	r24, r28
    40ec:	52 df       	rcall	.-348    	; 0x3f92 <_ZN4OLED9OLED_DataEi>
		OLED_Data(0b00000000);
    40ee:	ce 01       	movw	r24, r28
    40f0:	5b df       	rcall	.-330    	; 0x3fa8 <_ZN4OLED16OLED_Write_BuferEv>
    40f2:	df 91       	pop	r29
    40f4:	cf 91       	pop	r28
    40f6:	1f 91       	pop	r17
		OLED_Write_Bufer();
    40f8:	0f 91       	pop	r16
    40fa:	08 95       	ret

000040fc <_ZN4OLED21OLED_Clear_Bufer_partEiiii>:
    40fc:	cf 92       	push	r12
	}
    40fe:	df 92       	push	r13
    4100:	ef 92       	push	r14
    4102:	ff 92       	push	r15
    4104:	0f 93       	push	r16
    4106:	1f 93       	push	r17
		}
	}


	void OLED::OLED_Clear_Bufer_part(int x,int y,int width,int height)
	{
    4108:	cf 93       	push	r28
    410a:	df 93       	push	r29
    410c:	ec 01       	movw	r28, r24
    410e:	7b 01       	movw	r14, r22
    4110:	6a 01       	movw	r12, r20
    4112:	b9 01       	movw	r22, r18
		for(int j=0;j<height;j++)
    4114:	10 16       	cp	r1, r16
    4116:	11 06       	cpc	r1, r17
    4118:	bc f5       	brge	.+110    	; 0x4188 <__stack+0x89>
    411a:	20 e0       	ldi	r18, 0x00	; 0
    411c:	30 e0       	ldi	r19, 0x00	; 0
    411e:	ab 01       	movw	r20, r22
    4120:	44 0f       	add	r20, r20
    4122:	55 1f       	adc	r21, r21
    4124:	44 0f       	add	r20, r20
    4126:	55 1f       	adc	r21, r21
    4128:	44 0f       	add	r20, r20
    412a:	55 1f       	adc	r21, r21
    412c:	4e 0d       	add	r20, r14
    412e:	5f 1d       	adc	r21, r15
		{
			
			for(int i=0;i<width;i++)
    4130:	16 16       	cp	r1, r22
    4132:	17 06       	cpc	r1, r23
    4134:	24 f5       	brge	.+72     	; 0x417e <__stack+0x7f>
    4136:	c9 01       	movw	r24, r18
    4138:	33 23       	and	r19, r19
    413a:	0c f4       	brge	.+2      	; 0x413e <__stack+0x3f>
    413c:	07 96       	adiw	r24, 0x07	; 7
    413e:	95 95       	asr	r25
    4140:	87 95       	ror	r24
    4142:	95 95       	asr	r25
    4144:	87 95       	ror	r24
    4146:	95 95       	asr	r25
    4148:	87 95       	ror	r24
    414a:	8c 0d       	add	r24, r12
    414c:	9d 1d       	adc	r25, r13
    414e:	96 95       	lsr	r25
    4150:	98 2f       	mov	r25, r24
    4152:	88 27       	eor	r24, r24
    4154:	97 95       	ror	r25
    4156:	87 95       	ror	r24
    4158:	fc 01       	movw	r30, r24
    415a:	ee 0d       	add	r30, r14
    415c:	ff 1d       	adc	r31, r15
    415e:	ec 0f       	add	r30, r28
    4160:	fd 1f       	adc	r31, r29
    4162:	84 0f       	add	r24, r20
    4164:	95 1f       	adc	r25, r21
    4166:	8c 0f       	add	r24, r28
    4168:	9d 1f       	adc	r25, r29
    416a:	df 01       	movw	r26, r30
    416c:	18 96       	adiw	r26, 0x08	; 8
			{
				for(int k=0;k<8;k++)
				{
					oled_bufer[(x+i*8+k)+(y+j/8)*OLED_WIDTH]=0b00000000;
    416e:	11 92       	st	Z+, r1
		for(int j=0;j<height;j++)
		{
			
			for(int i=0;i<width;i++)
			{
				for(int k=0;k<8;k++)
    4170:	ea 17       	cp	r30, r26
    4172:	fb 07       	cpc	r31, r27
    4174:	e1 f7       	brne	.-8      	; 0x416e <__stack+0x6f>
    4176:	fd 01       	movw	r30, r26
	void OLED::OLED_Clear_Bufer_part(int x,int y,int width,int height)
	{
		for(int j=0;j<height;j++)
		{
			
			for(int i=0;i<width;i++)
    4178:	8a 17       	cp	r24, r26
    417a:	9b 07       	cpc	r25, r27
    417c:	b1 f7       	brne	.-20     	; 0x416a <__stack+0x6b>
	}


	void OLED::OLED_Clear_Bufer_part(int x,int y,int width,int height)
	{
		for(int j=0;j<height;j++)
    417e:	2f 5f       	subi	r18, 0xFF	; 255
    4180:	3f 4f       	sbci	r19, 0xFF	; 255
    4182:	02 17       	cp	r16, r18
    4184:	13 07       	cpc	r17, r19
    4186:	a1 f6       	brne	.-88     	; 0x4130 <__stack+0x31>
				{
					oled_bufer[(x+i*8+k)+(y+j/8)*OLED_WIDTH]=0b00000000;
				}
			}
		}
	}
    4188:	df 91       	pop	r29
    418a:	cf 91       	pop	r28
    418c:	1f 91       	pop	r17
    418e:	0f 91       	pop	r16
    4190:	ff 90       	pop	r15
    4192:	ef 90       	pop	r14
    4194:	df 90       	pop	r13
    4196:	cf 90       	pop	r12
    4198:	08 95       	ret

0000419a <_ZN4OLED19OLED_Write_To_BuferEiiiiPKh>:

	void OLED::OLED_Write_To_Bufer(int x,int y,int width,int height,const uint8_t* img)
	{
    419a:	2f 92       	push	r2
    419c:	3f 92       	push	r3
    419e:	4f 92       	push	r4
    41a0:	5f 92       	push	r5
    41a2:	6f 92       	push	r6
    41a4:	7f 92       	push	r7
    41a6:	8f 92       	push	r8
    41a8:	9f 92       	push	r9
    41aa:	af 92       	push	r10
    41ac:	bf 92       	push	r11
    41ae:	cf 92       	push	r12
    41b0:	df 92       	push	r13
    41b2:	ef 92       	push	r14
    41b4:	ff 92       	push	r15
    41b6:	0f 93       	push	r16
    41b8:	1f 93       	push	r17
    41ba:	cf 93       	push	r28
    41bc:	df 93       	push	r29
    41be:	00 d0       	rcall	.+0      	; 0x41c0 <_ZN4OLED19OLED_Write_To_BuferEiiiiPKh+0x26>
    41c0:	00 d0       	rcall	.+0      	; 0x41c2 <_ZN4OLED19OLED_Write_To_BuferEiiiiPKh+0x28>
    41c2:	00 d0       	rcall	.+0      	; 0x41c4 <_ZN4OLED19OLED_Write_To_BuferEiiiiPKh+0x2a>
    41c4:	cd b7       	in	r28, 0x3d	; 61
    41c6:	de b7       	in	r29, 0x3e	; 62
    41c8:	9e 83       	std	Y+6, r25	; 0x06
    41ca:	8d 83       	std	Y+5, r24	; 0x05
    41cc:	3a 01       	movw	r6, r20
    41ce:	29 01       	movw	r4, r18
    41d0:	18 01       	movw	r2, r16
		for(int j=0;j<height;j++)
    41d2:	10 16       	cp	r1, r16
    41d4:	11 06       	cpc	r1, r17
    41d6:	0c f0       	brlt	.+2      	; 0x41da <_ZN4OLED19OLED_Write_To_BuferEiiiiPKh+0x40>
    41d8:	74 c0       	rjmp	.+232    	; 0x42c2 <_ZN4OLED19OLED_Write_To_BuferEiiiiPKh+0x128>
    41da:	3c 83       	std	Y+4, r19	; 0x04
    41dc:	2b 83       	std	Y+3, r18	; 0x03
    41de:	8e 2c       	mov	r8, r14
    41e0:	9f 2c       	mov	r9, r15
    41e2:	c1 2c       	mov	r12, r1
    41e4:	d1 2c       	mov	r13, r1
			
			for(int i=0;i<width;i++)
			{
				for(int k=0;k<8;k++)
				{
					oled_bufer[(x+i*8+k)+(y+j/8)*OLED_WIDTH]|=((img[j*width+i]<<k)&0b10000000)>>(7-j%8);
    41e6:	0f 2e       	mov	r0, r31
    41e8:	f7 e0       	ldi	r31, 0x07	; 7
    41ea:	af 2e       	mov	r10, r31
    41ec:	b1 2c       	mov	r11, r1
    41ee:	f0 2d       	mov	r31, r0
    41f0:	c9 01       	movw	r24, r18
    41f2:	88 0f       	add	r24, r24
    41f4:	99 1f       	adc	r25, r25
    41f6:	88 0f       	add	r24, r24
    41f8:	99 1f       	adc	r25, r25
    41fa:	88 0f       	add	r24, r24
    41fc:	99 1f       	adc	r25, r25
    41fe:	9b 01       	movw	r18, r22
    4200:	28 0f       	add	r18, r24
    4202:	39 1f       	adc	r19, r25
    4204:	3a 83       	std	Y+2, r19	; 0x02
    4206:	29 83       	std	Y+1, r18	; 0x01
	void OLED::OLED_Write_To_Bufer(int x,int y,int width,int height,const uint8_t* img)
	{
		for(int j=0;j<height;j++)
		{
			
			for(int i=0;i<width;i++)
    4208:	14 14       	cp	r1, r4
    420a:	15 04       	cpc	r1, r5
    420c:	0c f0       	brlt	.+2      	; 0x4210 <_ZN4OLED19OLED_Write_To_BuferEiiiiPKh+0x76>
    420e:	4e c0       	rjmp	.+156    	; 0x42ac <_ZN4OLED19OLED_Write_To_BuferEiiiiPKh+0x112>
			{
				for(int k=0;k<8;k++)
				{
					oled_bufer[(x+i*8+k)+(y+j/8)*OLED_WIDTH]|=((img[j*width+i]<<k)&0b10000000)>>(7-j%8);
    4210:	c6 01       	movw	r24, r12
    4212:	87 70       	andi	r24, 0x07	; 7
    4214:	90 78       	andi	r25, 0x80	; 128
    4216:	99 23       	and	r25, r25
    4218:	24 f4       	brge	.+8      	; 0x4222 <_ZN4OLED19OLED_Write_To_BuferEiiiiPKh+0x88>
    421a:	01 97       	sbiw	r24, 0x01	; 1
    421c:	88 6f       	ori	r24, 0xF8	; 248
    421e:	9f 6f       	ori	r25, 0xFF	; 255
    4220:	01 96       	adiw	r24, 0x01	; 1
    4222:	85 01       	movw	r16, r10
    4224:	08 1b       	sub	r16, r24
    4226:	19 0b       	sbc	r17, r25
    4228:	76 01       	movw	r14, r12
    422a:	dd 20       	and	r13, r13
    422c:	1c f4       	brge	.+6      	; 0x4234 <_ZN4OLED19OLED_Write_To_BuferEiiiiPKh+0x9a>
    422e:	97 e0       	ldi	r25, 0x07	; 7
    4230:	e9 0e       	add	r14, r25
    4232:	f1 1c       	adc	r15, r1
    4234:	f5 94       	asr	r15
    4236:	e7 94       	ror	r14
    4238:	f5 94       	asr	r15
    423a:	e7 94       	ror	r14
    423c:	f5 94       	asr	r15
    423e:	e7 94       	ror	r14
    4240:	e6 0c       	add	r14, r6
    4242:	f7 1c       	adc	r15, r7
    4244:	f6 94       	lsr	r15
    4246:	fe 2c       	mov	r15, r14
    4248:	ee 24       	eor	r14, r14
    424a:	f7 94       	ror	r15
    424c:	e7 94       	ror	r14
    424e:	ab 01       	movw	r20, r22
    4250:	4e 0d       	add	r20, r14
    4252:	5f 1d       	adc	r21, r15
    4254:	2d 81       	ldd	r18, Y+5	; 0x05
    4256:	3e 81       	ldd	r19, Y+6	; 0x06
    4258:	42 0f       	add	r20, r18
    425a:	53 1f       	adc	r21, r19
    425c:	89 81       	ldd	r24, Y+1	; 0x01
    425e:	9a 81       	ldd	r25, Y+2	; 0x02
    4260:	e8 0e       	add	r14, r24
    4262:	f9 1e       	adc	r15, r25
    4264:	e2 0e       	add	r14, r18
    4266:	f3 1e       	adc	r15, r19
    4268:	d4 01       	movw	r26, r8
    426a:	fa 01       	movw	r30, r20
    426c:	20 e0       	ldi	r18, 0x00	; 0
    426e:	30 e0       	ldi	r19, 0x00	; 0
    4270:	8c 91       	ld	r24, X
    4272:	90 e0       	ldi	r25, 0x00	; 0
    4274:	02 2e       	mov	r0, r18
    4276:	02 c0       	rjmp	.+4      	; 0x427c <_ZN4OLED19OLED_Write_To_BuferEiiiiPKh+0xe2>
    4278:	88 0f       	add	r24, r24
    427a:	99 1f       	adc	r25, r25
    427c:	0a 94       	dec	r0
    427e:	e2 f7       	brpl	.-8      	; 0x4278 <_ZN4OLED19OLED_Write_To_BuferEiiiiPKh+0xde>
    4280:	80 78       	andi	r24, 0x80	; 128
    4282:	99 27       	eor	r25, r25
    4284:	00 2e       	mov	r0, r16
    4286:	02 c0       	rjmp	.+4      	; 0x428c <_ZN4OLED19OLED_Write_To_BuferEiiiiPKh+0xf2>
    4288:	95 95       	asr	r25
    428a:	87 95       	ror	r24
    428c:	0a 94       	dec	r0
    428e:	e2 f7       	brpl	.-8      	; 0x4288 <_ZN4OLED19OLED_Write_To_BuferEiiiiPKh+0xee>
    4290:	90 81       	ld	r25, Z
    4292:	89 2b       	or	r24, r25
    4294:	81 93       	st	Z+, r24
		for(int j=0;j<height;j++)
		{
			
			for(int i=0;i<width;i++)
			{
				for(int k=0;k<8;k++)
    4296:	2f 5f       	subi	r18, 0xFF	; 255
    4298:	3f 4f       	sbci	r19, 0xFF	; 255
    429a:	28 30       	cpi	r18, 0x08	; 8
    429c:	31 05       	cpc	r19, r1
    429e:	41 f7       	brne	.-48     	; 0x4270 <_ZN4OLED19OLED_Write_To_BuferEiiiiPKh+0xd6>
    42a0:	48 5f       	subi	r20, 0xF8	; 248
    42a2:	5f 4f       	sbci	r21, 0xFF	; 255
    42a4:	11 96       	adiw	r26, 0x01	; 1
	void OLED::OLED_Write_To_Bufer(int x,int y,int width,int height,const uint8_t* img)
	{
		for(int j=0;j<height;j++)
		{
			
			for(int i=0;i<width;i++)
    42a6:	4e 15       	cp	r20, r14
    42a8:	5f 05       	cpc	r21, r15
    42aa:	f9 f6       	brne	.-66     	; 0x426a <_ZN4OLED19OLED_Write_To_BuferEiiiiPKh+0xd0>
		}
	}

	void OLED::OLED_Write_To_Bufer(int x,int y,int width,int height,const uint8_t* img)
	{
		for(int j=0;j<height;j++)
    42ac:	3f ef       	ldi	r19, 0xFF	; 255
    42ae:	c3 1a       	sub	r12, r19
    42b0:	d3 0a       	sbc	r13, r19
    42b2:	8b 81       	ldd	r24, Y+3	; 0x03
    42b4:	9c 81       	ldd	r25, Y+4	; 0x04
    42b6:	88 0e       	add	r8, r24
    42b8:	99 1e       	adc	r9, r25
    42ba:	2c 14       	cp	r2, r12
    42bc:	3d 04       	cpc	r3, r13
    42be:	09 f0       	breq	.+2      	; 0x42c2 <_ZN4OLED19OLED_Write_To_BuferEiiiiPKh+0x128>
    42c0:	a3 cf       	rjmp	.-186    	; 0x4208 <_ZN4OLED19OLED_Write_To_BuferEiiiiPKh+0x6e>
				{
					oled_bufer[(x+i*8+k)+(y+j/8)*OLED_WIDTH]|=((img[j*width+i]<<k)&0b10000000)>>(7-j%8);
				}
			}
		}
	}
    42c2:	26 96       	adiw	r28, 0x06	; 6
    42c4:	0f b6       	in	r0, 0x3f	; 63
    42c6:	f8 94       	cli
    42c8:	de bf       	out	0x3e, r29	; 62
    42ca:	0f be       	out	0x3f, r0	; 63
    42cc:	cd bf       	out	0x3d, r28	; 61
    42ce:	df 91       	pop	r29
    42d0:	cf 91       	pop	r28
    42d2:	1f 91       	pop	r17
    42d4:	0f 91       	pop	r16
    42d6:	ff 90       	pop	r15
    42d8:	ef 90       	pop	r14
    42da:	df 90       	pop	r13
    42dc:	cf 90       	pop	r12
    42de:	bf 90       	pop	r11
    42e0:	af 90       	pop	r10
    42e2:	9f 90       	pop	r9
    42e4:	8f 90       	pop	r8
    42e6:	7f 90       	pop	r7
    42e8:	6f 90       	pop	r6
    42ea:	5f 90       	pop	r5
    42ec:	4f 90       	pop	r4
    42ee:	3f 90       	pop	r3
    42f0:	2f 90       	pop	r2
    42f2:	08 95       	ret

000042f4 <_ZN3TWIC1Ev>:
#include "TWI.h"


	TWI::TWI(){}
    42f4:	08 95       	ret

000042f6 <_ZN3TWI8twi_InitEv>:

	void TWI::twi_Init(void)
	{
		TWBR=(((CPU_F)/(SCL_F)-16)/2);
    42f6:	10 92 b8 00 	sts	0x00B8, r1	; 0x8000b8 <__TEXT_REGION_LENGTH__+0x7e00b8>
		TWSR=0;
    42fa:	10 92 b9 00 	sts	0x00B9, r1	; 0x8000b9 <__TEXT_REGION_LENGTH__+0x7e00b9>
    42fe:	08 95       	ret

00004300 <_ZN3TWI14twi_SendAdressEv>:
	}

	void TWI::twi_SendAdress(void)
	{
		TWDR=(Dev_Adr<<1)|0;
    4300:	88 e7       	ldi	r24, 0x78	; 120
    4302:	80 93 bb 00 	sts	0x00BB, r24	; 0x8000bb <__TEXT_REGION_LENGTH__+0x7e00bb>
		TWCR=(1<<TWINT)|(1<<TWEN);
    4306:	84 e8       	ldi	r24, 0x84	; 132
    4308:	80 93 bc 00 	sts	0x00BC, r24	; 0x8000bc <__TEXT_REGION_LENGTH__+0x7e00bc>
		while(!(TWCR & (1<<TWINT))){};
    430c:	ec eb       	ldi	r30, 0xBC	; 188
    430e:	f0 e0       	ldi	r31, 0x00	; 0
    4310:	80 81       	ld	r24, Z
    4312:	88 23       	and	r24, r24
    4314:	ec f7       	brge	.-6      	; 0x4310 <_ZN3TWI14twi_SendAdressEv+0x10>
	}
    4316:	08 95       	ret

00004318 <_ZN3TWI9twi_StartEv>:

	void TWI::twi_Start(void)
	{
		TWCR=(1<<TWINT)|(1<<TWSTA)|(1<<TWEN);
    4318:	84 ea       	ldi	r24, 0xA4	; 164
    431a:	80 93 bc 00 	sts	0x00BC, r24	; 0x8000bc <__TEXT_REGION_LENGTH__+0x7e00bc>
		while(!(TWCR & (1<<TWINT))){};
    431e:	ec eb       	ldi	r30, 0xBC	; 188
    4320:	f0 e0       	ldi	r31, 0x00	; 0
    4322:	80 81       	ld	r24, Z
    4324:	88 23       	and	r24, r24
    4326:	ec f7       	brge	.-6      	; 0x4322 <_ZN3TWI9twi_StartEv+0xa>
	}
    4328:	08 95       	ret

0000432a <__tablejump2__>:
    432a:	ee 0f       	add	r30, r30
    432c:	ff 1f       	adc	r31, r31
    432e:	00 24       	eor	r0, r0
    4330:	00 1c       	adc	r0, r0
    4332:	0b be       	out	0x3b, r0	; 59
    4334:	07 90       	elpm	r0, Z+
    4336:	f6 91       	elpm	r31, Z
    4338:	e0 2d       	mov	r30, r0
    433a:	09 94       	ijmp

0000433c <_exit>:
    433c:	f8 94       	cli

0000433e <__stop_program>:
    433e:	ff cf       	rjmp	.-2      	; 0x433e <__stop_program>
