
SmartLock.elf:     file format elf32-avr

Sections:
Idx Name          Size      VMA       LMA       File off  Algn
  0 .data         000004e2  00800100  00003a0c  00003aa0  2**0
                  CONTENTS, ALLOC, LOAD, DATA
  1 .text         00003a0c  00000000  00000000  00000094  2**1
                  CONTENTS, ALLOC, LOAD, READONLY, CODE
  2 .bss          000004ad  008005e2  008005e2  00003f82  2**0
                  ALLOC
  3 .comment      00000030  00000000  00000000  00003f82  2**0
                  CONTENTS, READONLY
  4 .note.gnu.avr.deviceinfo 00000040  00000000  00000000  00003fb4  2**2
                  CONTENTS, READONLY
  5 .debug_aranges 00000220  00000000  00000000  00003ff4  2**0
                  CONTENTS, READONLY, DEBUGGING
  6 .debug_info   0000758f  00000000  00000000  00004214  2**0
                  CONTENTS, READONLY, DEBUGGING
  7 .debug_abbrev 00000f84  00000000  00000000  0000b7a3  2**0
                  CONTENTS, READONLY, DEBUGGING
  8 .debug_line   00001a3e  00000000  00000000  0000c727  2**0
                  CONTENTS, READONLY, DEBUGGING
  9 .debug_frame  00000734  00000000  00000000  0000e168  2**2
                  CONTENTS, READONLY, DEBUGGING
 10 .debug_str    00000ec0  00000000  00000000  0000e89c  2**0
                  CONTENTS, READONLY, DEBUGGING
 11 .debug_loc    00003d1e  00000000  00000000  0000f75c  2**0
                  CONTENTS, READONLY, DEBUGGING
 12 .debug_ranges 00000268  00000000  00000000  0001347a  2**0
                  CONTENTS, READONLY, DEBUGGING

Disassembly of section .text:

00000000 <__vectors>:
       0:	67 c0       	rjmp	.+206    	; 0xd0 <__ctors_end>
       2:	00 00       	nop
       4:	8f c0       	rjmp	.+286    	; 0x124 <__bad_interrupt>
       6:	00 00       	nop
       8:	8d c0       	rjmp	.+282    	; 0x124 <__bad_interrupt>
       a:	00 00       	nop
       c:	8b c0       	rjmp	.+278    	; 0x124 <__bad_interrupt>
       e:	00 00       	nop
      10:	0c 94 23 10 	jmp	0x2046	; 0x2046 <__vector_4>
      14:	87 c0       	rjmp	.+270    	; 0x124 <__bad_interrupt>
      16:	00 00       	nop
      18:	85 c0       	rjmp	.+266    	; 0x124 <__bad_interrupt>
      1a:	00 00       	nop
      1c:	83 c0       	rjmp	.+262    	; 0x124 <__bad_interrupt>
      1e:	00 00       	nop
      20:	81 c0       	rjmp	.+258    	; 0x124 <__bad_interrupt>
      22:	00 00       	nop
      24:	7f c0       	rjmp	.+254    	; 0x124 <__bad_interrupt>
      26:	00 00       	nop
      28:	7d c0       	rjmp	.+250    	; 0x124 <__bad_interrupt>
      2a:	00 00       	nop
      2c:	7b c0       	rjmp	.+246    	; 0x124 <__bad_interrupt>
      2e:	00 00       	nop
      30:	79 c0       	rjmp	.+242    	; 0x124 <__bad_interrupt>
      32:	00 00       	nop
      34:	77 c0       	rjmp	.+238    	; 0x124 <__bad_interrupt>
      36:	00 00       	nop
      38:	75 c0       	rjmp	.+234    	; 0x124 <__bad_interrupt>
      3a:	00 00       	nop
      3c:	73 c0       	rjmp	.+230    	; 0x124 <__bad_interrupt>
      3e:	00 00       	nop
      40:	71 c0       	rjmp	.+226    	; 0x124 <__bad_interrupt>
      42:	00 00       	nop
      44:	6f c0       	rjmp	.+222    	; 0x124 <__bad_interrupt>
      46:	00 00       	nop
      48:	6d c0       	rjmp	.+218    	; 0x124 <__bad_interrupt>
      4a:	00 00       	nop
      4c:	6b c0       	rjmp	.+214    	; 0x124 <__bad_interrupt>
      4e:	00 00       	nop
      50:	0c 94 25 19 	jmp	0x324a	; 0x324a <__vector_20>
      54:	67 c0       	rjmp	.+206    	; 0x124 <__bad_interrupt>
      56:	00 00       	nop
      58:	65 c0       	rjmp	.+202    	; 0x124 <__bad_interrupt>
      5a:	00 00       	nop
      5c:	63 c0       	rjmp	.+198    	; 0x124 <__bad_interrupt>
      5e:	00 00       	nop
      60:	61 c0       	rjmp	.+194    	; 0x124 <__bad_interrupt>
      62:	00 00       	nop
      64:	5f c0       	rjmp	.+190    	; 0x124 <__bad_interrupt>
      66:	00 00       	nop
      68:	5d c0       	rjmp	.+186    	; 0x124 <__bad_interrupt>
      6a:	00 00       	nop
      6c:	5b c0       	rjmp	.+182    	; 0x124 <__bad_interrupt>
      6e:	00 00       	nop
      70:	59 c0       	rjmp	.+178    	; 0x124 <__bad_interrupt>
      72:	00 00       	nop
      74:	57 c0       	rjmp	.+174    	; 0x124 <__bad_interrupt>
      76:	00 00       	nop
      78:	55 c0       	rjmp	.+170    	; 0x124 <__bad_interrupt>
      7a:	00 00       	nop
      7c:	53 c0       	rjmp	.+166    	; 0x124 <__bad_interrupt>
      7e:	00 00       	nop
      80:	51 c0       	rjmp	.+162    	; 0x124 <__bad_interrupt>
      82:	00 00       	nop
      84:	4f c0       	rjmp	.+158    	; 0x124 <__bad_interrupt>
      86:	00 00       	nop
      88:	4d c0       	rjmp	.+154    	; 0x124 <__bad_interrupt>
      8a:	00 00       	nop
      8c:	36 02       	muls	r19, r22
      8e:	6c 02       	muls	r22, r28
      90:	a2 02       	muls	r26, r18
      92:	d8 02       	muls	r29, r24
      94:	0e 03       	fmul	r16, r22
      96:	44 03       	mulsu	r20, r20
      98:	7a 03       	fmul	r23, r18
      9a:	b0 03       	fmuls	r19, r16
      9c:	e6 03       	fmuls	r22, r22
      9e:	1c 04       	cpc	r1, r12
      a0:	51 04       	cpc	r5, r1
      a2:	f2 0a       	sbc	r15, r18
      a4:	4f 0b       	sbc	r20, r31
      a6:	ac 0b       	sbc	r26, r28
      a8:	09 0c       	add	r0, r9
      aa:	66 0c       	add	r6, r6
      ac:	c3 0c       	add	r12, r3
      ae:	20 0d       	add	r18, r0
      b0:	7d 0d       	add	r23, r13
      b2:	da 0d       	add	r29, r10
      b4:	37 0e       	add	r3, r23
      b6:	94 0e       	add	r9, r20
      b8:	4c 13       	cpse	r20, r28
      ba:	87 13       	cpse	r24, r23
      bc:	c2 13       	cpse	r28, r18
      be:	fb 13       	cpse	r31, r27
      c0:	34 14       	cp	r3, r4
      c2:	6d 14       	cp	r6, r13
      c4:	a6 14       	cp	r10, r6
      c6:	df 14       	cp	r13, r15
      c8:	18 15       	cp	r17, r8
      ca:	51 15       	cp	r21, r1
      cc:	89 15       	cp	r24, r9

000000ce <__ctors_start>:
      ce:	ad 1a       	sub	r10, r29

000000d0 <__ctors_end>:
      d0:	11 24       	eor	r1, r1
      d2:	1f be       	out	0x3f, r1	; 63
      d4:	cf ef       	ldi	r28, 0xFF	; 255
      d6:	d0 e4       	ldi	r29, 0x40	; 64
      d8:	de bf       	out	0x3e, r29	; 62
      da:	cd bf       	out	0x3d, r28	; 61

000000dc <__do_copy_data>:
      dc:	15 e0       	ldi	r17, 0x05	; 5
      de:	a0 e0       	ldi	r26, 0x00	; 0
      e0:	b1 e0       	ldi	r27, 0x01	; 1
      e2:	ec e0       	ldi	r30, 0x0C	; 12
      e4:	fa e3       	ldi	r31, 0x3A	; 58
      e6:	00 e0       	ldi	r16, 0x00	; 0
      e8:	0b bf       	out	0x3b, r16	; 59
      ea:	02 c0       	rjmp	.+4      	; 0xf0 <__do_copy_data+0x14>
      ec:	07 90       	elpm	r0, Z+
      ee:	0d 92       	st	X+, r0
      f0:	a2 3e       	cpi	r26, 0xE2	; 226
      f2:	b1 07       	cpc	r27, r17
      f4:	d9 f7       	brne	.-10     	; 0xec <__do_copy_data+0x10>

000000f6 <__do_clear_bss>:
      f6:	2a e0       	ldi	r18, 0x0A	; 10
      f8:	a2 ee       	ldi	r26, 0xE2	; 226
      fa:	b5 e0       	ldi	r27, 0x05	; 5
      fc:	01 c0       	rjmp	.+2      	; 0x100 <.do_clear_bss_start>

000000fe <.do_clear_bss_loop>:
      fe:	1d 92       	st	X+, r1

00000100 <.do_clear_bss_start>:
     100:	af 38       	cpi	r26, 0x8F	; 143
     102:	b2 07       	cpc	r27, r18
     104:	e1 f7       	brne	.-8      	; 0xfe <.do_clear_bss_loop>

00000106 <__do_global_ctors>:
     106:	10 e0       	ldi	r17, 0x00	; 0
     108:	c8 e6       	ldi	r28, 0x68	; 104
     10a:	d0 e0       	ldi	r29, 0x00	; 0
     10c:	04 c0       	rjmp	.+8      	; 0x116 <__do_global_ctors+0x10>
     10e:	21 97       	sbiw	r28, 0x01	; 1
     110:	fe 01       	movw	r30, r28
     112:	0e 94 fb 1c 	call	0x39f6	; 0x39f6 <__tablejump2__>
     116:	c7 36       	cpi	r28, 0x67	; 103
     118:	d1 07       	cpc	r29, r17
     11a:	c9 f7       	brne	.-14     	; 0x10e <__do_global_ctors+0x8>
     11c:	0e 94 5f 19 	call	0x32be	; 0x32be <main>
     120:	0c 94 04 1d 	jmp	0x3a08	; 0x3a08 <_exit>

00000124 <__bad_interrupt>:
     124:	6d cf       	rjmp	.-294    	; 0x0 <__vectors>

00000126 <_ZN9Main_Menu7refreshEv>:
}

void send_Uart_str(const char *s)
{
	while (*s != 0) send_Uart(*s++);
}
     126:	cf 93       	push	r28
     128:	df 93       	push	r29
     12a:	ec 01       	movw	r28, r24
     12c:	e8 81       	ld	r30, Y
     12e:	f9 81       	ldd	r31, Y+1	; 0x01
     130:	01 90       	ld	r0, Z+
     132:	f0 81       	ld	r31, Z
     134:	e0 2d       	mov	r30, r0
     136:	09 95       	icall
     138:	e8 81       	ld	r30, Y
     13a:	f9 81       	ldd	r31, Y+1	; 0x01
     13c:	00 88       	ldd	r0, Z+16	; 0x10
     13e:	f1 89       	ldd	r31, Z+17	; 0x11
     140:	e0 2d       	mov	r30, r0
     142:	ce 01       	movw	r24, r28
     144:	09 95       	icall
     146:	df 91       	pop	r29
     148:	cf 91       	pop	r28
     14a:	08 95       	ret

0000014c <_ZN9Main_Menu4nextEv>:
     14c:	dc 01       	movw	r26, r24
     14e:	14 96       	adiw	r26, 0x04	; 4
     150:	2d 91       	ld	r18, X+
     152:	3c 91       	ld	r19, X
     154:	15 97       	sbiw	r26, 0x05	; 5
     156:	2f 5f       	subi	r18, 0xFF	; 255
     158:	3f 4f       	sbci	r19, 0xFF	; 255
     15a:	23 30       	cpi	r18, 0x03	; 3
     15c:	31 05       	cpc	r19, r1
     15e:	2c f4       	brge	.+10     	; 0x16a <_ZN9Main_Menu4nextEv+0x1e>
     160:	15 96       	adiw	r26, 0x05	; 5
     162:	3c 93       	st	X, r19
     164:	2e 93       	st	-X, r18
     166:	14 97       	sbiw	r26, 0x04	; 4
     168:	03 c0       	rjmp	.+6      	; 0x170 <_ZN9Main_Menu4nextEv+0x24>
     16a:	fc 01       	movw	r30, r24
     16c:	15 82       	std	Z+5, r1	; 0x05
     16e:	14 82       	std	Z+4, r1	; 0x04
     170:	dc 01       	movw	r26, r24
     172:	ed 91       	ld	r30, X+
     174:	fc 91       	ld	r31, X
     176:	00 88       	ldd	r0, Z+16	; 0x10
     178:	f1 89       	ldd	r31, Z+17	; 0x11
     17a:	e0 2d       	mov	r30, r0
     17c:	09 95       	icall
     17e:	08 95       	ret

00000180 <_ZN9Main_Menu8previousEv>:
     180:	dc 01       	movw	r26, r24
     182:	14 96       	adiw	r26, 0x04	; 4
     184:	2d 91       	ld	r18, X+
     186:	3c 91       	ld	r19, X
     188:	15 97       	sbiw	r26, 0x05	; 5
     18a:	21 50       	subi	r18, 0x01	; 1
     18c:	31 09       	sbc	r19, r1
     18e:	2a f0       	brmi	.+10     	; 0x19a <_ZN9Main_Menu8previousEv+0x1a>
     190:	15 96       	adiw	r26, 0x05	; 5
     192:	3c 93       	st	X, r19
     194:	2e 93       	st	-X, r18
     196:	14 97       	sbiw	r26, 0x04	; 4
     198:	05 c0       	rjmp	.+10     	; 0x1a4 <_ZN9Main_Menu8previousEv+0x24>
     19a:	22 e0       	ldi	r18, 0x02	; 2
     19c:	30 e0       	ldi	r19, 0x00	; 0
     19e:	fc 01       	movw	r30, r24
     1a0:	35 83       	std	Z+5, r19	; 0x05
     1a2:	24 83       	std	Z+4, r18	; 0x04
     1a4:	dc 01       	movw	r26, r24
     1a6:	ed 91       	ld	r30, X+
     1a8:	fc 91       	ld	r31, X
     1aa:	00 88       	ldd	r0, Z+16	; 0x10
     1ac:	f1 89       	ldd	r31, Z+17	; 0x11
     1ae:	e0 2d       	mov	r30, r0
     1b0:	09 95       	icall
     1b2:	08 95       	ret

000001b4 <_ZN9Main_Menu6choiseEv>:
     1b4:	dc 01       	movw	r26, r24
     1b6:	14 96       	adiw	r26, 0x04	; 4
     1b8:	2d 91       	ld	r18, X+
     1ba:	3c 91       	ld	r19, X
     1bc:	15 97       	sbiw	r26, 0x05	; 5
     1be:	21 30       	cpi	r18, 0x01	; 1
     1c0:	31 05       	cpc	r19, r1
     1c2:	89 f0       	breq	.+34     	; 0x1e6 <_ZN9Main_Menu6choiseEv+0x32>
     1c4:	22 30       	cpi	r18, 0x02	; 2
     1c6:	31 05       	cpc	r19, r1
     1c8:	d9 f0       	breq	.+54     	; 0x200 <_ZN9Main_Menu6choiseEv+0x4c>
     1ca:	23 2b       	or	r18, r19
     1cc:	29 f5       	brne	.+74     	; 0x218 <_ZN9Main_Menu6choiseEv+0x64>
     1ce:	10 92 00 01 	sts	0x0100, r1	; 0x800100 <Main_Menu_Status>
     1d2:	21 e0       	ldi	r18, 0x01	; 1
     1d4:	20 93 8c 06 	sts	0x068C, r18	; 0x80068c <Password_Menu_Status>
     1d8:	ed 91       	ld	r30, X+
     1da:	fc 91       	ld	r31, X
     1dc:	04 80       	ldd	r0, Z+4	; 0x04
     1de:	f5 81       	ldd	r31, Z+5	; 0x05
     1e0:	e0 2d       	mov	r30, r0
     1e2:	09 95       	icall
     1e4:	08 95       	ret
     1e6:	10 92 00 01 	sts	0x0100, r1	; 0x800100 <Main_Menu_Status>
     1ea:	21 e0       	ldi	r18, 0x01	; 1
     1ec:	20 93 8b 06 	sts	0x068B, r18	; 0x80068b <Settings_Menu_Status>
     1f0:	dc 01       	movw	r26, r24
     1f2:	ed 91       	ld	r30, X+
     1f4:	fc 91       	ld	r31, X
     1f6:	04 80       	ldd	r0, Z+4	; 0x04
     1f8:	f5 81       	ldd	r31, Z+5	; 0x05
     1fa:	e0 2d       	mov	r30, r0
     1fc:	09 95       	icall
     1fe:	08 95       	ret
     200:	10 92 00 01 	sts	0x0100, r1	; 0x800100 <Main_Menu_Status>
     204:	21 e0       	ldi	r18, 0x01	; 1
     206:	20 93 8a 06 	sts	0x068A, r18	; 0x80068a <Info_Menu_Status>
     20a:	dc 01       	movw	r26, r24
     20c:	ed 91       	ld	r30, X+
     20e:	fc 91       	ld	r31, X
     210:	04 80       	ldd	r0, Z+4	; 0x04
     212:	f5 81       	ldd	r31, Z+5	; 0x05
     214:	e0 2d       	mov	r30, r0
     216:	09 95       	icall
     218:	08 95       	ret

0000021a <_ZN9Main_Menu4backEv>:
     21a:	08 95       	ret

0000021c <_ZN9Main_Menu7animateEv>:
     21c:	08 95       	ret

0000021e <_ZN13Password_Menu7refreshEv>:
     21e:	cf 93       	push	r28
     220:	df 93       	push	r29
     222:	ec 01       	movw	r28, r24
     224:	e8 81       	ld	r30, Y
     226:	f9 81       	ldd	r31, Y+1	; 0x01
     228:	01 90       	ld	r0, Z+
     22a:	f0 81       	ld	r31, Z
     22c:	e0 2d       	mov	r30, r0
     22e:	09 95       	icall
     230:	e8 81       	ld	r30, Y
     232:	f9 81       	ldd	r31, Y+1	; 0x01
     234:	00 88       	ldd	r0, Z+16	; 0x10
     236:	f1 89       	ldd	r31, Z+17	; 0x11
     238:	e0 2d       	mov	r30, r0
     23a:	ce 01       	movw	r24, r28
     23c:	09 95       	icall
     23e:	df 91       	pop	r29
     240:	cf 91       	pop	r28
     242:	08 95       	ret

00000244 <_ZN13Password_Menu4nextEv>:
     244:	dc 01       	movw	r26, r24
     246:	16 96       	adiw	r26, 0x06	; 6
     248:	2d 91       	ld	r18, X+
     24a:	3c 91       	ld	r19, X
     24c:	17 97       	sbiw	r26, 0x07	; 7
     24e:	2f 5f       	subi	r18, 0xFF	; 255
     250:	3f 4f       	sbci	r19, 0xFF	; 255
     252:	2b 30       	cpi	r18, 0x0B	; 11
     254:	31 05       	cpc	r19, r1
     256:	2c f4       	brge	.+10     	; 0x262 <_ZN13Password_Menu4nextEv+0x1e>
     258:	17 96       	adiw	r26, 0x07	; 7
     25a:	3c 93       	st	X, r19
     25c:	2e 93       	st	-X, r18
     25e:	16 97       	sbiw	r26, 0x06	; 6
     260:	03 c0       	rjmp	.+6      	; 0x268 <_ZN13Password_Menu4nextEv+0x24>
     262:	fc 01       	movw	r30, r24
     264:	17 82       	std	Z+7, r1	; 0x07
     266:	16 82       	std	Z+6, r1	; 0x06
     268:	dc 01       	movw	r26, r24
     26a:	ed 91       	ld	r30, X+
     26c:	fc 91       	ld	r31, X
     26e:	00 88       	ldd	r0, Z+16	; 0x10
     270:	f1 89       	ldd	r31, Z+17	; 0x11
     272:	e0 2d       	mov	r30, r0
     274:	09 95       	icall
     276:	08 95       	ret

00000278 <_ZN13Password_Menu8previousEv>:
     278:	dc 01       	movw	r26, r24
     27a:	16 96       	adiw	r26, 0x06	; 6
     27c:	2d 91       	ld	r18, X+
     27e:	3c 91       	ld	r19, X
     280:	17 97       	sbiw	r26, 0x07	; 7
     282:	21 50       	subi	r18, 0x01	; 1
     284:	31 09       	sbc	r19, r1
     286:	2a f0       	brmi	.+10     	; 0x292 <_ZN13Password_Menu8previousEv+0x1a>
     288:	17 96       	adiw	r26, 0x07	; 7
     28a:	3c 93       	st	X, r19
     28c:	2e 93       	st	-X, r18
     28e:	16 97       	sbiw	r26, 0x06	; 6
     290:	05 c0       	rjmp	.+10     	; 0x29c <_ZN13Password_Menu8previousEv+0x24>
     292:	2a e0       	ldi	r18, 0x0A	; 10
     294:	30 e0       	ldi	r19, 0x00	; 0
     296:	fc 01       	movw	r30, r24
     298:	37 83       	std	Z+7, r19	; 0x07
     29a:	26 83       	std	Z+6, r18	; 0x06
     29c:	dc 01       	movw	r26, r24
     29e:	ed 91       	ld	r30, X+
     2a0:	fc 91       	ld	r31, X
     2a2:	00 88       	ldd	r0, Z+16	; 0x10
     2a4:	f1 89       	ldd	r31, Z+17	; 0x11
     2a6:	e0 2d       	mov	r30, r0
     2a8:	09 95       	icall
     2aa:	08 95       	ret

000002ac <_ZN13Password_Menu7animateEv>:
     2ac:	08 95       	ret

000002ae <_ZN13Settings_Menu7refreshEv>:
     2ae:	cf 93       	push	r28
     2b0:	df 93       	push	r29
     2b2:	ec 01       	movw	r28, r24
     2b4:	e8 81       	ld	r30, Y
     2b6:	f9 81       	ldd	r31, Y+1	; 0x01
     2b8:	01 90       	ld	r0, Z+
     2ba:	f0 81       	ld	r31, Z
     2bc:	e0 2d       	mov	r30, r0
     2be:	09 95       	icall
     2c0:	e8 81       	ld	r30, Y
     2c2:	f9 81       	ldd	r31, Y+1	; 0x01
     2c4:	00 88       	ldd	r0, Z+16	; 0x10
     2c6:	f1 89       	ldd	r31, Z+17	; 0x11
     2c8:	e0 2d       	mov	r30, r0
     2ca:	ce 01       	movw	r24, r28
     2cc:	09 95       	icall
     2ce:	df 91       	pop	r29
     2d0:	cf 91       	pop	r28
     2d2:	08 95       	ret

000002d4 <_ZN13Settings_Menu4nextEv>:
     2d4:	dc 01       	movw	r26, r24
     2d6:	14 96       	adiw	r26, 0x04	; 4
     2d8:	2d 91       	ld	r18, X+
     2da:	3c 91       	ld	r19, X
     2dc:	15 97       	sbiw	r26, 0x05	; 5
     2de:	2f 5f       	subi	r18, 0xFF	; 255
     2e0:	3f 4f       	sbci	r19, 0xFF	; 255
     2e2:	24 30       	cpi	r18, 0x04	; 4
     2e4:	31 05       	cpc	r19, r1
     2e6:	2c f4       	brge	.+10     	; 0x2f2 <_ZN13Settings_Menu4nextEv+0x1e>
     2e8:	15 96       	adiw	r26, 0x05	; 5
     2ea:	3c 93       	st	X, r19
     2ec:	2e 93       	st	-X, r18
     2ee:	14 97       	sbiw	r26, 0x04	; 4
     2f0:	03 c0       	rjmp	.+6      	; 0x2f8 <_ZN13Settings_Menu4nextEv+0x24>
     2f2:	fc 01       	movw	r30, r24
     2f4:	15 82       	std	Z+5, r1	; 0x05
     2f6:	14 82       	std	Z+4, r1	; 0x04
     2f8:	dc 01       	movw	r26, r24
     2fa:	ed 91       	ld	r30, X+
     2fc:	fc 91       	ld	r31, X
     2fe:	00 88       	ldd	r0, Z+16	; 0x10
     300:	f1 89       	ldd	r31, Z+17	; 0x11
     302:	e0 2d       	mov	r30, r0
     304:	09 95       	icall
     306:	08 95       	ret

00000308 <_ZN13Settings_Menu8previousEv>:
     308:	dc 01       	movw	r26, r24
     30a:	14 96       	adiw	r26, 0x04	; 4
     30c:	2d 91       	ld	r18, X+
     30e:	3c 91       	ld	r19, X
     310:	15 97       	sbiw	r26, 0x05	; 5
     312:	21 50       	subi	r18, 0x01	; 1
     314:	31 09       	sbc	r19, r1
     316:	2a f0       	brmi	.+10     	; 0x322 <_ZN13Settings_Menu8previousEv+0x1a>
     318:	15 96       	adiw	r26, 0x05	; 5
     31a:	3c 93       	st	X, r19
     31c:	2e 93       	st	-X, r18
     31e:	14 97       	sbiw	r26, 0x04	; 4
     320:	05 c0       	rjmp	.+10     	; 0x32c <_ZN13Settings_Menu8previousEv+0x24>
     322:	23 e0       	ldi	r18, 0x03	; 3
     324:	30 e0       	ldi	r19, 0x00	; 0
     326:	fc 01       	movw	r30, r24
     328:	35 83       	std	Z+5, r19	; 0x05
     32a:	24 83       	std	Z+4, r18	; 0x04
     32c:	dc 01       	movw	r26, r24
     32e:	ed 91       	ld	r30, X+
     330:	fc 91       	ld	r31, X
     332:	00 88       	ldd	r0, Z+16	; 0x10
     334:	f1 89       	ldd	r31, Z+17	; 0x11
     336:	e0 2d       	mov	r30, r0
     338:	09 95       	icall
     33a:	08 95       	ret

0000033c <_ZN13Settings_Menu6choiseEv>:
     33c:	dc 01       	movw	r26, r24
     33e:	14 96       	adiw	r26, 0x04	; 4
     340:	2d 91       	ld	r18, X+
     342:	3c 91       	ld	r19, X
     344:	15 97       	sbiw	r26, 0x05	; 5
     346:	23 30       	cpi	r18, 0x03	; 3
     348:	31 05       	cpc	r19, r1
     34a:	31 f4       	brne	.+12     	; 0x358 <_ZN13Settings_Menu6choiseEv+0x1c>
     34c:	ed 91       	ld	r30, X+
     34e:	fc 91       	ld	r31, X
     350:	04 84       	ldd	r0, Z+12	; 0x0c
     352:	f5 85       	ldd	r31, Z+13	; 0x0d
     354:	e0 2d       	mov	r30, r0
     356:	09 95       	icall
     358:	08 95       	ret

0000035a <_ZN13Settings_Menu4backEv>:
     35a:	cf 93       	push	r28
     35c:	df 93       	push	r29
     35e:	ec 01       	movw	r28, r24
     360:	e8 81       	ld	r30, Y
     362:	f9 81       	ldd	r31, Y+1	; 0x01
     364:	04 80       	ldd	r0, Z+4	; 0x04
     366:	f5 81       	ldd	r31, Z+5	; 0x05
     368:	e0 2d       	mov	r30, r0
     36a:	09 95       	icall
     36c:	1d 82       	std	Y+5, r1	; 0x05
     36e:	1c 82       	std	Y+4, r1	; 0x04
     370:	df 91       	pop	r29
     372:	cf 91       	pop	r28
     374:	08 95       	ret

00000376 <_ZN13Settings_Menu7animateEv>:
     376:	08 95       	ret

00000378 <_ZN9Info_menu7refreshEv>:
     378:	cf 93       	push	r28
     37a:	df 93       	push	r29
     37c:	ec 01       	movw	r28, r24
     37e:	e8 81       	ld	r30, Y
     380:	f9 81       	ldd	r31, Y+1	; 0x01
     382:	01 90       	ld	r0, Z+
     384:	f0 81       	ld	r31, Z
     386:	e0 2d       	mov	r30, r0
     388:	09 95       	icall
     38a:	e8 81       	ld	r30, Y
     38c:	f9 81       	ldd	r31, Y+1	; 0x01
     38e:	00 88       	ldd	r0, Z+16	; 0x10
     390:	f1 89       	ldd	r31, Z+17	; 0x11
     392:	e0 2d       	mov	r30, r0
     394:	ce 01       	movw	r24, r28
     396:	09 95       	icall
     398:	df 91       	pop	r29
     39a:	cf 91       	pop	r28
     39c:	08 95       	ret

0000039e <_ZN9Info_menu4nextEv>:
     39e:	dc 01       	movw	r26, r24
     3a0:	14 96       	adiw	r26, 0x04	; 4
     3a2:	2d 91       	ld	r18, X+
     3a4:	3c 91       	ld	r19, X
     3a6:	15 97       	sbiw	r26, 0x05	; 5
     3a8:	2f 5f       	subi	r18, 0xFF	; 255
     3aa:	3f 4f       	sbci	r19, 0xFF	; 255
     3ac:	23 30       	cpi	r18, 0x03	; 3
     3ae:	31 05       	cpc	r19, r1
     3b0:	2c f4       	brge	.+10     	; 0x3bc <_ZN9Info_menu4nextEv+0x1e>
     3b2:	15 96       	adiw	r26, 0x05	; 5
     3b4:	3c 93       	st	X, r19
     3b6:	2e 93       	st	-X, r18
     3b8:	14 97       	sbiw	r26, 0x04	; 4
     3ba:	03 c0       	rjmp	.+6      	; 0x3c2 <_ZN9Info_menu4nextEv+0x24>
     3bc:	fc 01       	movw	r30, r24
     3be:	15 82       	std	Z+5, r1	; 0x05
     3c0:	14 82       	std	Z+4, r1	; 0x04
     3c2:	dc 01       	movw	r26, r24
     3c4:	ed 91       	ld	r30, X+
     3c6:	fc 91       	ld	r31, X
     3c8:	00 88       	ldd	r0, Z+16	; 0x10
     3ca:	f1 89       	ldd	r31, Z+17	; 0x11
     3cc:	e0 2d       	mov	r30, r0
     3ce:	09 95       	icall
     3d0:	08 95       	ret

000003d2 <_ZN9Info_menu8previousEv>:
     3d2:	dc 01       	movw	r26, r24
     3d4:	14 96       	adiw	r26, 0x04	; 4
     3d6:	2d 91       	ld	r18, X+
     3d8:	3c 91       	ld	r19, X
     3da:	15 97       	sbiw	r26, 0x05	; 5
     3dc:	21 50       	subi	r18, 0x01	; 1
     3de:	31 09       	sbc	r19, r1
     3e0:	2a f0       	brmi	.+10     	; 0x3ec <_ZN9Info_menu8previousEv+0x1a>
     3e2:	15 96       	adiw	r26, 0x05	; 5
     3e4:	3c 93       	st	X, r19
     3e6:	2e 93       	st	-X, r18
     3e8:	14 97       	sbiw	r26, 0x04	; 4
     3ea:	05 c0       	rjmp	.+10     	; 0x3f6 <_ZN9Info_menu8previousEv+0x24>
     3ec:	22 e0       	ldi	r18, 0x02	; 2
     3ee:	30 e0       	ldi	r19, 0x00	; 0
     3f0:	fc 01       	movw	r30, r24
     3f2:	35 83       	std	Z+5, r19	; 0x05
     3f4:	24 83       	std	Z+4, r18	; 0x04
     3f6:	dc 01       	movw	r26, r24
     3f8:	ed 91       	ld	r30, X+
     3fa:	fc 91       	ld	r31, X
     3fc:	00 88       	ldd	r0, Z+16	; 0x10
     3fe:	f1 89       	ldd	r31, Z+17	; 0x11
     400:	e0 2d       	mov	r30, r0
     402:	09 95       	icall
     404:	08 95       	ret

00000406 <_ZN9Info_menu6choiseEv>:
     406:	dc 01       	movw	r26, r24
     408:	14 96       	adiw	r26, 0x04	; 4
     40a:	2d 91       	ld	r18, X+
     40c:	3c 91       	ld	r19, X
     40e:	15 97       	sbiw	r26, 0x05	; 5
     410:	22 30       	cpi	r18, 0x02	; 2
     412:	31 05       	cpc	r19, r1
     414:	31 f4       	brne	.+12     	; 0x422 <_ZN9Info_menu6choiseEv+0x1c>
     416:	ed 91       	ld	r30, X+
     418:	fc 91       	ld	r31, X
     41a:	04 84       	ldd	r0, Z+12	; 0x0c
     41c:	f5 85       	ldd	r31, Z+13	; 0x0d
     41e:	e0 2d       	mov	r30, r0
     420:	09 95       	icall
     422:	08 95       	ret

00000424 <_ZN9Info_menu4backEv>:
     424:	cf 93       	push	r28
     426:	df 93       	push	r29
     428:	ec 01       	movw	r28, r24
     42a:	e8 81       	ld	r30, Y
     42c:	f9 81       	ldd	r31, Y+1	; 0x01
     42e:	04 80       	ldd	r0, Z+4	; 0x04
     430:	f5 81       	ldd	r31, Z+5	; 0x05
     432:	e0 2d       	mov	r30, r0
     434:	09 95       	icall
     436:	1d 82       	std	Y+5, r1	; 0x05
     438:	1c 82       	std	Y+4, r1	; 0x04
     43a:	df 91       	pop	r29
     43c:	cf 91       	pop	r28
     43e:	08 95       	ret

00000440 <_ZN9Info_menu7animateEv>:
     440:	08 95       	ret

00000442 <_ZN13Password_Menu6choiseEv>:
     442:	af 92       	push	r10
     444:	bf 92       	push	r11
     446:	cf 92       	push	r12
     448:	df 92       	push	r13
     44a:	ef 92       	push	r14
     44c:	ff 92       	push	r15
     44e:	0f 93       	push	r16
     450:	1f 93       	push	r17
     452:	cf 93       	push	r28
     454:	df 93       	push	r29
     456:	ec 01       	movw	r28, r24
     458:	ee 81       	ldd	r30, Y+6	; 0x06
     45a:	ff 81       	ldd	r31, Y+7	; 0x07
     45c:	eb 30       	cpi	r30, 0x0B	; 11
     45e:	f1 05       	cpc	r31, r1
     460:	08 f0       	brcs	.+2      	; 0x464 <_ZN13Password_Menu6choiseEv+0x22>
     462:	25 c2       	rjmp	.+1098   	; 0x8ae <_ZN13Password_Menu6choiseEv+0x46c>
     464:	ea 5b       	subi	r30, 0xBA	; 186
     466:	ff 4f       	sbci	r31, 0xFF	; 255
     468:	0c 94 fb 1c 	jmp	0x39f6	; 0x39f6 <__tablejump2__>
     46c:	8c 81       	ldd	r24, Y+4	; 0x04
     46e:	9d 81       	ldd	r25, Y+5	; 0x05
     470:	01 96       	adiw	r24, 0x01	; 1
     472:	9d 83       	std	Y+5, r25	; 0x05
     474:	8c 83       	std	Y+4, r24	; 0x04
     476:	18 16       	cp	r1, r24
     478:	19 06       	cpc	r1, r25
     47a:	0c f0       	brlt	.+2      	; 0x47e <_ZN13Password_Menu6choiseEv+0x3c>
     47c:	18 c2       	rjmp	.+1072   	; 0x8ae <_ZN13Password_Menu6choiseEv+0x46c>
     47e:	6e 01       	movw	r12, r28
     480:	88 e0       	ldi	r24, 0x08	; 8
     482:	c8 0e       	add	r12, r24
     484:	d1 1c       	adc	r13, r1
     486:	e1 2c       	mov	r14, r1
     488:	f1 2c       	mov	r15, r1
     48a:	56 01       	movw	r10, r12
     48c:	4a 89       	ldd	r20, Y+18	; 0x12
     48e:	5b 89       	ldd	r21, Y+19	; 0x13
     490:	4e 5f       	subi	r20, 0xFE	; 254
     492:	5f 4f       	sbci	r21, 0xFF	; 255
     494:	f6 01       	movw	r30, r12
     496:	61 91       	ld	r22, Z+
     498:	71 91       	ld	r23, Z+
     49a:	6f 01       	movw	r12, r30
     49c:	08 e0       	ldi	r16, 0x08	; 8
     49e:	10 e0       	ldi	r17, 0x00	; 0
     4a0:	21 e0       	ldi	r18, 0x01	; 1
     4a2:	30 e0       	ldi	r19, 0x00	; 0
     4a4:	8d e8       	ldi	r24, 0x8D	; 141
     4a6:	96 e0       	ldi	r25, 0x06	; 6
     4a8:	0e 94 e4 1b 	call	0x37c8	; 0x37c8 <_ZN4OLED21OLED_Clear_Bufer_partEiiii>
     4ac:	4a 89       	ldd	r20, Y+18	; 0x12
     4ae:	5b 89       	ldd	r21, Y+19	; 0x13
     4b0:	41 50       	subi	r20, 0x01	; 1
     4b2:	51 09       	sbc	r21, r1
     4b4:	f5 01       	movw	r30, r10
     4b6:	60 81       	ld	r22, Z
     4b8:	71 81       	ldd	r23, Z+1	; 0x01
     4ba:	21 e0       	ldi	r18, 0x01	; 1
     4bc:	30 e0       	ldi	r19, 0x00	; 0
     4be:	8d e8       	ldi	r24, 0x8D	; 141
     4c0:	96 e0       	ldi	r25, 0x06	; 6
     4c2:	0e 94 e4 1b 	call	0x37c8	; 0x37c8 <_ZN4OLED21OLED_Clear_Bufer_partEiiii>
     4c6:	ff ef       	ldi	r31, 0xFF	; 255
     4c8:	ef 1a       	sub	r14, r31
     4ca:	ff 0a       	sbc	r15, r31
     4cc:	8c 81       	ldd	r24, Y+4	; 0x04
     4ce:	9d 81       	ldd	r25, Y+5	; 0x05
     4d0:	e8 16       	cp	r14, r24
     4d2:	f9 06       	cpc	r15, r25
     4d4:	d4 f2       	brlt	.-76     	; 0x48a <_ZN13Password_Menu6choiseEv+0x48>
     4d6:	eb c1       	rjmp	.+982    	; 0x8ae <_ZN13Password_Menu6choiseEv+0x46c>
     4d8:	8c 81       	ldd	r24, Y+4	; 0x04
     4da:	9d 81       	ldd	r25, Y+5	; 0x05
     4dc:	01 96       	adiw	r24, 0x01	; 1
     4de:	9d 83       	std	Y+5, r25	; 0x05
     4e0:	8c 83       	std	Y+4, r24	; 0x04
     4e2:	18 16       	cp	r1, r24
     4e4:	19 06       	cpc	r1, r25
     4e6:	0c f0       	brlt	.+2      	; 0x4ea <_ZN13Password_Menu6choiseEv+0xa8>
     4e8:	e2 c1       	rjmp	.+964    	; 0x8ae <_ZN13Password_Menu6choiseEv+0x46c>
     4ea:	6e 01       	movw	r12, r28
     4ec:	88 e0       	ldi	r24, 0x08	; 8
     4ee:	c8 0e       	add	r12, r24
     4f0:	d1 1c       	adc	r13, r1
     4f2:	e1 2c       	mov	r14, r1
     4f4:	f1 2c       	mov	r15, r1
     4f6:	56 01       	movw	r10, r12
     4f8:	4a 89       	ldd	r20, Y+18	; 0x12
     4fa:	5b 89       	ldd	r21, Y+19	; 0x13
     4fc:	4e 5f       	subi	r20, 0xFE	; 254
     4fe:	5f 4f       	sbci	r21, 0xFF	; 255
     500:	f6 01       	movw	r30, r12
     502:	61 91       	ld	r22, Z+
     504:	71 91       	ld	r23, Z+
     506:	6f 01       	movw	r12, r30
     508:	08 e0       	ldi	r16, 0x08	; 8
     50a:	10 e0       	ldi	r17, 0x00	; 0
     50c:	21 e0       	ldi	r18, 0x01	; 1
     50e:	30 e0       	ldi	r19, 0x00	; 0
     510:	8d e8       	ldi	r24, 0x8D	; 141
     512:	96 e0       	ldi	r25, 0x06	; 6
     514:	0e 94 e4 1b 	call	0x37c8	; 0x37c8 <_ZN4OLED21OLED_Clear_Bufer_partEiiii>
     518:	4a 89       	ldd	r20, Y+18	; 0x12
     51a:	5b 89       	ldd	r21, Y+19	; 0x13
     51c:	41 50       	subi	r20, 0x01	; 1
     51e:	51 09       	sbc	r21, r1
     520:	f5 01       	movw	r30, r10
     522:	60 81       	ld	r22, Z
     524:	71 81       	ldd	r23, Z+1	; 0x01
     526:	21 e0       	ldi	r18, 0x01	; 1
     528:	30 e0       	ldi	r19, 0x00	; 0
     52a:	8d e8       	ldi	r24, 0x8D	; 141
     52c:	96 e0       	ldi	r25, 0x06	; 6
     52e:	0e 94 e4 1b 	call	0x37c8	; 0x37c8 <_ZN4OLED21OLED_Clear_Bufer_partEiiii>
     532:	ff ef       	ldi	r31, 0xFF	; 255
     534:	ef 1a       	sub	r14, r31
     536:	ff 0a       	sbc	r15, r31
     538:	8c 81       	ldd	r24, Y+4	; 0x04
     53a:	9d 81       	ldd	r25, Y+5	; 0x05
     53c:	e8 16       	cp	r14, r24
     53e:	f9 06       	cpc	r15, r25
     540:	d4 f2       	brlt	.-76     	; 0x4f6 <_ZN13Password_Menu6choiseEv+0xb4>
     542:	b5 c1       	rjmp	.+874    	; 0x8ae <_ZN13Password_Menu6choiseEv+0x46c>
     544:	8c 81       	ldd	r24, Y+4	; 0x04
     546:	9d 81       	ldd	r25, Y+5	; 0x05
     548:	01 96       	adiw	r24, 0x01	; 1
     54a:	9d 83       	std	Y+5, r25	; 0x05
     54c:	8c 83       	std	Y+4, r24	; 0x04
     54e:	18 16       	cp	r1, r24
     550:	19 06       	cpc	r1, r25
     552:	0c f0       	brlt	.+2      	; 0x556 <_ZN13Password_Menu6choiseEv+0x114>
     554:	ac c1       	rjmp	.+856    	; 0x8ae <_ZN13Password_Menu6choiseEv+0x46c>
     556:	6e 01       	movw	r12, r28
     558:	88 e0       	ldi	r24, 0x08	; 8
     55a:	c8 0e       	add	r12, r24
     55c:	d1 1c       	adc	r13, r1
     55e:	e1 2c       	mov	r14, r1
     560:	f1 2c       	mov	r15, r1
     562:	56 01       	movw	r10, r12
     564:	4a 89       	ldd	r20, Y+18	; 0x12
     566:	5b 89       	ldd	r21, Y+19	; 0x13
     568:	4e 5f       	subi	r20, 0xFE	; 254
     56a:	5f 4f       	sbci	r21, 0xFF	; 255
     56c:	f6 01       	movw	r30, r12
     56e:	61 91       	ld	r22, Z+
     570:	71 91       	ld	r23, Z+
     572:	6f 01       	movw	r12, r30
     574:	08 e0       	ldi	r16, 0x08	; 8
     576:	10 e0       	ldi	r17, 0x00	; 0
     578:	21 e0       	ldi	r18, 0x01	; 1
     57a:	30 e0       	ldi	r19, 0x00	; 0
     57c:	8d e8       	ldi	r24, 0x8D	; 141
     57e:	96 e0       	ldi	r25, 0x06	; 6
     580:	0e 94 e4 1b 	call	0x37c8	; 0x37c8 <_ZN4OLED21OLED_Clear_Bufer_partEiiii>
     584:	4a 89       	ldd	r20, Y+18	; 0x12
     586:	5b 89       	ldd	r21, Y+19	; 0x13
     588:	41 50       	subi	r20, 0x01	; 1
     58a:	51 09       	sbc	r21, r1
     58c:	f5 01       	movw	r30, r10
     58e:	60 81       	ld	r22, Z
     590:	71 81       	ldd	r23, Z+1	; 0x01
     592:	21 e0       	ldi	r18, 0x01	; 1
     594:	30 e0       	ldi	r19, 0x00	; 0
     596:	8d e8       	ldi	r24, 0x8D	; 141
     598:	96 e0       	ldi	r25, 0x06	; 6
     59a:	0e 94 e4 1b 	call	0x37c8	; 0x37c8 <_ZN4OLED21OLED_Clear_Bufer_partEiiii>
     59e:	ff ef       	ldi	r31, 0xFF	; 255
     5a0:	ef 1a       	sub	r14, r31
     5a2:	ff 0a       	sbc	r15, r31
     5a4:	8c 81       	ldd	r24, Y+4	; 0x04
     5a6:	9d 81       	ldd	r25, Y+5	; 0x05
     5a8:	e8 16       	cp	r14, r24
     5aa:	f9 06       	cpc	r15, r25
     5ac:	d4 f2       	brlt	.-76     	; 0x562 <_ZN13Password_Menu6choiseEv+0x120>
     5ae:	7f c1       	rjmp	.+766    	; 0x8ae <_ZN13Password_Menu6choiseEv+0x46c>
     5b0:	8c 81       	ldd	r24, Y+4	; 0x04
     5b2:	9d 81       	ldd	r25, Y+5	; 0x05
     5b4:	01 96       	adiw	r24, 0x01	; 1
     5b6:	9d 83       	std	Y+5, r25	; 0x05
     5b8:	8c 83       	std	Y+4, r24	; 0x04
     5ba:	18 16       	cp	r1, r24
     5bc:	19 06       	cpc	r1, r25
     5be:	0c f0       	brlt	.+2      	; 0x5c2 <_ZN13Password_Menu6choiseEv+0x180>
     5c0:	76 c1       	rjmp	.+748    	; 0x8ae <_ZN13Password_Menu6choiseEv+0x46c>
     5c2:	6e 01       	movw	r12, r28
     5c4:	88 e0       	ldi	r24, 0x08	; 8
     5c6:	c8 0e       	add	r12, r24
     5c8:	d1 1c       	adc	r13, r1
     5ca:	e1 2c       	mov	r14, r1
     5cc:	f1 2c       	mov	r15, r1
     5ce:	56 01       	movw	r10, r12
     5d0:	4a 89       	ldd	r20, Y+18	; 0x12
     5d2:	5b 89       	ldd	r21, Y+19	; 0x13
     5d4:	4e 5f       	subi	r20, 0xFE	; 254
     5d6:	5f 4f       	sbci	r21, 0xFF	; 255
     5d8:	f6 01       	movw	r30, r12
     5da:	61 91       	ld	r22, Z+
     5dc:	71 91       	ld	r23, Z+
     5de:	6f 01       	movw	r12, r30
     5e0:	08 e0       	ldi	r16, 0x08	; 8
     5e2:	10 e0       	ldi	r17, 0x00	; 0
     5e4:	21 e0       	ldi	r18, 0x01	; 1
     5e6:	30 e0       	ldi	r19, 0x00	; 0
     5e8:	8d e8       	ldi	r24, 0x8D	; 141
     5ea:	96 e0       	ldi	r25, 0x06	; 6
     5ec:	0e 94 e4 1b 	call	0x37c8	; 0x37c8 <_ZN4OLED21OLED_Clear_Bufer_partEiiii>
     5f0:	4a 89       	ldd	r20, Y+18	; 0x12
     5f2:	5b 89       	ldd	r21, Y+19	; 0x13
     5f4:	41 50       	subi	r20, 0x01	; 1
     5f6:	51 09       	sbc	r21, r1
     5f8:	f5 01       	movw	r30, r10
     5fa:	60 81       	ld	r22, Z
     5fc:	71 81       	ldd	r23, Z+1	; 0x01
     5fe:	21 e0       	ldi	r18, 0x01	; 1
     600:	30 e0       	ldi	r19, 0x00	; 0
     602:	8d e8       	ldi	r24, 0x8D	; 141
     604:	96 e0       	ldi	r25, 0x06	; 6
     606:	0e 94 e4 1b 	call	0x37c8	; 0x37c8 <_ZN4OLED21OLED_Clear_Bufer_partEiiii>
     60a:	ff ef       	ldi	r31, 0xFF	; 255
     60c:	ef 1a       	sub	r14, r31
     60e:	ff 0a       	sbc	r15, r31
     610:	8c 81       	ldd	r24, Y+4	; 0x04
     612:	9d 81       	ldd	r25, Y+5	; 0x05
     614:	e8 16       	cp	r14, r24
     616:	f9 06       	cpc	r15, r25
     618:	d4 f2       	brlt	.-76     	; 0x5ce <_ZN13Password_Menu6choiseEv+0x18c>
     61a:	49 c1       	rjmp	.+658    	; 0x8ae <_ZN13Password_Menu6choiseEv+0x46c>
     61c:	8c 81       	ldd	r24, Y+4	; 0x04
     61e:	9d 81       	ldd	r25, Y+5	; 0x05
     620:	01 96       	adiw	r24, 0x01	; 1
     622:	9d 83       	std	Y+5, r25	; 0x05
     624:	8c 83       	std	Y+4, r24	; 0x04
     626:	18 16       	cp	r1, r24
     628:	19 06       	cpc	r1, r25
     62a:	0c f0       	brlt	.+2      	; 0x62e <_ZN13Password_Menu6choiseEv+0x1ec>
     62c:	40 c1       	rjmp	.+640    	; 0x8ae <_ZN13Password_Menu6choiseEv+0x46c>
     62e:	6e 01       	movw	r12, r28
     630:	88 e0       	ldi	r24, 0x08	; 8
     632:	c8 0e       	add	r12, r24
     634:	d1 1c       	adc	r13, r1
     636:	e1 2c       	mov	r14, r1
     638:	f1 2c       	mov	r15, r1
     63a:	56 01       	movw	r10, r12
     63c:	4a 89       	ldd	r20, Y+18	; 0x12
     63e:	5b 89       	ldd	r21, Y+19	; 0x13
     640:	4e 5f       	subi	r20, 0xFE	; 254
     642:	5f 4f       	sbci	r21, 0xFF	; 255
     644:	f6 01       	movw	r30, r12
     646:	61 91       	ld	r22, Z+
     648:	71 91       	ld	r23, Z+
     64a:	6f 01       	movw	r12, r30
     64c:	08 e0       	ldi	r16, 0x08	; 8
     64e:	10 e0       	ldi	r17, 0x00	; 0
     650:	21 e0       	ldi	r18, 0x01	; 1
     652:	30 e0       	ldi	r19, 0x00	; 0
     654:	8d e8       	ldi	r24, 0x8D	; 141
     656:	96 e0       	ldi	r25, 0x06	; 6
     658:	0e 94 e4 1b 	call	0x37c8	; 0x37c8 <_ZN4OLED21OLED_Clear_Bufer_partEiiii>
     65c:	4a 89       	ldd	r20, Y+18	; 0x12
     65e:	5b 89       	ldd	r21, Y+19	; 0x13
     660:	41 50       	subi	r20, 0x01	; 1
     662:	51 09       	sbc	r21, r1
     664:	f5 01       	movw	r30, r10
     666:	60 81       	ld	r22, Z
     668:	71 81       	ldd	r23, Z+1	; 0x01
     66a:	21 e0       	ldi	r18, 0x01	; 1
     66c:	30 e0       	ldi	r19, 0x00	; 0
     66e:	8d e8       	ldi	r24, 0x8D	; 141
     670:	96 e0       	ldi	r25, 0x06	; 6
     672:	0e 94 e4 1b 	call	0x37c8	; 0x37c8 <_ZN4OLED21OLED_Clear_Bufer_partEiiii>
     676:	ff ef       	ldi	r31, 0xFF	; 255
     678:	ef 1a       	sub	r14, r31
     67a:	ff 0a       	sbc	r15, r31
     67c:	8c 81       	ldd	r24, Y+4	; 0x04
     67e:	9d 81       	ldd	r25, Y+5	; 0x05
     680:	e8 16       	cp	r14, r24
     682:	f9 06       	cpc	r15, r25
     684:	d4 f2       	brlt	.-76     	; 0x63a <_ZN13Password_Menu6choiseEv+0x1f8>
     686:	13 c1       	rjmp	.+550    	; 0x8ae <_ZN13Password_Menu6choiseEv+0x46c>
     688:	8c 81       	ldd	r24, Y+4	; 0x04
     68a:	9d 81       	ldd	r25, Y+5	; 0x05
     68c:	01 96       	adiw	r24, 0x01	; 1
     68e:	9d 83       	std	Y+5, r25	; 0x05
     690:	8c 83       	std	Y+4, r24	; 0x04
     692:	18 16       	cp	r1, r24
     694:	19 06       	cpc	r1, r25
     696:	0c f0       	brlt	.+2      	; 0x69a <_ZN13Password_Menu6choiseEv+0x258>
     698:	0a c1       	rjmp	.+532    	; 0x8ae <_ZN13Password_Menu6choiseEv+0x46c>
     69a:	6e 01       	movw	r12, r28
     69c:	88 e0       	ldi	r24, 0x08	; 8
     69e:	c8 0e       	add	r12, r24
     6a0:	d1 1c       	adc	r13, r1
     6a2:	e1 2c       	mov	r14, r1
     6a4:	f1 2c       	mov	r15, r1
     6a6:	56 01       	movw	r10, r12
     6a8:	4a 89       	ldd	r20, Y+18	; 0x12
     6aa:	5b 89       	ldd	r21, Y+19	; 0x13
     6ac:	4e 5f       	subi	r20, 0xFE	; 254
     6ae:	5f 4f       	sbci	r21, 0xFF	; 255
     6b0:	f6 01       	movw	r30, r12
     6b2:	61 91       	ld	r22, Z+
     6b4:	71 91       	ld	r23, Z+
     6b6:	6f 01       	movw	r12, r30
     6b8:	08 e0       	ldi	r16, 0x08	; 8
     6ba:	10 e0       	ldi	r17, 0x00	; 0
     6bc:	21 e0       	ldi	r18, 0x01	; 1
     6be:	30 e0       	ldi	r19, 0x00	; 0
     6c0:	8d e8       	ldi	r24, 0x8D	; 141
     6c2:	96 e0       	ldi	r25, 0x06	; 6
     6c4:	0e 94 e4 1b 	call	0x37c8	; 0x37c8 <_ZN4OLED21OLED_Clear_Bufer_partEiiii>
     6c8:	4a 89       	ldd	r20, Y+18	; 0x12
     6ca:	5b 89       	ldd	r21, Y+19	; 0x13
     6cc:	41 50       	subi	r20, 0x01	; 1
     6ce:	51 09       	sbc	r21, r1
     6d0:	f5 01       	movw	r30, r10
     6d2:	60 81       	ld	r22, Z
     6d4:	71 81       	ldd	r23, Z+1	; 0x01
     6d6:	21 e0       	ldi	r18, 0x01	; 1
     6d8:	30 e0       	ldi	r19, 0x00	; 0
     6da:	8d e8       	ldi	r24, 0x8D	; 141
     6dc:	96 e0       	ldi	r25, 0x06	; 6
     6de:	0e 94 e4 1b 	call	0x37c8	; 0x37c8 <_ZN4OLED21OLED_Clear_Bufer_partEiiii>
     6e2:	ff ef       	ldi	r31, 0xFF	; 255
     6e4:	ef 1a       	sub	r14, r31
     6e6:	ff 0a       	sbc	r15, r31
     6e8:	8c 81       	ldd	r24, Y+4	; 0x04
     6ea:	9d 81       	ldd	r25, Y+5	; 0x05
     6ec:	e8 16       	cp	r14, r24
     6ee:	f9 06       	cpc	r15, r25
     6f0:	d4 f2       	brlt	.-76     	; 0x6a6 <_ZN13Password_Menu6choiseEv+0x264>
     6f2:	dd c0       	rjmp	.+442    	; 0x8ae <_ZN13Password_Menu6choiseEv+0x46c>
     6f4:	8c 81       	ldd	r24, Y+4	; 0x04
     6f6:	9d 81       	ldd	r25, Y+5	; 0x05
     6f8:	01 96       	adiw	r24, 0x01	; 1
     6fa:	9d 83       	std	Y+5, r25	; 0x05
     6fc:	8c 83       	std	Y+4, r24	; 0x04
     6fe:	18 16       	cp	r1, r24
     700:	19 06       	cpc	r1, r25
     702:	0c f0       	brlt	.+2      	; 0x706 <_ZN13Password_Menu6choiseEv+0x2c4>
     704:	d4 c0       	rjmp	.+424    	; 0x8ae <_ZN13Password_Menu6choiseEv+0x46c>
     706:	6e 01       	movw	r12, r28
     708:	88 e0       	ldi	r24, 0x08	; 8
     70a:	c8 0e       	add	r12, r24
     70c:	d1 1c       	adc	r13, r1
     70e:	e1 2c       	mov	r14, r1
     710:	f1 2c       	mov	r15, r1
     712:	56 01       	movw	r10, r12
     714:	4a 89       	ldd	r20, Y+18	; 0x12
     716:	5b 89       	ldd	r21, Y+19	; 0x13
     718:	4e 5f       	subi	r20, 0xFE	; 254
     71a:	5f 4f       	sbci	r21, 0xFF	; 255
     71c:	f6 01       	movw	r30, r12
     71e:	61 91       	ld	r22, Z+
     720:	71 91       	ld	r23, Z+
     722:	6f 01       	movw	r12, r30
     724:	08 e0       	ldi	r16, 0x08	; 8
     726:	10 e0       	ldi	r17, 0x00	; 0
     728:	21 e0       	ldi	r18, 0x01	; 1
     72a:	30 e0       	ldi	r19, 0x00	; 0
     72c:	8d e8       	ldi	r24, 0x8D	; 141
     72e:	96 e0       	ldi	r25, 0x06	; 6
     730:	0e 94 e4 1b 	call	0x37c8	; 0x37c8 <_ZN4OLED21OLED_Clear_Bufer_partEiiii>
     734:	4a 89       	ldd	r20, Y+18	; 0x12
     736:	5b 89       	ldd	r21, Y+19	; 0x13
     738:	41 50       	subi	r20, 0x01	; 1
     73a:	51 09       	sbc	r21, r1
     73c:	f5 01       	movw	r30, r10
     73e:	60 81       	ld	r22, Z
     740:	71 81       	ldd	r23, Z+1	; 0x01
     742:	21 e0       	ldi	r18, 0x01	; 1
     744:	30 e0       	ldi	r19, 0x00	; 0
     746:	8d e8       	ldi	r24, 0x8D	; 141
     748:	96 e0       	ldi	r25, 0x06	; 6
     74a:	0e 94 e4 1b 	call	0x37c8	; 0x37c8 <_ZN4OLED21OLED_Clear_Bufer_partEiiii>
     74e:	ff ef       	ldi	r31, 0xFF	; 255
     750:	ef 1a       	sub	r14, r31
     752:	ff 0a       	sbc	r15, r31
     754:	8c 81       	ldd	r24, Y+4	; 0x04
     756:	9d 81       	ldd	r25, Y+5	; 0x05
     758:	e8 16       	cp	r14, r24
     75a:	f9 06       	cpc	r15, r25
     75c:	d4 f2       	brlt	.-76     	; 0x712 <_ZN13Password_Menu6choiseEv+0x2d0>
     75e:	a7 c0       	rjmp	.+334    	; 0x8ae <_ZN13Password_Menu6choiseEv+0x46c>
     760:	8c 81       	ldd	r24, Y+4	; 0x04
     762:	9d 81       	ldd	r25, Y+5	; 0x05
     764:	01 96       	adiw	r24, 0x01	; 1
     766:	9d 83       	std	Y+5, r25	; 0x05
     768:	8c 83       	std	Y+4, r24	; 0x04
     76a:	18 16       	cp	r1, r24
     76c:	19 06       	cpc	r1, r25
     76e:	0c f0       	brlt	.+2      	; 0x772 <_ZN13Password_Menu6choiseEv+0x330>
     770:	9e c0       	rjmp	.+316    	; 0x8ae <_ZN13Password_Menu6choiseEv+0x46c>
     772:	6e 01       	movw	r12, r28
     774:	88 e0       	ldi	r24, 0x08	; 8
     776:	c8 0e       	add	r12, r24
     778:	d1 1c       	adc	r13, r1
     77a:	e1 2c       	mov	r14, r1
     77c:	f1 2c       	mov	r15, r1
     77e:	56 01       	movw	r10, r12
     780:	4a 89       	ldd	r20, Y+18	; 0x12
     782:	5b 89       	ldd	r21, Y+19	; 0x13
     784:	4e 5f       	subi	r20, 0xFE	; 254
     786:	5f 4f       	sbci	r21, 0xFF	; 255
     788:	f6 01       	movw	r30, r12
     78a:	61 91       	ld	r22, Z+
     78c:	71 91       	ld	r23, Z+
     78e:	6f 01       	movw	r12, r30
     790:	08 e0       	ldi	r16, 0x08	; 8
     792:	10 e0       	ldi	r17, 0x00	; 0
     794:	21 e0       	ldi	r18, 0x01	; 1
     796:	30 e0       	ldi	r19, 0x00	; 0
     798:	8d e8       	ldi	r24, 0x8D	; 141
     79a:	96 e0       	ldi	r25, 0x06	; 6
     79c:	0e 94 e4 1b 	call	0x37c8	; 0x37c8 <_ZN4OLED21OLED_Clear_Bufer_partEiiii>
     7a0:	4a 89       	ldd	r20, Y+18	; 0x12
     7a2:	5b 89       	ldd	r21, Y+19	; 0x13
     7a4:	41 50       	subi	r20, 0x01	; 1
     7a6:	51 09       	sbc	r21, r1
     7a8:	f5 01       	movw	r30, r10
     7aa:	60 81       	ld	r22, Z
     7ac:	71 81       	ldd	r23, Z+1	; 0x01
     7ae:	21 e0       	ldi	r18, 0x01	; 1
     7b0:	30 e0       	ldi	r19, 0x00	; 0
     7b2:	8d e8       	ldi	r24, 0x8D	; 141
     7b4:	96 e0       	ldi	r25, 0x06	; 6
     7b6:	0e 94 e4 1b 	call	0x37c8	; 0x37c8 <_ZN4OLED21OLED_Clear_Bufer_partEiiii>
     7ba:	ff ef       	ldi	r31, 0xFF	; 255
     7bc:	ef 1a       	sub	r14, r31
     7be:	ff 0a       	sbc	r15, r31
     7c0:	8c 81       	ldd	r24, Y+4	; 0x04
     7c2:	9d 81       	ldd	r25, Y+5	; 0x05
     7c4:	e8 16       	cp	r14, r24
     7c6:	f9 06       	cpc	r15, r25
     7c8:	d4 f2       	brlt	.-76     	; 0x77e <_ZN13Password_Menu6choiseEv+0x33c>
     7ca:	71 c0       	rjmp	.+226    	; 0x8ae <_ZN13Password_Menu6choiseEv+0x46c>
     7cc:	8c 81       	ldd	r24, Y+4	; 0x04
     7ce:	9d 81       	ldd	r25, Y+5	; 0x05
     7d0:	01 96       	adiw	r24, 0x01	; 1
     7d2:	9d 83       	std	Y+5, r25	; 0x05
     7d4:	8c 83       	std	Y+4, r24	; 0x04
     7d6:	18 16       	cp	r1, r24
     7d8:	19 06       	cpc	r1, r25
     7da:	0c f0       	brlt	.+2      	; 0x7de <_ZN13Password_Menu6choiseEv+0x39c>
     7dc:	68 c0       	rjmp	.+208    	; 0x8ae <_ZN13Password_Menu6choiseEv+0x46c>
     7de:	6e 01       	movw	r12, r28
     7e0:	88 e0       	ldi	r24, 0x08	; 8
     7e2:	c8 0e       	add	r12, r24
     7e4:	d1 1c       	adc	r13, r1
     7e6:	e1 2c       	mov	r14, r1
     7e8:	f1 2c       	mov	r15, r1
     7ea:	56 01       	movw	r10, r12
     7ec:	4a 89       	ldd	r20, Y+18	; 0x12
     7ee:	5b 89       	ldd	r21, Y+19	; 0x13
     7f0:	4e 5f       	subi	r20, 0xFE	; 254
     7f2:	5f 4f       	sbci	r21, 0xFF	; 255
     7f4:	f6 01       	movw	r30, r12
     7f6:	61 91       	ld	r22, Z+
     7f8:	71 91       	ld	r23, Z+
     7fa:	6f 01       	movw	r12, r30
     7fc:	08 e0       	ldi	r16, 0x08	; 8
     7fe:	10 e0       	ldi	r17, 0x00	; 0
     800:	21 e0       	ldi	r18, 0x01	; 1
     802:	30 e0       	ldi	r19, 0x00	; 0
     804:	8d e8       	ldi	r24, 0x8D	; 141
     806:	96 e0       	ldi	r25, 0x06	; 6
     808:	0e 94 e4 1b 	call	0x37c8	; 0x37c8 <_ZN4OLED21OLED_Clear_Bufer_partEiiii>
     80c:	4a 89       	ldd	r20, Y+18	; 0x12
     80e:	5b 89       	ldd	r21, Y+19	; 0x13
     810:	41 50       	subi	r20, 0x01	; 1
     812:	51 09       	sbc	r21, r1
     814:	f5 01       	movw	r30, r10
     816:	60 81       	ld	r22, Z
     818:	71 81       	ldd	r23, Z+1	; 0x01
     81a:	21 e0       	ldi	r18, 0x01	; 1
     81c:	30 e0       	ldi	r19, 0x00	; 0
     81e:	8d e8       	ldi	r24, 0x8D	; 141
     820:	96 e0       	ldi	r25, 0x06	; 6
     822:	0e 94 e4 1b 	call	0x37c8	; 0x37c8 <_ZN4OLED21OLED_Clear_Bufer_partEiiii>
     826:	ff ef       	ldi	r31, 0xFF	; 255
     828:	ef 1a       	sub	r14, r31
     82a:	ff 0a       	sbc	r15, r31
     82c:	8c 81       	ldd	r24, Y+4	; 0x04
     82e:	9d 81       	ldd	r25, Y+5	; 0x05
     830:	e8 16       	cp	r14, r24
     832:	f9 06       	cpc	r15, r25
     834:	d4 f2       	brlt	.-76     	; 0x7ea <_ZN13Password_Menu6choiseEv+0x3a8>
     836:	3b c0       	rjmp	.+118    	; 0x8ae <_ZN13Password_Menu6choiseEv+0x46c>
     838:	8c 81       	ldd	r24, Y+4	; 0x04
     83a:	9d 81       	ldd	r25, Y+5	; 0x05
     83c:	01 96       	adiw	r24, 0x01	; 1
     83e:	9d 83       	std	Y+5, r25	; 0x05
     840:	8c 83       	std	Y+4, r24	; 0x04
     842:	18 16       	cp	r1, r24
     844:	19 06       	cpc	r1, r25
     846:	9c f5       	brge	.+102    	; 0x8ae <_ZN13Password_Menu6choiseEv+0x46c>
     848:	6e 01       	movw	r12, r28
     84a:	88 e0       	ldi	r24, 0x08	; 8
     84c:	c8 0e       	add	r12, r24
     84e:	d1 1c       	adc	r13, r1
     850:	e1 2c       	mov	r14, r1
     852:	f1 2c       	mov	r15, r1
     854:	56 01       	movw	r10, r12
     856:	4a 89       	ldd	r20, Y+18	; 0x12
     858:	5b 89       	ldd	r21, Y+19	; 0x13
     85a:	4e 5f       	subi	r20, 0xFE	; 254
     85c:	5f 4f       	sbci	r21, 0xFF	; 255
     85e:	f6 01       	movw	r30, r12
     860:	61 91       	ld	r22, Z+
     862:	71 91       	ld	r23, Z+
     864:	6f 01       	movw	r12, r30
     866:	08 e0       	ldi	r16, 0x08	; 8
     868:	10 e0       	ldi	r17, 0x00	; 0
     86a:	21 e0       	ldi	r18, 0x01	; 1
     86c:	30 e0       	ldi	r19, 0x00	; 0
     86e:	8d e8       	ldi	r24, 0x8D	; 141
     870:	96 e0       	ldi	r25, 0x06	; 6
     872:	0e 94 e4 1b 	call	0x37c8	; 0x37c8 <_ZN4OLED21OLED_Clear_Bufer_partEiiii>
     876:	4a 89       	ldd	r20, Y+18	; 0x12
     878:	5b 89       	ldd	r21, Y+19	; 0x13
     87a:	41 50       	subi	r20, 0x01	; 1
     87c:	51 09       	sbc	r21, r1
     87e:	f5 01       	movw	r30, r10
     880:	60 81       	ld	r22, Z
     882:	71 81       	ldd	r23, Z+1	; 0x01
     884:	21 e0       	ldi	r18, 0x01	; 1
     886:	30 e0       	ldi	r19, 0x00	; 0
     888:	8d e8       	ldi	r24, 0x8D	; 141
     88a:	96 e0       	ldi	r25, 0x06	; 6
     88c:	0e 94 e4 1b 	call	0x37c8	; 0x37c8 <_ZN4OLED21OLED_Clear_Bufer_partEiiii>
     890:	ff ef       	ldi	r31, 0xFF	; 255
     892:	ef 1a       	sub	r14, r31
     894:	ff 0a       	sbc	r15, r31
     896:	8c 81       	ldd	r24, Y+4	; 0x04
     898:	9d 81       	ldd	r25, Y+5	; 0x05
     89a:	e8 16       	cp	r14, r24
     89c:	f9 06       	cpc	r15, r25
     89e:	d4 f2       	brlt	.-76     	; 0x854 <_ZN13Password_Menu6choiseEv+0x412>
     8a0:	06 c0       	rjmp	.+12     	; 0x8ae <_ZN13Password_Menu6choiseEv+0x46c>
     8a2:	e8 81       	ld	r30, Y
     8a4:	f9 81       	ldd	r31, Y+1	; 0x01
     8a6:	04 84       	ldd	r0, Z+12	; 0x0c
     8a8:	f5 85       	ldd	r31, Z+13	; 0x0d
     8aa:	e0 2d       	mov	r30, r0
     8ac:	09 95       	icall
     8ae:	8c 81       	ldd	r24, Y+4	; 0x04
     8b0:	9d 81       	ldd	r25, Y+5	; 0x05
     8b2:	05 97       	sbiw	r24, 0x05	; 5
     8b4:	6c f0       	brlt	.+26     	; 0x8d0 <_ZN13Password_Menu6choiseEv+0x48e>
     8b6:	81 e0       	ldi	r24, 0x01	; 1
     8b8:	80 93 00 01 	sts	0x0100, r24	; 0x800100 <Main_Menu_Status>
     8bc:	10 92 8c 06 	sts	0x068C, r1	; 0x80068c <Password_Menu_Status>
     8c0:	e8 81       	ld	r30, Y
     8c2:	f9 81       	ldd	r31, Y+1	; 0x01
     8c4:	04 80       	ldd	r0, Z+4	; 0x04
     8c6:	f5 81       	ldd	r31, Z+5	; 0x05
     8c8:	e0 2d       	mov	r30, r0
     8ca:	ce 01       	movw	r24, r28
     8cc:	09 95       	icall
     8ce:	09 c0       	rjmp	.+18     	; 0x8e2 <_ZN13Password_Menu6choiseEv+0x4a0>
     8d0:	1f 82       	std	Y+7, r1	; 0x07
     8d2:	1e 82       	std	Y+6, r1	; 0x06
     8d4:	e8 81       	ld	r30, Y
     8d6:	f9 81       	ldd	r31, Y+1	; 0x01
     8d8:	00 88       	ldd	r0, Z+16	; 0x10
     8da:	f1 89       	ldd	r31, Z+17	; 0x11
     8dc:	e0 2d       	mov	r30, r0
     8de:	ce 01       	movw	r24, r28
     8e0:	09 95       	icall
     8e2:	df 91       	pop	r29
     8e4:	cf 91       	pop	r28
     8e6:	1f 91       	pop	r17
     8e8:	0f 91       	pop	r16
     8ea:	ff 90       	pop	r15
     8ec:	ef 90       	pop	r14
     8ee:	df 90       	pop	r13
     8f0:	cf 90       	pop	r12
     8f2:	bf 90       	pop	r11
     8f4:	af 90       	pop	r10
     8f6:	08 95       	ret

000008f8 <_ZN13Password_Menu4backEv>:
     8f8:	0f 93       	push	r16
     8fa:	1f 93       	push	r17
     8fc:	cf 93       	push	r28
     8fe:	df 93       	push	r29
     900:	ec 01       	movw	r28, r24
     902:	4a 89       	ldd	r20, Y+18	; 0x12
     904:	5b 89       	ldd	r21, Y+19	; 0x13
     906:	ec 81       	ldd	r30, Y+4	; 0x04
     908:	fd 81       	ldd	r31, Y+5	; 0x05
     90a:	34 96       	adiw	r30, 0x04	; 4
     90c:	ee 0f       	add	r30, r30
     90e:	ff 1f       	adc	r31, r31
     910:	e8 0f       	add	r30, r24
     912:	f9 1f       	adc	r31, r25
     914:	60 81       	ld	r22, Z
     916:	71 81       	ldd	r23, Z+1	; 0x01
     918:	08 e0       	ldi	r16, 0x08	; 8
     91a:	10 e0       	ldi	r17, 0x00	; 0
     91c:	21 e0       	ldi	r18, 0x01	; 1
     91e:	30 e0       	ldi	r19, 0x00	; 0
     920:	8d e8       	ldi	r24, 0x8D	; 141
     922:	96 e0       	ldi	r25, 0x06	; 6
     924:	0e 94 e4 1b 	call	0x37c8	; 0x37c8 <_ZN4OLED21OLED_Clear_Bufer_partEiiii>
     928:	4a 89       	ldd	r20, Y+18	; 0x12
     92a:	5b 89       	ldd	r21, Y+19	; 0x13
     92c:	4e 5f       	subi	r20, 0xFE	; 254
     92e:	5f 4f       	sbci	r21, 0xFF	; 255
     930:	ec 81       	ldd	r30, Y+4	; 0x04
     932:	fd 81       	ldd	r31, Y+5	; 0x05
     934:	34 96       	adiw	r30, 0x04	; 4
     936:	ee 0f       	add	r30, r30
     938:	ff 1f       	adc	r31, r31
     93a:	ec 0f       	add	r30, r28
     93c:	fd 1f       	adc	r31, r29
     93e:	60 81       	ld	r22, Z
     940:	71 81       	ldd	r23, Z+1	; 0x01
     942:	21 e0       	ldi	r18, 0x01	; 1
     944:	30 e0       	ldi	r19, 0x00	; 0
     946:	8d e8       	ldi	r24, 0x8D	; 141
     948:	96 e0       	ldi	r25, 0x06	; 6
     94a:	0e 94 e4 1b 	call	0x37c8	; 0x37c8 <_ZN4OLED21OLED_Clear_Bufer_partEiiii>
     94e:	4a 89       	ldd	r20, Y+18	; 0x12
     950:	5b 89       	ldd	r21, Y+19	; 0x13
     952:	41 50       	subi	r20, 0x01	; 1
     954:	51 09       	sbc	r21, r1
     956:	ec 81       	ldd	r30, Y+4	; 0x04
     958:	fd 81       	ldd	r31, Y+5	; 0x05
     95a:	34 96       	adiw	r30, 0x04	; 4
     95c:	ee 0f       	add	r30, r30
     95e:	ff 1f       	adc	r31, r31
     960:	ec 0f       	add	r30, r28
     962:	fd 1f       	adc	r31, r29
     964:	60 81       	ld	r22, Z
     966:	71 81       	ldd	r23, Z+1	; 0x01
     968:	21 e0       	ldi	r18, 0x01	; 1
     96a:	30 e0       	ldi	r19, 0x00	; 0
     96c:	8d e8       	ldi	r24, 0x8D	; 141
     96e:	96 e0       	ldi	r25, 0x06	; 6
     970:	0e 94 e4 1b 	call	0x37c8	; 0x37c8 <_ZN4OLED21OLED_Clear_Bufer_partEiiii>
     974:	8c 81       	ldd	r24, Y+4	; 0x04
     976:	9d 81       	ldd	r25, Y+5	; 0x05
     978:	01 97       	sbiw	r24, 0x01	; 1
     97a:	9d 83       	std	Y+5, r25	; 0x05
     97c:	8c 83       	std	Y+4, r24	; 0x04
     97e:	99 23       	and	r25, r25
     980:	7c f4       	brge	.+30     	; 0x9a0 <_ZN13Password_Menu4backEv+0xa8>
     982:	10 92 8c 06 	sts	0x068C, r1	; 0x80068c <Password_Menu_Status>
     986:	81 e0       	ldi	r24, 0x01	; 1
     988:	80 93 00 01 	sts	0x0100, r24	; 0x800100 <Main_Menu_Status>
     98c:	e8 81       	ld	r30, Y
     98e:	f9 81       	ldd	r31, Y+1	; 0x01
     990:	04 80       	ldd	r0, Z+4	; 0x04
     992:	f5 81       	ldd	r31, Z+5	; 0x05
     994:	e0 2d       	mov	r30, r0
     996:	ce 01       	movw	r24, r28
     998:	09 95       	icall
     99a:	1d 82       	std	Y+5, r1	; 0x05
     99c:	1c 82       	std	Y+4, r1	; 0x04
     99e:	07 c0       	rjmp	.+14     	; 0x9ae <_ZN13Password_Menu4backEv+0xb6>
     9a0:	e8 81       	ld	r30, Y
     9a2:	f9 81       	ldd	r31, Y+1	; 0x01
     9a4:	00 88       	ldd	r0, Z+16	; 0x10
     9a6:	f1 89       	ldd	r31, Z+17	; 0x11
     9a8:	e0 2d       	mov	r30, r0
     9aa:	ce 01       	movw	r24, r28
     9ac:	09 95       	icall
     9ae:	df 91       	pop	r29
     9b0:	cf 91       	pop	r28
     9b2:	1f 91       	pop	r17
     9b4:	0f 91       	pop	r16
     9b6:	08 95       	ret

000009b8 <_ZN9Info_menu7actionsEv>:
     9b8:	ef 92       	push	r14
     9ba:	ff 92       	push	r15
     9bc:	0f 93       	push	r16
     9be:	1f 93       	push	r17
     9c0:	cf 93       	push	r28
     9c2:	df 93       	push	r29
     9c4:	ec 01       	movw	r28, r24
     9c6:	90 91 8a 06 	lds	r25, 0x068A	; 0x80068a <Info_Menu_Status>
     9ca:	99 23       	and	r25, r25
     9cc:	09 f4       	brne	.+2      	; 0x9d0 <_ZN9Info_menu7actionsEv+0x18>
     9ce:	08 c2       	rjmp	.+1040   	; 0xde0 <_ZN9Info_menu7actionsEv+0x428>
     9d0:	8c 81       	ldd	r24, Y+4	; 0x04
     9d2:	9d 81       	ldd	r25, Y+5	; 0x05
     9d4:	81 30       	cpi	r24, 0x01	; 1
     9d6:	91 05       	cpc	r25, r1
     9d8:	09 f4       	brne	.+2      	; 0x9dc <_ZN9Info_menu7actionsEv+0x24>
     9da:	0c c1       	rjmp	.+536    	; 0xbf4 <_ZN9Info_menu7actionsEv+0x23c>
     9dc:	82 30       	cpi	r24, 0x02	; 2
     9de:	91 05       	cpc	r25, r1
     9e0:	09 f4       	brne	.+2      	; 0x9e4 <_ZN9Info_menu7actionsEv+0x2c>
     9e2:	db c1       	rjmp	.+950    	; 0xd9a <_ZN9Info_menu7actionsEv+0x3e2>
     9e4:	89 2b       	or	r24, r25
     9e6:	09 f0       	breq	.+2      	; 0x9ea <_ZN9Info_menu7actionsEv+0x32>
     9e8:	fb c1       	rjmp	.+1014   	; 0xde0 <_ZN9Info_menu7actionsEv+0x428>
     9ea:	4c 85       	ldd	r20, Y+12	; 0x0c
     9ec:	5d 85       	ldd	r21, Y+13	; 0x0d
     9ee:	08 e0       	ldi	r16, 0x08	; 8
     9f0:	10 e0       	ldi	r17, 0x00	; 0
     9f2:	20 e1       	ldi	r18, 0x10	; 16
     9f4:	30 e0       	ldi	r19, 0x00	; 0
     9f6:	60 e0       	ldi	r22, 0x00	; 0
     9f8:	70 e0       	ldi	r23, 0x00	; 0
     9fa:	8d e8       	ldi	r24, 0x8D	; 141
     9fc:	96 e0       	ldi	r25, 0x06	; 6
     9fe:	0e 94 e4 1b 	call	0x37c8	; 0x37c8 <_ZN4OLED21OLED_Clear_Bufer_partEiiii>
     a02:	4c 85       	ldd	r20, Y+12	; 0x0c
     a04:	5d 85       	ldd	r21, Y+13	; 0x0d
     a06:	ec 81       	ldd	r30, Y+4	; 0x04
     a08:	fd 81       	ldd	r31, Y+5	; 0x05
     a0a:	33 96       	adiw	r30, 0x03	; 3
     a0c:	ee 0f       	add	r30, r30
     a0e:	ff 1f       	adc	r31, r31
     a10:	ec 0f       	add	r30, r28
     a12:	fd 1f       	adc	r31, r29
     a14:	60 81       	ld	r22, Z
     a16:	71 81       	ldd	r23, Z+1	; 0x01
     a18:	0f 2e       	mov	r0, r31
     a1a:	f1 ed       	ldi	r31, 0xD1	; 209
     a1c:	ef 2e       	mov	r14, r31
     a1e:	f1 e0       	ldi	r31, 0x01	; 1
     a20:	ff 2e       	mov	r15, r31
     a22:	f0 2d       	mov	r31, r0
     a24:	21 e0       	ldi	r18, 0x01	; 1
     a26:	30 e0       	ldi	r19, 0x00	; 0
     a28:	8d e8       	ldi	r24, 0x8D	; 141
     a2a:	96 e0       	ldi	r25, 0x06	; 6
     a2c:	0e 94 33 1c 	call	0x3866	; 0x3866 <_ZN4OLED19OLED_Write_To_BuferEiiiiPKh>
     a30:	4c 85       	ldd	r20, Y+12	; 0x0c
     a32:	5d 85       	ldd	r21, Y+13	; 0x0d
     a34:	ec 81       	ldd	r30, Y+4	; 0x04
     a36:	fd 81       	ldd	r31, Y+5	; 0x05
     a38:	33 96       	adiw	r30, 0x03	; 3
     a3a:	ee 0f       	add	r30, r30
     a3c:	ff 1f       	adc	r31, r31
     a3e:	ec 0f       	add	r30, r28
     a40:	fd 1f       	adc	r31, r29
     a42:	60 81       	ld	r22, Z
     a44:	71 81       	ldd	r23, Z+1	; 0x01
     a46:	68 5f       	subi	r22, 0xF8	; 248
     a48:	7f 4f       	sbci	r23, 0xFF	; 255
     a4a:	0f 2e       	mov	r0, r31
     a4c:	f9 ec       	ldi	r31, 0xC9	; 201
     a4e:	ef 2e       	mov	r14, r31
     a50:	f1 e0       	ldi	r31, 0x01	; 1
     a52:	ff 2e       	mov	r15, r31
     a54:	f0 2d       	mov	r31, r0
     a56:	21 e0       	ldi	r18, 0x01	; 1
     a58:	30 e0       	ldi	r19, 0x00	; 0
     a5a:	8d e8       	ldi	r24, 0x8D	; 141
     a5c:	96 e0       	ldi	r25, 0x06	; 6
     a5e:	0e 94 33 1c 	call	0x3866	; 0x3866 <_ZN4OLED19OLED_Write_To_BuferEiiiiPKh>
     a62:	4c 85       	ldd	r20, Y+12	; 0x0c
     a64:	5d 85       	ldd	r21, Y+13	; 0x0d
     a66:	ec 81       	ldd	r30, Y+4	; 0x04
     a68:	fd 81       	ldd	r31, Y+5	; 0x05
     a6a:	33 96       	adiw	r30, 0x03	; 3
     a6c:	ee 0f       	add	r30, r30
     a6e:	ff 1f       	adc	r31, r31
     a70:	ec 0f       	add	r30, r28
     a72:	fd 1f       	adc	r31, r29
     a74:	60 81       	ld	r22, Z
     a76:	71 81       	ldd	r23, Z+1	; 0x01
     a78:	60 5f       	subi	r22, 0xF0	; 240
     a7a:	7f 4f       	sbci	r23, 0xFF	; 255
     a7c:	0f 2e       	mov	r0, r31
     a7e:	f1 e4       	ldi	r31, 0x41	; 65
     a80:	ef 2e       	mov	r14, r31
     a82:	f1 e0       	ldi	r31, 0x01	; 1
     a84:	ff 2e       	mov	r15, r31
     a86:	f0 2d       	mov	r31, r0
     a88:	21 e0       	ldi	r18, 0x01	; 1
     a8a:	30 e0       	ldi	r19, 0x00	; 0
     a8c:	8d e8       	ldi	r24, 0x8D	; 141
     a8e:	96 e0       	ldi	r25, 0x06	; 6
     a90:	0e 94 33 1c 	call	0x3866	; 0x3866 <_ZN4OLED19OLED_Write_To_BuferEiiiiPKh>
     a94:	4c 85       	ldd	r20, Y+12	; 0x0c
     a96:	5d 85       	ldd	r21, Y+13	; 0x0d
     a98:	ec 81       	ldd	r30, Y+4	; 0x04
     a9a:	fd 81       	ldd	r31, Y+5	; 0x05
     a9c:	33 96       	adiw	r30, 0x03	; 3
     a9e:	ee 0f       	add	r30, r30
     aa0:	ff 1f       	adc	r31, r31
     aa2:	ec 0f       	add	r30, r28
     aa4:	fd 1f       	adc	r31, r29
     aa6:	60 81       	ld	r22, Z
     aa8:	71 81       	ldd	r23, Z+1	; 0x01
     aaa:	68 5e       	subi	r22, 0xE8	; 232
     aac:	7f 4f       	sbci	r23, 0xFF	; 255
     aae:	0f 2e       	mov	r0, r31
     ab0:	f9 ea       	ldi	r31, 0xA9	; 169
     ab2:	ef 2e       	mov	r14, r31
     ab4:	f1 e0       	ldi	r31, 0x01	; 1
     ab6:	ff 2e       	mov	r15, r31
     ab8:	f0 2d       	mov	r31, r0
     aba:	21 e0       	ldi	r18, 0x01	; 1
     abc:	30 e0       	ldi	r19, 0x00	; 0
     abe:	8d e8       	ldi	r24, 0x8D	; 141
     ac0:	96 e0       	ldi	r25, 0x06	; 6
     ac2:	0e 94 33 1c 	call	0x3866	; 0x3866 <_ZN4OLED19OLED_Write_To_BuferEiiiiPKh>
     ac6:	4c 85       	ldd	r20, Y+12	; 0x0c
     ac8:	5d 85       	ldd	r21, Y+13	; 0x0d
     aca:	ec 81       	ldd	r30, Y+4	; 0x04
     acc:	fd 81       	ldd	r31, Y+5	; 0x05
     ace:	33 96       	adiw	r30, 0x03	; 3
     ad0:	ee 0f       	add	r30, r30
     ad2:	ff 1f       	adc	r31, r31
     ad4:	ec 0f       	add	r30, r28
     ad6:	fd 1f       	adc	r31, r29
     ad8:	60 81       	ld	r22, Z
     ada:	71 81       	ldd	r23, Z+1	; 0x01
     adc:	60 5e       	subi	r22, 0xE0	; 224
     ade:	7f 4f       	sbci	r23, 0xFF	; 255
     ae0:	0f 2e       	mov	r0, r31
     ae2:	f9 ed       	ldi	r31, 0xD9	; 217
     ae4:	ef 2e       	mov	r14, r31
     ae6:	f1 e0       	ldi	r31, 0x01	; 1
     ae8:	ff 2e       	mov	r15, r31
     aea:	f0 2d       	mov	r31, r0
     aec:	21 e0       	ldi	r18, 0x01	; 1
     aee:	30 e0       	ldi	r19, 0x00	; 0
     af0:	8d e8       	ldi	r24, 0x8D	; 141
     af2:	96 e0       	ldi	r25, 0x06	; 6
     af4:	0e 94 33 1c 	call	0x3866	; 0x3866 <_ZN4OLED19OLED_Write_To_BuferEiiiiPKh>
     af8:	4c 85       	ldd	r20, Y+12	; 0x0c
     afa:	5d 85       	ldd	r21, Y+13	; 0x0d
     afc:	ec 81       	ldd	r30, Y+4	; 0x04
     afe:	fd 81       	ldd	r31, Y+5	; 0x05
     b00:	33 96       	adiw	r30, 0x03	; 3
     b02:	ee 0f       	add	r30, r30
     b04:	ff 1f       	adc	r31, r31
     b06:	ec 0f       	add	r30, r28
     b08:	fd 1f       	adc	r31, r29
     b0a:	60 81       	ld	r22, Z
     b0c:	71 81       	ldd	r23, Z+1	; 0x01
     b0e:	68 5d       	subi	r22, 0xD8	; 216
     b10:	7f 4f       	sbci	r23, 0xFF	; 255
     b12:	0f 2e       	mov	r0, r31
     b14:	f9 ec       	ldi	r31, 0xC9	; 201
     b16:	ef 2e       	mov	r14, r31
     b18:	f1 e0       	ldi	r31, 0x01	; 1
     b1a:	ff 2e       	mov	r15, r31
     b1c:	f0 2d       	mov	r31, r0
     b1e:	21 e0       	ldi	r18, 0x01	; 1
     b20:	30 e0       	ldi	r19, 0x00	; 0
     b22:	8d e8       	ldi	r24, 0x8D	; 141
     b24:	96 e0       	ldi	r25, 0x06	; 6
     b26:	0e 94 33 1c 	call	0x3866	; 0x3866 <_ZN4OLED19OLED_Write_To_BuferEiiiiPKh>
     b2a:	4c 85       	ldd	r20, Y+12	; 0x0c
     b2c:	5d 85       	ldd	r21, Y+13	; 0x0d
     b2e:	ec 81       	ldd	r30, Y+4	; 0x04
     b30:	fd 81       	ldd	r31, Y+5	; 0x05
     b32:	33 96       	adiw	r30, 0x03	; 3
     b34:	ee 0f       	add	r30, r30
     b36:	ff 1f       	adc	r31, r31
     b38:	ec 0f       	add	r30, r28
     b3a:	fd 1f       	adc	r31, r29
     b3c:	60 81       	ld	r22, Z
     b3e:	71 81       	ldd	r23, Z+1	; 0x01
     b40:	68 5c       	subi	r22, 0xC8	; 200
     b42:	7f 4f       	sbci	r23, 0xFF	; 255
     b44:	0f 2e       	mov	r0, r31
     b46:	f9 ea       	ldi	r31, 0xA9	; 169
     b48:	ef 2e       	mov	r14, r31
     b4a:	f1 e0       	ldi	r31, 0x01	; 1
     b4c:	ff 2e       	mov	r15, r31
     b4e:	f0 2d       	mov	r31, r0
     b50:	21 e0       	ldi	r18, 0x01	; 1
     b52:	30 e0       	ldi	r19, 0x00	; 0
     b54:	8d e8       	ldi	r24, 0x8D	; 141
     b56:	96 e0       	ldi	r25, 0x06	; 6
     b58:	0e 94 33 1c 	call	0x3866	; 0x3866 <_ZN4OLED19OLED_Write_To_BuferEiiiiPKh>
     b5c:	4c 85       	ldd	r20, Y+12	; 0x0c
     b5e:	5d 85       	ldd	r21, Y+13	; 0x0d
     b60:	ec 81       	ldd	r30, Y+4	; 0x04
     b62:	fd 81       	ldd	r31, Y+5	; 0x05
     b64:	33 96       	adiw	r30, 0x03	; 3
     b66:	ee 0f       	add	r30, r30
     b68:	ff 1f       	adc	r31, r31
     b6a:	ec 0f       	add	r30, r28
     b6c:	fd 1f       	adc	r31, r29
     b6e:	60 81       	ld	r22, Z
     b70:	71 81       	ldd	r23, Z+1	; 0x01
     b72:	60 5c       	subi	r22, 0xC0	; 192
     b74:	7f 4f       	sbci	r23, 0xFF	; 255
     b76:	0f 2e       	mov	r0, r31
     b78:	f1 e8       	ldi	r31, 0x81	; 129
     b7a:	ef 2e       	mov	r14, r31
     b7c:	f1 e0       	ldi	r31, 0x01	; 1
     b7e:	ff 2e       	mov	r15, r31
     b80:	f0 2d       	mov	r31, r0
     b82:	21 e0       	ldi	r18, 0x01	; 1
     b84:	30 e0       	ldi	r19, 0x00	; 0
     b86:	8d e8       	ldi	r24, 0x8D	; 141
     b88:	96 e0       	ldi	r25, 0x06	; 6
     b8a:	0e 94 33 1c 	call	0x3866	; 0x3866 <_ZN4OLED19OLED_Write_To_BuferEiiiiPKh>
     b8e:	4c 85       	ldd	r20, Y+12	; 0x0c
     b90:	5d 85       	ldd	r21, Y+13	; 0x0d
     b92:	ec 81       	ldd	r30, Y+4	; 0x04
     b94:	fd 81       	ldd	r31, Y+5	; 0x05
     b96:	33 96       	adiw	r30, 0x03	; 3
     b98:	ee 0f       	add	r30, r30
     b9a:	ff 1f       	adc	r31, r31
     b9c:	ec 0f       	add	r30, r28
     b9e:	fd 1f       	adc	r31, r29
     ba0:	60 81       	ld	r22, Z
     ba2:	71 81       	ldd	r23, Z+1	; 0x01
     ba4:	68 5b       	subi	r22, 0xB8	; 184
     ba6:	7f 4f       	sbci	r23, 0xFF	; 255
     ba8:	0f 2e       	mov	r0, r31
     baa:	f1 ec       	ldi	r31, 0xC1	; 193
     bac:	ef 2e       	mov	r14, r31
     bae:	f1 e0       	ldi	r31, 0x01	; 1
     bb0:	ff 2e       	mov	r15, r31
     bb2:	f0 2d       	mov	r31, r0
     bb4:	21 e0       	ldi	r18, 0x01	; 1
     bb6:	30 e0       	ldi	r19, 0x00	; 0
     bb8:	8d e8       	ldi	r24, 0x8D	; 141
     bba:	96 e0       	ldi	r25, 0x06	; 6
     bbc:	0e 94 33 1c 	call	0x3866	; 0x3866 <_ZN4OLED19OLED_Write_To_BuferEiiiiPKh>
     bc0:	4c 85       	ldd	r20, Y+12	; 0x0c
     bc2:	5d 85       	ldd	r21, Y+13	; 0x0d
     bc4:	8c 81       	ldd	r24, Y+4	; 0x04
     bc6:	9d 81       	ldd	r25, Y+5	; 0x05
     bc8:	03 96       	adiw	r24, 0x03	; 3
     bca:	88 0f       	add	r24, r24
     bcc:	99 1f       	adc	r25, r25
     bce:	c8 0f       	add	r28, r24
     bd0:	d9 1f       	adc	r29, r25
     bd2:	68 81       	ld	r22, Y
     bd4:	79 81       	ldd	r23, Y+1	; 0x01
     bd6:	60 5b       	subi	r22, 0xB0	; 176
     bd8:	7f 4f       	sbci	r23, 0xFF	; 255
     bda:	0f 2e       	mov	r0, r31
     bdc:	f9 e7       	ldi	r31, 0x79	; 121
     bde:	ef 2e       	mov	r14, r31
     be0:	f1 e0       	ldi	r31, 0x01	; 1
     be2:	ff 2e       	mov	r15, r31
     be4:	f0 2d       	mov	r31, r0
     be6:	21 e0       	ldi	r18, 0x01	; 1
     be8:	30 e0       	ldi	r19, 0x00	; 0
     bea:	8d e8       	ldi	r24, 0x8D	; 141
     bec:	96 e0       	ldi	r25, 0x06	; 6
     bee:	0e 94 33 1c 	call	0x3866	; 0x3866 <_ZN4OLED19OLED_Write_To_BuferEiiiiPKh>
     bf2:	f6 c0       	rjmp	.+492    	; 0xde0 <_ZN9Info_menu7actionsEv+0x428>
     bf4:	4c 85       	ldd	r20, Y+12	; 0x0c
     bf6:	5d 85       	ldd	r21, Y+13	; 0x0d
     bf8:	08 e0       	ldi	r16, 0x08	; 8
     bfa:	10 e0       	ldi	r17, 0x00	; 0
     bfc:	20 e1       	ldi	r18, 0x10	; 16
     bfe:	30 e0       	ldi	r19, 0x00	; 0
     c00:	60 e0       	ldi	r22, 0x00	; 0
     c02:	70 e0       	ldi	r23, 0x00	; 0
     c04:	8d e8       	ldi	r24, 0x8D	; 141
     c06:	96 e0       	ldi	r25, 0x06	; 6
     c08:	0e 94 e4 1b 	call	0x37c8	; 0x37c8 <_ZN4OLED21OLED_Clear_Bufer_partEiiii>
     c0c:	4c 85       	ldd	r20, Y+12	; 0x0c
     c0e:	5d 85       	ldd	r21, Y+13	; 0x0d
     c10:	ec 81       	ldd	r30, Y+4	; 0x04
     c12:	fd 81       	ldd	r31, Y+5	; 0x05
     c14:	33 96       	adiw	r30, 0x03	; 3
     c16:	ee 0f       	add	r30, r30
     c18:	ff 1f       	adc	r31, r31
     c1a:	ec 0f       	add	r30, r28
     c1c:	fd 1f       	adc	r31, r29
     c1e:	60 81       	ld	r22, Z
     c20:	71 81       	ldd	r23, Z+1	; 0x01
     c22:	0f 2e       	mov	r0, r31
     c24:	f9 e4       	ldi	r31, 0x49	; 73
     c26:	ef 2e       	mov	r14, r31
     c28:	f1 e0       	ldi	r31, 0x01	; 1
     c2a:	ff 2e       	mov	r15, r31
     c2c:	f0 2d       	mov	r31, r0
     c2e:	21 e0       	ldi	r18, 0x01	; 1
     c30:	30 e0       	ldi	r19, 0x00	; 0
     c32:	8d e8       	ldi	r24, 0x8D	; 141
     c34:	96 e0       	ldi	r25, 0x06	; 6
     c36:	0e 94 33 1c 	call	0x3866	; 0x3866 <_ZN4OLED19OLED_Write_To_BuferEiiiiPKh>
     c3a:	4c 85       	ldd	r20, Y+12	; 0x0c
     c3c:	5d 85       	ldd	r21, Y+13	; 0x0d
     c3e:	ec 81       	ldd	r30, Y+4	; 0x04
     c40:	fd 81       	ldd	r31, Y+5	; 0x05
     c42:	33 96       	adiw	r30, 0x03	; 3
     c44:	ee 0f       	add	r30, r30
     c46:	ff 1f       	adc	r31, r31
     c48:	ec 0f       	add	r30, r28
     c4a:	fd 1f       	adc	r31, r29
     c4c:	60 81       	ld	r22, Z
     c4e:	71 81       	ldd	r23, Z+1	; 0x01
     c50:	68 5f       	subi	r22, 0xF8	; 248
     c52:	7f 4f       	sbci	r23, 0xFF	; 255
     c54:	0f 2e       	mov	r0, r31
     c56:	f9 e5       	ldi	r31, 0x59	; 89
     c58:	ef 2e       	mov	r14, r31
     c5a:	f1 e0       	ldi	r31, 0x01	; 1
     c5c:	ff 2e       	mov	r15, r31
     c5e:	f0 2d       	mov	r31, r0
     c60:	21 e0       	ldi	r18, 0x01	; 1
     c62:	30 e0       	ldi	r19, 0x00	; 0
     c64:	8d e8       	ldi	r24, 0x8D	; 141
     c66:	96 e0       	ldi	r25, 0x06	; 6
     c68:	0e 94 33 1c 	call	0x3866	; 0x3866 <_ZN4OLED19OLED_Write_To_BuferEiiiiPKh>
     c6c:	4c 85       	ldd	r20, Y+12	; 0x0c
     c6e:	5d 85       	ldd	r21, Y+13	; 0x0d
     c70:	ec 81       	ldd	r30, Y+4	; 0x04
     c72:	fd 81       	ldd	r31, Y+5	; 0x05
     c74:	33 96       	adiw	r30, 0x03	; 3
     c76:	ee 0f       	add	r30, r30
     c78:	ff 1f       	adc	r31, r31
     c7a:	ec 0f       	add	r30, r28
     c7c:	fd 1f       	adc	r31, r29
     c7e:	60 81       	ld	r22, Z
     c80:	71 81       	ldd	r23, Z+1	; 0x01
     c82:	60 5f       	subi	r22, 0xF0	; 240
     c84:	7f 4f       	sbci	r23, 0xFF	; 255
     c86:	0f 2e       	mov	r0, r31
     c88:	f9 ec       	ldi	r31, 0xC9	; 201
     c8a:	ef 2e       	mov	r14, r31
     c8c:	f1 e0       	ldi	r31, 0x01	; 1
     c8e:	ff 2e       	mov	r15, r31
     c90:	f0 2d       	mov	r31, r0
     c92:	21 e0       	ldi	r18, 0x01	; 1
     c94:	30 e0       	ldi	r19, 0x00	; 0
     c96:	8d e8       	ldi	r24, 0x8D	; 141
     c98:	96 e0       	ldi	r25, 0x06	; 6
     c9a:	0e 94 33 1c 	call	0x3866	; 0x3866 <_ZN4OLED19OLED_Write_To_BuferEiiiiPKh>
     c9e:	4c 85       	ldd	r20, Y+12	; 0x0c
     ca0:	5d 85       	ldd	r21, Y+13	; 0x0d
     ca2:	ec 81       	ldd	r30, Y+4	; 0x04
     ca4:	fd 81       	ldd	r31, Y+5	; 0x05
     ca6:	33 96       	adiw	r30, 0x03	; 3
     ca8:	ee 0f       	add	r30, r30
     caa:	ff 1f       	adc	r31, r31
     cac:	ec 0f       	add	r30, r28
     cae:	fd 1f       	adc	r31, r29
     cb0:	60 81       	ld	r22, Z
     cb2:	71 81       	ldd	r23, Z+1	; 0x01
     cb4:	68 5e       	subi	r22, 0xE8	; 232
     cb6:	7f 4f       	sbci	r23, 0xFF	; 255
     cb8:	0f 2e       	mov	r0, r31
     cba:	f1 e6       	ldi	r31, 0x61	; 97
     cbc:	ef 2e       	mov	r14, r31
     cbe:	f1 e0       	ldi	r31, 0x01	; 1
     cc0:	ff 2e       	mov	r15, r31
     cc2:	f0 2d       	mov	r31, r0
     cc4:	21 e0       	ldi	r18, 0x01	; 1
     cc6:	30 e0       	ldi	r19, 0x00	; 0
     cc8:	8d e8       	ldi	r24, 0x8D	; 141
     cca:	96 e0       	ldi	r25, 0x06	; 6
     ccc:	0e 94 33 1c 	call	0x3866	; 0x3866 <_ZN4OLED19OLED_Write_To_BuferEiiiiPKh>
     cd0:	4c 85       	ldd	r20, Y+12	; 0x0c
     cd2:	5d 85       	ldd	r21, Y+13	; 0x0d
     cd4:	ec 81       	ldd	r30, Y+4	; 0x04
     cd6:	fd 81       	ldd	r31, Y+5	; 0x05
     cd8:	33 96       	adiw	r30, 0x03	; 3
     cda:	ee 0f       	add	r30, r30
     cdc:	ff 1f       	adc	r31, r31
     cde:	ec 0f       	add	r30, r28
     ce0:	fd 1f       	adc	r31, r29
     ce2:	60 81       	ld	r22, Z
     ce4:	71 81       	ldd	r23, Z+1	; 0x01
     ce6:	68 5d       	subi	r22, 0xD8	; 216
     ce8:	7f 4f       	sbci	r23, 0xFF	; 255
     cea:	0f 2e       	mov	r0, r31
     cec:	f9 ea       	ldi	r31, 0xA9	; 169
     cee:	ef 2e       	mov	r14, r31
     cf0:	f1 e0       	ldi	r31, 0x01	; 1
     cf2:	ff 2e       	mov	r15, r31
     cf4:	f0 2d       	mov	r31, r0
     cf6:	21 e0       	ldi	r18, 0x01	; 1
     cf8:	30 e0       	ldi	r19, 0x00	; 0
     cfa:	8d e8       	ldi	r24, 0x8D	; 141
     cfc:	96 e0       	ldi	r25, 0x06	; 6
     cfe:	0e 94 33 1c 	call	0x3866	; 0x3866 <_ZN4OLED19OLED_Write_To_BuferEiiiiPKh>
     d02:	4c 85       	ldd	r20, Y+12	; 0x0c
     d04:	5d 85       	ldd	r21, Y+13	; 0x0d
     d06:	ec 81       	ldd	r30, Y+4	; 0x04
     d08:	fd 81       	ldd	r31, Y+5	; 0x05
     d0a:	33 96       	adiw	r30, 0x03	; 3
     d0c:	ee 0f       	add	r30, r30
     d0e:	ff 1f       	adc	r31, r31
     d10:	ec 0f       	add	r30, r28
     d12:	fd 1f       	adc	r31, r29
     d14:	60 81       	ld	r22, Z
     d16:	71 81       	ldd	r23, Z+1	; 0x01
     d18:	60 5d       	subi	r22, 0xD0	; 208
     d1a:	7f 4f       	sbci	r23, 0xFF	; 255
     d1c:	0f 2e       	mov	r0, r31
     d1e:	f1 e8       	ldi	r31, 0x81	; 129
     d20:	ef 2e       	mov	r14, r31
     d22:	f1 e0       	ldi	r31, 0x01	; 1
     d24:	ff 2e       	mov	r15, r31
     d26:	f0 2d       	mov	r31, r0
     d28:	21 e0       	ldi	r18, 0x01	; 1
     d2a:	30 e0       	ldi	r19, 0x00	; 0
     d2c:	8d e8       	ldi	r24, 0x8D	; 141
     d2e:	96 e0       	ldi	r25, 0x06	; 6
     d30:	0e 94 33 1c 	call	0x3866	; 0x3866 <_ZN4OLED19OLED_Write_To_BuferEiiiiPKh>
     d34:	4c 85       	ldd	r20, Y+12	; 0x0c
     d36:	5d 85       	ldd	r21, Y+13	; 0x0d
     d38:	ec 81       	ldd	r30, Y+4	; 0x04
     d3a:	fd 81       	ldd	r31, Y+5	; 0x05
     d3c:	33 96       	adiw	r30, 0x03	; 3
     d3e:	ee 0f       	add	r30, r30
     d40:	ff 1f       	adc	r31, r31
     d42:	ec 0f       	add	r30, r28
     d44:	fd 1f       	adc	r31, r29
     d46:	60 81       	ld	r22, Z
     d48:	71 81       	ldd	r23, Z+1	; 0x01
     d4a:	68 5c       	subi	r22, 0xC8	; 200
     d4c:	7f 4f       	sbci	r23, 0xFF	; 255
     d4e:	0f 2e       	mov	r0, r31
     d50:	f1 ec       	ldi	r31, 0xC1	; 193
     d52:	ef 2e       	mov	r14, r31
     d54:	f1 e0       	ldi	r31, 0x01	; 1
     d56:	ff 2e       	mov	r15, r31
     d58:	f0 2d       	mov	r31, r0
     d5a:	21 e0       	ldi	r18, 0x01	; 1
     d5c:	30 e0       	ldi	r19, 0x00	; 0
     d5e:	8d e8       	ldi	r24, 0x8D	; 141
     d60:	96 e0       	ldi	r25, 0x06	; 6
     d62:	0e 94 33 1c 	call	0x3866	; 0x3866 <_ZN4OLED19OLED_Write_To_BuferEiiiiPKh>
     d66:	4c 85       	ldd	r20, Y+12	; 0x0c
     d68:	5d 85       	ldd	r21, Y+13	; 0x0d
     d6a:	8c 81       	ldd	r24, Y+4	; 0x04
     d6c:	9d 81       	ldd	r25, Y+5	; 0x05
     d6e:	03 96       	adiw	r24, 0x03	; 3
     d70:	88 0f       	add	r24, r24
     d72:	99 1f       	adc	r25, r25
     d74:	c8 0f       	add	r28, r24
     d76:	d9 1f       	adc	r29, r25
     d78:	68 81       	ld	r22, Y
     d7a:	79 81       	ldd	r23, Y+1	; 0x01
     d7c:	60 5c       	subi	r22, 0xC0	; 192
     d7e:	7f 4f       	sbci	r23, 0xFF	; 255
     d80:	0f 2e       	mov	r0, r31
     d82:	f9 e7       	ldi	r31, 0x79	; 121
     d84:	ef 2e       	mov	r14, r31
     d86:	f1 e0       	ldi	r31, 0x01	; 1
     d88:	ff 2e       	mov	r15, r31
     d8a:	f0 2d       	mov	r31, r0
     d8c:	21 e0       	ldi	r18, 0x01	; 1
     d8e:	30 e0       	ldi	r19, 0x00	; 0
     d90:	8d e8       	ldi	r24, 0x8D	; 141
     d92:	96 e0       	ldi	r25, 0x06	; 6
     d94:	0e 94 33 1c 	call	0x3866	; 0x3866 <_ZN4OLED19OLED_Write_To_BuferEiiiiPKh>
     d98:	23 c0       	rjmp	.+70     	; 0xde0 <_ZN9Info_menu7actionsEv+0x428>
     d9a:	4c 85       	ldd	r20, Y+12	; 0x0c
     d9c:	5d 85       	ldd	r21, Y+13	; 0x0d
     d9e:	08 e0       	ldi	r16, 0x08	; 8
     da0:	10 e0       	ldi	r17, 0x00	; 0
     da2:	20 e1       	ldi	r18, 0x10	; 16
     da4:	30 e0       	ldi	r19, 0x00	; 0
     da6:	60 e0       	ldi	r22, 0x00	; 0
     da8:	70 e0       	ldi	r23, 0x00	; 0
     daa:	8d e8       	ldi	r24, 0x8D	; 141
     dac:	96 e0       	ldi	r25, 0x06	; 6
     dae:	0e 94 e4 1b 	call	0x37c8	; 0x37c8 <_ZN4OLED21OLED_Clear_Bufer_partEiiii>
     db2:	4c 85       	ldd	r20, Y+12	; 0x0c
     db4:	5d 85       	ldd	r21, Y+13	; 0x0d
     db6:	8c 81       	ldd	r24, Y+4	; 0x04
     db8:	9d 81       	ldd	r25, Y+5	; 0x05
     dba:	03 96       	adiw	r24, 0x03	; 3
     dbc:	88 0f       	add	r24, r24
     dbe:	99 1f       	adc	r25, r25
     dc0:	c8 0f       	add	r28, r24
     dc2:	d9 1f       	adc	r29, r25
     dc4:	68 81       	ld	r22, Y
     dc6:	79 81       	ldd	r23, Y+1	; 0x01
     dc8:	0f 2e       	mov	r0, r31
     dca:	f1 e0       	ldi	r31, 0x01	; 1
     dcc:	ef 2e       	mov	r14, r31
     dce:	f1 e0       	ldi	r31, 0x01	; 1
     dd0:	ff 2e       	mov	r15, r31
     dd2:	f0 2d       	mov	r31, r0
     dd4:	22 e0       	ldi	r18, 0x02	; 2
     dd6:	30 e0       	ldi	r19, 0x00	; 0
     dd8:	8d e8       	ldi	r24, 0x8D	; 141
     dda:	96 e0       	ldi	r25, 0x06	; 6
     ddc:	0e 94 33 1c 	call	0x3866	; 0x3866 <_ZN4OLED19OLED_Write_To_BuferEiiiiPKh>
     de0:	df 91       	pop	r29
     de2:	cf 91       	pop	r28
     de4:	1f 91       	pop	r17
     de6:	0f 91       	pop	r16
     de8:	ff 90       	pop	r15
     dea:	ef 90       	pop	r14
     dec:	08 95       	ret

00000dee <_ZN9Info_menu7DefaultEv>:
     dee:	ef 92       	push	r14
     df0:	ff 92       	push	r15
     df2:	0f 93       	push	r16
     df4:	1f 93       	push	r17
     df6:	cf 93       	push	r28
     df8:	df 93       	push	r29
     dfa:	ec 01       	movw	r28, r24
     dfc:	4c 85       	ldd	r20, Y+12	; 0x0c
     dfe:	5d 85       	ldd	r21, Y+13	; 0x0d
     e00:	4e 5f       	subi	r20, 0xFE	; 254
     e02:	5f 4f       	sbci	r21, 0xFF	; 255
     e04:	0f 2e       	mov	r0, r31
     e06:	f1 ea       	ldi	r31, 0xA1	; 161
     e08:	ef 2e       	mov	r14, r31
     e0a:	f2 e0       	ldi	r31, 0x02	; 2
     e0c:	ff 2e       	mov	r15, r31
     e0e:	f0 2d       	mov	r31, r0
     e10:	08 e0       	ldi	r16, 0x08	; 8
     e12:	10 e0       	ldi	r17, 0x00	; 0
     e14:	22 e0       	ldi	r18, 0x02	; 2
     e16:	30 e0       	ldi	r19, 0x00	; 0
     e18:	68 e3       	ldi	r22, 0x38	; 56
     e1a:	70 e0       	ldi	r23, 0x00	; 0
     e1c:	8d e8       	ldi	r24, 0x8D	; 141
     e1e:	96 e0       	ldi	r25, 0x06	; 6
     e20:	0e 94 33 1c 	call	0x3866	; 0x3866 <_ZN4OLED19OLED_Write_To_BuferEiiiiPKh>
     e24:	4c 85       	ldd	r20, Y+12	; 0x0c
     e26:	5d 85       	ldd	r21, Y+13	; 0x0d
     e28:	42 50       	subi	r20, 0x02	; 2
     e2a:	51 09       	sbc	r21, r1
     e2c:	0f 2e       	mov	r0, r31
     e2e:	f1 eb       	ldi	r31, 0xB1	; 177
     e30:	ef 2e       	mov	r14, r31
     e32:	f2 e0       	ldi	r31, 0x02	; 2
     e34:	ff 2e       	mov	r15, r31
     e36:	f0 2d       	mov	r31, r0
     e38:	22 e0       	ldi	r18, 0x02	; 2
     e3a:	30 e0       	ldi	r19, 0x00	; 0
     e3c:	68 e3       	ldi	r22, 0x38	; 56
     e3e:	70 e0       	ldi	r23, 0x00	; 0
     e40:	8d e8       	ldi	r24, 0x8D	; 141
     e42:	96 e0       	ldi	r25, 0x06	; 6
     e44:	0e 94 33 1c 	call	0x3866	; 0x3866 <_ZN4OLED19OLED_Write_To_BuferEiiiiPKh>
     e48:	df 91       	pop	r29
     e4a:	cf 91       	pop	r28
     e4c:	1f 91       	pop	r17
     e4e:	0f 91       	pop	r16
     e50:	ff 90       	pop	r15
     e52:	ef 90       	pop	r14
     e54:	08 95       	ret

00000e56 <_ZN13Settings_Menu7actionsEv>:
     e56:	ef 92       	push	r14
     e58:	ff 92       	push	r15
     e5a:	0f 93       	push	r16
     e5c:	1f 93       	push	r17
     e5e:	cf 93       	push	r28
     e60:	df 93       	push	r29
     e62:	ec 01       	movw	r28, r24
     e64:	90 91 8b 06 	lds	r25, 0x068B	; 0x80068b <Settings_Menu_Status>
     e68:	99 23       	and	r25, r25
     e6a:	09 f4       	brne	.+2      	; 0xe6e <_ZN13Settings_Menu7actionsEv+0x18>
     e6c:	6a c3       	rjmp	.+1748   	; 0x1542 <_ZN13Settings_Menu7actionsEv+0x6ec>
     e6e:	8c 81       	ldd	r24, Y+4	; 0x04
     e70:	9d 81       	ldd	r25, Y+5	; 0x05
     e72:	81 30       	cpi	r24, 0x01	; 1
     e74:	91 05       	cpc	r25, r1
     e76:	09 f4       	brne	.+2      	; 0xe7a <_ZN13Settings_Menu7actionsEv+0x24>
     e78:	56 c1       	rjmp	.+684    	; 0x1126 <_ZN13Settings_Menu7actionsEv+0x2d0>
     e7a:	1c f4       	brge	.+6      	; 0xe82 <_ZN13Settings_Menu7actionsEv+0x2c>
     e7c:	89 2b       	or	r24, r25
     e7e:	49 f0       	breq	.+18     	; 0xe92 <_ZN13Settings_Menu7actionsEv+0x3c>
     e80:	60 c3       	rjmp	.+1728   	; 0x1542 <_ZN13Settings_Menu7actionsEv+0x6ec>
     e82:	82 30       	cpi	r24, 0x02	; 2
     e84:	91 05       	cpc	r25, r1
     e86:	09 f4       	brne	.+2      	; 0xe8a <_ZN13Settings_Menu7actionsEv+0x34>
     e88:	6c c2       	rjmp	.+1240   	; 0x1362 <_ZN13Settings_Menu7actionsEv+0x50c>
     e8a:	03 97       	sbiw	r24, 0x03	; 3
     e8c:	09 f4       	brne	.+2      	; 0xe90 <_ZN13Settings_Menu7actionsEv+0x3a>
     e8e:	36 c3       	rjmp	.+1644   	; 0x14fc <_ZN13Settings_Menu7actionsEv+0x6a6>
     e90:	58 c3       	rjmp	.+1712   	; 0x1542 <_ZN13Settings_Menu7actionsEv+0x6ec>
     e92:	4e 85       	ldd	r20, Y+14	; 0x0e
     e94:	5f 85       	ldd	r21, Y+15	; 0x0f
     e96:	08 e0       	ldi	r16, 0x08	; 8
     e98:	10 e0       	ldi	r17, 0x00	; 0
     e9a:	20 e1       	ldi	r18, 0x10	; 16
     e9c:	30 e0       	ldi	r19, 0x00	; 0
     e9e:	60 e0       	ldi	r22, 0x00	; 0
     ea0:	70 e0       	ldi	r23, 0x00	; 0
     ea2:	8d e8       	ldi	r24, 0x8D	; 141
     ea4:	96 e0       	ldi	r25, 0x06	; 6
     ea6:	0e 94 e4 1b 	call	0x37c8	; 0x37c8 <_ZN4OLED21OLED_Clear_Bufer_partEiiii>
     eaa:	4e 85       	ldd	r20, Y+14	; 0x0e
     eac:	5f 85       	ldd	r21, Y+15	; 0x0f
     eae:	ec 81       	ldd	r30, Y+4	; 0x04
     eb0:	fd 81       	ldd	r31, Y+5	; 0x05
     eb2:	33 96       	adiw	r30, 0x03	; 3
     eb4:	ee 0f       	add	r30, r30
     eb6:	ff 1f       	adc	r31, r31
     eb8:	ec 0f       	add	r30, r28
     eba:	fd 1f       	adc	r31, r29
     ebc:	60 81       	ld	r22, Z
     ebe:	71 81       	ldd	r23, Z+1	; 0x01
     ec0:	0f 2e       	mov	r0, r31
     ec2:	f9 e5       	ldi	r31, 0x59	; 89
     ec4:	ef 2e       	mov	r14, r31
     ec6:	f1 e0       	ldi	r31, 0x01	; 1
     ec8:	ff 2e       	mov	r15, r31
     eca:	f0 2d       	mov	r31, r0
     ecc:	21 e0       	ldi	r18, 0x01	; 1
     ece:	30 e0       	ldi	r19, 0x00	; 0
     ed0:	8d e8       	ldi	r24, 0x8D	; 141
     ed2:	96 e0       	ldi	r25, 0x06	; 6
     ed4:	0e 94 33 1c 	call	0x3866	; 0x3866 <_ZN4OLED19OLED_Write_To_BuferEiiiiPKh>
     ed8:	4e 85       	ldd	r20, Y+14	; 0x0e
     eda:	5f 85       	ldd	r21, Y+15	; 0x0f
     edc:	ec 81       	ldd	r30, Y+4	; 0x04
     ede:	fd 81       	ldd	r31, Y+5	; 0x05
     ee0:	33 96       	adiw	r30, 0x03	; 3
     ee2:	ee 0f       	add	r30, r30
     ee4:	ff 1f       	adc	r31, r31
     ee6:	ec 0f       	add	r30, r28
     ee8:	fd 1f       	adc	r31, r29
     eea:	60 81       	ld	r22, Z
     eec:	71 81       	ldd	r23, Z+1	; 0x01
     eee:	68 5f       	subi	r22, 0xF8	; 248
     ef0:	7f 4f       	sbci	r23, 0xFF	; 255
     ef2:	0f 2e       	mov	r0, r31
     ef4:	f9 ec       	ldi	r31, 0xC9	; 201
     ef6:	ef 2e       	mov	r14, r31
     ef8:	f1 e0       	ldi	r31, 0x01	; 1
     efa:	ff 2e       	mov	r15, r31
     efc:	f0 2d       	mov	r31, r0
     efe:	21 e0       	ldi	r18, 0x01	; 1
     f00:	30 e0       	ldi	r19, 0x00	; 0
     f02:	8d e8       	ldi	r24, 0x8D	; 141
     f04:	96 e0       	ldi	r25, 0x06	; 6
     f06:	0e 94 33 1c 	call	0x3866	; 0x3866 <_ZN4OLED19OLED_Write_To_BuferEiiiiPKh>
     f0a:	4e 85       	ldd	r20, Y+14	; 0x0e
     f0c:	5f 85       	ldd	r21, Y+15	; 0x0f
     f0e:	ec 81       	ldd	r30, Y+4	; 0x04
     f10:	fd 81       	ldd	r31, Y+5	; 0x05
     f12:	33 96       	adiw	r30, 0x03	; 3
     f14:	ee 0f       	add	r30, r30
     f16:	ff 1f       	adc	r31, r31
     f18:	ec 0f       	add	r30, r28
     f1a:	fd 1f       	adc	r31, r29
     f1c:	60 81       	ld	r22, Z
     f1e:	71 81       	ldd	r23, Z+1	; 0x01
     f20:	60 5f       	subi	r22, 0xF0	; 240
     f22:	7f 4f       	sbci	r23, 0xFF	; 255
     f24:	0f 2e       	mov	r0, r31
     f26:	f1 e5       	ldi	r31, 0x51	; 81
     f28:	ef 2e       	mov	r14, r31
     f2a:	f1 e0       	ldi	r31, 0x01	; 1
     f2c:	ff 2e       	mov	r15, r31
     f2e:	f0 2d       	mov	r31, r0
     f30:	21 e0       	ldi	r18, 0x01	; 1
     f32:	30 e0       	ldi	r19, 0x00	; 0
     f34:	8d e8       	ldi	r24, 0x8D	; 141
     f36:	96 e0       	ldi	r25, 0x06	; 6
     f38:	0e 94 33 1c 	call	0x3866	; 0x3866 <_ZN4OLED19OLED_Write_To_BuferEiiiiPKh>
     f3c:	4e 85       	ldd	r20, Y+14	; 0x0e
     f3e:	5f 85       	ldd	r21, Y+15	; 0x0f
     f40:	ec 81       	ldd	r30, Y+4	; 0x04
     f42:	fd 81       	ldd	r31, Y+5	; 0x05
     f44:	33 96       	adiw	r30, 0x03	; 3
     f46:	ee 0f       	add	r30, r30
     f48:	ff 1f       	adc	r31, r31
     f4a:	ec 0f       	add	r30, r28
     f4c:	fd 1f       	adc	r31, r29
     f4e:	60 81       	ld	r22, Z
     f50:	71 81       	ldd	r23, Z+1	; 0x01
     f52:	60 5e       	subi	r22, 0xE0	; 224
     f54:	7f 4f       	sbci	r23, 0xFF	; 255
     f56:	0f 2e       	mov	r0, r31
     f58:	f1 ee       	ldi	r31, 0xE1	; 225
     f5a:	ef 2e       	mov	r14, r31
     f5c:	f1 e0       	ldi	r31, 0x01	; 1
     f5e:	ff 2e       	mov	r15, r31
     f60:	f0 2d       	mov	r31, r0
     f62:	21 e0       	ldi	r18, 0x01	; 1
     f64:	30 e0       	ldi	r19, 0x00	; 0
     f66:	8d e8       	ldi	r24, 0x8D	; 141
     f68:	96 e0       	ldi	r25, 0x06	; 6
     f6a:	0e 94 33 1c 	call	0x3866	; 0x3866 <_ZN4OLED19OLED_Write_To_BuferEiiiiPKh>
     f6e:	4e 85       	ldd	r20, Y+14	; 0x0e
     f70:	5f 85       	ldd	r21, Y+15	; 0x0f
     f72:	ec 81       	ldd	r30, Y+4	; 0x04
     f74:	fd 81       	ldd	r31, Y+5	; 0x05
     f76:	33 96       	adiw	r30, 0x03	; 3
     f78:	ee 0f       	add	r30, r30
     f7a:	ff 1f       	adc	r31, r31
     f7c:	ec 0f       	add	r30, r28
     f7e:	fd 1f       	adc	r31, r29
     f80:	60 81       	ld	r22, Z
     f82:	71 81       	ldd	r23, Z+1	; 0x01
     f84:	68 5d       	subi	r22, 0xD8	; 216
     f86:	7f 4f       	sbci	r23, 0xFF	; 255
     f88:	0f 2e       	mov	r0, r31
     f8a:	f1 e6       	ldi	r31, 0x61	; 97
     f8c:	ef 2e       	mov	r14, r31
     f8e:	f1 e0       	ldi	r31, 0x01	; 1
     f90:	ff 2e       	mov	r15, r31
     f92:	f0 2d       	mov	r31, r0
     f94:	21 e0       	ldi	r18, 0x01	; 1
     f96:	30 e0       	ldi	r19, 0x00	; 0
     f98:	8d e8       	ldi	r24, 0x8D	; 141
     f9a:	96 e0       	ldi	r25, 0x06	; 6
     f9c:	0e 94 33 1c 	call	0x3866	; 0x3866 <_ZN4OLED19OLED_Write_To_BuferEiiiiPKh>
     fa0:	4e 85       	ldd	r20, Y+14	; 0x0e
     fa2:	5f 85       	ldd	r21, Y+15	; 0x0f
     fa4:	ec 81       	ldd	r30, Y+4	; 0x04
     fa6:	fd 81       	ldd	r31, Y+5	; 0x05
     fa8:	33 96       	adiw	r30, 0x03	; 3
     faa:	ee 0f       	add	r30, r30
     fac:	ff 1f       	adc	r31, r31
     fae:	ec 0f       	add	r30, r28
     fb0:	fd 1f       	adc	r31, r29
     fb2:	60 81       	ld	r22, Z
     fb4:	71 81       	ldd	r23, Z+1	; 0x01
     fb6:	60 5d       	subi	r22, 0xD0	; 208
     fb8:	7f 4f       	sbci	r23, 0xFF	; 255
     fba:	0f 2e       	mov	r0, r31
     fbc:	f9 ea       	ldi	r31, 0xA9	; 169
     fbe:	ef 2e       	mov	r14, r31
     fc0:	f1 e0       	ldi	r31, 0x01	; 1
     fc2:	ff 2e       	mov	r15, r31
     fc4:	f0 2d       	mov	r31, r0
     fc6:	21 e0       	ldi	r18, 0x01	; 1
     fc8:	30 e0       	ldi	r19, 0x00	; 0
     fca:	8d e8       	ldi	r24, 0x8D	; 141
     fcc:	96 e0       	ldi	r25, 0x06	; 6
     fce:	0e 94 33 1c 	call	0x3866	; 0x3866 <_ZN4OLED19OLED_Write_To_BuferEiiiiPKh>
     fd2:	4e 85       	ldd	r20, Y+14	; 0x0e
     fd4:	5f 85       	ldd	r21, Y+15	; 0x0f
     fd6:	ec 81       	ldd	r30, Y+4	; 0x04
     fd8:	fd 81       	ldd	r31, Y+5	; 0x05
     fda:	33 96       	adiw	r30, 0x03	; 3
     fdc:	ee 0f       	add	r30, r30
     fde:	ff 1f       	adc	r31, r31
     fe0:	ec 0f       	add	r30, r28
     fe2:	fd 1f       	adc	r31, r29
     fe4:	60 81       	ld	r22, Z
     fe6:	71 81       	ldd	r23, Z+1	; 0x01
     fe8:	68 5c       	subi	r22, 0xC8	; 200
     fea:	7f 4f       	sbci	r23, 0xFF	; 255
     fec:	0f 2e       	mov	r0, r31
     fee:	f9 eb       	ldi	r31, 0xB9	; 185
     ff0:	ef 2e       	mov	r14, r31
     ff2:	f1 e0       	ldi	r31, 0x01	; 1
     ff4:	ff 2e       	mov	r15, r31
     ff6:	f0 2d       	mov	r31, r0
     ff8:	21 e0       	ldi	r18, 0x01	; 1
     ffa:	30 e0       	ldi	r19, 0x00	; 0
     ffc:	8d e8       	ldi	r24, 0x8D	; 141
     ffe:	96 e0       	ldi	r25, 0x06	; 6
    1000:	0e 94 33 1c 	call	0x3866	; 0x3866 <_ZN4OLED19OLED_Write_To_BuferEiiiiPKh>
    1004:	4e 85       	ldd	r20, Y+14	; 0x0e
    1006:	5f 85       	ldd	r21, Y+15	; 0x0f
    1008:	ec 81       	ldd	r30, Y+4	; 0x04
    100a:	fd 81       	ldd	r31, Y+5	; 0x05
    100c:	33 96       	adiw	r30, 0x03	; 3
    100e:	ee 0f       	add	r30, r30
    1010:	ff 1f       	adc	r31, r31
    1012:	ec 0f       	add	r30, r28
    1014:	fd 1f       	adc	r31, r29
    1016:	60 81       	ld	r22, Z
    1018:	71 81       	ldd	r23, Z+1	; 0x01
    101a:	60 5c       	subi	r22, 0xC0	; 192
    101c:	7f 4f       	sbci	r23, 0xFF	; 255
    101e:	0f 2e       	mov	r0, r31
    1020:	f1 eb       	ldi	r31, 0xB1	; 177
    1022:	ef 2e       	mov	r14, r31
    1024:	f1 e0       	ldi	r31, 0x01	; 1
    1026:	ff 2e       	mov	r15, r31
    1028:	f0 2d       	mov	r31, r0
    102a:	21 e0       	ldi	r18, 0x01	; 1
    102c:	30 e0       	ldi	r19, 0x00	; 0
    102e:	8d e8       	ldi	r24, 0x8D	; 141
    1030:	96 e0       	ldi	r25, 0x06	; 6
    1032:	0e 94 33 1c 	call	0x3866	; 0x3866 <_ZN4OLED19OLED_Write_To_BuferEiiiiPKh>
    1036:	4e 85       	ldd	r20, Y+14	; 0x0e
    1038:	5f 85       	ldd	r21, Y+15	; 0x0f
    103a:	ec 81       	ldd	r30, Y+4	; 0x04
    103c:	fd 81       	ldd	r31, Y+5	; 0x05
    103e:	33 96       	adiw	r30, 0x03	; 3
    1040:	ee 0f       	add	r30, r30
    1042:	ff 1f       	adc	r31, r31
    1044:	ec 0f       	add	r30, r28
    1046:	fd 1f       	adc	r31, r29
    1048:	60 81       	ld	r22, Z
    104a:	71 81       	ldd	r23, Z+1	; 0x01
    104c:	68 5b       	subi	r22, 0xB8	; 184
    104e:	7f 4f       	sbci	r23, 0xFF	; 255
    1050:	0f 2e       	mov	r0, r31
    1052:	f1 e5       	ldi	r31, 0x51	; 81
    1054:	ef 2e       	mov	r14, r31
    1056:	f1 e0       	ldi	r31, 0x01	; 1
    1058:	ff 2e       	mov	r15, r31
    105a:	f0 2d       	mov	r31, r0
    105c:	21 e0       	ldi	r18, 0x01	; 1
    105e:	30 e0       	ldi	r19, 0x00	; 0
    1060:	8d e8       	ldi	r24, 0x8D	; 141
    1062:	96 e0       	ldi	r25, 0x06	; 6
    1064:	0e 94 33 1c 	call	0x3866	; 0x3866 <_ZN4OLED19OLED_Write_To_BuferEiiiiPKh>
    1068:	4e 85       	ldd	r20, Y+14	; 0x0e
    106a:	5f 85       	ldd	r21, Y+15	; 0x0f
    106c:	ec 81       	ldd	r30, Y+4	; 0x04
    106e:	fd 81       	ldd	r31, Y+5	; 0x05
    1070:	33 96       	adiw	r30, 0x03	; 3
    1072:	ee 0f       	add	r30, r30
    1074:	ff 1f       	adc	r31, r31
    1076:	ec 0f       	add	r30, r28
    1078:	fd 1f       	adc	r31, r29
    107a:	60 81       	ld	r22, Z
    107c:	71 81       	ldd	r23, Z+1	; 0x01
    107e:	60 5b       	subi	r22, 0xB0	; 176
    1080:	7f 4f       	sbci	r23, 0xFF	; 255
    1082:	0f 2e       	mov	r0, r31
    1084:	f1 e8       	ldi	r31, 0x81	; 129
    1086:	ef 2e       	mov	r14, r31
    1088:	f1 e0       	ldi	r31, 0x01	; 1
    108a:	ff 2e       	mov	r15, r31
    108c:	f0 2d       	mov	r31, r0
    108e:	21 e0       	ldi	r18, 0x01	; 1
    1090:	30 e0       	ldi	r19, 0x00	; 0
    1092:	8d e8       	ldi	r24, 0x8D	; 141
    1094:	96 e0       	ldi	r25, 0x06	; 6
    1096:	0e 94 33 1c 	call	0x3866	; 0x3866 <_ZN4OLED19OLED_Write_To_BuferEiiiiPKh>
    109a:	4e 85       	ldd	r20, Y+14	; 0x0e
    109c:	5f 85       	ldd	r21, Y+15	; 0x0f
    109e:	ec 81       	ldd	r30, Y+4	; 0x04
    10a0:	fd 81       	ldd	r31, Y+5	; 0x05
    10a2:	33 96       	adiw	r30, 0x03	; 3
    10a4:	ee 0f       	add	r30, r30
    10a6:	ff 1f       	adc	r31, r31
    10a8:	ec 0f       	add	r30, r28
    10aa:	fd 1f       	adc	r31, r29
    10ac:	60 81       	ld	r22, Z
    10ae:	71 81       	ldd	r23, Z+1	; 0x01
    10b0:	68 5a       	subi	r22, 0xA8	; 168
    10b2:	7f 4f       	sbci	r23, 0xFF	; 255
    10b4:	0f 2e       	mov	r0, r31
    10b6:	f9 ec       	ldi	r31, 0xC9	; 201
    10b8:	ef 2e       	mov	r14, r31
    10ba:	f1 e0       	ldi	r31, 0x01	; 1
    10bc:	ff 2e       	mov	r15, r31
    10be:	f0 2d       	mov	r31, r0
    10c0:	21 e0       	ldi	r18, 0x01	; 1
    10c2:	30 e0       	ldi	r19, 0x00	; 0
    10c4:	8d e8       	ldi	r24, 0x8D	; 141
    10c6:	96 e0       	ldi	r25, 0x06	; 6
    10c8:	0e 94 33 1c 	call	0x3866	; 0x3866 <_ZN4OLED19OLED_Write_To_BuferEiiiiPKh>
    10cc:	4e 85       	ldd	r20, Y+14	; 0x0e
    10ce:	5f 85       	ldd	r21, Y+15	; 0x0f
    10d0:	ec 81       	ldd	r30, Y+4	; 0x04
    10d2:	fd 81       	ldd	r31, Y+5	; 0x05
    10d4:	33 96       	adiw	r30, 0x03	; 3
    10d6:	ee 0f       	add	r30, r30
    10d8:	ff 1f       	adc	r31, r31
    10da:	ec 0f       	add	r30, r28
    10dc:	fd 1f       	adc	r31, r29
    10de:	60 81       	ld	r22, Z
    10e0:	71 81       	ldd	r23, Z+1	; 0x01
    10e2:	60 5a       	subi	r22, 0xA0	; 160
    10e4:	7f 4f       	sbci	r23, 0xFF	; 255
    10e6:	0f 2e       	mov	r0, r31
    10e8:	f9 e5       	ldi	r31, 0x59	; 89
    10ea:	ef 2e       	mov	r14, r31
    10ec:	f1 e0       	ldi	r31, 0x01	; 1
    10ee:	ff 2e       	mov	r15, r31
    10f0:	f0 2d       	mov	r31, r0
    10f2:	21 e0       	ldi	r18, 0x01	; 1
    10f4:	30 e0       	ldi	r19, 0x00	; 0
    10f6:	8d e8       	ldi	r24, 0x8D	; 141
    10f8:	96 e0       	ldi	r25, 0x06	; 6
    10fa:	0e 94 33 1c 	call	0x3866	; 0x3866 <_ZN4OLED19OLED_Write_To_BuferEiiiiPKh>
    10fe:	4e 85       	ldd	r20, Y+14	; 0x0e
    1100:	5f 85       	ldd	r21, Y+15	; 0x0f
    1102:	8c 81       	ldd	r24, Y+4	; 0x04
    1104:	9d 81       	ldd	r25, Y+5	; 0x05
    1106:	03 96       	adiw	r24, 0x03	; 3
    1108:	88 0f       	add	r24, r24
    110a:	99 1f       	adc	r25, r25
    110c:	c8 0f       	add	r28, r24
    110e:	d9 1f       	adc	r29, r25
    1110:	68 81       	ld	r22, Y
    1112:	79 81       	ldd	r23, Y+1	; 0x01
    1114:	68 59       	subi	r22, 0x98	; 152
    1116:	7f 4f       	sbci	r23, 0xFF	; 255
    1118:	21 e0       	ldi	r18, 0x01	; 1
    111a:	30 e0       	ldi	r19, 0x00	; 0
    111c:	8d e8       	ldi	r24, 0x8D	; 141
    111e:	96 e0       	ldi	r25, 0x06	; 6
    1120:	0e 94 33 1c 	call	0x3866	; 0x3866 <_ZN4OLED19OLED_Write_To_BuferEiiiiPKh>
    1124:	0e c2       	rjmp	.+1052   	; 0x1542 <_ZN13Settings_Menu7actionsEv+0x6ec>
    1126:	4e 85       	ldd	r20, Y+14	; 0x0e
    1128:	5f 85       	ldd	r21, Y+15	; 0x0f
    112a:	08 e0       	ldi	r16, 0x08	; 8
    112c:	10 e0       	ldi	r17, 0x00	; 0
    112e:	20 e1       	ldi	r18, 0x10	; 16
    1130:	30 e0       	ldi	r19, 0x00	; 0
    1132:	60 e0       	ldi	r22, 0x00	; 0
    1134:	70 e0       	ldi	r23, 0x00	; 0
    1136:	8d e8       	ldi	r24, 0x8D	; 141
    1138:	96 e0       	ldi	r25, 0x06	; 6
    113a:	0e 94 e4 1b 	call	0x37c8	; 0x37c8 <_ZN4OLED21OLED_Clear_Bufer_partEiiii>
    113e:	4e 85       	ldd	r20, Y+14	; 0x0e
    1140:	5f 85       	ldd	r21, Y+15	; 0x0f
    1142:	ec 81       	ldd	r30, Y+4	; 0x04
    1144:	fd 81       	ldd	r31, Y+5	; 0x05
    1146:	33 96       	adiw	r30, 0x03	; 3
    1148:	ee 0f       	add	r30, r30
    114a:	ff 1f       	adc	r31, r31
    114c:	ec 0f       	add	r30, r28
    114e:	fd 1f       	adc	r31, r29
    1150:	60 81       	ld	r22, Z
    1152:	71 81       	ldd	r23, Z+1	; 0x01
    1154:	0f 2e       	mov	r0, r31
    1156:	f1 e6       	ldi	r31, 0x61	; 97
    1158:	ef 2e       	mov	r14, r31
    115a:	f1 e0       	ldi	r31, 0x01	; 1
    115c:	ff 2e       	mov	r15, r31
    115e:	f0 2d       	mov	r31, r0
    1160:	21 e0       	ldi	r18, 0x01	; 1
    1162:	30 e0       	ldi	r19, 0x00	; 0
    1164:	8d e8       	ldi	r24, 0x8D	; 141
    1166:	96 e0       	ldi	r25, 0x06	; 6
    1168:	0e 94 33 1c 	call	0x3866	; 0x3866 <_ZN4OLED19OLED_Write_To_BuferEiiiiPKh>
    116c:	4e 85       	ldd	r20, Y+14	; 0x0e
    116e:	5f 85       	ldd	r21, Y+15	; 0x0f
    1170:	ec 81       	ldd	r30, Y+4	; 0x04
    1172:	fd 81       	ldd	r31, Y+5	; 0x05
    1174:	33 96       	adiw	r30, 0x03	; 3
    1176:	ee 0f       	add	r30, r30
    1178:	ff 1f       	adc	r31, r31
    117a:	ec 0f       	add	r30, r28
    117c:	fd 1f       	adc	r31, r29
    117e:	60 81       	ld	r22, Z
    1180:	71 81       	ldd	r23, Z+1	; 0x01
    1182:	68 5f       	subi	r22, 0xF8	; 248
    1184:	7f 4f       	sbci	r23, 0xFF	; 255
    1186:	0f 2e       	mov	r0, r31
    1188:	f9 ec       	ldi	r31, 0xC9	; 201
    118a:	ef 2e       	mov	r14, r31
    118c:	f1 e0       	ldi	r31, 0x01	; 1
    118e:	ff 2e       	mov	r15, r31
    1190:	f0 2d       	mov	r31, r0
    1192:	21 e0       	ldi	r18, 0x01	; 1
    1194:	30 e0       	ldi	r19, 0x00	; 0
    1196:	8d e8       	ldi	r24, 0x8D	; 141
    1198:	96 e0       	ldi	r25, 0x06	; 6
    119a:	0e 94 33 1c 	call	0x3866	; 0x3866 <_ZN4OLED19OLED_Write_To_BuferEiiiiPKh>
    119e:	4e 85       	ldd	r20, Y+14	; 0x0e
    11a0:	5f 85       	ldd	r21, Y+15	; 0x0f
    11a2:	ec 81       	ldd	r30, Y+4	; 0x04
    11a4:	fd 81       	ldd	r31, Y+5	; 0x05
    11a6:	33 96       	adiw	r30, 0x03	; 3
    11a8:	ee 0f       	add	r30, r30
    11aa:	ff 1f       	adc	r31, r31
    11ac:	ec 0f       	add	r30, r28
    11ae:	fd 1f       	adc	r31, r29
    11b0:	60 81       	ld	r22, Z
    11b2:	71 81       	ldd	r23, Z+1	; 0x01
    11b4:	60 5f       	subi	r22, 0xF0	; 240
    11b6:	7f 4f       	sbci	r23, 0xFF	; 255
    11b8:	0f 2e       	mov	r0, r31
    11ba:	f9 e5       	ldi	r31, 0x59	; 89
    11bc:	ef 2e       	mov	r14, r31
    11be:	f1 e0       	ldi	r31, 0x01	; 1
    11c0:	ff 2e       	mov	r15, r31
    11c2:	f0 2d       	mov	r31, r0
    11c4:	21 e0       	ldi	r18, 0x01	; 1
    11c6:	30 e0       	ldi	r19, 0x00	; 0
    11c8:	8d e8       	ldi	r24, 0x8D	; 141
    11ca:	96 e0       	ldi	r25, 0x06	; 6
    11cc:	0e 94 33 1c 	call	0x3866	; 0x3866 <_ZN4OLED19OLED_Write_To_BuferEiiiiPKh>
    11d0:	4e 85       	ldd	r20, Y+14	; 0x0e
    11d2:	5f 85       	ldd	r21, Y+15	; 0x0f
    11d4:	ec 81       	ldd	r30, Y+4	; 0x04
    11d6:	fd 81       	ldd	r31, Y+5	; 0x05
    11d8:	33 96       	adiw	r30, 0x03	; 3
    11da:	ee 0f       	add	r30, r30
    11dc:	ff 1f       	adc	r31, r31
    11de:	ec 0f       	add	r30, r28
    11e0:	fd 1f       	adc	r31, r29
    11e2:	60 81       	ld	r22, Z
    11e4:	71 81       	ldd	r23, Z+1	; 0x01
    11e6:	68 5e       	subi	r22, 0xE8	; 232
    11e8:	7f 4f       	sbci	r23, 0xFF	; 255
    11ea:	0f 2e       	mov	r0, r31
    11ec:	f9 ec       	ldi	r31, 0xC9	; 201
    11ee:	ef 2e       	mov	r14, r31
    11f0:	f1 e0       	ldi	r31, 0x01	; 1
    11f2:	ff 2e       	mov	r15, r31
    11f4:	f0 2d       	mov	r31, r0
    11f6:	21 e0       	ldi	r18, 0x01	; 1
    11f8:	30 e0       	ldi	r19, 0x00	; 0
    11fa:	8d e8       	ldi	r24, 0x8D	; 141
    11fc:	96 e0       	ldi	r25, 0x06	; 6
    11fe:	0e 94 33 1c 	call	0x3866	; 0x3866 <_ZN4OLED19OLED_Write_To_BuferEiiiiPKh>
    1202:	4e 85       	ldd	r20, Y+14	; 0x0e
    1204:	5f 85       	ldd	r21, Y+15	; 0x0f
    1206:	ec 81       	ldd	r30, Y+4	; 0x04
    1208:	fd 81       	ldd	r31, Y+5	; 0x05
    120a:	33 96       	adiw	r30, 0x03	; 3
    120c:	ee 0f       	add	r30, r30
    120e:	ff 1f       	adc	r31, r31
    1210:	ec 0f       	add	r30, r28
    1212:	fd 1f       	adc	r31, r29
    1214:	60 81       	ld	r22, Z
    1216:	71 81       	ldd	r23, Z+1	; 0x01
    1218:	60 5e       	subi	r22, 0xE0	; 224
    121a:	7f 4f       	sbci	r23, 0xFF	; 255
    121c:	0f 2e       	mov	r0, r31
    121e:	f1 e5       	ldi	r31, 0x51	; 81
    1220:	ef 2e       	mov	r14, r31
    1222:	f1 e0       	ldi	r31, 0x01	; 1
    1224:	ff 2e       	mov	r15, r31
    1226:	f0 2d       	mov	r31, r0
    1228:	21 e0       	ldi	r18, 0x01	; 1
    122a:	30 e0       	ldi	r19, 0x00	; 0
    122c:	8d e8       	ldi	r24, 0x8D	; 141
    122e:	96 e0       	ldi	r25, 0x06	; 6
    1230:	0e 94 33 1c 	call	0x3866	; 0x3866 <_ZN4OLED19OLED_Write_To_BuferEiiiiPKh>
    1234:	4e 85       	ldd	r20, Y+14	; 0x0e
    1236:	5f 85       	ldd	r21, Y+15	; 0x0f
    1238:	ec 81       	ldd	r30, Y+4	; 0x04
    123a:	fd 81       	ldd	r31, Y+5	; 0x05
    123c:	33 96       	adiw	r30, 0x03	; 3
    123e:	ee 0f       	add	r30, r30
    1240:	ff 1f       	adc	r31, r31
    1242:	ec 0f       	add	r30, r28
    1244:	fd 1f       	adc	r31, r29
    1246:	60 81       	ld	r22, Z
    1248:	71 81       	ldd	r23, Z+1	; 0x01
    124a:	60 5d       	subi	r22, 0xD0	; 208
    124c:	7f 4f       	sbci	r23, 0xFF	; 255
    124e:	0f 2e       	mov	r0, r31
    1250:	f1 ed       	ldi	r31, 0xD1	; 209
    1252:	ef 2e       	mov	r14, r31
    1254:	f1 e0       	ldi	r31, 0x01	; 1
    1256:	ff 2e       	mov	r15, r31
    1258:	f0 2d       	mov	r31, r0
    125a:	21 e0       	ldi	r18, 0x01	; 1
    125c:	30 e0       	ldi	r19, 0x00	; 0
    125e:	8d e8       	ldi	r24, 0x8D	; 141
    1260:	96 e0       	ldi	r25, 0x06	; 6
    1262:	0e 94 33 1c 	call	0x3866	; 0x3866 <_ZN4OLED19OLED_Write_To_BuferEiiiiPKh>
    1266:	4e 85       	ldd	r20, Y+14	; 0x0e
    1268:	5f 85       	ldd	r21, Y+15	; 0x0f
    126a:	ec 81       	ldd	r30, Y+4	; 0x04
    126c:	fd 81       	ldd	r31, Y+5	; 0x05
    126e:	33 96       	adiw	r30, 0x03	; 3
    1270:	ee 0f       	add	r30, r30
    1272:	ff 1f       	adc	r31, r31
    1274:	ec 0f       	add	r30, r28
    1276:	fd 1f       	adc	r31, r29
    1278:	60 81       	ld	r22, Z
    127a:	71 81       	ldd	r23, Z+1	; 0x01
    127c:	68 5c       	subi	r22, 0xC8	; 200
    127e:	7f 4f       	sbci	r23, 0xFF	; 255
    1280:	0f 2e       	mov	r0, r31
    1282:	f9 ec       	ldi	r31, 0xC9	; 201
    1284:	ef 2e       	mov	r14, r31
    1286:	f1 e0       	ldi	r31, 0x01	; 1
    1288:	ff 2e       	mov	r15, r31
    128a:	f0 2d       	mov	r31, r0
    128c:	21 e0       	ldi	r18, 0x01	; 1
    128e:	30 e0       	ldi	r19, 0x00	; 0
    1290:	8d e8       	ldi	r24, 0x8D	; 141
    1292:	96 e0       	ldi	r25, 0x06	; 6
    1294:	0e 94 33 1c 	call	0x3866	; 0x3866 <_ZN4OLED19OLED_Write_To_BuferEiiiiPKh>
    1298:	4e 85       	ldd	r20, Y+14	; 0x0e
    129a:	5f 85       	ldd	r21, Y+15	; 0x0f
    129c:	ec 81       	ldd	r30, Y+4	; 0x04
    129e:	fd 81       	ldd	r31, Y+5	; 0x05
    12a0:	33 96       	adiw	r30, 0x03	; 3
    12a2:	ee 0f       	add	r30, r30
    12a4:	ff 1f       	adc	r31, r31
    12a6:	ec 0f       	add	r30, r28
    12a8:	fd 1f       	adc	r31, r29
    12aa:	60 81       	ld	r22, Z
    12ac:	71 81       	ldd	r23, Z+1	; 0x01
    12ae:	60 5c       	subi	r22, 0xC0	; 192
    12b0:	7f 4f       	sbci	r23, 0xFF	; 255
    12b2:	0f 2e       	mov	r0, r31
    12b4:	f1 e4       	ldi	r31, 0x41	; 65
    12b6:	ef 2e       	mov	r14, r31
    12b8:	f1 e0       	ldi	r31, 0x01	; 1
    12ba:	ff 2e       	mov	r15, r31
    12bc:	f0 2d       	mov	r31, r0
    12be:	21 e0       	ldi	r18, 0x01	; 1
    12c0:	30 e0       	ldi	r19, 0x00	; 0
    12c2:	8d e8       	ldi	r24, 0x8D	; 141
    12c4:	96 e0       	ldi	r25, 0x06	; 6
    12c6:	0e 94 33 1c 	call	0x3866	; 0x3866 <_ZN4OLED19OLED_Write_To_BuferEiiiiPKh>
    12ca:	4e 85       	ldd	r20, Y+14	; 0x0e
    12cc:	5f 85       	ldd	r21, Y+15	; 0x0f
    12ce:	ec 81       	ldd	r30, Y+4	; 0x04
    12d0:	fd 81       	ldd	r31, Y+5	; 0x05
    12d2:	33 96       	adiw	r30, 0x03	; 3
    12d4:	ee 0f       	add	r30, r30
    12d6:	ff 1f       	adc	r31, r31
    12d8:	ec 0f       	add	r30, r28
    12da:	fd 1f       	adc	r31, r29
    12dc:	60 81       	ld	r22, Z
    12de:	71 81       	ldd	r23, Z+1	; 0x01
    12e0:	68 5b       	subi	r22, 0xB8	; 184
    12e2:	7f 4f       	sbci	r23, 0xFF	; 255
    12e4:	0f 2e       	mov	r0, r31
    12e6:	f9 ea       	ldi	r31, 0xA9	; 169
    12e8:	ef 2e       	mov	r14, r31
    12ea:	f1 e0       	ldi	r31, 0x01	; 1
    12ec:	ff 2e       	mov	r15, r31
    12ee:	f0 2d       	mov	r31, r0
    12f0:	21 e0       	ldi	r18, 0x01	; 1
    12f2:	30 e0       	ldi	r19, 0x00	; 0
    12f4:	8d e8       	ldi	r24, 0x8D	; 141
    12f6:	96 e0       	ldi	r25, 0x06	; 6
    12f8:	0e 94 33 1c 	call	0x3866	; 0x3866 <_ZN4OLED19OLED_Write_To_BuferEiiiiPKh>
    12fc:	4e 85       	ldd	r20, Y+14	; 0x0e
    12fe:	5f 85       	ldd	r21, Y+15	; 0x0f
    1300:	ec 81       	ldd	r30, Y+4	; 0x04
    1302:	fd 81       	ldd	r31, Y+5	; 0x05
    1304:	33 96       	adiw	r30, 0x03	; 3
    1306:	ee 0f       	add	r30, r30
    1308:	ff 1f       	adc	r31, r31
    130a:	ec 0f       	add	r30, r28
    130c:	fd 1f       	adc	r31, r29
    130e:	60 81       	ld	r22, Z
    1310:	71 81       	ldd	r23, Z+1	; 0x01
    1312:	60 5b       	subi	r22, 0xB0	; 176
    1314:	7f 4f       	sbci	r23, 0xFF	; 255
    1316:	0f 2e       	mov	r0, r31
    1318:	f9 ed       	ldi	r31, 0xD9	; 217
    131a:	ef 2e       	mov	r14, r31
    131c:	f1 e0       	ldi	r31, 0x01	; 1
    131e:	ff 2e       	mov	r15, r31
    1320:	f0 2d       	mov	r31, r0
    1322:	21 e0       	ldi	r18, 0x01	; 1
    1324:	30 e0       	ldi	r19, 0x00	; 0
    1326:	8d e8       	ldi	r24, 0x8D	; 141
    1328:	96 e0       	ldi	r25, 0x06	; 6
    132a:	0e 94 33 1c 	call	0x3866	; 0x3866 <_ZN4OLED19OLED_Write_To_BuferEiiiiPKh>
    132e:	4e 85       	ldd	r20, Y+14	; 0x0e
    1330:	5f 85       	ldd	r21, Y+15	; 0x0f
    1332:	8c 81       	ldd	r24, Y+4	; 0x04
    1334:	9d 81       	ldd	r25, Y+5	; 0x05
    1336:	03 96       	adiw	r24, 0x03	; 3
    1338:	88 0f       	add	r24, r24
    133a:	99 1f       	adc	r25, r25
    133c:	c8 0f       	add	r28, r24
    133e:	d9 1f       	adc	r29, r25
    1340:	68 81       	ld	r22, Y
    1342:	79 81       	ldd	r23, Y+1	; 0x01
    1344:	68 5a       	subi	r22, 0xA8	; 168
    1346:	7f 4f       	sbci	r23, 0xFF	; 255
    1348:	0f 2e       	mov	r0, r31
    134a:	f9 ec       	ldi	r31, 0xC9	; 201
    134c:	ef 2e       	mov	r14, r31
    134e:	f1 e0       	ldi	r31, 0x01	; 1
    1350:	ff 2e       	mov	r15, r31
    1352:	f0 2d       	mov	r31, r0
    1354:	21 e0       	ldi	r18, 0x01	; 1
    1356:	30 e0       	ldi	r19, 0x00	; 0
    1358:	8d e8       	ldi	r24, 0x8D	; 141
    135a:	96 e0       	ldi	r25, 0x06	; 6
    135c:	0e 94 33 1c 	call	0x3866	; 0x3866 <_ZN4OLED19OLED_Write_To_BuferEiiiiPKh>
    1360:	f0 c0       	rjmp	.+480    	; 0x1542 <_ZN13Settings_Menu7actionsEv+0x6ec>
    1362:	4e 85       	ldd	r20, Y+14	; 0x0e
    1364:	5f 85       	ldd	r21, Y+15	; 0x0f
    1366:	08 e0       	ldi	r16, 0x08	; 8
    1368:	10 e0       	ldi	r17, 0x00	; 0
    136a:	20 e1       	ldi	r18, 0x10	; 16
    136c:	30 e0       	ldi	r19, 0x00	; 0
    136e:	60 e0       	ldi	r22, 0x00	; 0
    1370:	70 e0       	ldi	r23, 0x00	; 0
    1372:	8d e8       	ldi	r24, 0x8D	; 141
    1374:	96 e0       	ldi	r25, 0x06	; 6
    1376:	0e 94 e4 1b 	call	0x37c8	; 0x37c8 <_ZN4OLED21OLED_Clear_Bufer_partEiiii>
    137a:	4e 85       	ldd	r20, Y+14	; 0x0e
    137c:	5f 85       	ldd	r21, Y+15	; 0x0f
    137e:	ec 81       	ldd	r30, Y+4	; 0x04
    1380:	fd 81       	ldd	r31, Y+5	; 0x05
    1382:	33 96       	adiw	r30, 0x03	; 3
    1384:	ee 0f       	add	r30, r30
    1386:	ff 1f       	adc	r31, r31
    1388:	ec 0f       	add	r30, r28
    138a:	fd 1f       	adc	r31, r29
    138c:	60 81       	ld	r22, Z
    138e:	71 81       	ldd	r23, Z+1	; 0x01
    1390:	0f 2e       	mov	r0, r31
    1392:	f9 ee       	ldi	r31, 0xE9	; 233
    1394:	ef 2e       	mov	r14, r31
    1396:	f1 e0       	ldi	r31, 0x01	; 1
    1398:	ff 2e       	mov	r15, r31
    139a:	f0 2d       	mov	r31, r0
    139c:	21 e0       	ldi	r18, 0x01	; 1
    139e:	30 e0       	ldi	r19, 0x00	; 0
    13a0:	8d e8       	ldi	r24, 0x8D	; 141
    13a2:	96 e0       	ldi	r25, 0x06	; 6
    13a4:	0e 94 33 1c 	call	0x3866	; 0x3866 <_ZN4OLED19OLED_Write_To_BuferEiiiiPKh>
    13a8:	4e 85       	ldd	r20, Y+14	; 0x0e
    13aa:	5f 85       	ldd	r21, Y+15	; 0x0f
    13ac:	ec 81       	ldd	r30, Y+4	; 0x04
    13ae:	fd 81       	ldd	r31, Y+5	; 0x05
    13b0:	33 96       	adiw	r30, 0x03	; 3
    13b2:	ee 0f       	add	r30, r30
    13b4:	ff 1f       	adc	r31, r31
    13b6:	ec 0f       	add	r30, r28
    13b8:	fd 1f       	adc	r31, r29
    13ba:	60 81       	ld	r22, Z
    13bc:	71 81       	ldd	r23, Z+1	; 0x01
    13be:	68 5f       	subi	r22, 0xF8	; 248
    13c0:	7f 4f       	sbci	r23, 0xFF	; 255
    13c2:	0f 2e       	mov	r0, r31
    13c4:	f1 ed       	ldi	r31, 0xD1	; 209
    13c6:	ef 2e       	mov	r14, r31
    13c8:	f1 e0       	ldi	r31, 0x01	; 1
    13ca:	ff 2e       	mov	r15, r31
    13cc:	f0 2d       	mov	r31, r0
    13ce:	21 e0       	ldi	r18, 0x01	; 1
    13d0:	30 e0       	ldi	r19, 0x00	; 0
    13d2:	8d e8       	ldi	r24, 0x8D	; 141
    13d4:	96 e0       	ldi	r25, 0x06	; 6
    13d6:	0e 94 33 1c 	call	0x3866	; 0x3866 <_ZN4OLED19OLED_Write_To_BuferEiiiiPKh>
    13da:	4e 85       	ldd	r20, Y+14	; 0x0e
    13dc:	5f 85       	ldd	r21, Y+15	; 0x0f
    13de:	ec 81       	ldd	r30, Y+4	; 0x04
    13e0:	fd 81       	ldd	r31, Y+5	; 0x05
    13e2:	33 96       	adiw	r30, 0x03	; 3
    13e4:	ee 0f       	add	r30, r30
    13e6:	ff 1f       	adc	r31, r31
    13e8:	ec 0f       	add	r30, r28
    13ea:	fd 1f       	adc	r31, r29
    13ec:	60 81       	ld	r22, Z
    13ee:	71 81       	ldd	r23, Z+1	; 0x01
    13f0:	60 5f       	subi	r22, 0xF0	; 240
    13f2:	7f 4f       	sbci	r23, 0xFF	; 255
    13f4:	21 e0       	ldi	r18, 0x01	; 1
    13f6:	30 e0       	ldi	r19, 0x00	; 0
    13f8:	8d e8       	ldi	r24, 0x8D	; 141
    13fa:	96 e0       	ldi	r25, 0x06	; 6
    13fc:	0e 94 33 1c 	call	0x3866	; 0x3866 <_ZN4OLED19OLED_Write_To_BuferEiiiiPKh>
    1400:	4e 85       	ldd	r20, Y+14	; 0x0e
    1402:	5f 85       	ldd	r21, Y+15	; 0x0f
    1404:	ec 81       	ldd	r30, Y+4	; 0x04
    1406:	fd 81       	ldd	r31, Y+5	; 0x05
    1408:	33 96       	adiw	r30, 0x03	; 3
    140a:	ee 0f       	add	r30, r30
    140c:	ff 1f       	adc	r31, r31
    140e:	ec 0f       	add	r30, r28
    1410:	fd 1f       	adc	r31, r29
    1412:	60 81       	ld	r22, Z
    1414:	71 81       	ldd	r23, Z+1	; 0x01
    1416:	60 5e       	subi	r22, 0xE0	; 224
    1418:	7f 4f       	sbci	r23, 0xFF	; 255
    141a:	0f 2e       	mov	r0, r31
    141c:	f9 e7       	ldi	r31, 0x79	; 121
    141e:	ef 2e       	mov	r14, r31
    1420:	f1 e0       	ldi	r31, 0x01	; 1
    1422:	ff 2e       	mov	r15, r31
    1424:	f0 2d       	mov	r31, r0
    1426:	21 e0       	ldi	r18, 0x01	; 1
    1428:	30 e0       	ldi	r19, 0x00	; 0
    142a:	8d e8       	ldi	r24, 0x8D	; 141
    142c:	96 e0       	ldi	r25, 0x06	; 6
    142e:	0e 94 33 1c 	call	0x3866	; 0x3866 <_ZN4OLED19OLED_Write_To_BuferEiiiiPKh>
    1432:	4e 85       	ldd	r20, Y+14	; 0x0e
    1434:	5f 85       	ldd	r21, Y+15	; 0x0f
    1436:	ec 81       	ldd	r30, Y+4	; 0x04
    1438:	fd 81       	ldd	r31, Y+5	; 0x05
    143a:	33 96       	adiw	r30, 0x03	; 3
    143c:	ee 0f       	add	r30, r30
    143e:	ff 1f       	adc	r31, r31
    1440:	ec 0f       	add	r30, r28
    1442:	fd 1f       	adc	r31, r29
    1444:	60 81       	ld	r22, Z
    1446:	71 81       	ldd	r23, Z+1	; 0x01
    1448:	68 5d       	subi	r22, 0xD8	; 216
    144a:	7f 4f       	sbci	r23, 0xFF	; 255
    144c:	0f 2e       	mov	r0, r31
    144e:	f9 e3       	ldi	r31, 0x39	; 57
    1450:	ef 2e       	mov	r14, r31
    1452:	f1 e0       	ldi	r31, 0x01	; 1
    1454:	ff 2e       	mov	r15, r31
    1456:	f0 2d       	mov	r31, r0
    1458:	21 e0       	ldi	r18, 0x01	; 1
    145a:	30 e0       	ldi	r19, 0x00	; 0
    145c:	8d e8       	ldi	r24, 0x8D	; 141
    145e:	96 e0       	ldi	r25, 0x06	; 6
    1460:	0e 94 33 1c 	call	0x3866	; 0x3866 <_ZN4OLED19OLED_Write_To_BuferEiiiiPKh>
    1464:	4e 85       	ldd	r20, Y+14	; 0x0e
    1466:	5f 85       	ldd	r21, Y+15	; 0x0f
    1468:	ec 81       	ldd	r30, Y+4	; 0x04
    146a:	fd 81       	ldd	r31, Y+5	; 0x05
    146c:	33 96       	adiw	r30, 0x03	; 3
    146e:	ee 0f       	add	r30, r30
    1470:	ff 1f       	adc	r31, r31
    1472:	ec 0f       	add	r30, r28
    1474:	fd 1f       	adc	r31, r29
    1476:	60 81       	ld	r22, Z
    1478:	71 81       	ldd	r23, Z+1	; 0x01
    147a:	60 5d       	subi	r22, 0xD0	; 208
    147c:	7f 4f       	sbci	r23, 0xFF	; 255
    147e:	0f 2e       	mov	r0, r31
    1480:	f1 e8       	ldi	r31, 0x81	; 129
    1482:	ef 2e       	mov	r14, r31
    1484:	f1 e0       	ldi	r31, 0x01	; 1
    1486:	ff 2e       	mov	r15, r31
    1488:	f0 2d       	mov	r31, r0
    148a:	21 e0       	ldi	r18, 0x01	; 1
    148c:	30 e0       	ldi	r19, 0x00	; 0
    148e:	8d e8       	ldi	r24, 0x8D	; 141
    1490:	96 e0       	ldi	r25, 0x06	; 6
    1492:	0e 94 33 1c 	call	0x3866	; 0x3866 <_ZN4OLED19OLED_Write_To_BuferEiiiiPKh>
    1496:	4e 85       	ldd	r20, Y+14	; 0x0e
    1498:	5f 85       	ldd	r21, Y+15	; 0x0f
    149a:	ec 81       	ldd	r30, Y+4	; 0x04
    149c:	fd 81       	ldd	r31, Y+5	; 0x05
    149e:	33 96       	adiw	r30, 0x03	; 3
    14a0:	ee 0f       	add	r30, r30
    14a2:	ff 1f       	adc	r31, r31
    14a4:	ec 0f       	add	r30, r28
    14a6:	fd 1f       	adc	r31, r29
    14a8:	60 81       	ld	r22, Z
    14aa:	71 81       	ldd	r23, Z+1	; 0x01
    14ac:	68 5c       	subi	r22, 0xC8	; 200
    14ae:	7f 4f       	sbci	r23, 0xFF	; 255
    14b0:	0f 2e       	mov	r0, r31
    14b2:	f9 ec       	ldi	r31, 0xC9	; 201
    14b4:	ef 2e       	mov	r14, r31
    14b6:	f1 e0       	ldi	r31, 0x01	; 1
    14b8:	ff 2e       	mov	r15, r31
    14ba:	f0 2d       	mov	r31, r0
    14bc:	21 e0       	ldi	r18, 0x01	; 1
    14be:	30 e0       	ldi	r19, 0x00	; 0
    14c0:	8d e8       	ldi	r24, 0x8D	; 141
    14c2:	96 e0       	ldi	r25, 0x06	; 6
    14c4:	0e 94 33 1c 	call	0x3866	; 0x3866 <_ZN4OLED19OLED_Write_To_BuferEiiiiPKh>
    14c8:	4e 85       	ldd	r20, Y+14	; 0x0e
    14ca:	5f 85       	ldd	r21, Y+15	; 0x0f
    14cc:	8c 81       	ldd	r24, Y+4	; 0x04
    14ce:	9d 81       	ldd	r25, Y+5	; 0x05
    14d0:	03 96       	adiw	r24, 0x03	; 3
    14d2:	88 0f       	add	r24, r24
    14d4:	99 1f       	adc	r25, r25
    14d6:	c8 0f       	add	r28, r24
    14d8:	d9 1f       	adc	r29, r25
    14da:	68 81       	ld	r22, Y
    14dc:	79 81       	ldd	r23, Y+1	; 0x01
    14de:	60 5c       	subi	r22, 0xC0	; 192
    14e0:	7f 4f       	sbci	r23, 0xFF	; 255
    14e2:	0f 2e       	mov	r0, r31
    14e4:	f1 e6       	ldi	r31, 0x61	; 97
    14e6:	ef 2e       	mov	r14, r31
    14e8:	f1 e0       	ldi	r31, 0x01	; 1
    14ea:	ff 2e       	mov	r15, r31
    14ec:	f0 2d       	mov	r31, r0
    14ee:	21 e0       	ldi	r18, 0x01	; 1
    14f0:	30 e0       	ldi	r19, 0x00	; 0
    14f2:	8d e8       	ldi	r24, 0x8D	; 141
    14f4:	96 e0       	ldi	r25, 0x06	; 6
    14f6:	0e 94 33 1c 	call	0x3866	; 0x3866 <_ZN4OLED19OLED_Write_To_BuferEiiiiPKh>
    14fa:	23 c0       	rjmp	.+70     	; 0x1542 <_ZN13Settings_Menu7actionsEv+0x6ec>
    14fc:	4e 85       	ldd	r20, Y+14	; 0x0e
    14fe:	5f 85       	ldd	r21, Y+15	; 0x0f
    1500:	08 e0       	ldi	r16, 0x08	; 8
    1502:	10 e0       	ldi	r17, 0x00	; 0
    1504:	20 e1       	ldi	r18, 0x10	; 16
    1506:	30 e0       	ldi	r19, 0x00	; 0
    1508:	60 e0       	ldi	r22, 0x00	; 0
    150a:	70 e0       	ldi	r23, 0x00	; 0
    150c:	8d e8       	ldi	r24, 0x8D	; 141
    150e:	96 e0       	ldi	r25, 0x06	; 6
    1510:	0e 94 e4 1b 	call	0x37c8	; 0x37c8 <_ZN4OLED21OLED_Clear_Bufer_partEiiii>
    1514:	4e 85       	ldd	r20, Y+14	; 0x0e
    1516:	5f 85       	ldd	r21, Y+15	; 0x0f
    1518:	8c 81       	ldd	r24, Y+4	; 0x04
    151a:	9d 81       	ldd	r25, Y+5	; 0x05
    151c:	03 96       	adiw	r24, 0x03	; 3
    151e:	88 0f       	add	r24, r24
    1520:	99 1f       	adc	r25, r25
    1522:	c8 0f       	add	r28, r24
    1524:	d9 1f       	adc	r29, r25
    1526:	68 81       	ld	r22, Y
    1528:	79 81       	ldd	r23, Y+1	; 0x01
    152a:	0f 2e       	mov	r0, r31
    152c:	f1 e0       	ldi	r31, 0x01	; 1
    152e:	ef 2e       	mov	r14, r31
    1530:	f1 e0       	ldi	r31, 0x01	; 1
    1532:	ff 2e       	mov	r15, r31
    1534:	f0 2d       	mov	r31, r0
    1536:	22 e0       	ldi	r18, 0x02	; 2
    1538:	30 e0       	ldi	r19, 0x00	; 0
    153a:	8d e8       	ldi	r24, 0x8D	; 141
    153c:	96 e0       	ldi	r25, 0x06	; 6
    153e:	0e 94 33 1c 	call	0x3866	; 0x3866 <_ZN4OLED19OLED_Write_To_BuferEiiiiPKh>
    1542:	df 91       	pop	r29
    1544:	cf 91       	pop	r28
    1546:	1f 91       	pop	r17
    1548:	0f 91       	pop	r16
    154a:	ff 90       	pop	r15
    154c:	ef 90       	pop	r14
    154e:	08 95       	ret

00001550 <_ZN13Settings_Menu7DefaultEv>:
    1550:	ef 92       	push	r14
    1552:	ff 92       	push	r15
    1554:	0f 93       	push	r16
    1556:	1f 93       	push	r17
    1558:	cf 93       	push	r28
    155a:	df 93       	push	r29
    155c:	ec 01       	movw	r28, r24
    155e:	4e 85       	ldd	r20, Y+14	; 0x0e
    1560:	5f 85       	ldd	r21, Y+15	; 0x0f
    1562:	4e 5f       	subi	r20, 0xFE	; 254
    1564:	5f 4f       	sbci	r21, 0xFF	; 255
    1566:	0f 2e       	mov	r0, r31
    1568:	f1 ea       	ldi	r31, 0xA1	; 161
    156a:	ef 2e       	mov	r14, r31
    156c:	f2 e0       	ldi	r31, 0x02	; 2
    156e:	ff 2e       	mov	r15, r31
    1570:	f0 2d       	mov	r31, r0
    1572:	08 e0       	ldi	r16, 0x08	; 8
    1574:	10 e0       	ldi	r17, 0x00	; 0
    1576:	22 e0       	ldi	r18, 0x02	; 2
    1578:	30 e0       	ldi	r19, 0x00	; 0
    157a:	68 e3       	ldi	r22, 0x38	; 56
    157c:	70 e0       	ldi	r23, 0x00	; 0
    157e:	8d e8       	ldi	r24, 0x8D	; 141
    1580:	96 e0       	ldi	r25, 0x06	; 6
    1582:	0e 94 33 1c 	call	0x3866	; 0x3866 <_ZN4OLED19OLED_Write_To_BuferEiiiiPKh>
    1586:	4e 85       	ldd	r20, Y+14	; 0x0e
    1588:	5f 85       	ldd	r21, Y+15	; 0x0f
    158a:	42 50       	subi	r20, 0x02	; 2
    158c:	51 09       	sbc	r21, r1
    158e:	0f 2e       	mov	r0, r31
    1590:	f1 eb       	ldi	r31, 0xB1	; 177
    1592:	ef 2e       	mov	r14, r31
    1594:	f2 e0       	ldi	r31, 0x02	; 2
    1596:	ff 2e       	mov	r15, r31
    1598:	f0 2d       	mov	r31, r0
    159a:	22 e0       	ldi	r18, 0x02	; 2
    159c:	30 e0       	ldi	r19, 0x00	; 0
    159e:	68 e3       	ldi	r22, 0x38	; 56
    15a0:	70 e0       	ldi	r23, 0x00	; 0
    15a2:	8d e8       	ldi	r24, 0x8D	; 141
    15a4:	96 e0       	ldi	r25, 0x06	; 6
    15a6:	0e 94 33 1c 	call	0x3866	; 0x3866 <_ZN4OLED19OLED_Write_To_BuferEiiiiPKh>
    15aa:	df 91       	pop	r29
    15ac:	cf 91       	pop	r28
    15ae:	1f 91       	pop	r17
    15b0:	0f 91       	pop	r16
    15b2:	ff 90       	pop	r15
    15b4:	ef 90       	pop	r14
    15b6:	08 95       	ret

000015b8 <_ZN13Password_Menu7actionsEv>:
    15b8:	ef 92       	push	r14
    15ba:	ff 92       	push	r15
    15bc:	0f 93       	push	r16
    15be:	1f 93       	push	r17
    15c0:	cf 93       	push	r28
    15c2:	df 93       	push	r29
    15c4:	ec 01       	movw	r28, r24
    15c6:	90 91 8c 06 	lds	r25, 0x068C	; 0x80068c <Password_Menu_Status>
    15ca:	99 23       	and	r25, r25
    15cc:	09 f4       	brne	.+2      	; 0x15d0 <_ZN13Password_Menu7actionsEv+0x18>
    15ce:	08 c4       	rjmp	.+2064   	; 0x1de0 <_ZN13Password_Menu7actionsEv+0x828>
    15d0:	ee 81       	ldd	r30, Y+6	; 0x06
    15d2:	ff 81       	ldd	r31, Y+7	; 0x07
    15d4:	eb 30       	cpi	r30, 0x0B	; 11
    15d6:	f1 05       	cpc	r31, r1
    15d8:	08 f0       	brcs	.+2      	; 0x15dc <_ZN13Password_Menu7actionsEv+0x24>
    15da:	02 c4       	rjmp	.+2052   	; 0x1de0 <_ZN13Password_Menu7actionsEv+0x828>
    15dc:	ef 5a       	subi	r30, 0xAF	; 175
    15de:	ff 4f       	sbci	r31, 0xFF	; 255
    15e0:	0c 94 fb 1c 	jmp	0x39f6	; 0x39f6 <__tablejump2__>
    15e4:	4a 89       	ldd	r20, Y+18	; 0x12
    15e6:	5b 89       	ldd	r21, Y+19	; 0x13
    15e8:	ec 81       	ldd	r30, Y+4	; 0x04
    15ea:	fd 81       	ldd	r31, Y+5	; 0x05
    15ec:	34 96       	adiw	r30, 0x04	; 4
    15ee:	ee 0f       	add	r30, r30
    15f0:	ff 1f       	adc	r31, r31
    15f2:	ec 0f       	add	r30, r28
    15f4:	fd 1f       	adc	r31, r29
    15f6:	60 81       	ld	r22, Z
    15f8:	71 81       	ldd	r23, Z+1	; 0x01
    15fa:	08 e0       	ldi	r16, 0x08	; 8
    15fc:	10 e0       	ldi	r17, 0x00	; 0
    15fe:	21 e0       	ldi	r18, 0x01	; 1
    1600:	30 e0       	ldi	r19, 0x00	; 0
    1602:	8d e8       	ldi	r24, 0x8D	; 141
    1604:	96 e0       	ldi	r25, 0x06	; 6
    1606:	0e 94 e4 1b 	call	0x37c8	; 0x37c8 <_ZN4OLED21OLED_Clear_Bufer_partEiiii>
    160a:	4a 89       	ldd	r20, Y+18	; 0x12
    160c:	5b 89       	ldd	r21, Y+19	; 0x13
    160e:	ec 81       	ldd	r30, Y+4	; 0x04
    1610:	fd 81       	ldd	r31, Y+5	; 0x05
    1612:	34 96       	adiw	r30, 0x04	; 4
    1614:	ee 0f       	add	r30, r30
    1616:	ff 1f       	adc	r31, r31
    1618:	ec 0f       	add	r30, r28
    161a:	fd 1f       	adc	r31, r29
    161c:	60 81       	ld	r22, Z
    161e:	71 81       	ldd	r23, Z+1	; 0x01
    1620:	0f 2e       	mov	r0, r31
    1622:	f9 e6       	ldi	r31, 0x69	; 105
    1624:	ef 2e       	mov	r14, r31
    1626:	f5 e0       	ldi	r31, 0x05	; 5
    1628:	ff 2e       	mov	r15, r31
    162a:	f0 2d       	mov	r31, r0
    162c:	21 e0       	ldi	r18, 0x01	; 1
    162e:	30 e0       	ldi	r19, 0x00	; 0
    1630:	8d e8       	ldi	r24, 0x8D	; 141
    1632:	96 e0       	ldi	r25, 0x06	; 6
    1634:	0e 94 33 1c 	call	0x3866	; 0x3866 <_ZN4OLED19OLED_Write_To_BuferEiiiiPKh>
    1638:	4a 89       	ldd	r20, Y+18	; 0x12
    163a:	5b 89       	ldd	r21, Y+19	; 0x13
    163c:	4e 5f       	subi	r20, 0xFE	; 254
    163e:	5f 4f       	sbci	r21, 0xFF	; 255
    1640:	ec 81       	ldd	r30, Y+4	; 0x04
    1642:	fd 81       	ldd	r31, Y+5	; 0x05
    1644:	34 96       	adiw	r30, 0x04	; 4
    1646:	ee 0f       	add	r30, r30
    1648:	ff 1f       	adc	r31, r31
    164a:	ec 0f       	add	r30, r28
    164c:	fd 1f       	adc	r31, r29
    164e:	60 81       	ld	r22, Z
    1650:	71 81       	ldd	r23, Z+1	; 0x01
    1652:	0f 2e       	mov	r0, r31
    1654:	f1 e0       	ldi	r31, 0x01	; 1
    1656:	ef 2e       	mov	r14, r31
    1658:	f5 e0       	ldi	r31, 0x05	; 5
    165a:	ff 2e       	mov	r15, r31
    165c:	f0 2d       	mov	r31, r0
    165e:	21 e0       	ldi	r18, 0x01	; 1
    1660:	30 e0       	ldi	r19, 0x00	; 0
    1662:	8d e8       	ldi	r24, 0x8D	; 141
    1664:	96 e0       	ldi	r25, 0x06	; 6
    1666:	0e 94 33 1c 	call	0x3866	; 0x3866 <_ZN4OLED19OLED_Write_To_BuferEiiiiPKh>
    166a:	4a 89       	ldd	r20, Y+18	; 0x12
    166c:	5b 89       	ldd	r21, Y+19	; 0x13
    166e:	41 50       	subi	r20, 0x01	; 1
    1670:	51 09       	sbc	r21, r1
    1672:	8c 81       	ldd	r24, Y+4	; 0x04
    1674:	9d 81       	ldd	r25, Y+5	; 0x05
    1676:	04 96       	adiw	r24, 0x04	; 4
    1678:	88 0f       	add	r24, r24
    167a:	99 1f       	adc	r25, r25
    167c:	c8 0f       	add	r28, r24
    167e:	d9 1f       	adc	r29, r25
    1680:	68 81       	ld	r22, Y
    1682:	79 81       	ldd	r23, Y+1	; 0x01
    1684:	0f 2e       	mov	r0, r31
    1686:	f9 e0       	ldi	r31, 0x09	; 9
    1688:	ef 2e       	mov	r14, r31
    168a:	f5 e0       	ldi	r31, 0x05	; 5
    168c:	ff 2e       	mov	r15, r31
    168e:	f0 2d       	mov	r31, r0
    1690:	21 e0       	ldi	r18, 0x01	; 1
    1692:	30 e0       	ldi	r19, 0x00	; 0
    1694:	8d e8       	ldi	r24, 0x8D	; 141
    1696:	96 e0       	ldi	r25, 0x06	; 6
    1698:	0e 94 33 1c 	call	0x3866	; 0x3866 <_ZN4OLED19OLED_Write_To_BuferEiiiiPKh>
    169c:	a1 c3       	rjmp	.+1858   	; 0x1de0 <_ZN13Password_Menu7actionsEv+0x828>
    169e:	4a 89       	ldd	r20, Y+18	; 0x12
    16a0:	5b 89       	ldd	r21, Y+19	; 0x13
    16a2:	ec 81       	ldd	r30, Y+4	; 0x04
    16a4:	fd 81       	ldd	r31, Y+5	; 0x05
    16a6:	34 96       	adiw	r30, 0x04	; 4
    16a8:	ee 0f       	add	r30, r30
    16aa:	ff 1f       	adc	r31, r31
    16ac:	ec 0f       	add	r30, r28
    16ae:	fd 1f       	adc	r31, r29
    16b0:	60 81       	ld	r22, Z
    16b2:	71 81       	ldd	r23, Z+1	; 0x01
    16b4:	08 e0       	ldi	r16, 0x08	; 8
    16b6:	10 e0       	ldi	r17, 0x00	; 0
    16b8:	21 e0       	ldi	r18, 0x01	; 1
    16ba:	30 e0       	ldi	r19, 0x00	; 0
    16bc:	8d e8       	ldi	r24, 0x8D	; 141
    16be:	96 e0       	ldi	r25, 0x06	; 6
    16c0:	0e 94 e4 1b 	call	0x37c8	; 0x37c8 <_ZN4OLED21OLED_Clear_Bufer_partEiiii>
    16c4:	4a 89       	ldd	r20, Y+18	; 0x12
    16c6:	5b 89       	ldd	r21, Y+19	; 0x13
    16c8:	ec 81       	ldd	r30, Y+4	; 0x04
    16ca:	fd 81       	ldd	r31, Y+5	; 0x05
    16cc:	34 96       	adiw	r30, 0x04	; 4
    16ce:	ee 0f       	add	r30, r30
    16d0:	ff 1f       	adc	r31, r31
    16d2:	ec 0f       	add	r30, r28
    16d4:	fd 1f       	adc	r31, r29
    16d6:	60 81       	ld	r22, Z
    16d8:	71 81       	ldd	r23, Z+1	; 0x01
    16da:	0f 2e       	mov	r0, r31
    16dc:	f1 e6       	ldi	r31, 0x61	; 97
    16de:	ef 2e       	mov	r14, r31
    16e0:	f5 e0       	ldi	r31, 0x05	; 5
    16e2:	ff 2e       	mov	r15, r31
    16e4:	f0 2d       	mov	r31, r0
    16e6:	21 e0       	ldi	r18, 0x01	; 1
    16e8:	30 e0       	ldi	r19, 0x00	; 0
    16ea:	8d e8       	ldi	r24, 0x8D	; 141
    16ec:	96 e0       	ldi	r25, 0x06	; 6
    16ee:	0e 94 33 1c 	call	0x3866	; 0x3866 <_ZN4OLED19OLED_Write_To_BuferEiiiiPKh>
    16f2:	4a 89       	ldd	r20, Y+18	; 0x12
    16f4:	5b 89       	ldd	r21, Y+19	; 0x13
    16f6:	4e 5f       	subi	r20, 0xFE	; 254
    16f8:	5f 4f       	sbci	r21, 0xFF	; 255
    16fa:	ec 81       	ldd	r30, Y+4	; 0x04
    16fc:	fd 81       	ldd	r31, Y+5	; 0x05
    16fe:	34 96       	adiw	r30, 0x04	; 4
    1700:	ee 0f       	add	r30, r30
    1702:	ff 1f       	adc	r31, r31
    1704:	ec 0f       	add	r30, r28
    1706:	fd 1f       	adc	r31, r29
    1708:	60 81       	ld	r22, Z
    170a:	71 81       	ldd	r23, Z+1	; 0x01
    170c:	0f 2e       	mov	r0, r31
    170e:	f1 e0       	ldi	r31, 0x01	; 1
    1710:	ef 2e       	mov	r14, r31
    1712:	f5 e0       	ldi	r31, 0x05	; 5
    1714:	ff 2e       	mov	r15, r31
    1716:	f0 2d       	mov	r31, r0
    1718:	21 e0       	ldi	r18, 0x01	; 1
    171a:	30 e0       	ldi	r19, 0x00	; 0
    171c:	8d e8       	ldi	r24, 0x8D	; 141
    171e:	96 e0       	ldi	r25, 0x06	; 6
    1720:	0e 94 33 1c 	call	0x3866	; 0x3866 <_ZN4OLED19OLED_Write_To_BuferEiiiiPKh>
    1724:	4a 89       	ldd	r20, Y+18	; 0x12
    1726:	5b 89       	ldd	r21, Y+19	; 0x13
    1728:	41 50       	subi	r20, 0x01	; 1
    172a:	51 09       	sbc	r21, r1
    172c:	8c 81       	ldd	r24, Y+4	; 0x04
    172e:	9d 81       	ldd	r25, Y+5	; 0x05
    1730:	04 96       	adiw	r24, 0x04	; 4
    1732:	88 0f       	add	r24, r24
    1734:	99 1f       	adc	r25, r25
    1736:	c8 0f       	add	r28, r24
    1738:	d9 1f       	adc	r29, r25
    173a:	68 81       	ld	r22, Y
    173c:	79 81       	ldd	r23, Y+1	; 0x01
    173e:	0f 2e       	mov	r0, r31
    1740:	f9 e0       	ldi	r31, 0x09	; 9
    1742:	ef 2e       	mov	r14, r31
    1744:	f5 e0       	ldi	r31, 0x05	; 5
    1746:	ff 2e       	mov	r15, r31
    1748:	f0 2d       	mov	r31, r0
    174a:	21 e0       	ldi	r18, 0x01	; 1
    174c:	30 e0       	ldi	r19, 0x00	; 0
    174e:	8d e8       	ldi	r24, 0x8D	; 141
    1750:	96 e0       	ldi	r25, 0x06	; 6
    1752:	0e 94 33 1c 	call	0x3866	; 0x3866 <_ZN4OLED19OLED_Write_To_BuferEiiiiPKh>
    1756:	44 c3       	rjmp	.+1672   	; 0x1de0 <_ZN13Password_Menu7actionsEv+0x828>
    1758:	4a 89       	ldd	r20, Y+18	; 0x12
    175a:	5b 89       	ldd	r21, Y+19	; 0x13
    175c:	ec 81       	ldd	r30, Y+4	; 0x04
    175e:	fd 81       	ldd	r31, Y+5	; 0x05
    1760:	34 96       	adiw	r30, 0x04	; 4
    1762:	ee 0f       	add	r30, r30
    1764:	ff 1f       	adc	r31, r31
    1766:	ec 0f       	add	r30, r28
    1768:	fd 1f       	adc	r31, r29
    176a:	60 81       	ld	r22, Z
    176c:	71 81       	ldd	r23, Z+1	; 0x01
    176e:	08 e0       	ldi	r16, 0x08	; 8
    1770:	10 e0       	ldi	r17, 0x00	; 0
    1772:	21 e0       	ldi	r18, 0x01	; 1
    1774:	30 e0       	ldi	r19, 0x00	; 0
    1776:	8d e8       	ldi	r24, 0x8D	; 141
    1778:	96 e0       	ldi	r25, 0x06	; 6
    177a:	0e 94 e4 1b 	call	0x37c8	; 0x37c8 <_ZN4OLED21OLED_Clear_Bufer_partEiiii>
    177e:	4a 89       	ldd	r20, Y+18	; 0x12
    1780:	5b 89       	ldd	r21, Y+19	; 0x13
    1782:	ec 81       	ldd	r30, Y+4	; 0x04
    1784:	fd 81       	ldd	r31, Y+5	; 0x05
    1786:	34 96       	adiw	r30, 0x04	; 4
    1788:	ee 0f       	add	r30, r30
    178a:	ff 1f       	adc	r31, r31
    178c:	ec 0f       	add	r30, r28
    178e:	fd 1f       	adc	r31, r29
    1790:	60 81       	ld	r22, Z
    1792:	71 81       	ldd	r23, Z+1	; 0x01
    1794:	0f 2e       	mov	r0, r31
    1796:	f9 e5       	ldi	r31, 0x59	; 89
    1798:	ef 2e       	mov	r14, r31
    179a:	f5 e0       	ldi	r31, 0x05	; 5
    179c:	ff 2e       	mov	r15, r31
    179e:	f0 2d       	mov	r31, r0
    17a0:	21 e0       	ldi	r18, 0x01	; 1
    17a2:	30 e0       	ldi	r19, 0x00	; 0
    17a4:	8d e8       	ldi	r24, 0x8D	; 141
    17a6:	96 e0       	ldi	r25, 0x06	; 6
    17a8:	0e 94 33 1c 	call	0x3866	; 0x3866 <_ZN4OLED19OLED_Write_To_BuferEiiiiPKh>
    17ac:	4a 89       	ldd	r20, Y+18	; 0x12
    17ae:	5b 89       	ldd	r21, Y+19	; 0x13
    17b0:	4e 5f       	subi	r20, 0xFE	; 254
    17b2:	5f 4f       	sbci	r21, 0xFF	; 255
    17b4:	ec 81       	ldd	r30, Y+4	; 0x04
    17b6:	fd 81       	ldd	r31, Y+5	; 0x05
    17b8:	34 96       	adiw	r30, 0x04	; 4
    17ba:	ee 0f       	add	r30, r30
    17bc:	ff 1f       	adc	r31, r31
    17be:	ec 0f       	add	r30, r28
    17c0:	fd 1f       	adc	r31, r29
    17c2:	60 81       	ld	r22, Z
    17c4:	71 81       	ldd	r23, Z+1	; 0x01
    17c6:	0f 2e       	mov	r0, r31
    17c8:	f1 e0       	ldi	r31, 0x01	; 1
    17ca:	ef 2e       	mov	r14, r31
    17cc:	f5 e0       	ldi	r31, 0x05	; 5
    17ce:	ff 2e       	mov	r15, r31
    17d0:	f0 2d       	mov	r31, r0
    17d2:	21 e0       	ldi	r18, 0x01	; 1
    17d4:	30 e0       	ldi	r19, 0x00	; 0
    17d6:	8d e8       	ldi	r24, 0x8D	; 141
    17d8:	96 e0       	ldi	r25, 0x06	; 6
    17da:	0e 94 33 1c 	call	0x3866	; 0x3866 <_ZN4OLED19OLED_Write_To_BuferEiiiiPKh>
    17de:	4a 89       	ldd	r20, Y+18	; 0x12
    17e0:	5b 89       	ldd	r21, Y+19	; 0x13
    17e2:	41 50       	subi	r20, 0x01	; 1
    17e4:	51 09       	sbc	r21, r1
    17e6:	8c 81       	ldd	r24, Y+4	; 0x04
    17e8:	9d 81       	ldd	r25, Y+5	; 0x05
    17ea:	04 96       	adiw	r24, 0x04	; 4
    17ec:	88 0f       	add	r24, r24
    17ee:	99 1f       	adc	r25, r25
    17f0:	c8 0f       	add	r28, r24
    17f2:	d9 1f       	adc	r29, r25
    17f4:	68 81       	ld	r22, Y
    17f6:	79 81       	ldd	r23, Y+1	; 0x01
    17f8:	0f 2e       	mov	r0, r31
    17fa:	f9 e0       	ldi	r31, 0x09	; 9
    17fc:	ef 2e       	mov	r14, r31
    17fe:	f5 e0       	ldi	r31, 0x05	; 5
    1800:	ff 2e       	mov	r15, r31
    1802:	f0 2d       	mov	r31, r0
    1804:	21 e0       	ldi	r18, 0x01	; 1
    1806:	30 e0       	ldi	r19, 0x00	; 0
    1808:	8d e8       	ldi	r24, 0x8D	; 141
    180a:	96 e0       	ldi	r25, 0x06	; 6
    180c:	0e 94 33 1c 	call	0x3866	; 0x3866 <_ZN4OLED19OLED_Write_To_BuferEiiiiPKh>
    1810:	e7 c2       	rjmp	.+1486   	; 0x1de0 <_ZN13Password_Menu7actionsEv+0x828>
    1812:	4a 89       	ldd	r20, Y+18	; 0x12
    1814:	5b 89       	ldd	r21, Y+19	; 0x13
    1816:	ec 81       	ldd	r30, Y+4	; 0x04
    1818:	fd 81       	ldd	r31, Y+5	; 0x05
    181a:	34 96       	adiw	r30, 0x04	; 4
    181c:	ee 0f       	add	r30, r30
    181e:	ff 1f       	adc	r31, r31
    1820:	ec 0f       	add	r30, r28
    1822:	fd 1f       	adc	r31, r29
    1824:	60 81       	ld	r22, Z
    1826:	71 81       	ldd	r23, Z+1	; 0x01
    1828:	08 e0       	ldi	r16, 0x08	; 8
    182a:	10 e0       	ldi	r17, 0x00	; 0
    182c:	21 e0       	ldi	r18, 0x01	; 1
    182e:	30 e0       	ldi	r19, 0x00	; 0
    1830:	8d e8       	ldi	r24, 0x8D	; 141
    1832:	96 e0       	ldi	r25, 0x06	; 6
    1834:	0e 94 e4 1b 	call	0x37c8	; 0x37c8 <_ZN4OLED21OLED_Clear_Bufer_partEiiii>
    1838:	4a 89       	ldd	r20, Y+18	; 0x12
    183a:	5b 89       	ldd	r21, Y+19	; 0x13
    183c:	ec 81       	ldd	r30, Y+4	; 0x04
    183e:	fd 81       	ldd	r31, Y+5	; 0x05
    1840:	34 96       	adiw	r30, 0x04	; 4
    1842:	ee 0f       	add	r30, r30
    1844:	ff 1f       	adc	r31, r31
    1846:	ec 0f       	add	r30, r28
    1848:	fd 1f       	adc	r31, r29
    184a:	60 81       	ld	r22, Z
    184c:	71 81       	ldd	r23, Z+1	; 0x01
    184e:	0f 2e       	mov	r0, r31
    1850:	f1 e5       	ldi	r31, 0x51	; 81
    1852:	ef 2e       	mov	r14, r31
    1854:	f5 e0       	ldi	r31, 0x05	; 5
    1856:	ff 2e       	mov	r15, r31
    1858:	f0 2d       	mov	r31, r0
    185a:	21 e0       	ldi	r18, 0x01	; 1
    185c:	30 e0       	ldi	r19, 0x00	; 0
    185e:	8d e8       	ldi	r24, 0x8D	; 141
    1860:	96 e0       	ldi	r25, 0x06	; 6
    1862:	0e 94 33 1c 	call	0x3866	; 0x3866 <_ZN4OLED19OLED_Write_To_BuferEiiiiPKh>
    1866:	4a 89       	ldd	r20, Y+18	; 0x12
    1868:	5b 89       	ldd	r21, Y+19	; 0x13
    186a:	4e 5f       	subi	r20, 0xFE	; 254
    186c:	5f 4f       	sbci	r21, 0xFF	; 255
    186e:	ec 81       	ldd	r30, Y+4	; 0x04
    1870:	fd 81       	ldd	r31, Y+5	; 0x05
    1872:	34 96       	adiw	r30, 0x04	; 4
    1874:	ee 0f       	add	r30, r30
    1876:	ff 1f       	adc	r31, r31
    1878:	ec 0f       	add	r30, r28
    187a:	fd 1f       	adc	r31, r29
    187c:	60 81       	ld	r22, Z
    187e:	71 81       	ldd	r23, Z+1	; 0x01
    1880:	0f 2e       	mov	r0, r31
    1882:	f1 e0       	ldi	r31, 0x01	; 1
    1884:	ef 2e       	mov	r14, r31
    1886:	f5 e0       	ldi	r31, 0x05	; 5
    1888:	ff 2e       	mov	r15, r31
    188a:	f0 2d       	mov	r31, r0
    188c:	21 e0       	ldi	r18, 0x01	; 1
    188e:	30 e0       	ldi	r19, 0x00	; 0
    1890:	8d e8       	ldi	r24, 0x8D	; 141
    1892:	96 e0       	ldi	r25, 0x06	; 6
    1894:	0e 94 33 1c 	call	0x3866	; 0x3866 <_ZN4OLED19OLED_Write_To_BuferEiiiiPKh>
    1898:	4a 89       	ldd	r20, Y+18	; 0x12
    189a:	5b 89       	ldd	r21, Y+19	; 0x13
    189c:	41 50       	subi	r20, 0x01	; 1
    189e:	51 09       	sbc	r21, r1
    18a0:	8c 81       	ldd	r24, Y+4	; 0x04
    18a2:	9d 81       	ldd	r25, Y+5	; 0x05
    18a4:	04 96       	adiw	r24, 0x04	; 4
    18a6:	88 0f       	add	r24, r24
    18a8:	99 1f       	adc	r25, r25
    18aa:	c8 0f       	add	r28, r24
    18ac:	d9 1f       	adc	r29, r25
    18ae:	68 81       	ld	r22, Y
    18b0:	79 81       	ldd	r23, Y+1	; 0x01
    18b2:	0f 2e       	mov	r0, r31
    18b4:	f9 e0       	ldi	r31, 0x09	; 9
    18b6:	ef 2e       	mov	r14, r31
    18b8:	f5 e0       	ldi	r31, 0x05	; 5
    18ba:	ff 2e       	mov	r15, r31
    18bc:	f0 2d       	mov	r31, r0
    18be:	21 e0       	ldi	r18, 0x01	; 1
    18c0:	30 e0       	ldi	r19, 0x00	; 0
    18c2:	8d e8       	ldi	r24, 0x8D	; 141
    18c4:	96 e0       	ldi	r25, 0x06	; 6
    18c6:	0e 94 33 1c 	call	0x3866	; 0x3866 <_ZN4OLED19OLED_Write_To_BuferEiiiiPKh>
    18ca:	8a c2       	rjmp	.+1300   	; 0x1de0 <_ZN13Password_Menu7actionsEv+0x828>
    18cc:	4a 89       	ldd	r20, Y+18	; 0x12
    18ce:	5b 89       	ldd	r21, Y+19	; 0x13
    18d0:	ec 81       	ldd	r30, Y+4	; 0x04
    18d2:	fd 81       	ldd	r31, Y+5	; 0x05
    18d4:	34 96       	adiw	r30, 0x04	; 4
    18d6:	ee 0f       	add	r30, r30
    18d8:	ff 1f       	adc	r31, r31
    18da:	ec 0f       	add	r30, r28
    18dc:	fd 1f       	adc	r31, r29
    18de:	60 81       	ld	r22, Z
    18e0:	71 81       	ldd	r23, Z+1	; 0x01
    18e2:	08 e0       	ldi	r16, 0x08	; 8
    18e4:	10 e0       	ldi	r17, 0x00	; 0
    18e6:	21 e0       	ldi	r18, 0x01	; 1
    18e8:	30 e0       	ldi	r19, 0x00	; 0
    18ea:	8d e8       	ldi	r24, 0x8D	; 141
    18ec:	96 e0       	ldi	r25, 0x06	; 6
    18ee:	0e 94 e4 1b 	call	0x37c8	; 0x37c8 <_ZN4OLED21OLED_Clear_Bufer_partEiiii>
    18f2:	4a 89       	ldd	r20, Y+18	; 0x12
    18f4:	5b 89       	ldd	r21, Y+19	; 0x13
    18f6:	ec 81       	ldd	r30, Y+4	; 0x04
    18f8:	fd 81       	ldd	r31, Y+5	; 0x05
    18fa:	34 96       	adiw	r30, 0x04	; 4
    18fc:	ee 0f       	add	r30, r30
    18fe:	ff 1f       	adc	r31, r31
    1900:	ec 0f       	add	r30, r28
    1902:	fd 1f       	adc	r31, r29
    1904:	60 81       	ld	r22, Z
    1906:	71 81       	ldd	r23, Z+1	; 0x01
    1908:	0f 2e       	mov	r0, r31
    190a:	f9 e4       	ldi	r31, 0x49	; 73
    190c:	ef 2e       	mov	r14, r31
    190e:	f5 e0       	ldi	r31, 0x05	; 5
    1910:	ff 2e       	mov	r15, r31
    1912:	f0 2d       	mov	r31, r0
    1914:	21 e0       	ldi	r18, 0x01	; 1
    1916:	30 e0       	ldi	r19, 0x00	; 0
    1918:	8d e8       	ldi	r24, 0x8D	; 141
    191a:	96 e0       	ldi	r25, 0x06	; 6
    191c:	0e 94 33 1c 	call	0x3866	; 0x3866 <_ZN4OLED19OLED_Write_To_BuferEiiiiPKh>
    1920:	4a 89       	ldd	r20, Y+18	; 0x12
    1922:	5b 89       	ldd	r21, Y+19	; 0x13
    1924:	4e 5f       	subi	r20, 0xFE	; 254
    1926:	5f 4f       	sbci	r21, 0xFF	; 255
    1928:	ec 81       	ldd	r30, Y+4	; 0x04
    192a:	fd 81       	ldd	r31, Y+5	; 0x05
    192c:	34 96       	adiw	r30, 0x04	; 4
    192e:	ee 0f       	add	r30, r30
    1930:	ff 1f       	adc	r31, r31
    1932:	ec 0f       	add	r30, r28
    1934:	fd 1f       	adc	r31, r29
    1936:	60 81       	ld	r22, Z
    1938:	71 81       	ldd	r23, Z+1	; 0x01
    193a:	0f 2e       	mov	r0, r31
    193c:	f1 e0       	ldi	r31, 0x01	; 1
    193e:	ef 2e       	mov	r14, r31
    1940:	f5 e0       	ldi	r31, 0x05	; 5
    1942:	ff 2e       	mov	r15, r31
    1944:	f0 2d       	mov	r31, r0
    1946:	21 e0       	ldi	r18, 0x01	; 1
    1948:	30 e0       	ldi	r19, 0x00	; 0
    194a:	8d e8       	ldi	r24, 0x8D	; 141
    194c:	96 e0       	ldi	r25, 0x06	; 6
    194e:	0e 94 33 1c 	call	0x3866	; 0x3866 <_ZN4OLED19OLED_Write_To_BuferEiiiiPKh>
    1952:	4a 89       	ldd	r20, Y+18	; 0x12
    1954:	5b 89       	ldd	r21, Y+19	; 0x13
    1956:	41 50       	subi	r20, 0x01	; 1
    1958:	51 09       	sbc	r21, r1
    195a:	8c 81       	ldd	r24, Y+4	; 0x04
    195c:	9d 81       	ldd	r25, Y+5	; 0x05
    195e:	04 96       	adiw	r24, 0x04	; 4
    1960:	88 0f       	add	r24, r24
    1962:	99 1f       	adc	r25, r25
    1964:	c8 0f       	add	r28, r24
    1966:	d9 1f       	adc	r29, r25
    1968:	68 81       	ld	r22, Y
    196a:	79 81       	ldd	r23, Y+1	; 0x01
    196c:	0f 2e       	mov	r0, r31
    196e:	f9 e0       	ldi	r31, 0x09	; 9
    1970:	ef 2e       	mov	r14, r31
    1972:	f5 e0       	ldi	r31, 0x05	; 5
    1974:	ff 2e       	mov	r15, r31
    1976:	f0 2d       	mov	r31, r0
    1978:	21 e0       	ldi	r18, 0x01	; 1
    197a:	30 e0       	ldi	r19, 0x00	; 0
    197c:	8d e8       	ldi	r24, 0x8D	; 141
    197e:	96 e0       	ldi	r25, 0x06	; 6
    1980:	0e 94 33 1c 	call	0x3866	; 0x3866 <_ZN4OLED19OLED_Write_To_BuferEiiiiPKh>
    1984:	2d c2       	rjmp	.+1114   	; 0x1de0 <_ZN13Password_Menu7actionsEv+0x828>
    1986:	4a 89       	ldd	r20, Y+18	; 0x12
    1988:	5b 89       	ldd	r21, Y+19	; 0x13
    198a:	ec 81       	ldd	r30, Y+4	; 0x04
    198c:	fd 81       	ldd	r31, Y+5	; 0x05
    198e:	34 96       	adiw	r30, 0x04	; 4
    1990:	ee 0f       	add	r30, r30
    1992:	ff 1f       	adc	r31, r31
    1994:	ec 0f       	add	r30, r28
    1996:	fd 1f       	adc	r31, r29
    1998:	60 81       	ld	r22, Z
    199a:	71 81       	ldd	r23, Z+1	; 0x01
    199c:	08 e0       	ldi	r16, 0x08	; 8
    199e:	10 e0       	ldi	r17, 0x00	; 0
    19a0:	21 e0       	ldi	r18, 0x01	; 1
    19a2:	30 e0       	ldi	r19, 0x00	; 0
    19a4:	8d e8       	ldi	r24, 0x8D	; 141
    19a6:	96 e0       	ldi	r25, 0x06	; 6
    19a8:	0e 94 e4 1b 	call	0x37c8	; 0x37c8 <_ZN4OLED21OLED_Clear_Bufer_partEiiii>
    19ac:	4a 89       	ldd	r20, Y+18	; 0x12
    19ae:	5b 89       	ldd	r21, Y+19	; 0x13
    19b0:	ec 81       	ldd	r30, Y+4	; 0x04
    19b2:	fd 81       	ldd	r31, Y+5	; 0x05
    19b4:	34 96       	adiw	r30, 0x04	; 4
    19b6:	ee 0f       	add	r30, r30
    19b8:	ff 1f       	adc	r31, r31
    19ba:	ec 0f       	add	r30, r28
    19bc:	fd 1f       	adc	r31, r29
    19be:	60 81       	ld	r22, Z
    19c0:	71 81       	ldd	r23, Z+1	; 0x01
    19c2:	0f 2e       	mov	r0, r31
    19c4:	f1 e4       	ldi	r31, 0x41	; 65
    19c6:	ef 2e       	mov	r14, r31
    19c8:	f5 e0       	ldi	r31, 0x05	; 5
    19ca:	ff 2e       	mov	r15, r31
    19cc:	f0 2d       	mov	r31, r0
    19ce:	21 e0       	ldi	r18, 0x01	; 1
    19d0:	30 e0       	ldi	r19, 0x00	; 0
    19d2:	8d e8       	ldi	r24, 0x8D	; 141
    19d4:	96 e0       	ldi	r25, 0x06	; 6
    19d6:	0e 94 33 1c 	call	0x3866	; 0x3866 <_ZN4OLED19OLED_Write_To_BuferEiiiiPKh>
    19da:	4a 89       	ldd	r20, Y+18	; 0x12
    19dc:	5b 89       	ldd	r21, Y+19	; 0x13
    19de:	4e 5f       	subi	r20, 0xFE	; 254
    19e0:	5f 4f       	sbci	r21, 0xFF	; 255
    19e2:	ec 81       	ldd	r30, Y+4	; 0x04
    19e4:	fd 81       	ldd	r31, Y+5	; 0x05
    19e6:	34 96       	adiw	r30, 0x04	; 4
    19e8:	ee 0f       	add	r30, r30
    19ea:	ff 1f       	adc	r31, r31
    19ec:	ec 0f       	add	r30, r28
    19ee:	fd 1f       	adc	r31, r29
    19f0:	60 81       	ld	r22, Z
    19f2:	71 81       	ldd	r23, Z+1	; 0x01
    19f4:	0f 2e       	mov	r0, r31
    19f6:	f1 e0       	ldi	r31, 0x01	; 1
    19f8:	ef 2e       	mov	r14, r31
    19fa:	f5 e0       	ldi	r31, 0x05	; 5
    19fc:	ff 2e       	mov	r15, r31
    19fe:	f0 2d       	mov	r31, r0
    1a00:	21 e0       	ldi	r18, 0x01	; 1
    1a02:	30 e0       	ldi	r19, 0x00	; 0
    1a04:	8d e8       	ldi	r24, 0x8D	; 141
    1a06:	96 e0       	ldi	r25, 0x06	; 6
    1a08:	0e 94 33 1c 	call	0x3866	; 0x3866 <_ZN4OLED19OLED_Write_To_BuferEiiiiPKh>
    1a0c:	4a 89       	ldd	r20, Y+18	; 0x12
    1a0e:	5b 89       	ldd	r21, Y+19	; 0x13
    1a10:	41 50       	subi	r20, 0x01	; 1
    1a12:	51 09       	sbc	r21, r1
    1a14:	8c 81       	ldd	r24, Y+4	; 0x04
    1a16:	9d 81       	ldd	r25, Y+5	; 0x05
    1a18:	04 96       	adiw	r24, 0x04	; 4
    1a1a:	88 0f       	add	r24, r24
    1a1c:	99 1f       	adc	r25, r25
    1a1e:	c8 0f       	add	r28, r24
    1a20:	d9 1f       	adc	r29, r25
    1a22:	68 81       	ld	r22, Y
    1a24:	79 81       	ldd	r23, Y+1	; 0x01
    1a26:	0f 2e       	mov	r0, r31
    1a28:	f9 e0       	ldi	r31, 0x09	; 9
    1a2a:	ef 2e       	mov	r14, r31
    1a2c:	f5 e0       	ldi	r31, 0x05	; 5
    1a2e:	ff 2e       	mov	r15, r31
    1a30:	f0 2d       	mov	r31, r0
    1a32:	21 e0       	ldi	r18, 0x01	; 1
    1a34:	30 e0       	ldi	r19, 0x00	; 0
    1a36:	8d e8       	ldi	r24, 0x8D	; 141
    1a38:	96 e0       	ldi	r25, 0x06	; 6
    1a3a:	0e 94 33 1c 	call	0x3866	; 0x3866 <_ZN4OLED19OLED_Write_To_BuferEiiiiPKh>
    1a3e:	d0 c1       	rjmp	.+928    	; 0x1de0 <_ZN13Password_Menu7actionsEv+0x828>
    1a40:	4a 89       	ldd	r20, Y+18	; 0x12
    1a42:	5b 89       	ldd	r21, Y+19	; 0x13
    1a44:	ec 81       	ldd	r30, Y+4	; 0x04
    1a46:	fd 81       	ldd	r31, Y+5	; 0x05
    1a48:	34 96       	adiw	r30, 0x04	; 4
    1a4a:	ee 0f       	add	r30, r30
    1a4c:	ff 1f       	adc	r31, r31
    1a4e:	ec 0f       	add	r30, r28
    1a50:	fd 1f       	adc	r31, r29
    1a52:	60 81       	ld	r22, Z
    1a54:	71 81       	ldd	r23, Z+1	; 0x01
    1a56:	08 e0       	ldi	r16, 0x08	; 8
    1a58:	10 e0       	ldi	r17, 0x00	; 0
    1a5a:	21 e0       	ldi	r18, 0x01	; 1
    1a5c:	30 e0       	ldi	r19, 0x00	; 0
    1a5e:	8d e8       	ldi	r24, 0x8D	; 141
    1a60:	96 e0       	ldi	r25, 0x06	; 6
    1a62:	0e 94 e4 1b 	call	0x37c8	; 0x37c8 <_ZN4OLED21OLED_Clear_Bufer_partEiiii>
    1a66:	4a 89       	ldd	r20, Y+18	; 0x12
    1a68:	5b 89       	ldd	r21, Y+19	; 0x13
    1a6a:	ec 81       	ldd	r30, Y+4	; 0x04
    1a6c:	fd 81       	ldd	r31, Y+5	; 0x05
    1a6e:	34 96       	adiw	r30, 0x04	; 4
    1a70:	ee 0f       	add	r30, r30
    1a72:	ff 1f       	adc	r31, r31
    1a74:	ec 0f       	add	r30, r28
    1a76:	fd 1f       	adc	r31, r29
    1a78:	60 81       	ld	r22, Z
    1a7a:	71 81       	ldd	r23, Z+1	; 0x01
    1a7c:	0f 2e       	mov	r0, r31
    1a7e:	f9 e3       	ldi	r31, 0x39	; 57
    1a80:	ef 2e       	mov	r14, r31
    1a82:	f5 e0       	ldi	r31, 0x05	; 5
    1a84:	ff 2e       	mov	r15, r31
    1a86:	f0 2d       	mov	r31, r0
    1a88:	21 e0       	ldi	r18, 0x01	; 1
    1a8a:	30 e0       	ldi	r19, 0x00	; 0
    1a8c:	8d e8       	ldi	r24, 0x8D	; 141
    1a8e:	96 e0       	ldi	r25, 0x06	; 6
    1a90:	0e 94 33 1c 	call	0x3866	; 0x3866 <_ZN4OLED19OLED_Write_To_BuferEiiiiPKh>
    1a94:	4a 89       	ldd	r20, Y+18	; 0x12
    1a96:	5b 89       	ldd	r21, Y+19	; 0x13
    1a98:	4e 5f       	subi	r20, 0xFE	; 254
    1a9a:	5f 4f       	sbci	r21, 0xFF	; 255
    1a9c:	ec 81       	ldd	r30, Y+4	; 0x04
    1a9e:	fd 81       	ldd	r31, Y+5	; 0x05
    1aa0:	34 96       	adiw	r30, 0x04	; 4
    1aa2:	ee 0f       	add	r30, r30
    1aa4:	ff 1f       	adc	r31, r31
    1aa6:	ec 0f       	add	r30, r28
    1aa8:	fd 1f       	adc	r31, r29
    1aaa:	60 81       	ld	r22, Z
    1aac:	71 81       	ldd	r23, Z+1	; 0x01
    1aae:	0f 2e       	mov	r0, r31
    1ab0:	f1 e0       	ldi	r31, 0x01	; 1
    1ab2:	ef 2e       	mov	r14, r31
    1ab4:	f5 e0       	ldi	r31, 0x05	; 5
    1ab6:	ff 2e       	mov	r15, r31
    1ab8:	f0 2d       	mov	r31, r0
    1aba:	21 e0       	ldi	r18, 0x01	; 1
    1abc:	30 e0       	ldi	r19, 0x00	; 0
    1abe:	8d e8       	ldi	r24, 0x8D	; 141
    1ac0:	96 e0       	ldi	r25, 0x06	; 6
    1ac2:	0e 94 33 1c 	call	0x3866	; 0x3866 <_ZN4OLED19OLED_Write_To_BuferEiiiiPKh>
    1ac6:	4a 89       	ldd	r20, Y+18	; 0x12
    1ac8:	5b 89       	ldd	r21, Y+19	; 0x13
    1aca:	41 50       	subi	r20, 0x01	; 1
    1acc:	51 09       	sbc	r21, r1
    1ace:	8c 81       	ldd	r24, Y+4	; 0x04
    1ad0:	9d 81       	ldd	r25, Y+5	; 0x05
    1ad2:	04 96       	adiw	r24, 0x04	; 4
    1ad4:	88 0f       	add	r24, r24
    1ad6:	99 1f       	adc	r25, r25
    1ad8:	c8 0f       	add	r28, r24
    1ada:	d9 1f       	adc	r29, r25
    1adc:	68 81       	ld	r22, Y
    1ade:	79 81       	ldd	r23, Y+1	; 0x01
    1ae0:	0f 2e       	mov	r0, r31
    1ae2:	f9 e0       	ldi	r31, 0x09	; 9
    1ae4:	ef 2e       	mov	r14, r31
    1ae6:	f5 e0       	ldi	r31, 0x05	; 5
    1ae8:	ff 2e       	mov	r15, r31
    1aea:	f0 2d       	mov	r31, r0
    1aec:	21 e0       	ldi	r18, 0x01	; 1
    1aee:	30 e0       	ldi	r19, 0x00	; 0
    1af0:	8d e8       	ldi	r24, 0x8D	; 141
    1af2:	96 e0       	ldi	r25, 0x06	; 6
    1af4:	0e 94 33 1c 	call	0x3866	; 0x3866 <_ZN4OLED19OLED_Write_To_BuferEiiiiPKh>
    1af8:	73 c1       	rjmp	.+742    	; 0x1de0 <_ZN13Password_Menu7actionsEv+0x828>
    1afa:	4a 89       	ldd	r20, Y+18	; 0x12
    1afc:	5b 89       	ldd	r21, Y+19	; 0x13
    1afe:	ec 81       	ldd	r30, Y+4	; 0x04
    1b00:	fd 81       	ldd	r31, Y+5	; 0x05
    1b02:	34 96       	adiw	r30, 0x04	; 4
    1b04:	ee 0f       	add	r30, r30
    1b06:	ff 1f       	adc	r31, r31
    1b08:	ec 0f       	add	r30, r28
    1b0a:	fd 1f       	adc	r31, r29
    1b0c:	60 81       	ld	r22, Z
    1b0e:	71 81       	ldd	r23, Z+1	; 0x01
    1b10:	08 e0       	ldi	r16, 0x08	; 8
    1b12:	10 e0       	ldi	r17, 0x00	; 0
    1b14:	21 e0       	ldi	r18, 0x01	; 1
    1b16:	30 e0       	ldi	r19, 0x00	; 0
    1b18:	8d e8       	ldi	r24, 0x8D	; 141
    1b1a:	96 e0       	ldi	r25, 0x06	; 6
    1b1c:	0e 94 e4 1b 	call	0x37c8	; 0x37c8 <_ZN4OLED21OLED_Clear_Bufer_partEiiii>
    1b20:	4a 89       	ldd	r20, Y+18	; 0x12
    1b22:	5b 89       	ldd	r21, Y+19	; 0x13
    1b24:	ec 81       	ldd	r30, Y+4	; 0x04
    1b26:	fd 81       	ldd	r31, Y+5	; 0x05
    1b28:	34 96       	adiw	r30, 0x04	; 4
    1b2a:	ee 0f       	add	r30, r30
    1b2c:	ff 1f       	adc	r31, r31
    1b2e:	ec 0f       	add	r30, r28
    1b30:	fd 1f       	adc	r31, r29
    1b32:	60 81       	ld	r22, Z
    1b34:	71 81       	ldd	r23, Z+1	; 0x01
    1b36:	0f 2e       	mov	r0, r31
    1b38:	f1 e3       	ldi	r31, 0x31	; 49
    1b3a:	ef 2e       	mov	r14, r31
    1b3c:	f5 e0       	ldi	r31, 0x05	; 5
    1b3e:	ff 2e       	mov	r15, r31
    1b40:	f0 2d       	mov	r31, r0
    1b42:	21 e0       	ldi	r18, 0x01	; 1
    1b44:	30 e0       	ldi	r19, 0x00	; 0
    1b46:	8d e8       	ldi	r24, 0x8D	; 141
    1b48:	96 e0       	ldi	r25, 0x06	; 6
    1b4a:	0e 94 33 1c 	call	0x3866	; 0x3866 <_ZN4OLED19OLED_Write_To_BuferEiiiiPKh>
    1b4e:	4a 89       	ldd	r20, Y+18	; 0x12
    1b50:	5b 89       	ldd	r21, Y+19	; 0x13
    1b52:	4e 5f       	subi	r20, 0xFE	; 254
    1b54:	5f 4f       	sbci	r21, 0xFF	; 255
    1b56:	ec 81       	ldd	r30, Y+4	; 0x04
    1b58:	fd 81       	ldd	r31, Y+5	; 0x05
    1b5a:	34 96       	adiw	r30, 0x04	; 4
    1b5c:	ee 0f       	add	r30, r30
    1b5e:	ff 1f       	adc	r31, r31
    1b60:	ec 0f       	add	r30, r28
    1b62:	fd 1f       	adc	r31, r29
    1b64:	60 81       	ld	r22, Z
    1b66:	71 81       	ldd	r23, Z+1	; 0x01
    1b68:	0f 2e       	mov	r0, r31
    1b6a:	f1 e0       	ldi	r31, 0x01	; 1
    1b6c:	ef 2e       	mov	r14, r31
    1b6e:	f5 e0       	ldi	r31, 0x05	; 5
    1b70:	ff 2e       	mov	r15, r31
    1b72:	f0 2d       	mov	r31, r0
    1b74:	21 e0       	ldi	r18, 0x01	; 1
    1b76:	30 e0       	ldi	r19, 0x00	; 0
    1b78:	8d e8       	ldi	r24, 0x8D	; 141
    1b7a:	96 e0       	ldi	r25, 0x06	; 6
    1b7c:	0e 94 33 1c 	call	0x3866	; 0x3866 <_ZN4OLED19OLED_Write_To_BuferEiiiiPKh>
    1b80:	4a 89       	ldd	r20, Y+18	; 0x12
    1b82:	5b 89       	ldd	r21, Y+19	; 0x13
    1b84:	41 50       	subi	r20, 0x01	; 1
    1b86:	51 09       	sbc	r21, r1
    1b88:	8c 81       	ldd	r24, Y+4	; 0x04
    1b8a:	9d 81       	ldd	r25, Y+5	; 0x05
    1b8c:	04 96       	adiw	r24, 0x04	; 4
    1b8e:	88 0f       	add	r24, r24
    1b90:	99 1f       	adc	r25, r25
    1b92:	c8 0f       	add	r28, r24
    1b94:	d9 1f       	adc	r29, r25
    1b96:	68 81       	ld	r22, Y
    1b98:	79 81       	ldd	r23, Y+1	; 0x01
    1b9a:	0f 2e       	mov	r0, r31
    1b9c:	f9 e0       	ldi	r31, 0x09	; 9
    1b9e:	ef 2e       	mov	r14, r31
    1ba0:	f5 e0       	ldi	r31, 0x05	; 5
    1ba2:	ff 2e       	mov	r15, r31
    1ba4:	f0 2d       	mov	r31, r0
    1ba6:	21 e0       	ldi	r18, 0x01	; 1
    1ba8:	30 e0       	ldi	r19, 0x00	; 0
    1baa:	8d e8       	ldi	r24, 0x8D	; 141
    1bac:	96 e0       	ldi	r25, 0x06	; 6
    1bae:	0e 94 33 1c 	call	0x3866	; 0x3866 <_ZN4OLED19OLED_Write_To_BuferEiiiiPKh>
    1bb2:	16 c1       	rjmp	.+556    	; 0x1de0 <_ZN13Password_Menu7actionsEv+0x828>
    1bb4:	4a 89       	ldd	r20, Y+18	; 0x12
    1bb6:	5b 89       	ldd	r21, Y+19	; 0x13
    1bb8:	ec 81       	ldd	r30, Y+4	; 0x04
    1bba:	fd 81       	ldd	r31, Y+5	; 0x05
    1bbc:	34 96       	adiw	r30, 0x04	; 4
    1bbe:	ee 0f       	add	r30, r30
    1bc0:	ff 1f       	adc	r31, r31
    1bc2:	ec 0f       	add	r30, r28
    1bc4:	fd 1f       	adc	r31, r29
    1bc6:	60 81       	ld	r22, Z
    1bc8:	71 81       	ldd	r23, Z+1	; 0x01
    1bca:	08 e0       	ldi	r16, 0x08	; 8
    1bcc:	10 e0       	ldi	r17, 0x00	; 0
    1bce:	21 e0       	ldi	r18, 0x01	; 1
    1bd0:	30 e0       	ldi	r19, 0x00	; 0
    1bd2:	8d e8       	ldi	r24, 0x8D	; 141
    1bd4:	96 e0       	ldi	r25, 0x06	; 6
    1bd6:	0e 94 e4 1b 	call	0x37c8	; 0x37c8 <_ZN4OLED21OLED_Clear_Bufer_partEiiii>
    1bda:	4a 89       	ldd	r20, Y+18	; 0x12
    1bdc:	5b 89       	ldd	r21, Y+19	; 0x13
    1bde:	ec 81       	ldd	r30, Y+4	; 0x04
    1be0:	fd 81       	ldd	r31, Y+5	; 0x05
    1be2:	34 96       	adiw	r30, 0x04	; 4
    1be4:	ee 0f       	add	r30, r30
    1be6:	ff 1f       	adc	r31, r31
    1be8:	ec 0f       	add	r30, r28
    1bea:	fd 1f       	adc	r31, r29
    1bec:	60 81       	ld	r22, Z
    1bee:	71 81       	ldd	r23, Z+1	; 0x01
    1bf0:	0f 2e       	mov	r0, r31
    1bf2:	f9 e2       	ldi	r31, 0x29	; 41
    1bf4:	ef 2e       	mov	r14, r31
    1bf6:	f5 e0       	ldi	r31, 0x05	; 5
    1bf8:	ff 2e       	mov	r15, r31
    1bfa:	f0 2d       	mov	r31, r0
    1bfc:	21 e0       	ldi	r18, 0x01	; 1
    1bfe:	30 e0       	ldi	r19, 0x00	; 0
    1c00:	8d e8       	ldi	r24, 0x8D	; 141
    1c02:	96 e0       	ldi	r25, 0x06	; 6
    1c04:	0e 94 33 1c 	call	0x3866	; 0x3866 <_ZN4OLED19OLED_Write_To_BuferEiiiiPKh>
    1c08:	4a 89       	ldd	r20, Y+18	; 0x12
    1c0a:	5b 89       	ldd	r21, Y+19	; 0x13
    1c0c:	4e 5f       	subi	r20, 0xFE	; 254
    1c0e:	5f 4f       	sbci	r21, 0xFF	; 255
    1c10:	ec 81       	ldd	r30, Y+4	; 0x04
    1c12:	fd 81       	ldd	r31, Y+5	; 0x05
    1c14:	34 96       	adiw	r30, 0x04	; 4
    1c16:	ee 0f       	add	r30, r30
    1c18:	ff 1f       	adc	r31, r31
    1c1a:	ec 0f       	add	r30, r28
    1c1c:	fd 1f       	adc	r31, r29
    1c1e:	60 81       	ld	r22, Z
    1c20:	71 81       	ldd	r23, Z+1	; 0x01
    1c22:	0f 2e       	mov	r0, r31
    1c24:	f1 e0       	ldi	r31, 0x01	; 1
    1c26:	ef 2e       	mov	r14, r31
    1c28:	f5 e0       	ldi	r31, 0x05	; 5
    1c2a:	ff 2e       	mov	r15, r31
    1c2c:	f0 2d       	mov	r31, r0
    1c2e:	21 e0       	ldi	r18, 0x01	; 1
    1c30:	30 e0       	ldi	r19, 0x00	; 0
    1c32:	8d e8       	ldi	r24, 0x8D	; 141
    1c34:	96 e0       	ldi	r25, 0x06	; 6
    1c36:	0e 94 33 1c 	call	0x3866	; 0x3866 <_ZN4OLED19OLED_Write_To_BuferEiiiiPKh>
    1c3a:	4a 89       	ldd	r20, Y+18	; 0x12
    1c3c:	5b 89       	ldd	r21, Y+19	; 0x13
    1c3e:	41 50       	subi	r20, 0x01	; 1
    1c40:	51 09       	sbc	r21, r1
    1c42:	8c 81       	ldd	r24, Y+4	; 0x04
    1c44:	9d 81       	ldd	r25, Y+5	; 0x05
    1c46:	04 96       	adiw	r24, 0x04	; 4
    1c48:	88 0f       	add	r24, r24
    1c4a:	99 1f       	adc	r25, r25
    1c4c:	c8 0f       	add	r28, r24
    1c4e:	d9 1f       	adc	r29, r25
    1c50:	68 81       	ld	r22, Y
    1c52:	79 81       	ldd	r23, Y+1	; 0x01
    1c54:	0f 2e       	mov	r0, r31
    1c56:	f9 e0       	ldi	r31, 0x09	; 9
    1c58:	ef 2e       	mov	r14, r31
    1c5a:	f5 e0       	ldi	r31, 0x05	; 5
    1c5c:	ff 2e       	mov	r15, r31
    1c5e:	f0 2d       	mov	r31, r0
    1c60:	21 e0       	ldi	r18, 0x01	; 1
    1c62:	30 e0       	ldi	r19, 0x00	; 0
    1c64:	8d e8       	ldi	r24, 0x8D	; 141
    1c66:	96 e0       	ldi	r25, 0x06	; 6
    1c68:	0e 94 33 1c 	call	0x3866	; 0x3866 <_ZN4OLED19OLED_Write_To_BuferEiiiiPKh>
    1c6c:	b9 c0       	rjmp	.+370    	; 0x1de0 <_ZN13Password_Menu7actionsEv+0x828>
    1c6e:	4a 89       	ldd	r20, Y+18	; 0x12
    1c70:	5b 89       	ldd	r21, Y+19	; 0x13
    1c72:	ec 81       	ldd	r30, Y+4	; 0x04
    1c74:	fd 81       	ldd	r31, Y+5	; 0x05
    1c76:	34 96       	adiw	r30, 0x04	; 4
    1c78:	ee 0f       	add	r30, r30
    1c7a:	ff 1f       	adc	r31, r31
    1c7c:	ec 0f       	add	r30, r28
    1c7e:	fd 1f       	adc	r31, r29
    1c80:	60 81       	ld	r22, Z
    1c82:	71 81       	ldd	r23, Z+1	; 0x01
    1c84:	08 e0       	ldi	r16, 0x08	; 8
    1c86:	10 e0       	ldi	r17, 0x00	; 0
    1c88:	21 e0       	ldi	r18, 0x01	; 1
    1c8a:	30 e0       	ldi	r19, 0x00	; 0
    1c8c:	8d e8       	ldi	r24, 0x8D	; 141
    1c8e:	96 e0       	ldi	r25, 0x06	; 6
    1c90:	0e 94 e4 1b 	call	0x37c8	; 0x37c8 <_ZN4OLED21OLED_Clear_Bufer_partEiiii>
    1c94:	4a 89       	ldd	r20, Y+18	; 0x12
    1c96:	5b 89       	ldd	r21, Y+19	; 0x13
    1c98:	ec 81       	ldd	r30, Y+4	; 0x04
    1c9a:	fd 81       	ldd	r31, Y+5	; 0x05
    1c9c:	34 96       	adiw	r30, 0x04	; 4
    1c9e:	ee 0f       	add	r30, r30
    1ca0:	ff 1f       	adc	r31, r31
    1ca2:	ec 0f       	add	r30, r28
    1ca4:	fd 1f       	adc	r31, r29
    1ca6:	60 81       	ld	r22, Z
    1ca8:	71 81       	ldd	r23, Z+1	; 0x01
    1caa:	0f 2e       	mov	r0, r31
    1cac:	f1 e2       	ldi	r31, 0x21	; 33
    1cae:	ef 2e       	mov	r14, r31
    1cb0:	f5 e0       	ldi	r31, 0x05	; 5
    1cb2:	ff 2e       	mov	r15, r31
    1cb4:	f0 2d       	mov	r31, r0
    1cb6:	21 e0       	ldi	r18, 0x01	; 1
    1cb8:	30 e0       	ldi	r19, 0x00	; 0
    1cba:	8d e8       	ldi	r24, 0x8D	; 141
    1cbc:	96 e0       	ldi	r25, 0x06	; 6
    1cbe:	0e 94 33 1c 	call	0x3866	; 0x3866 <_ZN4OLED19OLED_Write_To_BuferEiiiiPKh>
    1cc2:	4a 89       	ldd	r20, Y+18	; 0x12
    1cc4:	5b 89       	ldd	r21, Y+19	; 0x13
    1cc6:	4e 5f       	subi	r20, 0xFE	; 254
    1cc8:	5f 4f       	sbci	r21, 0xFF	; 255
    1cca:	ec 81       	ldd	r30, Y+4	; 0x04
    1ccc:	fd 81       	ldd	r31, Y+5	; 0x05
    1cce:	34 96       	adiw	r30, 0x04	; 4
    1cd0:	ee 0f       	add	r30, r30
    1cd2:	ff 1f       	adc	r31, r31
    1cd4:	ec 0f       	add	r30, r28
    1cd6:	fd 1f       	adc	r31, r29
    1cd8:	60 81       	ld	r22, Z
    1cda:	71 81       	ldd	r23, Z+1	; 0x01
    1cdc:	0f 2e       	mov	r0, r31
    1cde:	f1 e0       	ldi	r31, 0x01	; 1
    1ce0:	ef 2e       	mov	r14, r31
    1ce2:	f5 e0       	ldi	r31, 0x05	; 5
    1ce4:	ff 2e       	mov	r15, r31
    1ce6:	f0 2d       	mov	r31, r0
    1ce8:	21 e0       	ldi	r18, 0x01	; 1
    1cea:	30 e0       	ldi	r19, 0x00	; 0
    1cec:	8d e8       	ldi	r24, 0x8D	; 141
    1cee:	96 e0       	ldi	r25, 0x06	; 6
    1cf0:	0e 94 33 1c 	call	0x3866	; 0x3866 <_ZN4OLED19OLED_Write_To_BuferEiiiiPKh>
    1cf4:	4a 89       	ldd	r20, Y+18	; 0x12
    1cf6:	5b 89       	ldd	r21, Y+19	; 0x13
    1cf8:	41 50       	subi	r20, 0x01	; 1
    1cfa:	51 09       	sbc	r21, r1
    1cfc:	8c 81       	ldd	r24, Y+4	; 0x04
    1cfe:	9d 81       	ldd	r25, Y+5	; 0x05
    1d00:	04 96       	adiw	r24, 0x04	; 4
    1d02:	88 0f       	add	r24, r24
    1d04:	99 1f       	adc	r25, r25
    1d06:	c8 0f       	add	r28, r24
    1d08:	d9 1f       	adc	r29, r25
    1d0a:	68 81       	ld	r22, Y
    1d0c:	79 81       	ldd	r23, Y+1	; 0x01
    1d0e:	0f 2e       	mov	r0, r31
    1d10:	f9 e0       	ldi	r31, 0x09	; 9
    1d12:	ef 2e       	mov	r14, r31
    1d14:	f5 e0       	ldi	r31, 0x05	; 5
    1d16:	ff 2e       	mov	r15, r31
    1d18:	f0 2d       	mov	r31, r0
    1d1a:	21 e0       	ldi	r18, 0x01	; 1
    1d1c:	30 e0       	ldi	r19, 0x00	; 0
    1d1e:	8d e8       	ldi	r24, 0x8D	; 141
    1d20:	96 e0       	ldi	r25, 0x06	; 6
    1d22:	0e 94 33 1c 	call	0x3866	; 0x3866 <_ZN4OLED19OLED_Write_To_BuferEiiiiPKh>
    1d26:	5c c0       	rjmp	.+184    	; 0x1de0 <_ZN13Password_Menu7actionsEv+0x828>
    1d28:	4a 89       	ldd	r20, Y+18	; 0x12
    1d2a:	5b 89       	ldd	r21, Y+19	; 0x13
    1d2c:	ec 81       	ldd	r30, Y+4	; 0x04
    1d2e:	fd 81       	ldd	r31, Y+5	; 0x05
    1d30:	34 96       	adiw	r30, 0x04	; 4
    1d32:	ee 0f       	add	r30, r30
    1d34:	ff 1f       	adc	r31, r31
    1d36:	ec 0f       	add	r30, r28
    1d38:	fd 1f       	adc	r31, r29
    1d3a:	60 81       	ld	r22, Z
    1d3c:	71 81       	ldd	r23, Z+1	; 0x01
    1d3e:	08 e0       	ldi	r16, 0x08	; 8
    1d40:	10 e0       	ldi	r17, 0x00	; 0
    1d42:	21 e0       	ldi	r18, 0x01	; 1
    1d44:	30 e0       	ldi	r19, 0x00	; 0
    1d46:	8d e8       	ldi	r24, 0x8D	; 141
    1d48:	96 e0       	ldi	r25, 0x06	; 6
    1d4a:	0e 94 e4 1b 	call	0x37c8	; 0x37c8 <_ZN4OLED21OLED_Clear_Bufer_partEiiii>
    1d4e:	4a 89       	ldd	r20, Y+18	; 0x12
    1d50:	5b 89       	ldd	r21, Y+19	; 0x13
    1d52:	ec 81       	ldd	r30, Y+4	; 0x04
    1d54:	fd 81       	ldd	r31, Y+5	; 0x05
    1d56:	34 96       	adiw	r30, 0x04	; 4
    1d58:	ee 0f       	add	r30, r30
    1d5a:	ff 1f       	adc	r31, r31
    1d5c:	ec 0f       	add	r30, r28
    1d5e:	fd 1f       	adc	r31, r29
    1d60:	60 81       	ld	r22, Z
    1d62:	71 81       	ldd	r23, Z+1	; 0x01
    1d64:	0f 2e       	mov	r0, r31
    1d66:	f1 e1       	ldi	r31, 0x11	; 17
    1d68:	ef 2e       	mov	r14, r31
    1d6a:	f5 e0       	ldi	r31, 0x05	; 5
    1d6c:	ff 2e       	mov	r15, r31
    1d6e:	f0 2d       	mov	r31, r0
    1d70:	21 e0       	ldi	r18, 0x01	; 1
    1d72:	30 e0       	ldi	r19, 0x00	; 0
    1d74:	8d e8       	ldi	r24, 0x8D	; 141
    1d76:	96 e0       	ldi	r25, 0x06	; 6
    1d78:	0e 94 33 1c 	call	0x3866	; 0x3866 <_ZN4OLED19OLED_Write_To_BuferEiiiiPKh>
    1d7c:	4a 89       	ldd	r20, Y+18	; 0x12
    1d7e:	5b 89       	ldd	r21, Y+19	; 0x13
    1d80:	4e 5f       	subi	r20, 0xFE	; 254
    1d82:	5f 4f       	sbci	r21, 0xFF	; 255
    1d84:	ec 81       	ldd	r30, Y+4	; 0x04
    1d86:	fd 81       	ldd	r31, Y+5	; 0x05
    1d88:	34 96       	adiw	r30, 0x04	; 4
    1d8a:	ee 0f       	add	r30, r30
    1d8c:	ff 1f       	adc	r31, r31
    1d8e:	ec 0f       	add	r30, r28
    1d90:	fd 1f       	adc	r31, r29
    1d92:	60 81       	ld	r22, Z
    1d94:	71 81       	ldd	r23, Z+1	; 0x01
    1d96:	0f 2e       	mov	r0, r31
    1d98:	f1 e0       	ldi	r31, 0x01	; 1
    1d9a:	ef 2e       	mov	r14, r31
    1d9c:	f5 e0       	ldi	r31, 0x05	; 5
    1d9e:	ff 2e       	mov	r15, r31
    1da0:	f0 2d       	mov	r31, r0
    1da2:	21 e0       	ldi	r18, 0x01	; 1
    1da4:	30 e0       	ldi	r19, 0x00	; 0
    1da6:	8d e8       	ldi	r24, 0x8D	; 141
    1da8:	96 e0       	ldi	r25, 0x06	; 6
    1daa:	0e 94 33 1c 	call	0x3866	; 0x3866 <_ZN4OLED19OLED_Write_To_BuferEiiiiPKh>
    1dae:	4a 89       	ldd	r20, Y+18	; 0x12
    1db0:	5b 89       	ldd	r21, Y+19	; 0x13
    1db2:	41 50       	subi	r20, 0x01	; 1
    1db4:	51 09       	sbc	r21, r1
    1db6:	8c 81       	ldd	r24, Y+4	; 0x04
    1db8:	9d 81       	ldd	r25, Y+5	; 0x05
    1dba:	04 96       	adiw	r24, 0x04	; 4
    1dbc:	88 0f       	add	r24, r24
    1dbe:	99 1f       	adc	r25, r25
    1dc0:	c8 0f       	add	r28, r24
    1dc2:	d9 1f       	adc	r29, r25
    1dc4:	68 81       	ld	r22, Y
    1dc6:	79 81       	ldd	r23, Y+1	; 0x01
    1dc8:	0f 2e       	mov	r0, r31
    1dca:	f9 e0       	ldi	r31, 0x09	; 9
    1dcc:	ef 2e       	mov	r14, r31
    1dce:	f5 e0       	ldi	r31, 0x05	; 5
    1dd0:	ff 2e       	mov	r15, r31
    1dd2:	f0 2d       	mov	r31, r0
    1dd4:	21 e0       	ldi	r18, 0x01	; 1
    1dd6:	30 e0       	ldi	r19, 0x00	; 0
    1dd8:	8d e8       	ldi	r24, 0x8D	; 141
    1dda:	96 e0       	ldi	r25, 0x06	; 6
    1ddc:	0e 94 33 1c 	call	0x3866	; 0x3866 <_ZN4OLED19OLED_Write_To_BuferEiiiiPKh>
    1de0:	df 91       	pop	r29
    1de2:	cf 91       	pop	r28
    1de4:	1f 91       	pop	r17
    1de6:	0f 91       	pop	r16
    1de8:	ff 90       	pop	r15
    1dea:	ef 90       	pop	r14
    1dec:	08 95       	ret

00001dee <_ZN13Password_Menu7DefaultEv>:
    1dee:	ef 92       	push	r14
    1df0:	ff 92       	push	r15
    1df2:	0f 93       	push	r16
    1df4:	1f 93       	push	r17
    1df6:	cf 93       	push	r28
    1df8:	df 93       	push	r29
    1dfa:	ec 01       	movw	r28, r24
    1dfc:	4a 89       	ldd	r20, Y+18	; 0x12
    1dfe:	5b 89       	ldd	r21, Y+19	; 0x13
    1e00:	4f 5f       	subi	r20, 0xFF	; 255
    1e02:	5f 4f       	sbci	r21, 0xFF	; 255
    1e04:	68 85       	ldd	r22, Y+8	; 0x08
    1e06:	79 85       	ldd	r23, Y+9	; 0x09
    1e08:	0f 2e       	mov	r0, r31
    1e0a:	f9 e1       	ldi	r31, 0x19	; 25
    1e0c:	ef 2e       	mov	r14, r31
    1e0e:	f5 e0       	ldi	r31, 0x05	; 5
    1e10:	ff 2e       	mov	r15, r31
    1e12:	f0 2d       	mov	r31, r0
    1e14:	08 e0       	ldi	r16, 0x08	; 8
    1e16:	10 e0       	ldi	r17, 0x00	; 0
    1e18:	21 e0       	ldi	r18, 0x01	; 1
    1e1a:	30 e0       	ldi	r19, 0x00	; 0
    1e1c:	8d e8       	ldi	r24, 0x8D	; 141
    1e1e:	96 e0       	ldi	r25, 0x06	; 6
    1e20:	0e 94 33 1c 	call	0x3866	; 0x3866 <_ZN4OLED19OLED_Write_To_BuferEiiiiPKh>
    1e24:	4a 89       	ldd	r20, Y+18	; 0x12
    1e26:	5b 89       	ldd	r21, Y+19	; 0x13
    1e28:	4f 5f       	subi	r20, 0xFF	; 255
    1e2a:	5f 4f       	sbci	r21, 0xFF	; 255
    1e2c:	6a 85       	ldd	r22, Y+10	; 0x0a
    1e2e:	7b 85       	ldd	r23, Y+11	; 0x0b
    1e30:	21 e0       	ldi	r18, 0x01	; 1
    1e32:	30 e0       	ldi	r19, 0x00	; 0
    1e34:	8d e8       	ldi	r24, 0x8D	; 141
    1e36:	96 e0       	ldi	r25, 0x06	; 6
    1e38:	0e 94 33 1c 	call	0x3866	; 0x3866 <_ZN4OLED19OLED_Write_To_BuferEiiiiPKh>
    1e3c:	4a 89       	ldd	r20, Y+18	; 0x12
    1e3e:	5b 89       	ldd	r21, Y+19	; 0x13
    1e40:	4f 5f       	subi	r20, 0xFF	; 255
    1e42:	5f 4f       	sbci	r21, 0xFF	; 255
    1e44:	6c 85       	ldd	r22, Y+12	; 0x0c
    1e46:	7d 85       	ldd	r23, Y+13	; 0x0d
    1e48:	21 e0       	ldi	r18, 0x01	; 1
    1e4a:	30 e0       	ldi	r19, 0x00	; 0
    1e4c:	8d e8       	ldi	r24, 0x8D	; 141
    1e4e:	96 e0       	ldi	r25, 0x06	; 6
    1e50:	0e 94 33 1c 	call	0x3866	; 0x3866 <_ZN4OLED19OLED_Write_To_BuferEiiiiPKh>
    1e54:	4a 89       	ldd	r20, Y+18	; 0x12
    1e56:	5b 89       	ldd	r21, Y+19	; 0x13
    1e58:	4f 5f       	subi	r20, 0xFF	; 255
    1e5a:	5f 4f       	sbci	r21, 0xFF	; 255
    1e5c:	6e 85       	ldd	r22, Y+14	; 0x0e
    1e5e:	7f 85       	ldd	r23, Y+15	; 0x0f
    1e60:	21 e0       	ldi	r18, 0x01	; 1
    1e62:	30 e0       	ldi	r19, 0x00	; 0
    1e64:	8d e8       	ldi	r24, 0x8D	; 141
    1e66:	96 e0       	ldi	r25, 0x06	; 6
    1e68:	0e 94 33 1c 	call	0x3866	; 0x3866 <_ZN4OLED19OLED_Write_To_BuferEiiiiPKh>
    1e6c:	4a 89       	ldd	r20, Y+18	; 0x12
    1e6e:	5b 89       	ldd	r21, Y+19	; 0x13
    1e70:	4f 5f       	subi	r20, 0xFF	; 255
    1e72:	5f 4f       	sbci	r21, 0xFF	; 255
    1e74:	68 89       	ldd	r22, Y+16	; 0x10
    1e76:	79 89       	ldd	r23, Y+17	; 0x11
    1e78:	21 e0       	ldi	r18, 0x01	; 1
    1e7a:	30 e0       	ldi	r19, 0x00	; 0
    1e7c:	8d e8       	ldi	r24, 0x8D	; 141
    1e7e:	96 e0       	ldi	r25, 0x06	; 6
    1e80:	0e 94 33 1c 	call	0x3866	; 0x3866 <_ZN4OLED19OLED_Write_To_BuferEiiiiPKh>
    1e84:	df 91       	pop	r29
    1e86:	cf 91       	pop	r28
    1e88:	1f 91       	pop	r17
    1e8a:	0f 91       	pop	r16
    1e8c:	ff 90       	pop	r15
    1e8e:	ef 90       	pop	r14
    1e90:	08 95       	ret

00001e92 <_ZN9Main_Menu7actionsEv>:
    1e92:	ef 92       	push	r14
    1e94:	ff 92       	push	r15
    1e96:	0f 93       	push	r16
    1e98:	1f 93       	push	r17
    1e9a:	fc 01       	movw	r30, r24
    1e9c:	84 81       	ldd	r24, Z+4	; 0x04
    1e9e:	95 81       	ldd	r25, Z+5	; 0x05
    1ea0:	81 30       	cpi	r24, 0x01	; 1
    1ea2:	91 05       	cpc	r25, r1
    1ea4:	d9 f1       	breq	.+118    	; 0x1f1c <_ZN9Main_Menu7actionsEv+0x8a>
    1ea6:	82 30       	cpi	r24, 0x02	; 2
    1ea8:	91 05       	cpc	r25, r1
    1eaa:	09 f4       	brne	.+2      	; 0x1eae <_ZN9Main_Menu7actionsEv+0x1c>
    1eac:	54 c0       	rjmp	.+168    	; 0x1f56 <_ZN9Main_Menu7actionsEv+0xc4>
    1eae:	89 2b       	or	r24, r25
    1eb0:	09 f0       	breq	.+2      	; 0x1eb4 <_ZN9Main_Menu7actionsEv+0x22>
    1eb2:	6d c0       	rjmp	.+218    	; 0x1f8e <_ZN9Main_Menu7actionsEv+0xfc>
    1eb4:	00 e2       	ldi	r16, 0x20	; 32
    1eb6:	10 e0       	ldi	r17, 0x00	; 0
    1eb8:	24 e0       	ldi	r18, 0x04	; 4
    1eba:	30 e0       	ldi	r19, 0x00	; 0
    1ebc:	42 e0       	ldi	r20, 0x02	; 2
    1ebe:	50 e0       	ldi	r21, 0x00	; 0
    1ec0:	62 e3       	ldi	r22, 0x32	; 50
    1ec2:	70 e0       	ldi	r23, 0x00	; 0
    1ec4:	8d e8       	ldi	r24, 0x8D	; 141
    1ec6:	96 e0       	ldi	r25, 0x06	; 6
    1ec8:	0e 94 e4 1b 	call	0x37c8	; 0x37c8 <_ZN4OLED21OLED_Clear_Bufer_partEiiii>
    1ecc:	80 91 89 06 	lds	r24, 0x0689	; 0x800689 <locked>
    1ed0:	88 23       	and	r24, r24
    1ed2:	89 f0       	breq	.+34     	; 0x1ef6 <_ZN9Main_Menu7actionsEv+0x64>
    1ed4:	0f 2e       	mov	r0, r31
    1ed6:	f1 ed       	ldi	r31, 0xD1	; 209
    1ed8:	ef 2e       	mov	r14, r31
    1eda:	f2 e0       	ldi	r31, 0x02	; 2
    1edc:	ff 2e       	mov	r15, r31
    1ede:	f0 2d       	mov	r31, r0
    1ee0:	24 e0       	ldi	r18, 0x04	; 4
    1ee2:	30 e0       	ldi	r19, 0x00	; 0
    1ee4:	42 e0       	ldi	r20, 0x02	; 2
    1ee6:	50 e0       	ldi	r21, 0x00	; 0
    1ee8:	62 e3       	ldi	r22, 0x32	; 50
    1eea:	70 e0       	ldi	r23, 0x00	; 0
    1eec:	8d e8       	ldi	r24, 0x8D	; 141
    1eee:	96 e0       	ldi	r25, 0x06	; 6
    1ef0:	0e 94 33 1c 	call	0x3866	; 0x3866 <_ZN4OLED19OLED_Write_To_BuferEiiiiPKh>
    1ef4:	4c c0       	rjmp	.+152    	; 0x1f8e <_ZN9Main_Menu7actionsEv+0xfc>
    1ef6:	0f 2e       	mov	r0, r31
    1ef8:	f1 e6       	ldi	r31, 0x61	; 97
    1efa:	ef 2e       	mov	r14, r31
    1efc:	f3 e0       	ldi	r31, 0x03	; 3
    1efe:	ff 2e       	mov	r15, r31
    1f00:	f0 2d       	mov	r31, r0
    1f02:	00 e2       	ldi	r16, 0x20	; 32
    1f04:	10 e0       	ldi	r17, 0x00	; 0
    1f06:	24 e0       	ldi	r18, 0x04	; 4
    1f08:	30 e0       	ldi	r19, 0x00	; 0
    1f0a:	42 e0       	ldi	r20, 0x02	; 2
    1f0c:	50 e0       	ldi	r21, 0x00	; 0
    1f0e:	62 e3       	ldi	r22, 0x32	; 50
    1f10:	70 e0       	ldi	r23, 0x00	; 0
    1f12:	8d e8       	ldi	r24, 0x8D	; 141
    1f14:	96 e0       	ldi	r25, 0x06	; 6
    1f16:	0e 94 33 1c 	call	0x3866	; 0x3866 <_ZN4OLED19OLED_Write_To_BuferEiiiiPKh>
    1f1a:	39 c0       	rjmp	.+114    	; 0x1f8e <_ZN9Main_Menu7actionsEv+0xfc>
    1f1c:	00 e2       	ldi	r16, 0x20	; 32
    1f1e:	10 e0       	ldi	r17, 0x00	; 0
    1f20:	24 e0       	ldi	r18, 0x04	; 4
    1f22:	30 e0       	ldi	r19, 0x00	; 0
    1f24:	42 e0       	ldi	r20, 0x02	; 2
    1f26:	50 e0       	ldi	r21, 0x00	; 0
    1f28:	62 e3       	ldi	r22, 0x32	; 50
    1f2a:	70 e0       	ldi	r23, 0x00	; 0
    1f2c:	8d e8       	ldi	r24, 0x8D	; 141
    1f2e:	96 e0       	ldi	r25, 0x06	; 6
    1f30:	0e 94 e4 1b 	call	0x37c8	; 0x37c8 <_ZN4OLED21OLED_Clear_Bufer_partEiiii>
    1f34:	0f 2e       	mov	r0, r31
    1f36:	f1 e7       	ldi	r31, 0x71	; 113
    1f38:	ef 2e       	mov	r14, r31
    1f3a:	f4 e0       	ldi	r31, 0x04	; 4
    1f3c:	ff 2e       	mov	r15, r31
    1f3e:	f0 2d       	mov	r31, r0
    1f40:	24 e0       	ldi	r18, 0x04	; 4
    1f42:	30 e0       	ldi	r19, 0x00	; 0
    1f44:	42 e0       	ldi	r20, 0x02	; 2
    1f46:	50 e0       	ldi	r21, 0x00	; 0
    1f48:	62 e3       	ldi	r22, 0x32	; 50
    1f4a:	70 e0       	ldi	r23, 0x00	; 0
    1f4c:	8d e8       	ldi	r24, 0x8D	; 141
    1f4e:	96 e0       	ldi	r25, 0x06	; 6
    1f50:	0e 94 33 1c 	call	0x3866	; 0x3866 <_ZN4OLED19OLED_Write_To_BuferEiiiiPKh>
    1f54:	1c c0       	rjmp	.+56     	; 0x1f8e <_ZN9Main_Menu7actionsEv+0xfc>
    1f56:	00 e2       	ldi	r16, 0x20	; 32
    1f58:	10 e0       	ldi	r17, 0x00	; 0
    1f5a:	24 e0       	ldi	r18, 0x04	; 4
    1f5c:	30 e0       	ldi	r19, 0x00	; 0
    1f5e:	42 e0       	ldi	r20, 0x02	; 2
    1f60:	50 e0       	ldi	r21, 0x00	; 0
    1f62:	62 e3       	ldi	r22, 0x32	; 50
    1f64:	70 e0       	ldi	r23, 0x00	; 0
    1f66:	8d e8       	ldi	r24, 0x8D	; 141
    1f68:	96 e0       	ldi	r25, 0x06	; 6
    1f6a:	0e 94 e4 1b 	call	0x37c8	; 0x37c8 <_ZN4OLED21OLED_Clear_Bufer_partEiiii>
    1f6e:	0f 2e       	mov	r0, r31
    1f70:	f1 ee       	ldi	r31, 0xE1	; 225
    1f72:	ef 2e       	mov	r14, r31
    1f74:	f3 e0       	ldi	r31, 0x03	; 3
    1f76:	ff 2e       	mov	r15, r31
    1f78:	f0 2d       	mov	r31, r0
    1f7a:	24 e0       	ldi	r18, 0x04	; 4
    1f7c:	30 e0       	ldi	r19, 0x00	; 0
    1f7e:	42 e0       	ldi	r20, 0x02	; 2
    1f80:	50 e0       	ldi	r21, 0x00	; 0
    1f82:	62 e3       	ldi	r22, 0x32	; 50
    1f84:	70 e0       	ldi	r23, 0x00	; 0
    1f86:	8d e8       	ldi	r24, 0x8D	; 141
    1f88:	96 e0       	ldi	r25, 0x06	; 6
    1f8a:	0e 94 33 1c 	call	0x3866	; 0x3866 <_ZN4OLED19OLED_Write_To_BuferEiiiiPKh>
    1f8e:	1f 91       	pop	r17
    1f90:	0f 91       	pop	r16
    1f92:	ff 90       	pop	r15
    1f94:	ef 90       	pop	r14
    1f96:	08 95       	ret

00001f98 <_ZN9Main_Menu7DefaultEv>:
    1f98:	ef 92       	push	r14
    1f9a:	ff 92       	push	r15
    1f9c:	0f 93       	push	r16
    1f9e:	1f 93       	push	r17
    1fa0:	0f 2e       	mov	r0, r31
    1fa2:	f1 ec       	ldi	r31, 0xC1	; 193
    1fa4:	ef 2e       	mov	r14, r31
    1fa6:	f2 e0       	ldi	r31, 0x02	; 2
    1fa8:	ff 2e       	mov	r15, r31
    1faa:	f0 2d       	mov	r31, r0
    1fac:	00 e1       	ldi	r16, 0x10	; 16
    1fae:	10 e0       	ldi	r17, 0x00	; 0
    1fb0:	21 e0       	ldi	r18, 0x01	; 1
    1fb2:	30 e0       	ldi	r19, 0x00	; 0
    1fb4:	43 e0       	ldi	r20, 0x03	; 3
    1fb6:	50 e0       	ldi	r21, 0x00	; 0
    1fb8:	6e e1       	ldi	r22, 0x1E	; 30
    1fba:	70 e0       	ldi	r23, 0x00	; 0
    1fbc:	8d e8       	ldi	r24, 0x8D	; 141
    1fbe:	96 e0       	ldi	r25, 0x06	; 6
    1fc0:	0e 94 33 1c 	call	0x3866	; 0x3866 <_ZN4OLED19OLED_Write_To_BuferEiiiiPKh>
    1fc4:	0f 2e       	mov	r0, r31
    1fc6:	f1 e5       	ldi	r31, 0x51	; 81
    1fc8:	ef 2e       	mov	r14, r31
    1fca:	f3 e0       	ldi	r31, 0x03	; 3
    1fcc:	ff 2e       	mov	r15, r31
    1fce:	f0 2d       	mov	r31, r0
    1fd0:	21 e0       	ldi	r18, 0x01	; 1
    1fd2:	30 e0       	ldi	r19, 0x00	; 0
    1fd4:	43 e0       	ldi	r20, 0x03	; 3
    1fd6:	50 e0       	ldi	r21, 0x00	; 0
    1fd8:	6a e6       	ldi	r22, 0x6A	; 106
    1fda:	70 e0       	ldi	r23, 0x00	; 0
    1fdc:	8d e8       	ldi	r24, 0x8D	; 141
    1fde:	96 e0       	ldi	r25, 0x06	; 6
    1fe0:	0e 94 33 1c 	call	0x3866	; 0x3866 <_ZN4OLED19OLED_Write_To_BuferEiiiiPKh>
    1fe4:	1f 91       	pop	r17
    1fe6:	0f 91       	pop	r16
    1fe8:	ff 90       	pop	r15
    1fea:	ef 90       	pop	r14
    1fec:	08 95       	ret

00001fee <_ZN9Info_menu5closeEv>:
    1fee:	fc 01       	movw	r30, r24
    1ff0:	15 82       	std	Z+5, r1	; 0x05
    1ff2:	14 82       	std	Z+4, r1	; 0x04
    1ff4:	10 92 8a 06 	sts	0x068A, r1	; 0x80068a <Info_Menu_Status>
    1ff8:	81 e0       	ldi	r24, 0x01	; 1
    1ffa:	80 93 00 01 	sts	0x0100, r24	; 0x800100 <Main_Menu_Status>
    1ffe:	8d e8       	ldi	r24, 0x8D	; 141
    2000:	96 e0       	ldi	r25, 0x06	; 6
    2002:	0c 94 53 1b 	jmp	0x36a6	; 0x36a6 <_ZN4OLED16OLED_Bufer_ClearEv>
    2006:	08 95       	ret

00002008 <_ZN13Settings_Menu5closeEv>:
    2008:	fc 01       	movw	r30, r24
    200a:	15 82       	std	Z+5, r1	; 0x05
    200c:	14 82       	std	Z+4, r1	; 0x04
    200e:	10 92 8b 06 	sts	0x068B, r1	; 0x80068b <Settings_Menu_Status>
    2012:	81 e0       	ldi	r24, 0x01	; 1
    2014:	80 93 00 01 	sts	0x0100, r24	; 0x800100 <Main_Menu_Status>
    2018:	8d e8       	ldi	r24, 0x8D	; 141
    201a:	96 e0       	ldi	r25, 0x06	; 6
    201c:	0c 94 53 1b 	jmp	0x36a6	; 0x36a6 <_ZN4OLED16OLED_Bufer_ClearEv>
    2020:	08 95       	ret

00002022 <_ZN13Password_Menu5closeEv>:
    2022:	fc 01       	movw	r30, r24
    2024:	15 82       	std	Z+5, r1	; 0x05
    2026:	14 82       	std	Z+4, r1	; 0x04
    2028:	10 92 8c 06 	sts	0x068C, r1	; 0x80068c <Password_Menu_Status>
    202c:	81 e0       	ldi	r24, 0x01	; 1
    202e:	80 93 00 01 	sts	0x0100, r24	; 0x800100 <Main_Menu_Status>
    2032:	8d e8       	ldi	r24, 0x8D	; 141
    2034:	96 e0       	ldi	r25, 0x06	; 6
    2036:	0c 94 53 1b 	jmp	0x36a6	; 0x36a6 <_ZN4OLED16OLED_Bufer_ClearEv>
    203a:	08 95       	ret

0000203c <_ZN9Main_Menu5closeEv>:
    203c:	8d e8       	ldi	r24, 0x8D	; 141
    203e:	96 e0       	ldi	r25, 0x06	; 6
    2040:	0c 94 53 1b 	jmp	0x36a6	; 0x36a6 <_ZN4OLED16OLED_Bufer_ClearEv>
    2044:	08 95       	ret

00002046 <__vector_4>:
    2046:	1f 92       	push	r1
    2048:	0f 92       	push	r0
    204a:	0f b6       	in	r0, 0x3f	; 63
    204c:	0f 92       	push	r0
    204e:	11 24       	eor	r1, r1
    2050:	0b b6       	in	r0, 0x3b	; 59
    2052:	0f 92       	push	r0
    2054:	ef 92       	push	r14
    2056:	ff 92       	push	r15
    2058:	0f 93       	push	r16
    205a:	1f 93       	push	r17
    205c:	2f 93       	push	r18
    205e:	3f 93       	push	r19
    2060:	4f 93       	push	r20
    2062:	5f 93       	push	r21
    2064:	6f 93       	push	r22
    2066:	7f 93       	push	r23
    2068:	8f 93       	push	r24
    206a:	9f 93       	push	r25
    206c:	af 93       	push	r26
    206e:	bf 93       	push	r27
    2070:	ef 93       	push	r30
    2072:	ff 93       	push	r31
    2074:	f8 94       	cli
    2076:	80 b1       	in	r24, 0x00	; 0
    2078:	82 fb       	bst	r24, 2
    207a:	99 27       	eor	r25, r25
    207c:	90 f9       	bld	r25, 0
    207e:	81 e0       	ldi	r24, 0x01	; 1
    2080:	89 27       	eor	r24, r25
    2082:	90 91 4e 06 	lds	r25, 0x064E	; 0x80064e <btn2>
    2086:	98 17       	cp	r25, r24
    2088:	f8 f4       	brcc	.+62     	; 0x20c8 <__vector_4+0x82>
    208a:	08 e0       	ldi	r16, 0x08	; 8
    208c:	10 e0       	ldi	r17, 0x00	; 0
    208e:	21 e0       	ldi	r18, 0x01	; 1
    2090:	30 e0       	ldi	r19, 0x00	; 0
    2092:	40 e0       	ldi	r20, 0x00	; 0
    2094:	50 e0       	ldi	r21, 0x00	; 0
    2096:	60 e0       	ldi	r22, 0x00	; 0
    2098:	70 e0       	ldi	r23, 0x00	; 0
    209a:	8d e8       	ldi	r24, 0x8D	; 141
    209c:	96 e0       	ldi	r25, 0x06	; 6
    209e:	0e 94 e4 1b 	call	0x37c8	; 0x37c8 <_ZN4OLED21OLED_Clear_Bufer_partEiiii>
    20a2:	0f 2e       	mov	r0, r31
    20a4:	f1 e6       	ldi	r31, 0x61	; 97
    20a6:	ef 2e       	mov	r14, r31
    20a8:	f5 e0       	ldi	r31, 0x05	; 5
    20aa:	ff 2e       	mov	r15, r31
    20ac:	f0 2d       	mov	r31, r0
    20ae:	21 e0       	ldi	r18, 0x01	; 1
    20b0:	30 e0       	ldi	r19, 0x00	; 0
    20b2:	40 e0       	ldi	r20, 0x00	; 0
    20b4:	50 e0       	ldi	r21, 0x00	; 0
    20b6:	60 e0       	ldi	r22, 0x00	; 0
    20b8:	70 e0       	ldi	r23, 0x00	; 0
    20ba:	8d e8       	ldi	r24, 0x8D	; 141
    20bc:	96 e0       	ldi	r25, 0x06	; 6
    20be:	0e 94 33 1c 	call	0x3866	; 0x3866 <_ZN4OLED19OLED_Write_To_BuferEiiiiPKh>
    20c2:	81 e0       	ldi	r24, 0x01	; 1
    20c4:	80 93 4e 06 	sts	0x064E, r24	; 0x80064e <btn2>
    20c8:	80 b1       	in	r24, 0x00	; 0
    20ca:	83 fb       	bst	r24, 3
    20cc:	99 27       	eor	r25, r25
    20ce:	90 f9       	bld	r25, 0
    20d0:	81 e0       	ldi	r24, 0x01	; 1
    20d2:	89 27       	eor	r24, r25
    20d4:	90 91 4d 06 	lds	r25, 0x064D	; 0x80064d <btn3>
    20d8:	98 17       	cp	r25, r24
    20da:	f8 f4       	brcc	.+62     	; 0x211a <__vector_4+0xd4>
    20dc:	08 e0       	ldi	r16, 0x08	; 8
    20de:	10 e0       	ldi	r17, 0x00	; 0
    20e0:	21 e0       	ldi	r18, 0x01	; 1
    20e2:	30 e0       	ldi	r19, 0x00	; 0
    20e4:	40 e0       	ldi	r20, 0x00	; 0
    20e6:	50 e0       	ldi	r21, 0x00	; 0
    20e8:	60 e0       	ldi	r22, 0x00	; 0
    20ea:	70 e0       	ldi	r23, 0x00	; 0
    20ec:	8d e8       	ldi	r24, 0x8D	; 141
    20ee:	96 e0       	ldi	r25, 0x06	; 6
    20f0:	0e 94 e4 1b 	call	0x37c8	; 0x37c8 <_ZN4OLED21OLED_Clear_Bufer_partEiiii>
    20f4:	0f 2e       	mov	r0, r31
    20f6:	f9 e5       	ldi	r31, 0x59	; 89
    20f8:	ef 2e       	mov	r14, r31
    20fa:	f5 e0       	ldi	r31, 0x05	; 5
    20fc:	ff 2e       	mov	r15, r31
    20fe:	f0 2d       	mov	r31, r0
    2100:	21 e0       	ldi	r18, 0x01	; 1
    2102:	30 e0       	ldi	r19, 0x00	; 0
    2104:	40 e0       	ldi	r20, 0x00	; 0
    2106:	50 e0       	ldi	r21, 0x00	; 0
    2108:	60 e0       	ldi	r22, 0x00	; 0
    210a:	70 e0       	ldi	r23, 0x00	; 0
    210c:	8d e8       	ldi	r24, 0x8D	; 141
    210e:	96 e0       	ldi	r25, 0x06	; 6
    2110:	0e 94 33 1c 	call	0x3866	; 0x3866 <_ZN4OLED19OLED_Write_To_BuferEiiiiPKh>
    2114:	81 e0       	ldi	r24, 0x01	; 1
    2116:	80 93 4d 06 	sts	0x064D, r24	; 0x80064d <btn3>
    211a:	80 b1       	in	r24, 0x00	; 0
    211c:	82 95       	swap	r24
    211e:	81 70       	andi	r24, 0x01	; 1
    2120:	91 e0       	ldi	r25, 0x01	; 1
    2122:	89 27       	eor	r24, r25
    2124:	90 91 50 06 	lds	r25, 0x0650	; 0x800650 <btn0>
    2128:	98 17       	cp	r25, r24
    212a:	f8 f4       	brcc	.+62     	; 0x216a <__vector_4+0x124>
    212c:	08 e0       	ldi	r16, 0x08	; 8
    212e:	10 e0       	ldi	r17, 0x00	; 0
    2130:	21 e0       	ldi	r18, 0x01	; 1
    2132:	30 e0       	ldi	r19, 0x00	; 0
    2134:	40 e0       	ldi	r20, 0x00	; 0
    2136:	50 e0       	ldi	r21, 0x00	; 0
    2138:	60 e0       	ldi	r22, 0x00	; 0
    213a:	70 e0       	ldi	r23, 0x00	; 0
    213c:	8d e8       	ldi	r24, 0x8D	; 141
    213e:	96 e0       	ldi	r25, 0x06	; 6
    2140:	0e 94 e4 1b 	call	0x37c8	; 0x37c8 <_ZN4OLED21OLED_Clear_Bufer_partEiiii>
    2144:	0f 2e       	mov	r0, r31
    2146:	f1 e5       	ldi	r31, 0x51	; 81
    2148:	ef 2e       	mov	r14, r31
    214a:	f5 e0       	ldi	r31, 0x05	; 5
    214c:	ff 2e       	mov	r15, r31
    214e:	f0 2d       	mov	r31, r0
    2150:	21 e0       	ldi	r18, 0x01	; 1
    2152:	30 e0       	ldi	r19, 0x00	; 0
    2154:	40 e0       	ldi	r20, 0x00	; 0
    2156:	50 e0       	ldi	r21, 0x00	; 0
    2158:	60 e0       	ldi	r22, 0x00	; 0
    215a:	70 e0       	ldi	r23, 0x00	; 0
    215c:	8d e8       	ldi	r24, 0x8D	; 141
    215e:	96 e0       	ldi	r25, 0x06	; 6
    2160:	0e 94 33 1c 	call	0x3866	; 0x3866 <_ZN4OLED19OLED_Write_To_BuferEiiiiPKh>
    2164:	81 e0       	ldi	r24, 0x01	; 1
    2166:	80 93 50 06 	sts	0x0650, r24	; 0x800650 <btn0>
    216a:	80 b1       	in	r24, 0x00	; 0
    216c:	85 fb       	bst	r24, 5
    216e:	99 27       	eor	r25, r25
    2170:	90 f9       	bld	r25, 0
    2172:	81 e0       	ldi	r24, 0x01	; 1
    2174:	89 27       	eor	r24, r25
    2176:	90 91 4f 06 	lds	r25, 0x064F	; 0x80064f <btn1>
    217a:	98 17       	cp	r25, r24
    217c:	f8 f4       	brcc	.+62     	; 0x21bc <__vector_4+0x176>
    217e:	08 e0       	ldi	r16, 0x08	; 8
    2180:	10 e0       	ldi	r17, 0x00	; 0
    2182:	21 e0       	ldi	r18, 0x01	; 1
    2184:	30 e0       	ldi	r19, 0x00	; 0
    2186:	40 e0       	ldi	r20, 0x00	; 0
    2188:	50 e0       	ldi	r21, 0x00	; 0
    218a:	60 e0       	ldi	r22, 0x00	; 0
    218c:	70 e0       	ldi	r23, 0x00	; 0
    218e:	8d e8       	ldi	r24, 0x8D	; 141
    2190:	96 e0       	ldi	r25, 0x06	; 6
    2192:	0e 94 e4 1b 	call	0x37c8	; 0x37c8 <_ZN4OLED21OLED_Clear_Bufer_partEiiii>
    2196:	0f 2e       	mov	r0, r31
    2198:	f9 e4       	ldi	r31, 0x49	; 73
    219a:	ef 2e       	mov	r14, r31
    219c:	f5 e0       	ldi	r31, 0x05	; 5
    219e:	ff 2e       	mov	r15, r31
    21a0:	f0 2d       	mov	r31, r0
    21a2:	21 e0       	ldi	r18, 0x01	; 1
    21a4:	30 e0       	ldi	r19, 0x00	; 0
    21a6:	40 e0       	ldi	r20, 0x00	; 0
    21a8:	50 e0       	ldi	r21, 0x00	; 0
    21aa:	60 e0       	ldi	r22, 0x00	; 0
    21ac:	70 e0       	ldi	r23, 0x00	; 0
    21ae:	8d e8       	ldi	r24, 0x8D	; 141
    21b0:	96 e0       	ldi	r25, 0x06	; 6
    21b2:	0e 94 33 1c 	call	0x3866	; 0x3866 <_ZN4OLED19OLED_Write_To_BuferEiiiiPKh>
    21b6:	81 e0       	ldi	r24, 0x01	; 1
    21b8:	80 93 4f 06 	sts	0x064F, r24	; 0x80064f <btn1>
    21bc:	2f e9       	ldi	r18, 0x9F	; 159
    21be:	86 e8       	ldi	r24, 0x86	; 134
    21c0:	91 e0       	ldi	r25, 0x01	; 1
    21c2:	21 50       	subi	r18, 0x01	; 1
    21c4:	80 40       	sbci	r24, 0x00	; 0
    21c6:	90 40       	sbci	r25, 0x00	; 0
    21c8:	e1 f7       	brne	.-8      	; 0x21c2 <__vector_4+0x17c>
    21ca:	00 c0       	rjmp	.+0      	; 0x21cc <__vector_4+0x186>
    21cc:	00 00       	nop
    21ce:	78 94       	sei
    21d0:	ff 91       	pop	r31
    21d2:	ef 91       	pop	r30
    21d4:	bf 91       	pop	r27
    21d6:	af 91       	pop	r26
    21d8:	9f 91       	pop	r25
    21da:	8f 91       	pop	r24
    21dc:	7f 91       	pop	r23
    21de:	6f 91       	pop	r22
    21e0:	5f 91       	pop	r21
    21e2:	4f 91       	pop	r20
    21e4:	3f 91       	pop	r19
    21e6:	2f 91       	pop	r18
    21e8:	1f 91       	pop	r17
    21ea:	0f 91       	pop	r16
    21ec:	ff 90       	pop	r15
    21ee:	ef 90       	pop	r14
    21f0:	0f 90       	pop	r0
    21f2:	0b be       	out	0x3b, r0	; 59
    21f4:	0f 90       	pop	r0
    21f6:	0f be       	out	0x3f, r0	; 63
    21f8:	0f 90       	pop	r0
    21fa:	1f 90       	pop	r1
    21fc:	18 95       	reti

000021fe <_Z5checkv>:
    21fe:	af 92       	push	r10
    2200:	bf 92       	push	r11
    2202:	cf 92       	push	r12
    2204:	df 92       	push	r13
    2206:	ef 92       	push	r14
    2208:	ff 92       	push	r15
    220a:	0f 93       	push	r16
    220c:	1f 93       	push	r17
    220e:	cf 93       	push	r28
    2210:	df 93       	push	r29
    2212:	50 91 50 06 	lds	r21, 0x0650	; 0x800650 <btn0>
    2216:	90 91 4f 06 	lds	r25, 0x064F	; 0x80064f <btn1>
    221a:	81 e0       	ldi	r24, 0x01	; 1
    221c:	39 2f       	mov	r19, r25
    221e:	38 27       	eor	r19, r24
    2220:	20 91 4e 06 	lds	r18, 0x064E	; 0x80064e <btn2>
    2224:	62 2f       	mov	r22, r18
    2226:	68 27       	eor	r22, r24
    2228:	a3 2f       	mov	r26, r19
    222a:	a6 23       	and	r26, r22
    222c:	75 2f       	mov	r23, r21
    222e:	7a 23       	and	r23, r26
    2230:	b0 91 4d 06 	lds	r27, 0x064D	; 0x80064d <btn3>
    2234:	fb 2f       	mov	r31, r27
    2236:	f7 23       	and	r31, r23
    2238:	49 f0       	breq	.+18     	; 0x224c <_Z5checkv+0x4e>
    223a:	80 93 4c 06 	sts	0x064C, r24	; 0x80064c <btn03>
    223e:	58 27       	eor	r21, r24
    2240:	8b 27       	eor	r24, r27
    2242:	95 23       	and	r25, r21
    2244:	92 23       	and	r25, r18
    2246:	b9 17       	cp	r27, r25
    2248:	48 f0       	brcs	.+18     	; 0x225c <_Z5checkv+0x5e>
    224a:	08 c5       	rjmp	.+2576   	; 0x2c5c <_Z5checkv+0xa5e>
    224c:	81 e0       	ldi	r24, 0x01	; 1
    224e:	58 27       	eor	r21, r24
    2250:	95 23       	and	r25, r21
    2252:	8b 27       	eor	r24, r27
    2254:	42 2f       	mov	r20, r18
    2256:	49 23       	and	r20, r25
    2258:	b4 17       	cp	r27, r20
    225a:	40 f4       	brcc	.+16     	; 0x226c <_Z5checkv+0x6e>
    225c:	91 e0       	ldi	r25, 0x01	; 1
    225e:	90 93 4b 06 	sts	0x064B, r25	; 0x80064b <btn12>
    2262:	f0 91 4c 06 	lds	r31, 0x064C	; 0x80064c <btn03>
    2266:	40 e0       	ldi	r20, 0x00	; 0
    2268:	e1 e0       	ldi	r30, 0x01	; 1
    226a:	db c0       	rjmp	.+438    	; 0x2422 <_Z5checkv+0x224>
    226c:	e0 91 4b 06 	lds	r30, 0x064B	; 0x80064b <btn12>
    2270:	41 e0       	ldi	r20, 0x01	; 1
    2272:	4e 27       	eor	r20, r30
    2274:	f0 91 4c 06 	lds	r31, 0x064C	; 0x80064c <btn03>
    2278:	c8 2f       	mov	r28, r24
    227a:	c4 23       	and	r28, r20
    227c:	7c 23       	and	r23, r28
    227e:	f7 17       	cp	r31, r23
    2280:	08 f0       	brcs	.+2      	; 0x2284 <_Z5checkv+0x86>
    2282:	9d c0       	rjmp	.+314    	; 0x23be <_Z5checkv+0x1c0>
    2284:	08 e0       	ldi	r16, 0x08	; 8
    2286:	10 e0       	ldi	r17, 0x00	; 0
    2288:	21 e0       	ldi	r18, 0x01	; 1
    228a:	30 e0       	ldi	r19, 0x00	; 0
    228c:	40 e0       	ldi	r20, 0x00	; 0
    228e:	50 e0       	ldi	r21, 0x00	; 0
    2290:	60 e0       	ldi	r22, 0x00	; 0
    2292:	70 e0       	ldi	r23, 0x00	; 0
    2294:	8d e8       	ldi	r24, 0x8D	; 141
    2296:	96 e0       	ldi	r25, 0x06	; 6
    2298:	0e 94 e4 1b 	call	0x37c8	; 0x37c8 <_ZN4OLED21OLED_Clear_Bufer_partEiiii>
    229c:	0f 2e       	mov	r0, r31
    229e:	f9 e6       	ldi	r31, 0x69	; 105
    22a0:	ef 2e       	mov	r14, r31
    22a2:	f5 e0       	ldi	r31, 0x05	; 5
    22a4:	ff 2e       	mov	r15, r31
    22a6:	f0 2d       	mov	r31, r0
    22a8:	21 e0       	ldi	r18, 0x01	; 1
    22aa:	30 e0       	ldi	r19, 0x00	; 0
    22ac:	40 e0       	ldi	r20, 0x00	; 0
    22ae:	50 e0       	ldi	r21, 0x00	; 0
    22b0:	60 e0       	ldi	r22, 0x00	; 0
    22b2:	70 e0       	ldi	r23, 0x00	; 0
    22b4:	8d e8       	ldi	r24, 0x8D	; 141
    22b6:	96 e0       	ldi	r25, 0x06	; 6
    22b8:	0e 94 33 1c 	call	0x3866	; 0x3866 <_ZN4OLED19OLED_Write_To_BuferEiiiiPKh>
    22bc:	80 91 8c 06 	lds	r24, 0x068C	; 0x80068c <Password_Menu_Status>
    22c0:	88 23       	and	r24, r24
    22c2:	e1 f0       	breq	.+56     	; 0x22fc <_Z5checkv+0xfe>
    22c4:	80 91 5d 06 	lds	r24, 0x065D	; 0x80065d <passw_menu+0x6>
    22c8:	90 91 5e 06 	lds	r25, 0x065E	; 0x80065e <passw_menu+0x7>
    22cc:	01 97       	sbiw	r24, 0x01	; 1
    22ce:	2a f0       	brmi	.+10     	; 0x22da <_Z5checkv+0xdc>
    22d0:	90 93 5e 06 	sts	0x065E, r25	; 0x80065e <passw_menu+0x7>
    22d4:	80 93 5d 06 	sts	0x065D, r24	; 0x80065d <passw_menu+0x6>
    22d8:	06 c0       	rjmp	.+12     	; 0x22e6 <_Z5checkv+0xe8>
    22da:	8a e0       	ldi	r24, 0x0A	; 10
    22dc:	90 e0       	ldi	r25, 0x00	; 0
    22de:	90 93 5e 06 	sts	0x065E, r25	; 0x80065e <passw_menu+0x7>
    22e2:	80 93 5d 06 	sts	0x065D, r24	; 0x80065d <passw_menu+0x6>
    22e6:	e0 91 57 06 	lds	r30, 0x0657	; 0x800657 <passw_menu>
    22ea:	f0 91 58 06 	lds	r31, 0x0658	; 0x800658 <passw_menu+0x1>
    22ee:	00 88       	ldd	r0, Z+16	; 0x10
    22f0:	f1 89       	ldd	r31, Z+17	; 0x11
    22f2:	e0 2d       	mov	r30, r0
    22f4:	87 e5       	ldi	r24, 0x57	; 87
    22f6:	96 e0       	ldi	r25, 0x06	; 6
    22f8:	09 95       	icall
    22fa:	a3 c4       	rjmp	.+2374   	; 0x2c42 <_Z5checkv+0xa44>
    22fc:	80 91 00 01 	lds	r24, 0x0100	; 0x800100 <Main_Menu_Status>
    2300:	88 23       	and	r24, r24
    2302:	e1 f0       	breq	.+56     	; 0x233c <_Z5checkv+0x13e>
    2304:	80 91 55 06 	lds	r24, 0x0655	; 0x800655 <menu+0x4>
    2308:	90 91 56 06 	lds	r25, 0x0656	; 0x800656 <menu+0x5>
    230c:	01 97       	sbiw	r24, 0x01	; 1
    230e:	2a f0       	brmi	.+10     	; 0x231a <_Z5checkv+0x11c>
    2310:	90 93 56 06 	sts	0x0656, r25	; 0x800656 <menu+0x5>
    2314:	80 93 55 06 	sts	0x0655, r24	; 0x800655 <menu+0x4>
    2318:	06 c0       	rjmp	.+12     	; 0x2326 <_Z5checkv+0x128>
    231a:	82 e0       	ldi	r24, 0x02	; 2
    231c:	90 e0       	ldi	r25, 0x00	; 0
    231e:	90 93 56 06 	sts	0x0656, r25	; 0x800656 <menu+0x5>
    2322:	80 93 55 06 	sts	0x0655, r24	; 0x800655 <menu+0x4>
    2326:	e0 91 51 06 	lds	r30, 0x0651	; 0x800651 <menu>
    232a:	f0 91 52 06 	lds	r31, 0x0652	; 0x800652 <menu+0x1>
    232e:	00 88       	ldd	r0, Z+16	; 0x10
    2330:	f1 89       	ldd	r31, Z+17	; 0x11
    2332:	e0 2d       	mov	r30, r0
    2334:	81 e5       	ldi	r24, 0x51	; 81
    2336:	96 e0       	ldi	r25, 0x06	; 6
    2338:	09 95       	icall
    233a:	83 c4       	rjmp	.+2310   	; 0x2c42 <_Z5checkv+0xa44>
    233c:	80 91 8b 06 	lds	r24, 0x068B	; 0x80068b <Settings_Menu_Status>
    2340:	88 23       	and	r24, r24
    2342:	e1 f0       	breq	.+56     	; 0x237c <_Z5checkv+0x17e>
    2344:	80 91 6f 06 	lds	r24, 0x066F	; 0x80066f <sett_menu+0x4>
    2348:	90 91 70 06 	lds	r25, 0x0670	; 0x800670 <sett_menu+0x5>
    234c:	01 97       	sbiw	r24, 0x01	; 1
    234e:	2a f0       	brmi	.+10     	; 0x235a <_Z5checkv+0x15c>
    2350:	90 93 70 06 	sts	0x0670, r25	; 0x800670 <sett_menu+0x5>
    2354:	80 93 6f 06 	sts	0x066F, r24	; 0x80066f <sett_menu+0x4>
    2358:	06 c0       	rjmp	.+12     	; 0x2366 <_Z5checkv+0x168>
    235a:	83 e0       	ldi	r24, 0x03	; 3
    235c:	90 e0       	ldi	r25, 0x00	; 0
    235e:	90 93 70 06 	sts	0x0670, r25	; 0x800670 <sett_menu+0x5>
    2362:	80 93 6f 06 	sts	0x066F, r24	; 0x80066f <sett_menu+0x4>
    2366:	e0 91 6b 06 	lds	r30, 0x066B	; 0x80066b <sett_menu>
    236a:	f0 91 6c 06 	lds	r31, 0x066C	; 0x80066c <sett_menu+0x1>
    236e:	00 88       	ldd	r0, Z+16	; 0x10
    2370:	f1 89       	ldd	r31, Z+17	; 0x11
    2372:	e0 2d       	mov	r30, r0
    2374:	8b e6       	ldi	r24, 0x6B	; 107
    2376:	96 e0       	ldi	r25, 0x06	; 6
    2378:	09 95       	icall
    237a:	63 c4       	rjmp	.+2246   	; 0x2c42 <_Z5checkv+0xa44>
    237c:	80 91 8a 06 	lds	r24, 0x068A	; 0x80068a <Info_Menu_Status>
    2380:	88 23       	and	r24, r24
    2382:	09 f4       	brne	.+2      	; 0x2386 <_Z5checkv+0x188>
    2384:	5e c4       	rjmp	.+2236   	; 0x2c42 <_Z5checkv+0xa44>
    2386:	80 91 7f 06 	lds	r24, 0x067F	; 0x80067f <inf_menu+0x4>
    238a:	90 91 80 06 	lds	r25, 0x0680	; 0x800680 <inf_menu+0x5>
    238e:	01 97       	sbiw	r24, 0x01	; 1
    2390:	2a f0       	brmi	.+10     	; 0x239c <_Z5checkv+0x19e>
    2392:	90 93 80 06 	sts	0x0680, r25	; 0x800680 <inf_menu+0x5>
    2396:	80 93 7f 06 	sts	0x067F, r24	; 0x80067f <inf_menu+0x4>
    239a:	06 c0       	rjmp	.+12     	; 0x23a8 <_Z5checkv+0x1aa>
    239c:	82 e0       	ldi	r24, 0x02	; 2
    239e:	90 e0       	ldi	r25, 0x00	; 0
    23a0:	90 93 80 06 	sts	0x0680, r25	; 0x800680 <inf_menu+0x5>
    23a4:	80 93 7f 06 	sts	0x067F, r24	; 0x80067f <inf_menu+0x4>
    23a8:	e0 91 7b 06 	lds	r30, 0x067B	; 0x80067b <inf_menu>
    23ac:	f0 91 7c 06 	lds	r31, 0x067C	; 0x80067c <inf_menu+0x1>
    23b0:	00 88       	ldd	r0, Z+16	; 0x10
    23b2:	f1 89       	ldd	r31, Z+17	; 0x11
    23b4:	e0 2d       	mov	r30, r0
    23b6:	8b e7       	ldi	r24, 0x7B	; 123
    23b8:	96 e0       	ldi	r25, 0x06	; 6
    23ba:	09 95       	icall
    23bc:	42 c4       	rjmp	.+2180   	; 0x2c42 <_Z5checkv+0xa44>
    23be:	98 23       	and	r25, r24
    23c0:	96 23       	and	r25, r22
    23c2:	94 23       	and	r25, r20
    23c4:	f9 17       	cp	r31, r25
    23c6:	68 f5       	brcc	.+90     	; 0x2422 <_Z5checkv+0x224>
    23c8:	08 e0       	ldi	r16, 0x08	; 8
    23ca:	10 e0       	ldi	r17, 0x00	; 0
    23cc:	21 e0       	ldi	r18, 0x01	; 1
    23ce:	30 e0       	ldi	r19, 0x00	; 0
    23d0:	40 e0       	ldi	r20, 0x00	; 0
    23d2:	50 e0       	ldi	r21, 0x00	; 0
    23d4:	60 e0       	ldi	r22, 0x00	; 0
    23d6:	70 e0       	ldi	r23, 0x00	; 0
    23d8:	8d e8       	ldi	r24, 0x8D	; 141
    23da:	96 e0       	ldi	r25, 0x06	; 6
    23dc:	0e 94 e4 1b 	call	0x37c8	; 0x37c8 <_ZN4OLED21OLED_Clear_Bufer_partEiiii>
    23e0:	0f 2e       	mov	r0, r31
    23e2:	f1 e6       	ldi	r31, 0x61	; 97
    23e4:	ef 2e       	mov	r14, r31
    23e6:	f5 e0       	ldi	r31, 0x05	; 5
    23e8:	ff 2e       	mov	r15, r31
    23ea:	f0 2d       	mov	r31, r0
    23ec:	21 e0       	ldi	r18, 0x01	; 1
    23ee:	30 e0       	ldi	r19, 0x00	; 0
    23f0:	40 e0       	ldi	r20, 0x00	; 0
    23f2:	50 e0       	ldi	r21, 0x00	; 0
    23f4:	60 e0       	ldi	r22, 0x00	; 0
    23f6:	70 e0       	ldi	r23, 0x00	; 0
    23f8:	8d e8       	ldi	r24, 0x8D	; 141
    23fa:	96 e0       	ldi	r25, 0x06	; 6
    23fc:	0e 94 33 1c 	call	0x3866	; 0x3866 <_ZN4OLED19OLED_Write_To_BuferEiiiiPKh>
    2400:	80 91 89 06 	lds	r24, 0x0689	; 0x800689 <locked>
    2404:	81 11       	cpse	r24, r1
    2406:	1d c4       	rjmp	.+2106   	; 0x2c42 <_Z5checkv+0xa44>
    2408:	80 e8       	ldi	r24, 0x80	; 128
    240a:	8b b9       	out	0x0b, r24	; 11
    240c:	2f eb       	ldi	r18, 0xBF	; 191
    240e:	86 ec       	ldi	r24, 0xC6	; 198
    2410:	9d e2       	ldi	r25, 0x2D	; 45
    2412:	21 50       	subi	r18, 0x01	; 1
    2414:	80 40       	sbci	r24, 0x00	; 0
    2416:	90 40       	sbci	r25, 0x00	; 0
    2418:	e1 f7       	brne	.-8      	; 0x2412 <_Z5checkv+0x214>
    241a:	00 c0       	rjmp	.+0      	; 0x241c <_Z5checkv+0x21e>
    241c:	00 00       	nop
    241e:	1b b8       	out	0x0b, r1	; 11
    2420:	10 c4       	rjmp	.+2080   	; 0x2c42 <_Z5checkv+0xa44>
    2422:	35 23       	and	r19, r21
    2424:	98 2f       	mov	r25, r24
    2426:	94 23       	and	r25, r20
    2428:	29 23       	and	r18, r25
    242a:	23 23       	and	r18, r19
    242c:	f2 17       	cp	r31, r18
    242e:	68 f5       	brcc	.+90     	; 0x248a <_Z5checkv+0x28c>
    2430:	08 e0       	ldi	r16, 0x08	; 8
    2432:	10 e0       	ldi	r17, 0x00	; 0
    2434:	21 e0       	ldi	r18, 0x01	; 1
    2436:	30 e0       	ldi	r19, 0x00	; 0
    2438:	40 e0       	ldi	r20, 0x00	; 0
    243a:	50 e0       	ldi	r21, 0x00	; 0
    243c:	60 e0       	ldi	r22, 0x00	; 0
    243e:	70 e0       	ldi	r23, 0x00	; 0
    2440:	8d e8       	ldi	r24, 0x8D	; 141
    2442:	96 e0       	ldi	r25, 0x06	; 6
    2444:	0e 94 e4 1b 	call	0x37c8	; 0x37c8 <_ZN4OLED21OLED_Clear_Bufer_partEiiii>
    2448:	0f 2e       	mov	r0, r31
    244a:	f9 e5       	ldi	r31, 0x59	; 89
    244c:	ef 2e       	mov	r14, r31
    244e:	f5 e0       	ldi	r31, 0x05	; 5
    2450:	ff 2e       	mov	r15, r31
    2452:	f0 2d       	mov	r31, r0
    2454:	21 e0       	ldi	r18, 0x01	; 1
    2456:	30 e0       	ldi	r19, 0x00	; 0
    2458:	40 e0       	ldi	r20, 0x00	; 0
    245a:	50 e0       	ldi	r21, 0x00	; 0
    245c:	60 e0       	ldi	r22, 0x00	; 0
    245e:	70 e0       	ldi	r23, 0x00	; 0
    2460:	8d e8       	ldi	r24, 0x8D	; 141
    2462:	96 e0       	ldi	r25, 0x06	; 6
    2464:	0e 94 33 1c 	call	0x3866	; 0x3866 <_ZN4OLED19OLED_Write_To_BuferEiiiiPKh>
    2468:	80 91 89 06 	lds	r24, 0x0689	; 0x800689 <locked>
    246c:	81 11       	cpse	r24, r1
    246e:	e9 c3       	rjmp	.+2002   	; 0x2c42 <_Z5checkv+0xa44>
    2470:	80 e8       	ldi	r24, 0x80	; 128
    2472:	8b b9       	out	0x0b, r24	; 11
    2474:	ef eb       	ldi	r30, 0xBF	; 191
    2476:	f6 ec       	ldi	r31, 0xC6	; 198
    2478:	2d e2       	ldi	r18, 0x2D	; 45
    247a:	e1 50       	subi	r30, 0x01	; 1
    247c:	f0 40       	sbci	r31, 0x00	; 0
    247e:	20 40       	sbci	r18, 0x00	; 0
    2480:	e1 f7       	brne	.-8      	; 0x247a <_Z5checkv+0x27c>
    2482:	00 c0       	rjmp	.+0      	; 0x2484 <_Z5checkv+0x286>
    2484:	00 00       	nop
    2486:	1b b8       	out	0x0b, r1	; 11
    2488:	dc c3       	rjmp	.+1976   	; 0x2c42 <_Z5checkv+0xa44>
    248a:	6b 23       	and	r22, r27
    248c:	64 23       	and	r22, r20
    248e:	36 23       	and	r19, r22
    2490:	f3 17       	cp	r31, r19
    2492:	08 f0       	brcs	.+2      	; 0x2496 <_Z5checkv+0x298>
    2494:	9d c0       	rjmp	.+314    	; 0x25d0 <_Z5checkv+0x3d2>
    2496:	08 e0       	ldi	r16, 0x08	; 8
    2498:	10 e0       	ldi	r17, 0x00	; 0
    249a:	21 e0       	ldi	r18, 0x01	; 1
    249c:	30 e0       	ldi	r19, 0x00	; 0
    249e:	40 e0       	ldi	r20, 0x00	; 0
    24a0:	50 e0       	ldi	r21, 0x00	; 0
    24a2:	60 e0       	ldi	r22, 0x00	; 0
    24a4:	70 e0       	ldi	r23, 0x00	; 0
    24a6:	8d e8       	ldi	r24, 0x8D	; 141
    24a8:	96 e0       	ldi	r25, 0x06	; 6
    24aa:	0e 94 e4 1b 	call	0x37c8	; 0x37c8 <_ZN4OLED21OLED_Clear_Bufer_partEiiii>
    24ae:	0f 2e       	mov	r0, r31
    24b0:	f1 e5       	ldi	r31, 0x51	; 81
    24b2:	ef 2e       	mov	r14, r31
    24b4:	f5 e0       	ldi	r31, 0x05	; 5
    24b6:	ff 2e       	mov	r15, r31
    24b8:	f0 2d       	mov	r31, r0
    24ba:	21 e0       	ldi	r18, 0x01	; 1
    24bc:	30 e0       	ldi	r19, 0x00	; 0
    24be:	40 e0       	ldi	r20, 0x00	; 0
    24c0:	50 e0       	ldi	r21, 0x00	; 0
    24c2:	60 e0       	ldi	r22, 0x00	; 0
    24c4:	70 e0       	ldi	r23, 0x00	; 0
    24c6:	8d e8       	ldi	r24, 0x8D	; 141
    24c8:	96 e0       	ldi	r25, 0x06	; 6
    24ca:	0e 94 33 1c 	call	0x3866	; 0x3866 <_ZN4OLED19OLED_Write_To_BuferEiiiiPKh>
    24ce:	80 91 8c 06 	lds	r24, 0x068C	; 0x80068c <Password_Menu_Status>
    24d2:	88 23       	and	r24, r24
    24d4:	e1 f0       	breq	.+56     	; 0x250e <_Z5checkv+0x310>
    24d6:	80 91 5d 06 	lds	r24, 0x065D	; 0x80065d <passw_menu+0x6>
    24da:	90 91 5e 06 	lds	r25, 0x065E	; 0x80065e <passw_menu+0x7>
    24de:	01 96       	adiw	r24, 0x01	; 1
    24e0:	8b 30       	cpi	r24, 0x0B	; 11
    24e2:	91 05       	cpc	r25, r1
    24e4:	2c f4       	brge	.+10     	; 0x24f0 <_Z5checkv+0x2f2>
    24e6:	90 93 5e 06 	sts	0x065E, r25	; 0x80065e <passw_menu+0x7>
    24ea:	80 93 5d 06 	sts	0x065D, r24	; 0x80065d <passw_menu+0x6>
    24ee:	04 c0       	rjmp	.+8      	; 0x24f8 <_Z5checkv+0x2fa>
    24f0:	10 92 5e 06 	sts	0x065E, r1	; 0x80065e <passw_menu+0x7>
    24f4:	10 92 5d 06 	sts	0x065D, r1	; 0x80065d <passw_menu+0x6>
    24f8:	e0 91 57 06 	lds	r30, 0x0657	; 0x800657 <passw_menu>
    24fc:	f0 91 58 06 	lds	r31, 0x0658	; 0x800658 <passw_menu+0x1>
    2500:	00 88       	ldd	r0, Z+16	; 0x10
    2502:	f1 89       	ldd	r31, Z+17	; 0x11
    2504:	e0 2d       	mov	r30, r0
    2506:	87 e5       	ldi	r24, 0x57	; 87
    2508:	96 e0       	ldi	r25, 0x06	; 6
    250a:	09 95       	icall
    250c:	9a c3       	rjmp	.+1844   	; 0x2c42 <_Z5checkv+0xa44>
    250e:	80 91 00 01 	lds	r24, 0x0100	; 0x800100 <Main_Menu_Status>
    2512:	88 23       	and	r24, r24
    2514:	e1 f0       	breq	.+56     	; 0x254e <_Z5checkv+0x350>
    2516:	80 91 55 06 	lds	r24, 0x0655	; 0x800655 <menu+0x4>
    251a:	90 91 56 06 	lds	r25, 0x0656	; 0x800656 <menu+0x5>
    251e:	01 96       	adiw	r24, 0x01	; 1
    2520:	83 30       	cpi	r24, 0x03	; 3
    2522:	91 05       	cpc	r25, r1
    2524:	2c f4       	brge	.+10     	; 0x2530 <_Z5checkv+0x332>
    2526:	90 93 56 06 	sts	0x0656, r25	; 0x800656 <menu+0x5>
    252a:	80 93 55 06 	sts	0x0655, r24	; 0x800655 <menu+0x4>
    252e:	04 c0       	rjmp	.+8      	; 0x2538 <_Z5checkv+0x33a>
    2530:	10 92 56 06 	sts	0x0656, r1	; 0x800656 <menu+0x5>
    2534:	10 92 55 06 	sts	0x0655, r1	; 0x800655 <menu+0x4>
    2538:	e0 91 51 06 	lds	r30, 0x0651	; 0x800651 <menu>
    253c:	f0 91 52 06 	lds	r31, 0x0652	; 0x800652 <menu+0x1>
    2540:	00 88       	ldd	r0, Z+16	; 0x10
    2542:	f1 89       	ldd	r31, Z+17	; 0x11
    2544:	e0 2d       	mov	r30, r0
    2546:	81 e5       	ldi	r24, 0x51	; 81
    2548:	96 e0       	ldi	r25, 0x06	; 6
    254a:	09 95       	icall
    254c:	7a c3       	rjmp	.+1780   	; 0x2c42 <_Z5checkv+0xa44>
    254e:	80 91 8b 06 	lds	r24, 0x068B	; 0x80068b <Settings_Menu_Status>
    2552:	88 23       	and	r24, r24
    2554:	e1 f0       	breq	.+56     	; 0x258e <_Z5checkv+0x390>
    2556:	80 91 6f 06 	lds	r24, 0x066F	; 0x80066f <sett_menu+0x4>
    255a:	90 91 70 06 	lds	r25, 0x0670	; 0x800670 <sett_menu+0x5>
    255e:	01 96       	adiw	r24, 0x01	; 1
    2560:	84 30       	cpi	r24, 0x04	; 4
    2562:	91 05       	cpc	r25, r1
    2564:	2c f4       	brge	.+10     	; 0x2570 <_Z5checkv+0x372>
    2566:	90 93 70 06 	sts	0x0670, r25	; 0x800670 <sett_menu+0x5>
    256a:	80 93 6f 06 	sts	0x066F, r24	; 0x80066f <sett_menu+0x4>
    256e:	04 c0       	rjmp	.+8      	; 0x2578 <_Z5checkv+0x37a>
    2570:	10 92 70 06 	sts	0x0670, r1	; 0x800670 <sett_menu+0x5>
    2574:	10 92 6f 06 	sts	0x066F, r1	; 0x80066f <sett_menu+0x4>
    2578:	e0 91 6b 06 	lds	r30, 0x066B	; 0x80066b <sett_menu>
    257c:	f0 91 6c 06 	lds	r31, 0x066C	; 0x80066c <sett_menu+0x1>
    2580:	00 88       	ldd	r0, Z+16	; 0x10
    2582:	f1 89       	ldd	r31, Z+17	; 0x11
    2584:	e0 2d       	mov	r30, r0
    2586:	8b e6       	ldi	r24, 0x6B	; 107
    2588:	96 e0       	ldi	r25, 0x06	; 6
    258a:	09 95       	icall
    258c:	5a c3       	rjmp	.+1716   	; 0x2c42 <_Z5checkv+0xa44>
    258e:	80 91 8a 06 	lds	r24, 0x068A	; 0x80068a <Info_Menu_Status>
    2592:	88 23       	and	r24, r24
    2594:	09 f4       	brne	.+2      	; 0x2598 <_Z5checkv+0x39a>
    2596:	55 c3       	rjmp	.+1706   	; 0x2c42 <_Z5checkv+0xa44>
    2598:	80 91 7f 06 	lds	r24, 0x067F	; 0x80067f <inf_menu+0x4>
    259c:	90 91 80 06 	lds	r25, 0x0680	; 0x800680 <inf_menu+0x5>
    25a0:	01 96       	adiw	r24, 0x01	; 1
    25a2:	83 30       	cpi	r24, 0x03	; 3
    25a4:	91 05       	cpc	r25, r1
    25a6:	2c f4       	brge	.+10     	; 0x25b2 <_Z5checkv+0x3b4>
    25a8:	90 93 80 06 	sts	0x0680, r25	; 0x800680 <inf_menu+0x5>
    25ac:	80 93 7f 06 	sts	0x067F, r24	; 0x80067f <inf_menu+0x4>
    25b0:	04 c0       	rjmp	.+8      	; 0x25ba <_Z5checkv+0x3bc>
    25b2:	10 92 80 06 	sts	0x0680, r1	; 0x800680 <inf_menu+0x5>
    25b6:	10 92 7f 06 	sts	0x067F, r1	; 0x80067f <inf_menu+0x4>
    25ba:	e0 91 7b 06 	lds	r30, 0x067B	; 0x80067b <inf_menu>
    25be:	f0 91 7c 06 	lds	r31, 0x067C	; 0x80067c <inf_menu+0x1>
    25c2:	00 88       	ldd	r0, Z+16	; 0x10
    25c4:	f1 89       	ldd	r31, Z+17	; 0x11
    25c6:	e0 2d       	mov	r30, r0
    25c8:	8b e7       	ldi	r24, 0x7B	; 123
    25ca:	96 e0       	ldi	r25, 0x06	; 6
    25cc:	09 95       	icall
    25ce:	39 c3       	rjmp	.+1650   	; 0x2c42 <_Z5checkv+0xa44>
    25d0:	58 23       	and	r21, r24
    25d2:	e5 23       	and	r30, r21
    25d4:	fe 17       	cp	r31, r30
    25d6:	68 f5       	brcc	.+90     	; 0x2632 <_Z5checkv+0x434>
    25d8:	08 e0       	ldi	r16, 0x08	; 8
    25da:	10 e0       	ldi	r17, 0x00	; 0
    25dc:	21 e0       	ldi	r18, 0x01	; 1
    25de:	30 e0       	ldi	r19, 0x00	; 0
    25e0:	40 e0       	ldi	r20, 0x00	; 0
    25e2:	50 e0       	ldi	r21, 0x00	; 0
    25e4:	60 e0       	ldi	r22, 0x00	; 0
    25e6:	70 e0       	ldi	r23, 0x00	; 0
    25e8:	8d e8       	ldi	r24, 0x8D	; 141
    25ea:	96 e0       	ldi	r25, 0x06	; 6
    25ec:	0e 94 e4 1b 	call	0x37c8	; 0x37c8 <_ZN4OLED21OLED_Clear_Bufer_partEiiii>
    25f0:	0f 2e       	mov	r0, r31
    25f2:	f9 e4       	ldi	r31, 0x49	; 73
    25f4:	ef 2e       	mov	r14, r31
    25f6:	f5 e0       	ldi	r31, 0x05	; 5
    25f8:	ff 2e       	mov	r15, r31
    25fa:	f0 2d       	mov	r31, r0
    25fc:	21 e0       	ldi	r18, 0x01	; 1
    25fe:	30 e0       	ldi	r19, 0x00	; 0
    2600:	40 e0       	ldi	r20, 0x00	; 0
    2602:	50 e0       	ldi	r21, 0x00	; 0
    2604:	60 e0       	ldi	r22, 0x00	; 0
    2606:	70 e0       	ldi	r23, 0x00	; 0
    2608:	8d e8       	ldi	r24, 0x8D	; 141
    260a:	96 e0       	ldi	r25, 0x06	; 6
    260c:	0e 94 33 1c 	call	0x3866	; 0x3866 <_ZN4OLED19OLED_Write_To_BuferEiiiiPKh>
    2610:	80 91 89 06 	lds	r24, 0x0689	; 0x800689 <locked>
    2614:	81 11       	cpse	r24, r1
    2616:	15 c3       	rjmp	.+1578   	; 0x2c42 <_Z5checkv+0xa44>
    2618:	80 e8       	ldi	r24, 0x80	; 128
    261a:	8b b9       	out	0x0b, r24	; 11
    261c:	8f eb       	ldi	r24, 0xBF	; 191
    261e:	96 ec       	ldi	r25, 0xC6	; 198
    2620:	ed e2       	ldi	r30, 0x2D	; 45
    2622:	81 50       	subi	r24, 0x01	; 1
    2624:	90 40       	sbci	r25, 0x00	; 0
    2626:	e0 40       	sbci	r30, 0x00	; 0
    2628:	e1 f7       	brne	.-8      	; 0x2622 <_Z5checkv+0x424>
    262a:	00 c0       	rjmp	.+0      	; 0x262c <_Z5checkv+0x42e>
    262c:	00 00       	nop
    262e:	1b b8       	out	0x0b, r1	; 11
    2630:	08 c3       	rjmp	.+1552   	; 0x2c42 <_Z5checkv+0xa44>
    2632:	4a 23       	and	r20, r26
    2634:	09 f4       	brne	.+2      	; 0x2638 <_Z5checkv+0x43a>
    2636:	05 c3       	rjmp	.+1546   	; 0x2c42 <_Z5checkv+0xa44>
    2638:	ff 23       	and	r31, r31
    263a:	09 f4       	brne	.+2      	; 0x263e <_Z5checkv+0x440>
    263c:	02 c3       	rjmp	.+1540   	; 0x2c42 <_Z5checkv+0xa44>
    263e:	08 e0       	ldi	r16, 0x08	; 8
    2640:	10 e0       	ldi	r17, 0x00	; 0
    2642:	21 e0       	ldi	r18, 0x01	; 1
    2644:	30 e0       	ldi	r19, 0x00	; 0
    2646:	40 e0       	ldi	r20, 0x00	; 0
    2648:	50 e0       	ldi	r21, 0x00	; 0
    264a:	60 e0       	ldi	r22, 0x00	; 0
    264c:	70 e0       	ldi	r23, 0x00	; 0
    264e:	8d e8       	ldi	r24, 0x8D	; 141
    2650:	96 e0       	ldi	r25, 0x06	; 6
    2652:	0e 94 e4 1b 	call	0x37c8	; 0x37c8 <_ZN4OLED21OLED_Clear_Bufer_partEiiii>
    2656:	0f 2e       	mov	r0, r31
    2658:	f1 e4       	ldi	r31, 0x41	; 65
    265a:	ef 2e       	mov	r14, r31
    265c:	f5 e0       	ldi	r31, 0x05	; 5
    265e:	ff 2e       	mov	r15, r31
    2660:	f0 2d       	mov	r31, r0
    2662:	21 e0       	ldi	r18, 0x01	; 1
    2664:	30 e0       	ldi	r19, 0x00	; 0
    2666:	40 e0       	ldi	r20, 0x00	; 0
    2668:	50 e0       	ldi	r21, 0x00	; 0
    266a:	60 e0       	ldi	r22, 0x00	; 0
    266c:	70 e0       	ldi	r23, 0x00	; 0
    266e:	8d e8       	ldi	r24, 0x8D	; 141
    2670:	96 e0       	ldi	r25, 0x06	; 6
    2672:	0e 94 33 1c 	call	0x3866	; 0x3866 <_ZN4OLED19OLED_Write_To_BuferEiiiiPKh>
    2676:	80 91 8c 06 	lds	r24, 0x068C	; 0x80068c <Password_Menu_Status>
    267a:	88 23       	and	r24, r24
    267c:	09 f4       	brne	.+2      	; 0x2680 <_Z5checkv+0x482>
    267e:	77 c2       	rjmp	.+1262   	; 0x2b6e <_Z5checkv+0x970>
    2680:	e0 91 5d 06 	lds	r30, 0x065D	; 0x80065d <passw_menu+0x6>
    2684:	f0 91 5e 06 	lds	r31, 0x065E	; 0x80065e <passw_menu+0x7>
    2688:	eb 30       	cpi	r30, 0x0B	; 11
    268a:	f1 05       	cpc	r31, r1
    268c:	08 f0       	brcs	.+2      	; 0x2690 <_Z5checkv+0x492>
    268e:	4b c2       	rjmp	.+1174   	; 0x2b26 <_Z5checkv+0x928>
    2690:	e4 5a       	subi	r30, 0xA4	; 164
    2692:	ff 4f       	sbci	r31, 0xFF	; 255
    2694:	0c 94 fb 1c 	jmp	0x39f6	; 0x39f6 <__tablejump2__>
    2698:	e7 e5       	ldi	r30, 0x57	; 87
    269a:	f6 e0       	ldi	r31, 0x06	; 6
    269c:	84 81       	ldd	r24, Z+4	; 0x04
    269e:	95 81       	ldd	r25, Z+5	; 0x05
    26a0:	01 96       	adiw	r24, 0x01	; 1
    26a2:	95 83       	std	Z+5, r25	; 0x05
    26a4:	84 83       	std	Z+4, r24	; 0x04
    26a6:	18 16       	cp	r1, r24
    26a8:	19 06       	cpc	r1, r25
    26aa:	0c f0       	brlt	.+2      	; 0x26ae <_Z5checkv+0x4b0>
    26ac:	3c c2       	rjmp	.+1144   	; 0x2b26 <_Z5checkv+0x928>
    26ae:	0f 2e       	mov	r0, r31
    26b0:	ff e5       	ldi	r31, 0x5F	; 95
    26b2:	cf 2e       	mov	r12, r31
    26b4:	f6 e0       	ldi	r31, 0x06	; 6
    26b6:	df 2e       	mov	r13, r31
    26b8:	f0 2d       	mov	r31, r0
    26ba:	e1 2c       	mov	r14, r1
    26bc:	f1 2c       	mov	r15, r1
    26be:	ef 01       	movw	r28, r30
    26c0:	56 01       	movw	r10, r12
    26c2:	4a 89       	ldd	r20, Y+18	; 0x12
    26c4:	5b 89       	ldd	r21, Y+19	; 0x13
    26c6:	4e 5f       	subi	r20, 0xFE	; 254
    26c8:	5f 4f       	sbci	r21, 0xFF	; 255
    26ca:	f6 01       	movw	r30, r12
    26cc:	61 91       	ld	r22, Z+
    26ce:	71 91       	ld	r23, Z+
    26d0:	6f 01       	movw	r12, r30
    26d2:	08 e0       	ldi	r16, 0x08	; 8
    26d4:	10 e0       	ldi	r17, 0x00	; 0
    26d6:	21 e0       	ldi	r18, 0x01	; 1
    26d8:	30 e0       	ldi	r19, 0x00	; 0
    26da:	8d e8       	ldi	r24, 0x8D	; 141
    26dc:	96 e0       	ldi	r25, 0x06	; 6
    26de:	0e 94 e4 1b 	call	0x37c8	; 0x37c8 <_ZN4OLED21OLED_Clear_Bufer_partEiiii>
    26e2:	4a 89       	ldd	r20, Y+18	; 0x12
    26e4:	5b 89       	ldd	r21, Y+19	; 0x13
    26e6:	41 50       	subi	r20, 0x01	; 1
    26e8:	51 09       	sbc	r21, r1
    26ea:	f5 01       	movw	r30, r10
    26ec:	60 81       	ld	r22, Z
    26ee:	71 81       	ldd	r23, Z+1	; 0x01
    26f0:	21 e0       	ldi	r18, 0x01	; 1
    26f2:	30 e0       	ldi	r19, 0x00	; 0
    26f4:	8d e8       	ldi	r24, 0x8D	; 141
    26f6:	96 e0       	ldi	r25, 0x06	; 6
    26f8:	0e 94 e4 1b 	call	0x37c8	; 0x37c8 <_ZN4OLED21OLED_Clear_Bufer_partEiiii>
    26fc:	ff ef       	ldi	r31, 0xFF	; 255
    26fe:	ef 1a       	sub	r14, r31
    2700:	ff 0a       	sbc	r15, r31
    2702:	8c 81       	ldd	r24, Y+4	; 0x04
    2704:	9d 81       	ldd	r25, Y+5	; 0x05
    2706:	e8 16       	cp	r14, r24
    2708:	f9 06       	cpc	r15, r25
    270a:	d4 f2       	brlt	.-76     	; 0x26c0 <_Z5checkv+0x4c2>
    270c:	0c c2       	rjmp	.+1048   	; 0x2b26 <_Z5checkv+0x928>
    270e:	e7 e5       	ldi	r30, 0x57	; 87
    2710:	f6 e0       	ldi	r31, 0x06	; 6
    2712:	84 81       	ldd	r24, Z+4	; 0x04
    2714:	95 81       	ldd	r25, Z+5	; 0x05
    2716:	01 96       	adiw	r24, 0x01	; 1
    2718:	95 83       	std	Z+5, r25	; 0x05
    271a:	84 83       	std	Z+4, r24	; 0x04
    271c:	18 16       	cp	r1, r24
    271e:	19 06       	cpc	r1, r25
    2720:	0c f0       	brlt	.+2      	; 0x2724 <_Z5checkv+0x526>
    2722:	01 c2       	rjmp	.+1026   	; 0x2b26 <_Z5checkv+0x928>
    2724:	0f 2e       	mov	r0, r31
    2726:	ff e5       	ldi	r31, 0x5F	; 95
    2728:	cf 2e       	mov	r12, r31
    272a:	f6 e0       	ldi	r31, 0x06	; 6
    272c:	df 2e       	mov	r13, r31
    272e:	f0 2d       	mov	r31, r0
    2730:	e1 2c       	mov	r14, r1
    2732:	f1 2c       	mov	r15, r1
    2734:	ef 01       	movw	r28, r30
    2736:	56 01       	movw	r10, r12
    2738:	4a 89       	ldd	r20, Y+18	; 0x12
    273a:	5b 89       	ldd	r21, Y+19	; 0x13
    273c:	4e 5f       	subi	r20, 0xFE	; 254
    273e:	5f 4f       	sbci	r21, 0xFF	; 255
    2740:	f6 01       	movw	r30, r12
    2742:	61 91       	ld	r22, Z+
    2744:	71 91       	ld	r23, Z+
    2746:	6f 01       	movw	r12, r30
    2748:	08 e0       	ldi	r16, 0x08	; 8
    274a:	10 e0       	ldi	r17, 0x00	; 0
    274c:	21 e0       	ldi	r18, 0x01	; 1
    274e:	30 e0       	ldi	r19, 0x00	; 0
    2750:	8d e8       	ldi	r24, 0x8D	; 141
    2752:	96 e0       	ldi	r25, 0x06	; 6
    2754:	0e 94 e4 1b 	call	0x37c8	; 0x37c8 <_ZN4OLED21OLED_Clear_Bufer_partEiiii>
    2758:	4a 89       	ldd	r20, Y+18	; 0x12
    275a:	5b 89       	ldd	r21, Y+19	; 0x13
    275c:	41 50       	subi	r20, 0x01	; 1
    275e:	51 09       	sbc	r21, r1
    2760:	f5 01       	movw	r30, r10
    2762:	60 81       	ld	r22, Z
    2764:	71 81       	ldd	r23, Z+1	; 0x01
    2766:	21 e0       	ldi	r18, 0x01	; 1
    2768:	30 e0       	ldi	r19, 0x00	; 0
    276a:	8d e8       	ldi	r24, 0x8D	; 141
    276c:	96 e0       	ldi	r25, 0x06	; 6
    276e:	0e 94 e4 1b 	call	0x37c8	; 0x37c8 <_ZN4OLED21OLED_Clear_Bufer_partEiiii>
    2772:	ff ef       	ldi	r31, 0xFF	; 255
    2774:	ef 1a       	sub	r14, r31
    2776:	ff 0a       	sbc	r15, r31
    2778:	8c 81       	ldd	r24, Y+4	; 0x04
    277a:	9d 81       	ldd	r25, Y+5	; 0x05
    277c:	e8 16       	cp	r14, r24
    277e:	f9 06       	cpc	r15, r25
    2780:	d4 f2       	brlt	.-76     	; 0x2736 <_Z5checkv+0x538>
    2782:	d1 c1       	rjmp	.+930    	; 0x2b26 <_Z5checkv+0x928>
    2784:	e7 e5       	ldi	r30, 0x57	; 87
    2786:	f6 e0       	ldi	r31, 0x06	; 6
    2788:	84 81       	ldd	r24, Z+4	; 0x04
    278a:	95 81       	ldd	r25, Z+5	; 0x05
    278c:	01 96       	adiw	r24, 0x01	; 1
    278e:	95 83       	std	Z+5, r25	; 0x05
    2790:	84 83       	std	Z+4, r24	; 0x04
    2792:	18 16       	cp	r1, r24
    2794:	19 06       	cpc	r1, r25
    2796:	0c f0       	brlt	.+2      	; 0x279a <_Z5checkv+0x59c>
    2798:	c6 c1       	rjmp	.+908    	; 0x2b26 <_Z5checkv+0x928>
    279a:	0f 2e       	mov	r0, r31
    279c:	ff e5       	ldi	r31, 0x5F	; 95
    279e:	cf 2e       	mov	r12, r31
    27a0:	f6 e0       	ldi	r31, 0x06	; 6
    27a2:	df 2e       	mov	r13, r31
    27a4:	f0 2d       	mov	r31, r0
    27a6:	e1 2c       	mov	r14, r1
    27a8:	f1 2c       	mov	r15, r1
    27aa:	ef 01       	movw	r28, r30
    27ac:	56 01       	movw	r10, r12
    27ae:	4a 89       	ldd	r20, Y+18	; 0x12
    27b0:	5b 89       	ldd	r21, Y+19	; 0x13
    27b2:	4e 5f       	subi	r20, 0xFE	; 254
    27b4:	5f 4f       	sbci	r21, 0xFF	; 255
    27b6:	f6 01       	movw	r30, r12
    27b8:	61 91       	ld	r22, Z+
    27ba:	71 91       	ld	r23, Z+
    27bc:	6f 01       	movw	r12, r30
    27be:	08 e0       	ldi	r16, 0x08	; 8
    27c0:	10 e0       	ldi	r17, 0x00	; 0
    27c2:	21 e0       	ldi	r18, 0x01	; 1
    27c4:	30 e0       	ldi	r19, 0x00	; 0
    27c6:	8d e8       	ldi	r24, 0x8D	; 141
    27c8:	96 e0       	ldi	r25, 0x06	; 6
    27ca:	fe d7       	rcall	.+4092   	; 0x37c8 <_ZN4OLED21OLED_Clear_Bufer_partEiiii>
    27cc:	4a 89       	ldd	r20, Y+18	; 0x12
    27ce:	5b 89       	ldd	r21, Y+19	; 0x13
    27d0:	41 50       	subi	r20, 0x01	; 1
    27d2:	51 09       	sbc	r21, r1
    27d4:	f5 01       	movw	r30, r10
    27d6:	60 81       	ld	r22, Z
    27d8:	71 81       	ldd	r23, Z+1	; 0x01
    27da:	21 e0       	ldi	r18, 0x01	; 1
    27dc:	30 e0       	ldi	r19, 0x00	; 0
    27de:	8d e8       	ldi	r24, 0x8D	; 141
    27e0:	96 e0       	ldi	r25, 0x06	; 6
    27e2:	f2 d7       	rcall	.+4068   	; 0x37c8 <_ZN4OLED21OLED_Clear_Bufer_partEiiii>
    27e4:	ff ef       	ldi	r31, 0xFF	; 255
    27e6:	ef 1a       	sub	r14, r31
    27e8:	ff 0a       	sbc	r15, r31
    27ea:	8c 81       	ldd	r24, Y+4	; 0x04
    27ec:	9d 81       	ldd	r25, Y+5	; 0x05
    27ee:	e8 16       	cp	r14, r24
    27f0:	f9 06       	cpc	r15, r25
    27f2:	e4 f2       	brlt	.-72     	; 0x27ac <_Z5checkv+0x5ae>
    27f4:	98 c1       	rjmp	.+816    	; 0x2b26 <_Z5checkv+0x928>
    27f6:	e7 e5       	ldi	r30, 0x57	; 87
    27f8:	f6 e0       	ldi	r31, 0x06	; 6
    27fa:	84 81       	ldd	r24, Z+4	; 0x04
    27fc:	95 81       	ldd	r25, Z+5	; 0x05
    27fe:	01 96       	adiw	r24, 0x01	; 1
    2800:	95 83       	std	Z+5, r25	; 0x05
    2802:	84 83       	std	Z+4, r24	; 0x04
    2804:	18 16       	cp	r1, r24
    2806:	19 06       	cpc	r1, r25
    2808:	0c f0       	brlt	.+2      	; 0x280c <_Z5checkv+0x60e>
    280a:	8d c1       	rjmp	.+794    	; 0x2b26 <_Z5checkv+0x928>
    280c:	0f 2e       	mov	r0, r31
    280e:	ff e5       	ldi	r31, 0x5F	; 95
    2810:	cf 2e       	mov	r12, r31
    2812:	f6 e0       	ldi	r31, 0x06	; 6
    2814:	df 2e       	mov	r13, r31
    2816:	f0 2d       	mov	r31, r0
    2818:	e1 2c       	mov	r14, r1
    281a:	f1 2c       	mov	r15, r1
    281c:	ef 01       	movw	r28, r30
    281e:	56 01       	movw	r10, r12
    2820:	4a 89       	ldd	r20, Y+18	; 0x12
    2822:	5b 89       	ldd	r21, Y+19	; 0x13
    2824:	4e 5f       	subi	r20, 0xFE	; 254
    2826:	5f 4f       	sbci	r21, 0xFF	; 255
    2828:	f6 01       	movw	r30, r12
    282a:	61 91       	ld	r22, Z+
    282c:	71 91       	ld	r23, Z+
    282e:	6f 01       	movw	r12, r30
    2830:	08 e0       	ldi	r16, 0x08	; 8
    2832:	10 e0       	ldi	r17, 0x00	; 0
    2834:	21 e0       	ldi	r18, 0x01	; 1
    2836:	30 e0       	ldi	r19, 0x00	; 0
    2838:	8d e8       	ldi	r24, 0x8D	; 141
    283a:	96 e0       	ldi	r25, 0x06	; 6
    283c:	c5 d7       	rcall	.+3978   	; 0x37c8 <_ZN4OLED21OLED_Clear_Bufer_partEiiii>
    283e:	4a 89       	ldd	r20, Y+18	; 0x12
    2840:	5b 89       	ldd	r21, Y+19	; 0x13
    2842:	41 50       	subi	r20, 0x01	; 1
    2844:	51 09       	sbc	r21, r1
    2846:	f5 01       	movw	r30, r10
    2848:	60 81       	ld	r22, Z
    284a:	71 81       	ldd	r23, Z+1	; 0x01
    284c:	21 e0       	ldi	r18, 0x01	; 1
    284e:	30 e0       	ldi	r19, 0x00	; 0
    2850:	8d e8       	ldi	r24, 0x8D	; 141
    2852:	96 e0       	ldi	r25, 0x06	; 6
    2854:	b9 d7       	rcall	.+3954   	; 0x37c8 <_ZN4OLED21OLED_Clear_Bufer_partEiiii>
    2856:	ff ef       	ldi	r31, 0xFF	; 255
    2858:	ef 1a       	sub	r14, r31
    285a:	ff 0a       	sbc	r15, r31
    285c:	8c 81       	ldd	r24, Y+4	; 0x04
    285e:	9d 81       	ldd	r25, Y+5	; 0x05
    2860:	e8 16       	cp	r14, r24
    2862:	f9 06       	cpc	r15, r25
    2864:	e4 f2       	brlt	.-72     	; 0x281e <_Z5checkv+0x620>
    2866:	5f c1       	rjmp	.+702    	; 0x2b26 <_Z5checkv+0x928>
    2868:	e7 e5       	ldi	r30, 0x57	; 87
    286a:	f6 e0       	ldi	r31, 0x06	; 6
    286c:	84 81       	ldd	r24, Z+4	; 0x04
    286e:	95 81       	ldd	r25, Z+5	; 0x05
    2870:	01 96       	adiw	r24, 0x01	; 1
    2872:	95 83       	std	Z+5, r25	; 0x05
    2874:	84 83       	std	Z+4, r24	; 0x04
    2876:	18 16       	cp	r1, r24
    2878:	19 06       	cpc	r1, r25
    287a:	0c f0       	brlt	.+2      	; 0x287e <_Z5checkv+0x680>
    287c:	54 c1       	rjmp	.+680    	; 0x2b26 <_Z5checkv+0x928>
    287e:	0f 2e       	mov	r0, r31
    2880:	ff e5       	ldi	r31, 0x5F	; 95
    2882:	cf 2e       	mov	r12, r31
    2884:	f6 e0       	ldi	r31, 0x06	; 6
    2886:	df 2e       	mov	r13, r31
    2888:	f0 2d       	mov	r31, r0
    288a:	e1 2c       	mov	r14, r1
    288c:	f1 2c       	mov	r15, r1
    288e:	ef 01       	movw	r28, r30
    2890:	56 01       	movw	r10, r12
    2892:	4a 89       	ldd	r20, Y+18	; 0x12
    2894:	5b 89       	ldd	r21, Y+19	; 0x13
    2896:	4e 5f       	subi	r20, 0xFE	; 254
    2898:	5f 4f       	sbci	r21, 0xFF	; 255
    289a:	f6 01       	movw	r30, r12
    289c:	61 91       	ld	r22, Z+
    289e:	71 91       	ld	r23, Z+
    28a0:	6f 01       	movw	r12, r30
    28a2:	08 e0       	ldi	r16, 0x08	; 8
    28a4:	10 e0       	ldi	r17, 0x00	; 0
    28a6:	21 e0       	ldi	r18, 0x01	; 1
    28a8:	30 e0       	ldi	r19, 0x00	; 0
    28aa:	8d e8       	ldi	r24, 0x8D	; 141
    28ac:	96 e0       	ldi	r25, 0x06	; 6
    28ae:	8c d7       	rcall	.+3864   	; 0x37c8 <_ZN4OLED21OLED_Clear_Bufer_partEiiii>
    28b0:	4a 89       	ldd	r20, Y+18	; 0x12
    28b2:	5b 89       	ldd	r21, Y+19	; 0x13
    28b4:	41 50       	subi	r20, 0x01	; 1
    28b6:	51 09       	sbc	r21, r1
    28b8:	f5 01       	movw	r30, r10
    28ba:	60 81       	ld	r22, Z
    28bc:	71 81       	ldd	r23, Z+1	; 0x01
    28be:	21 e0       	ldi	r18, 0x01	; 1
    28c0:	30 e0       	ldi	r19, 0x00	; 0
    28c2:	8d e8       	ldi	r24, 0x8D	; 141
    28c4:	96 e0       	ldi	r25, 0x06	; 6
    28c6:	80 d7       	rcall	.+3840   	; 0x37c8 <_ZN4OLED21OLED_Clear_Bufer_partEiiii>
    28c8:	ff ef       	ldi	r31, 0xFF	; 255
    28ca:	ef 1a       	sub	r14, r31
    28cc:	ff 0a       	sbc	r15, r31
    28ce:	8c 81       	ldd	r24, Y+4	; 0x04
    28d0:	9d 81       	ldd	r25, Y+5	; 0x05
    28d2:	e8 16       	cp	r14, r24
    28d4:	f9 06       	cpc	r15, r25
    28d6:	e4 f2       	brlt	.-72     	; 0x2890 <_Z5checkv+0x692>
    28d8:	26 c1       	rjmp	.+588    	; 0x2b26 <_Z5checkv+0x928>
    28da:	e7 e5       	ldi	r30, 0x57	; 87
    28dc:	f6 e0       	ldi	r31, 0x06	; 6
    28de:	84 81       	ldd	r24, Z+4	; 0x04
    28e0:	95 81       	ldd	r25, Z+5	; 0x05
    28e2:	01 96       	adiw	r24, 0x01	; 1
    28e4:	95 83       	std	Z+5, r25	; 0x05
    28e6:	84 83       	std	Z+4, r24	; 0x04
    28e8:	18 16       	cp	r1, r24
    28ea:	19 06       	cpc	r1, r25
    28ec:	0c f0       	brlt	.+2      	; 0x28f0 <_Z5checkv+0x6f2>
    28ee:	1b c1       	rjmp	.+566    	; 0x2b26 <_Z5checkv+0x928>
    28f0:	0f 2e       	mov	r0, r31
    28f2:	ff e5       	ldi	r31, 0x5F	; 95
    28f4:	cf 2e       	mov	r12, r31
    28f6:	f6 e0       	ldi	r31, 0x06	; 6
    28f8:	df 2e       	mov	r13, r31
    28fa:	f0 2d       	mov	r31, r0
    28fc:	e1 2c       	mov	r14, r1
    28fe:	f1 2c       	mov	r15, r1
    2900:	ef 01       	movw	r28, r30
    2902:	56 01       	movw	r10, r12
    2904:	4a 89       	ldd	r20, Y+18	; 0x12
    2906:	5b 89       	ldd	r21, Y+19	; 0x13
    2908:	4e 5f       	subi	r20, 0xFE	; 254
    290a:	5f 4f       	sbci	r21, 0xFF	; 255
    290c:	f6 01       	movw	r30, r12
    290e:	61 91       	ld	r22, Z+
    2910:	71 91       	ld	r23, Z+
    2912:	6f 01       	movw	r12, r30
    2914:	08 e0       	ldi	r16, 0x08	; 8
    2916:	10 e0       	ldi	r17, 0x00	; 0
    2918:	21 e0       	ldi	r18, 0x01	; 1
    291a:	30 e0       	ldi	r19, 0x00	; 0
    291c:	8d e8       	ldi	r24, 0x8D	; 141
    291e:	96 e0       	ldi	r25, 0x06	; 6
    2920:	53 d7       	rcall	.+3750   	; 0x37c8 <_ZN4OLED21OLED_Clear_Bufer_partEiiii>
    2922:	4a 89       	ldd	r20, Y+18	; 0x12
    2924:	5b 89       	ldd	r21, Y+19	; 0x13
    2926:	41 50       	subi	r20, 0x01	; 1
    2928:	51 09       	sbc	r21, r1
    292a:	f5 01       	movw	r30, r10
    292c:	60 81       	ld	r22, Z
    292e:	71 81       	ldd	r23, Z+1	; 0x01
    2930:	21 e0       	ldi	r18, 0x01	; 1
    2932:	30 e0       	ldi	r19, 0x00	; 0
    2934:	8d e8       	ldi	r24, 0x8D	; 141
    2936:	96 e0       	ldi	r25, 0x06	; 6
    2938:	47 d7       	rcall	.+3726   	; 0x37c8 <_ZN4OLED21OLED_Clear_Bufer_partEiiii>
    293a:	ff ef       	ldi	r31, 0xFF	; 255
    293c:	ef 1a       	sub	r14, r31
    293e:	ff 0a       	sbc	r15, r31
    2940:	8c 81       	ldd	r24, Y+4	; 0x04
    2942:	9d 81       	ldd	r25, Y+5	; 0x05
    2944:	e8 16       	cp	r14, r24
    2946:	f9 06       	cpc	r15, r25
    2948:	e4 f2       	brlt	.-72     	; 0x2902 <_Z5checkv+0x704>
    294a:	ed c0       	rjmp	.+474    	; 0x2b26 <_Z5checkv+0x928>
    294c:	e7 e5       	ldi	r30, 0x57	; 87
    294e:	f6 e0       	ldi	r31, 0x06	; 6
    2950:	84 81       	ldd	r24, Z+4	; 0x04
    2952:	95 81       	ldd	r25, Z+5	; 0x05
    2954:	01 96       	adiw	r24, 0x01	; 1
    2956:	95 83       	std	Z+5, r25	; 0x05
    2958:	84 83       	std	Z+4, r24	; 0x04
    295a:	18 16       	cp	r1, r24
    295c:	19 06       	cpc	r1, r25
    295e:	0c f0       	brlt	.+2      	; 0x2962 <_Z5checkv+0x764>
    2960:	e2 c0       	rjmp	.+452    	; 0x2b26 <_Z5checkv+0x928>
    2962:	0f 2e       	mov	r0, r31
    2964:	ff e5       	ldi	r31, 0x5F	; 95
    2966:	cf 2e       	mov	r12, r31
    2968:	f6 e0       	ldi	r31, 0x06	; 6
    296a:	df 2e       	mov	r13, r31
    296c:	f0 2d       	mov	r31, r0
    296e:	e1 2c       	mov	r14, r1
    2970:	f1 2c       	mov	r15, r1
    2972:	ef 01       	movw	r28, r30
    2974:	56 01       	movw	r10, r12
    2976:	4a 89       	ldd	r20, Y+18	; 0x12
    2978:	5b 89       	ldd	r21, Y+19	; 0x13
    297a:	4e 5f       	subi	r20, 0xFE	; 254
    297c:	5f 4f       	sbci	r21, 0xFF	; 255
    297e:	f6 01       	movw	r30, r12
    2980:	61 91       	ld	r22, Z+
    2982:	71 91       	ld	r23, Z+
    2984:	6f 01       	movw	r12, r30
    2986:	08 e0       	ldi	r16, 0x08	; 8
    2988:	10 e0       	ldi	r17, 0x00	; 0
    298a:	21 e0       	ldi	r18, 0x01	; 1
    298c:	30 e0       	ldi	r19, 0x00	; 0
    298e:	8d e8       	ldi	r24, 0x8D	; 141
    2990:	96 e0       	ldi	r25, 0x06	; 6
    2992:	1a d7       	rcall	.+3636   	; 0x37c8 <_ZN4OLED21OLED_Clear_Bufer_partEiiii>
    2994:	4a 89       	ldd	r20, Y+18	; 0x12
    2996:	5b 89       	ldd	r21, Y+19	; 0x13
    2998:	41 50       	subi	r20, 0x01	; 1
    299a:	51 09       	sbc	r21, r1
    299c:	f5 01       	movw	r30, r10
    299e:	60 81       	ld	r22, Z
    29a0:	71 81       	ldd	r23, Z+1	; 0x01
    29a2:	21 e0       	ldi	r18, 0x01	; 1
    29a4:	30 e0       	ldi	r19, 0x00	; 0
    29a6:	8d e8       	ldi	r24, 0x8D	; 141
    29a8:	96 e0       	ldi	r25, 0x06	; 6
    29aa:	0e d7       	rcall	.+3612   	; 0x37c8 <_ZN4OLED21OLED_Clear_Bufer_partEiiii>
    29ac:	ff ef       	ldi	r31, 0xFF	; 255
    29ae:	ef 1a       	sub	r14, r31
    29b0:	ff 0a       	sbc	r15, r31
    29b2:	8c 81       	ldd	r24, Y+4	; 0x04
    29b4:	9d 81       	ldd	r25, Y+5	; 0x05
    29b6:	e8 16       	cp	r14, r24
    29b8:	f9 06       	cpc	r15, r25
    29ba:	e4 f2       	brlt	.-72     	; 0x2974 <_Z5checkv+0x776>
    29bc:	b4 c0       	rjmp	.+360    	; 0x2b26 <_Z5checkv+0x928>
    29be:	e7 e5       	ldi	r30, 0x57	; 87
    29c0:	f6 e0       	ldi	r31, 0x06	; 6
    29c2:	84 81       	ldd	r24, Z+4	; 0x04
    29c4:	95 81       	ldd	r25, Z+5	; 0x05
    29c6:	01 96       	adiw	r24, 0x01	; 1
    29c8:	95 83       	std	Z+5, r25	; 0x05
    29ca:	84 83       	std	Z+4, r24	; 0x04
    29cc:	18 16       	cp	r1, r24
    29ce:	19 06       	cpc	r1, r25
    29d0:	0c f0       	brlt	.+2      	; 0x29d4 <_Z5checkv+0x7d6>
    29d2:	a9 c0       	rjmp	.+338    	; 0x2b26 <_Z5checkv+0x928>
    29d4:	0f 2e       	mov	r0, r31
    29d6:	ff e5       	ldi	r31, 0x5F	; 95
    29d8:	cf 2e       	mov	r12, r31
    29da:	f6 e0       	ldi	r31, 0x06	; 6
    29dc:	df 2e       	mov	r13, r31
    29de:	f0 2d       	mov	r31, r0
    29e0:	e1 2c       	mov	r14, r1
    29e2:	f1 2c       	mov	r15, r1
    29e4:	ef 01       	movw	r28, r30
    29e6:	56 01       	movw	r10, r12
    29e8:	4a 89       	ldd	r20, Y+18	; 0x12
    29ea:	5b 89       	ldd	r21, Y+19	; 0x13
    29ec:	4e 5f       	subi	r20, 0xFE	; 254
    29ee:	5f 4f       	sbci	r21, 0xFF	; 255
    29f0:	f6 01       	movw	r30, r12
    29f2:	61 91       	ld	r22, Z+
    29f4:	71 91       	ld	r23, Z+
    29f6:	6f 01       	movw	r12, r30
    29f8:	08 e0       	ldi	r16, 0x08	; 8
    29fa:	10 e0       	ldi	r17, 0x00	; 0
    29fc:	21 e0       	ldi	r18, 0x01	; 1
    29fe:	30 e0       	ldi	r19, 0x00	; 0
    2a00:	8d e8       	ldi	r24, 0x8D	; 141
    2a02:	96 e0       	ldi	r25, 0x06	; 6
    2a04:	e1 d6       	rcall	.+3522   	; 0x37c8 <_ZN4OLED21OLED_Clear_Bufer_partEiiii>
    2a06:	4a 89       	ldd	r20, Y+18	; 0x12
    2a08:	5b 89       	ldd	r21, Y+19	; 0x13
    2a0a:	41 50       	subi	r20, 0x01	; 1
    2a0c:	51 09       	sbc	r21, r1
    2a0e:	f5 01       	movw	r30, r10
    2a10:	60 81       	ld	r22, Z
    2a12:	71 81       	ldd	r23, Z+1	; 0x01
    2a14:	21 e0       	ldi	r18, 0x01	; 1
    2a16:	30 e0       	ldi	r19, 0x00	; 0
    2a18:	8d e8       	ldi	r24, 0x8D	; 141
    2a1a:	96 e0       	ldi	r25, 0x06	; 6
    2a1c:	d5 d6       	rcall	.+3498   	; 0x37c8 <_ZN4OLED21OLED_Clear_Bufer_partEiiii>
    2a1e:	ff ef       	ldi	r31, 0xFF	; 255
    2a20:	ef 1a       	sub	r14, r31
    2a22:	ff 0a       	sbc	r15, r31
    2a24:	8c 81       	ldd	r24, Y+4	; 0x04
    2a26:	9d 81       	ldd	r25, Y+5	; 0x05
    2a28:	e8 16       	cp	r14, r24
    2a2a:	f9 06       	cpc	r15, r25
    2a2c:	e4 f2       	brlt	.-72     	; 0x29e6 <_Z5checkv+0x7e8>
    2a2e:	7b c0       	rjmp	.+246    	; 0x2b26 <_Z5checkv+0x928>
    2a30:	e7 e5       	ldi	r30, 0x57	; 87
    2a32:	f6 e0       	ldi	r31, 0x06	; 6
    2a34:	84 81       	ldd	r24, Z+4	; 0x04
    2a36:	95 81       	ldd	r25, Z+5	; 0x05
    2a38:	01 96       	adiw	r24, 0x01	; 1
    2a3a:	95 83       	std	Z+5, r25	; 0x05
    2a3c:	84 83       	std	Z+4, r24	; 0x04
    2a3e:	18 16       	cp	r1, r24
    2a40:	19 06       	cpc	r1, r25
    2a42:	0c f0       	brlt	.+2      	; 0x2a46 <_Z5checkv+0x848>
    2a44:	70 c0       	rjmp	.+224    	; 0x2b26 <_Z5checkv+0x928>
    2a46:	0f 2e       	mov	r0, r31
    2a48:	ff e5       	ldi	r31, 0x5F	; 95
    2a4a:	cf 2e       	mov	r12, r31
    2a4c:	f6 e0       	ldi	r31, 0x06	; 6
    2a4e:	df 2e       	mov	r13, r31
    2a50:	f0 2d       	mov	r31, r0
    2a52:	e1 2c       	mov	r14, r1
    2a54:	f1 2c       	mov	r15, r1
    2a56:	ef 01       	movw	r28, r30
    2a58:	56 01       	movw	r10, r12
    2a5a:	4a 89       	ldd	r20, Y+18	; 0x12
    2a5c:	5b 89       	ldd	r21, Y+19	; 0x13
    2a5e:	4e 5f       	subi	r20, 0xFE	; 254
    2a60:	5f 4f       	sbci	r21, 0xFF	; 255
    2a62:	f6 01       	movw	r30, r12
    2a64:	61 91       	ld	r22, Z+
    2a66:	71 91       	ld	r23, Z+
    2a68:	6f 01       	movw	r12, r30
    2a6a:	08 e0       	ldi	r16, 0x08	; 8
    2a6c:	10 e0       	ldi	r17, 0x00	; 0
    2a6e:	21 e0       	ldi	r18, 0x01	; 1
    2a70:	30 e0       	ldi	r19, 0x00	; 0
    2a72:	8d e8       	ldi	r24, 0x8D	; 141
    2a74:	96 e0       	ldi	r25, 0x06	; 6
    2a76:	a8 d6       	rcall	.+3408   	; 0x37c8 <_ZN4OLED21OLED_Clear_Bufer_partEiiii>
    2a78:	4a 89       	ldd	r20, Y+18	; 0x12
    2a7a:	5b 89       	ldd	r21, Y+19	; 0x13
    2a7c:	41 50       	subi	r20, 0x01	; 1
    2a7e:	51 09       	sbc	r21, r1
    2a80:	f5 01       	movw	r30, r10
    2a82:	60 81       	ld	r22, Z
    2a84:	71 81       	ldd	r23, Z+1	; 0x01
    2a86:	21 e0       	ldi	r18, 0x01	; 1
    2a88:	30 e0       	ldi	r19, 0x00	; 0
    2a8a:	8d e8       	ldi	r24, 0x8D	; 141
    2a8c:	96 e0       	ldi	r25, 0x06	; 6
    2a8e:	9c d6       	rcall	.+3384   	; 0x37c8 <_ZN4OLED21OLED_Clear_Bufer_partEiiii>
    2a90:	ff ef       	ldi	r31, 0xFF	; 255
    2a92:	ef 1a       	sub	r14, r31
    2a94:	ff 0a       	sbc	r15, r31
    2a96:	8c 81       	ldd	r24, Y+4	; 0x04
    2a98:	9d 81       	ldd	r25, Y+5	; 0x05
    2a9a:	e8 16       	cp	r14, r24
    2a9c:	f9 06       	cpc	r15, r25
    2a9e:	e4 f2       	brlt	.-72     	; 0x2a58 <_Z5checkv+0x85a>
    2aa0:	42 c0       	rjmp	.+132    	; 0x2b26 <_Z5checkv+0x928>
    2aa2:	e7 e5       	ldi	r30, 0x57	; 87
    2aa4:	f6 e0       	ldi	r31, 0x06	; 6
    2aa6:	84 81       	ldd	r24, Z+4	; 0x04
    2aa8:	95 81       	ldd	r25, Z+5	; 0x05
    2aaa:	01 96       	adiw	r24, 0x01	; 1
    2aac:	95 83       	std	Z+5, r25	; 0x05
    2aae:	84 83       	std	Z+4, r24	; 0x04
    2ab0:	18 16       	cp	r1, r24
    2ab2:	19 06       	cpc	r1, r25
    2ab4:	c4 f5       	brge	.+112    	; 0x2b26 <_Z5checkv+0x928>
    2ab6:	0f 2e       	mov	r0, r31
    2ab8:	ff e5       	ldi	r31, 0x5F	; 95
    2aba:	cf 2e       	mov	r12, r31
    2abc:	f6 e0       	ldi	r31, 0x06	; 6
    2abe:	df 2e       	mov	r13, r31
    2ac0:	f0 2d       	mov	r31, r0
    2ac2:	e1 2c       	mov	r14, r1
    2ac4:	f1 2c       	mov	r15, r1
    2ac6:	ef 01       	movw	r28, r30
    2ac8:	56 01       	movw	r10, r12
    2aca:	4a 89       	ldd	r20, Y+18	; 0x12
    2acc:	5b 89       	ldd	r21, Y+19	; 0x13
    2ace:	4e 5f       	subi	r20, 0xFE	; 254
    2ad0:	5f 4f       	sbci	r21, 0xFF	; 255
    2ad2:	f6 01       	movw	r30, r12
    2ad4:	61 91       	ld	r22, Z+
    2ad6:	71 91       	ld	r23, Z+
    2ad8:	6f 01       	movw	r12, r30
    2ada:	08 e0       	ldi	r16, 0x08	; 8
    2adc:	10 e0       	ldi	r17, 0x00	; 0
    2ade:	21 e0       	ldi	r18, 0x01	; 1
    2ae0:	30 e0       	ldi	r19, 0x00	; 0
    2ae2:	8d e8       	ldi	r24, 0x8D	; 141
    2ae4:	96 e0       	ldi	r25, 0x06	; 6
    2ae6:	70 d6       	rcall	.+3296   	; 0x37c8 <_ZN4OLED21OLED_Clear_Bufer_partEiiii>
    2ae8:	4a 89       	ldd	r20, Y+18	; 0x12
    2aea:	5b 89       	ldd	r21, Y+19	; 0x13
    2aec:	41 50       	subi	r20, 0x01	; 1
    2aee:	51 09       	sbc	r21, r1
    2af0:	f5 01       	movw	r30, r10
    2af2:	60 81       	ld	r22, Z
    2af4:	71 81       	ldd	r23, Z+1	; 0x01
    2af6:	21 e0       	ldi	r18, 0x01	; 1
    2af8:	30 e0       	ldi	r19, 0x00	; 0
    2afa:	8d e8       	ldi	r24, 0x8D	; 141
    2afc:	96 e0       	ldi	r25, 0x06	; 6
    2afe:	64 d6       	rcall	.+3272   	; 0x37c8 <_ZN4OLED21OLED_Clear_Bufer_partEiiii>
    2b00:	ff ef       	ldi	r31, 0xFF	; 255
    2b02:	ef 1a       	sub	r14, r31
    2b04:	ff 0a       	sbc	r15, r31
    2b06:	8c 81       	ldd	r24, Y+4	; 0x04
    2b08:	9d 81       	ldd	r25, Y+5	; 0x05
    2b0a:	e8 16       	cp	r14, r24
    2b0c:	f9 06       	cpc	r15, r25
    2b0e:	e4 f2       	brlt	.-72     	; 0x2ac8 <_Z5checkv+0x8ca>
    2b10:	0a c0       	rjmp	.+20     	; 0x2b26 <_Z5checkv+0x928>
    2b12:	e0 91 57 06 	lds	r30, 0x0657	; 0x800657 <passw_menu>
    2b16:	f0 91 58 06 	lds	r31, 0x0658	; 0x800658 <passw_menu+0x1>
    2b1a:	04 84       	ldd	r0, Z+12	; 0x0c
    2b1c:	f5 85       	ldd	r31, Z+13	; 0x0d
    2b1e:	e0 2d       	mov	r30, r0
    2b20:	87 e5       	ldi	r24, 0x57	; 87
    2b22:	96 e0       	ldi	r25, 0x06	; 6
    2b24:	09 95       	icall
    2b26:	80 91 5b 06 	lds	r24, 0x065B	; 0x80065b <passw_menu+0x4>
    2b2a:	90 91 5c 06 	lds	r25, 0x065C	; 0x80065c <passw_menu+0x5>
    2b2e:	05 97       	sbiw	r24, 0x05	; 5
    2b30:	84 f0       	brlt	.+32     	; 0x2b52 <_Z5checkv+0x954>
    2b32:	81 e0       	ldi	r24, 0x01	; 1
    2b34:	80 93 00 01 	sts	0x0100, r24	; 0x800100 <Main_Menu_Status>
    2b38:	10 92 8c 06 	sts	0x068C, r1	; 0x80068c <Password_Menu_Status>
    2b3c:	e0 91 57 06 	lds	r30, 0x0657	; 0x800657 <passw_menu>
    2b40:	f0 91 58 06 	lds	r31, 0x0658	; 0x800658 <passw_menu+0x1>
    2b44:	04 80       	ldd	r0, Z+4	; 0x04
    2b46:	f5 81       	ldd	r31, Z+5	; 0x05
    2b48:	e0 2d       	mov	r30, r0
    2b4a:	87 e5       	ldi	r24, 0x57	; 87
    2b4c:	96 e0       	ldi	r25, 0x06	; 6
    2b4e:	09 95       	icall
    2b50:	78 c0       	rjmp	.+240    	; 0x2c42 <_Z5checkv+0xa44>
    2b52:	e7 e5       	ldi	r30, 0x57	; 87
    2b54:	f6 e0       	ldi	r31, 0x06	; 6
    2b56:	17 82       	std	Z+7, r1	; 0x07
    2b58:	16 82       	std	Z+6, r1	; 0x06
    2b5a:	01 90       	ld	r0, Z+
    2b5c:	f0 81       	ld	r31, Z
    2b5e:	e0 2d       	mov	r30, r0
    2b60:	00 88       	ldd	r0, Z+16	; 0x10
    2b62:	f1 89       	ldd	r31, Z+17	; 0x11
    2b64:	e0 2d       	mov	r30, r0
    2b66:	87 e5       	ldi	r24, 0x57	; 87
    2b68:	96 e0       	ldi	r25, 0x06	; 6
    2b6a:	09 95       	icall
    2b6c:	6a c0       	rjmp	.+212    	; 0x2c42 <_Z5checkv+0xa44>
    2b6e:	80 91 00 01 	lds	r24, 0x0100	; 0x800100 <Main_Menu_Status>
    2b72:	88 23       	and	r24, r24
    2b74:	e9 f1       	breq	.+122    	; 0x2bf0 <_Z5checkv+0x9f2>
    2b76:	80 91 55 06 	lds	r24, 0x0655	; 0x800655 <menu+0x4>
    2b7a:	90 91 56 06 	lds	r25, 0x0656	; 0x800656 <menu+0x5>
    2b7e:	81 30       	cpi	r24, 0x01	; 1
    2b80:	91 05       	cpc	r25, r1
    2b82:	b1 f0       	breq	.+44     	; 0x2bb0 <_Z5checkv+0x9b2>
    2b84:	82 30       	cpi	r24, 0x02	; 2
    2b86:	91 05       	cpc	r25, r1
    2b88:	19 f1       	breq	.+70     	; 0x2bd0 <_Z5checkv+0x9d2>
    2b8a:	89 2b       	or	r24, r25
    2b8c:	09 f0       	breq	.+2      	; 0x2b90 <_Z5checkv+0x992>
    2b8e:	59 c0       	rjmp	.+178    	; 0x2c42 <_Z5checkv+0xa44>
    2b90:	10 92 00 01 	sts	0x0100, r1	; 0x800100 <Main_Menu_Status>
    2b94:	81 e0       	ldi	r24, 0x01	; 1
    2b96:	80 93 8c 06 	sts	0x068C, r24	; 0x80068c <Password_Menu_Status>
    2b9a:	e0 91 51 06 	lds	r30, 0x0651	; 0x800651 <menu>
    2b9e:	f0 91 52 06 	lds	r31, 0x0652	; 0x800652 <menu+0x1>
    2ba2:	04 80       	ldd	r0, Z+4	; 0x04
    2ba4:	f5 81       	ldd	r31, Z+5	; 0x05
    2ba6:	e0 2d       	mov	r30, r0
    2ba8:	81 e5       	ldi	r24, 0x51	; 81
    2baa:	96 e0       	ldi	r25, 0x06	; 6
    2bac:	09 95       	icall
    2bae:	49 c0       	rjmp	.+146    	; 0x2c42 <_Z5checkv+0xa44>
    2bb0:	10 92 00 01 	sts	0x0100, r1	; 0x800100 <Main_Menu_Status>
    2bb4:	81 e0       	ldi	r24, 0x01	; 1
    2bb6:	80 93 8b 06 	sts	0x068B, r24	; 0x80068b <Settings_Menu_Status>
    2bba:	e0 91 51 06 	lds	r30, 0x0651	; 0x800651 <menu>
    2bbe:	f0 91 52 06 	lds	r31, 0x0652	; 0x800652 <menu+0x1>
    2bc2:	04 80       	ldd	r0, Z+4	; 0x04
    2bc4:	f5 81       	ldd	r31, Z+5	; 0x05
    2bc6:	e0 2d       	mov	r30, r0
    2bc8:	81 e5       	ldi	r24, 0x51	; 81
    2bca:	96 e0       	ldi	r25, 0x06	; 6
    2bcc:	09 95       	icall
    2bce:	39 c0       	rjmp	.+114    	; 0x2c42 <_Z5checkv+0xa44>
    2bd0:	10 92 00 01 	sts	0x0100, r1	; 0x800100 <Main_Menu_Status>
    2bd4:	81 e0       	ldi	r24, 0x01	; 1
    2bd6:	80 93 8a 06 	sts	0x068A, r24	; 0x80068a <Info_Menu_Status>
    2bda:	e0 91 51 06 	lds	r30, 0x0651	; 0x800651 <menu>
    2bde:	f0 91 52 06 	lds	r31, 0x0652	; 0x800652 <menu+0x1>
    2be2:	04 80       	ldd	r0, Z+4	; 0x04
    2be4:	f5 81       	ldd	r31, Z+5	; 0x05
    2be6:	e0 2d       	mov	r30, r0
    2be8:	81 e5       	ldi	r24, 0x51	; 81
    2bea:	96 e0       	ldi	r25, 0x06	; 6
    2bec:	09 95       	icall
    2bee:	29 c0       	rjmp	.+82     	; 0x2c42 <_Z5checkv+0xa44>
    2bf0:	80 91 8b 06 	lds	r24, 0x068B	; 0x80068b <Settings_Menu_Status>
    2bf4:	88 23       	and	r24, r24
    2bf6:	89 f0       	breq	.+34     	; 0x2c1a <_Z5checkv+0xa1c>
    2bf8:	80 91 6f 06 	lds	r24, 0x066F	; 0x80066f <sett_menu+0x4>
    2bfc:	90 91 70 06 	lds	r25, 0x0670	; 0x800670 <sett_menu+0x5>
    2c00:	03 97       	sbiw	r24, 0x03	; 3
    2c02:	f9 f4       	brne	.+62     	; 0x2c42 <_Z5checkv+0xa44>
    2c04:	e0 91 6b 06 	lds	r30, 0x066B	; 0x80066b <sett_menu>
    2c08:	f0 91 6c 06 	lds	r31, 0x066C	; 0x80066c <sett_menu+0x1>
    2c0c:	04 84       	ldd	r0, Z+12	; 0x0c
    2c0e:	f5 85       	ldd	r31, Z+13	; 0x0d
    2c10:	e0 2d       	mov	r30, r0
    2c12:	8b e6       	ldi	r24, 0x6B	; 107
    2c14:	96 e0       	ldi	r25, 0x06	; 6
    2c16:	09 95       	icall
    2c18:	14 c0       	rjmp	.+40     	; 0x2c42 <_Z5checkv+0xa44>
    2c1a:	80 91 8a 06 	lds	r24, 0x068A	; 0x80068a <Info_Menu_Status>
    2c1e:	88 23       	and	r24, r24
    2c20:	81 f0       	breq	.+32     	; 0x2c42 <_Z5checkv+0xa44>
    2c22:	80 91 7f 06 	lds	r24, 0x067F	; 0x80067f <inf_menu+0x4>
    2c26:	90 91 80 06 	lds	r25, 0x0680	; 0x800680 <inf_menu+0x5>
    2c2a:	02 97       	sbiw	r24, 0x02	; 2
    2c2c:	51 f4       	brne	.+20     	; 0x2c42 <_Z5checkv+0xa44>
    2c2e:	e0 91 7b 06 	lds	r30, 0x067B	; 0x80067b <inf_menu>
    2c32:	f0 91 7c 06 	lds	r31, 0x067C	; 0x80067c <inf_menu+0x1>
    2c36:	04 84       	ldd	r0, Z+12	; 0x0c
    2c38:	f5 85       	ldd	r31, Z+13	; 0x0d
    2c3a:	e0 2d       	mov	r30, r0
    2c3c:	8b e7       	ldi	r24, 0x7B	; 123
    2c3e:	96 e0       	ldi	r25, 0x06	; 6
    2c40:	09 95       	icall
    2c42:	10 92 50 06 	sts	0x0650, r1	; 0x800650 <btn0>
    2c46:	10 92 4f 06 	sts	0x064F, r1	; 0x80064f <btn1>
    2c4a:	10 92 4e 06 	sts	0x064E, r1	; 0x80064e <btn2>
    2c4e:	10 92 4d 06 	sts	0x064D, r1	; 0x80064d <btn3>
    2c52:	10 92 4c 06 	sts	0x064C, r1	; 0x80064c <btn03>
    2c56:	10 92 4b 06 	sts	0x064B, r1	; 0x80064b <btn12>
    2c5a:	05 c0       	rjmp	.+10     	; 0x2c66 <_Z5checkv+0xa68>
    2c5c:	e0 91 4b 06 	lds	r30, 0x064B	; 0x80064b <btn12>
    2c60:	41 e0       	ldi	r20, 0x01	; 1
    2c62:	4e 27       	eor	r20, r30
    2c64:	de cb       	rjmp	.-2116   	; 0x2422 <_Z5checkv+0x224>
    2c66:	df 91       	pop	r29
    2c68:	cf 91       	pop	r28
    2c6a:	1f 91       	pop	r17
    2c6c:	0f 91       	pop	r16
    2c6e:	ff 90       	pop	r15
    2c70:	ef 90       	pop	r14
    2c72:	df 90       	pop	r13
    2c74:	cf 90       	pop	r12
    2c76:	bf 90       	pop	r11
    2c78:	af 90       	pop	r10
    2c7a:	08 95       	ret

00002c7c <_ZN6Batary19printlvltoOLEDbuferEv>:
    2c7c:	ef 92       	push	r14
    2c7e:	ff 92       	push	r15
    2c80:	0f 93       	push	r16
    2c82:	1f 93       	push	r17
    2c84:	cf 93       	push	r28
    2c86:	df 93       	push	r29
    2c88:	ec 01       	movw	r28, r24
    2c8a:	88 81       	ld	r24, Y
    2c8c:	99 81       	ldd	r25, Y+1	; 0x01
    2c8e:	89 2b       	or	r24, r25
    2c90:	89 f4       	brne	.+34     	; 0x2cb4 <_ZN6Batary19printlvltoOLEDbuferEv+0x38>
    2c92:	0f 2e       	mov	r0, r31
    2c94:	f1 e8       	ldi	r31, 0x81	; 129
    2c96:	ef 2e       	mov	r14, r31
    2c98:	f2 e0       	ldi	r31, 0x02	; 2
    2c9a:	ff 2e       	mov	r15, r31
    2c9c:	f0 2d       	mov	r31, r0
    2c9e:	08 e0       	ldi	r16, 0x08	; 8
    2ca0:	10 e0       	ldi	r17, 0x00	; 0
    2ca2:	24 e0       	ldi	r18, 0x04	; 4
    2ca4:	30 e0       	ldi	r19, 0x00	; 0
    2ca6:	40 e0       	ldi	r20, 0x00	; 0
    2ca8:	50 e0       	ldi	r21, 0x00	; 0
    2caa:	60 e6       	ldi	r22, 0x60	; 96
    2cac:	70 e0       	ldi	r23, 0x00	; 0
    2cae:	8d e8       	ldi	r24, 0x8D	; 141
    2cb0:	96 e0       	ldi	r25, 0x06	; 6
    2cb2:	d9 d5       	rcall	.+2994   	; 0x3866 <_ZN4OLED19OLED_Write_To_BuferEiiiiPKh>
    2cb4:	88 81       	ld	r24, Y
    2cb6:	99 81       	ldd	r25, Y+1	; 0x01
    2cb8:	01 97       	sbiw	r24, 0x01	; 1
    2cba:	89 f4       	brne	.+34     	; 0x2cde <_ZN6Batary19printlvltoOLEDbuferEv+0x62>
    2cbc:	0f 2e       	mov	r0, r31
    2cbe:	f1 e6       	ldi	r31, 0x61	; 97
    2cc0:	ef 2e       	mov	r14, r31
    2cc2:	f2 e0       	ldi	r31, 0x02	; 2
    2cc4:	ff 2e       	mov	r15, r31
    2cc6:	f0 2d       	mov	r31, r0
    2cc8:	08 e0       	ldi	r16, 0x08	; 8
    2cca:	10 e0       	ldi	r17, 0x00	; 0
    2ccc:	24 e0       	ldi	r18, 0x04	; 4
    2cce:	30 e0       	ldi	r19, 0x00	; 0
    2cd0:	40 e0       	ldi	r20, 0x00	; 0
    2cd2:	50 e0       	ldi	r21, 0x00	; 0
    2cd4:	60 e6       	ldi	r22, 0x60	; 96
    2cd6:	70 e0       	ldi	r23, 0x00	; 0
    2cd8:	8d e8       	ldi	r24, 0x8D	; 141
    2cda:	96 e0       	ldi	r25, 0x06	; 6
    2cdc:	c4 d5       	rcall	.+2952   	; 0x3866 <_ZN4OLED19OLED_Write_To_BuferEiiiiPKh>
    2cde:	88 81       	ld	r24, Y
    2ce0:	99 81       	ldd	r25, Y+1	; 0x01
    2ce2:	02 97       	sbiw	r24, 0x02	; 2
    2ce4:	89 f4       	brne	.+34     	; 0x2d08 <_ZN6Batary19printlvltoOLEDbuferEv+0x8c>
    2ce6:	0f 2e       	mov	r0, r31
    2ce8:	f1 e4       	ldi	r31, 0x41	; 65
    2cea:	ef 2e       	mov	r14, r31
    2cec:	f2 e0       	ldi	r31, 0x02	; 2
    2cee:	ff 2e       	mov	r15, r31
    2cf0:	f0 2d       	mov	r31, r0
    2cf2:	08 e0       	ldi	r16, 0x08	; 8
    2cf4:	10 e0       	ldi	r17, 0x00	; 0
    2cf6:	24 e0       	ldi	r18, 0x04	; 4
    2cf8:	30 e0       	ldi	r19, 0x00	; 0
    2cfa:	40 e0       	ldi	r20, 0x00	; 0
    2cfc:	50 e0       	ldi	r21, 0x00	; 0
    2cfe:	60 e6       	ldi	r22, 0x60	; 96
    2d00:	70 e0       	ldi	r23, 0x00	; 0
    2d02:	8d e8       	ldi	r24, 0x8D	; 141
    2d04:	96 e0       	ldi	r25, 0x06	; 6
    2d06:	af d5       	rcall	.+2910   	; 0x3866 <_ZN4OLED19OLED_Write_To_BuferEiiiiPKh>
    2d08:	88 81       	ld	r24, Y
    2d0a:	99 81       	ldd	r25, Y+1	; 0x01
    2d0c:	03 97       	sbiw	r24, 0x03	; 3
    2d0e:	89 f4       	brne	.+34     	; 0x2d32 <_ZN6Batary19printlvltoOLEDbuferEv+0xb6>
    2d10:	0f 2e       	mov	r0, r31
    2d12:	f1 e2       	ldi	r31, 0x21	; 33
    2d14:	ef 2e       	mov	r14, r31
    2d16:	f2 e0       	ldi	r31, 0x02	; 2
    2d18:	ff 2e       	mov	r15, r31
    2d1a:	f0 2d       	mov	r31, r0
    2d1c:	08 e0       	ldi	r16, 0x08	; 8
    2d1e:	10 e0       	ldi	r17, 0x00	; 0
    2d20:	24 e0       	ldi	r18, 0x04	; 4
    2d22:	30 e0       	ldi	r19, 0x00	; 0
    2d24:	40 e0       	ldi	r20, 0x00	; 0
    2d26:	50 e0       	ldi	r21, 0x00	; 0
    2d28:	60 e6       	ldi	r22, 0x60	; 96
    2d2a:	70 e0       	ldi	r23, 0x00	; 0
    2d2c:	8d e8       	ldi	r24, 0x8D	; 141
    2d2e:	96 e0       	ldi	r25, 0x06	; 6
    2d30:	9a d5       	rcall	.+2868   	; 0x3866 <_ZN4OLED19OLED_Write_To_BuferEiiiiPKh>
    2d32:	88 81       	ld	r24, Y
    2d34:	99 81       	ldd	r25, Y+1	; 0x01
    2d36:	04 97       	sbiw	r24, 0x04	; 4
    2d38:	89 f4       	brne	.+34     	; 0x2d5c <_ZN6Batary19printlvltoOLEDbuferEv+0xe0>
    2d3a:	0f 2e       	mov	r0, r31
    2d3c:	f1 e0       	ldi	r31, 0x01	; 1
    2d3e:	ef 2e       	mov	r14, r31
    2d40:	f2 e0       	ldi	r31, 0x02	; 2
    2d42:	ff 2e       	mov	r15, r31
    2d44:	f0 2d       	mov	r31, r0
    2d46:	08 e0       	ldi	r16, 0x08	; 8
    2d48:	10 e0       	ldi	r17, 0x00	; 0
    2d4a:	24 e0       	ldi	r18, 0x04	; 4
    2d4c:	30 e0       	ldi	r19, 0x00	; 0
    2d4e:	40 e0       	ldi	r20, 0x00	; 0
    2d50:	50 e0       	ldi	r21, 0x00	; 0
    2d52:	60 e6       	ldi	r22, 0x60	; 96
    2d54:	70 e0       	ldi	r23, 0x00	; 0
    2d56:	8d e8       	ldi	r24, 0x8D	; 141
    2d58:	96 e0       	ldi	r25, 0x06	; 6
    2d5a:	85 d5       	rcall	.+2826   	; 0x3866 <_ZN4OLED19OLED_Write_To_BuferEiiiiPKh>
    2d5c:	df 91       	pop	r29
    2d5e:	cf 91       	pop	r28
    2d60:	1f 91       	pop	r17
    2d62:	0f 91       	pop	r16
    2d64:	ff 90       	pop	r15
    2d66:	ef 90       	pop	r14
    2d68:	08 95       	ret

00002d6a <_Z10asciitoimgiiiih>:
    2d6a:	ef 92       	push	r14
    2d6c:	ff 92       	push	r15
    2d6e:	0f 93       	push	r16
    2d70:	1f 93       	push	r17
    2d72:	01 34       	cpi	r16, 0x41	; 65
    2d74:	71 f4       	brne	.+28     	; 0x2d92 <_Z10asciitoimgiiiih+0x28>
    2d76:	0f 2e       	mov	r0, r31
    2d78:	f9 ee       	ldi	r31, 0xE9	; 233
    2d7a:	ef 2e       	mov	r14, r31
    2d7c:	f1 e0       	ldi	r31, 0x01	; 1
    2d7e:	ff 2e       	mov	r15, r31
    2d80:	f0 2d       	mov	r31, r0
    2d82:	89 01       	movw	r16, r18
    2d84:	9a 01       	movw	r18, r20
    2d86:	ab 01       	movw	r20, r22
    2d88:	bc 01       	movw	r22, r24
    2d8a:	8d e8       	ldi	r24, 0x8D	; 141
    2d8c:	96 e0       	ldi	r25, 0x06	; 6
    2d8e:	6b d5       	rcall	.+2774   	; 0x3866 <_ZN4OLED19OLED_Write_To_BuferEiiiiPKh>
    2d90:	57 c2       	rjmp	.+1198   	; 0x3240 <_Z10asciitoimgiiiih+0x4d6>
    2d92:	02 34       	cpi	r16, 0x42	; 66
    2d94:	71 f4       	brne	.+28     	; 0x2db2 <_Z10asciitoimgiiiih+0x48>
    2d96:	0f 2e       	mov	r0, r31
    2d98:	f1 ee       	ldi	r31, 0xE1	; 225
    2d9a:	ef 2e       	mov	r14, r31
    2d9c:	f1 e0       	ldi	r31, 0x01	; 1
    2d9e:	ff 2e       	mov	r15, r31
    2da0:	f0 2d       	mov	r31, r0
    2da2:	89 01       	movw	r16, r18
    2da4:	9a 01       	movw	r18, r20
    2da6:	ab 01       	movw	r20, r22
    2da8:	bc 01       	movw	r22, r24
    2daa:	8d e8       	ldi	r24, 0x8D	; 141
    2dac:	96 e0       	ldi	r25, 0x06	; 6
    2dae:	5b d5       	rcall	.+2742   	; 0x3866 <_ZN4OLED19OLED_Write_To_BuferEiiiiPKh>
    2db0:	47 c2       	rjmp	.+1166   	; 0x3240 <_Z10asciitoimgiiiih+0x4d6>
    2db2:	03 34       	cpi	r16, 0x43	; 67
    2db4:	71 f4       	brne	.+28     	; 0x2dd2 <_Z10asciitoimgiiiih+0x68>
    2db6:	0f 2e       	mov	r0, r31
    2db8:	f9 ed       	ldi	r31, 0xD9	; 217
    2dba:	ef 2e       	mov	r14, r31
    2dbc:	f1 e0       	ldi	r31, 0x01	; 1
    2dbe:	ff 2e       	mov	r15, r31
    2dc0:	f0 2d       	mov	r31, r0
    2dc2:	89 01       	movw	r16, r18
    2dc4:	9a 01       	movw	r18, r20
    2dc6:	ab 01       	movw	r20, r22
    2dc8:	bc 01       	movw	r22, r24
    2dca:	8d e8       	ldi	r24, 0x8D	; 141
    2dcc:	96 e0       	ldi	r25, 0x06	; 6
    2dce:	4b d5       	rcall	.+2710   	; 0x3866 <_ZN4OLED19OLED_Write_To_BuferEiiiiPKh>
    2dd0:	37 c2       	rjmp	.+1134   	; 0x3240 <_Z10asciitoimgiiiih+0x4d6>
    2dd2:	04 34       	cpi	r16, 0x44	; 68
    2dd4:	71 f4       	brne	.+28     	; 0x2df2 <_Z10asciitoimgiiiih+0x88>
    2dd6:	0f 2e       	mov	r0, r31
    2dd8:	f1 ed       	ldi	r31, 0xD1	; 209
    2dda:	ef 2e       	mov	r14, r31
    2ddc:	f1 e0       	ldi	r31, 0x01	; 1
    2dde:	ff 2e       	mov	r15, r31
    2de0:	f0 2d       	mov	r31, r0
    2de2:	89 01       	movw	r16, r18
    2de4:	9a 01       	movw	r18, r20
    2de6:	ab 01       	movw	r20, r22
    2de8:	bc 01       	movw	r22, r24
    2dea:	8d e8       	ldi	r24, 0x8D	; 141
    2dec:	96 e0       	ldi	r25, 0x06	; 6
    2dee:	3b d5       	rcall	.+2678   	; 0x3866 <_ZN4OLED19OLED_Write_To_BuferEiiiiPKh>
    2df0:	27 c2       	rjmp	.+1102   	; 0x3240 <_Z10asciitoimgiiiih+0x4d6>
    2df2:	05 34       	cpi	r16, 0x45	; 69
    2df4:	71 f4       	brne	.+28     	; 0x2e12 <_Z10asciitoimgiiiih+0xa8>
    2df6:	0f 2e       	mov	r0, r31
    2df8:	f9 ec       	ldi	r31, 0xC9	; 201
    2dfa:	ef 2e       	mov	r14, r31
    2dfc:	f1 e0       	ldi	r31, 0x01	; 1
    2dfe:	ff 2e       	mov	r15, r31
    2e00:	f0 2d       	mov	r31, r0
    2e02:	89 01       	movw	r16, r18
    2e04:	9a 01       	movw	r18, r20
    2e06:	ab 01       	movw	r20, r22
    2e08:	bc 01       	movw	r22, r24
    2e0a:	8d e8       	ldi	r24, 0x8D	; 141
    2e0c:	96 e0       	ldi	r25, 0x06	; 6
    2e0e:	2b d5       	rcall	.+2646   	; 0x3866 <_ZN4OLED19OLED_Write_To_BuferEiiiiPKh>
    2e10:	17 c2       	rjmp	.+1070   	; 0x3240 <_Z10asciitoimgiiiih+0x4d6>
    2e12:	06 34       	cpi	r16, 0x46	; 70
    2e14:	71 f4       	brne	.+28     	; 0x2e32 <_Z10asciitoimgiiiih+0xc8>
    2e16:	0f 2e       	mov	r0, r31
    2e18:	f1 ec       	ldi	r31, 0xC1	; 193
    2e1a:	ef 2e       	mov	r14, r31
    2e1c:	f1 e0       	ldi	r31, 0x01	; 1
    2e1e:	ff 2e       	mov	r15, r31
    2e20:	f0 2d       	mov	r31, r0
    2e22:	89 01       	movw	r16, r18
    2e24:	9a 01       	movw	r18, r20
    2e26:	ab 01       	movw	r20, r22
    2e28:	bc 01       	movw	r22, r24
    2e2a:	8d e8       	ldi	r24, 0x8D	; 141
    2e2c:	96 e0       	ldi	r25, 0x06	; 6
    2e2e:	1b d5       	rcall	.+2614   	; 0x3866 <_ZN4OLED19OLED_Write_To_BuferEiiiiPKh>
    2e30:	07 c2       	rjmp	.+1038   	; 0x3240 <_Z10asciitoimgiiiih+0x4d6>
    2e32:	07 34       	cpi	r16, 0x47	; 71
    2e34:	71 f4       	brne	.+28     	; 0x2e52 <_Z10asciitoimgiiiih+0xe8>
    2e36:	0f 2e       	mov	r0, r31
    2e38:	f9 eb       	ldi	r31, 0xB9	; 185
    2e3a:	ef 2e       	mov	r14, r31
    2e3c:	f1 e0       	ldi	r31, 0x01	; 1
    2e3e:	ff 2e       	mov	r15, r31
    2e40:	f0 2d       	mov	r31, r0
    2e42:	89 01       	movw	r16, r18
    2e44:	9a 01       	movw	r18, r20
    2e46:	ab 01       	movw	r20, r22
    2e48:	bc 01       	movw	r22, r24
    2e4a:	8d e8       	ldi	r24, 0x8D	; 141
    2e4c:	96 e0       	ldi	r25, 0x06	; 6
    2e4e:	0b d5       	rcall	.+2582   	; 0x3866 <_ZN4OLED19OLED_Write_To_BuferEiiiiPKh>
    2e50:	f7 c1       	rjmp	.+1006   	; 0x3240 <_Z10asciitoimgiiiih+0x4d6>
    2e52:	08 34       	cpi	r16, 0x48	; 72
    2e54:	71 f4       	brne	.+28     	; 0x2e72 <_Z10asciitoimgiiiih+0x108>
    2e56:	0f 2e       	mov	r0, r31
    2e58:	f1 eb       	ldi	r31, 0xB1	; 177
    2e5a:	ef 2e       	mov	r14, r31
    2e5c:	f1 e0       	ldi	r31, 0x01	; 1
    2e5e:	ff 2e       	mov	r15, r31
    2e60:	f0 2d       	mov	r31, r0
    2e62:	89 01       	movw	r16, r18
    2e64:	9a 01       	movw	r18, r20
    2e66:	ab 01       	movw	r20, r22
    2e68:	bc 01       	movw	r22, r24
    2e6a:	8d e8       	ldi	r24, 0x8D	; 141
    2e6c:	96 e0       	ldi	r25, 0x06	; 6
    2e6e:	fb d4       	rcall	.+2550   	; 0x3866 <_ZN4OLED19OLED_Write_To_BuferEiiiiPKh>
    2e70:	e7 c1       	rjmp	.+974    	; 0x3240 <_Z10asciitoimgiiiih+0x4d6>
    2e72:	09 34       	cpi	r16, 0x49	; 73
    2e74:	71 f4       	brne	.+28     	; 0x2e92 <_Z10asciitoimgiiiih+0x128>
    2e76:	0f 2e       	mov	r0, r31
    2e78:	f9 ea       	ldi	r31, 0xA9	; 169
    2e7a:	ef 2e       	mov	r14, r31
    2e7c:	f1 e0       	ldi	r31, 0x01	; 1
    2e7e:	ff 2e       	mov	r15, r31
    2e80:	f0 2d       	mov	r31, r0
    2e82:	89 01       	movw	r16, r18
    2e84:	9a 01       	movw	r18, r20
    2e86:	ab 01       	movw	r20, r22
    2e88:	bc 01       	movw	r22, r24
    2e8a:	8d e8       	ldi	r24, 0x8D	; 141
    2e8c:	96 e0       	ldi	r25, 0x06	; 6
    2e8e:	eb d4       	rcall	.+2518   	; 0x3866 <_ZN4OLED19OLED_Write_To_BuferEiiiiPKh>
    2e90:	d7 c1       	rjmp	.+942    	; 0x3240 <_Z10asciitoimgiiiih+0x4d6>
    2e92:	0a 34       	cpi	r16, 0x4A	; 74
    2e94:	71 f4       	brne	.+28     	; 0x2eb2 <_Z10asciitoimgiiiih+0x148>
    2e96:	0f 2e       	mov	r0, r31
    2e98:	f1 ea       	ldi	r31, 0xA1	; 161
    2e9a:	ef 2e       	mov	r14, r31
    2e9c:	f1 e0       	ldi	r31, 0x01	; 1
    2e9e:	ff 2e       	mov	r15, r31
    2ea0:	f0 2d       	mov	r31, r0
    2ea2:	89 01       	movw	r16, r18
    2ea4:	9a 01       	movw	r18, r20
    2ea6:	ab 01       	movw	r20, r22
    2ea8:	bc 01       	movw	r22, r24
    2eaa:	8d e8       	ldi	r24, 0x8D	; 141
    2eac:	96 e0       	ldi	r25, 0x06	; 6
    2eae:	db d4       	rcall	.+2486   	; 0x3866 <_ZN4OLED19OLED_Write_To_BuferEiiiiPKh>
    2eb0:	c7 c1       	rjmp	.+910    	; 0x3240 <_Z10asciitoimgiiiih+0x4d6>
    2eb2:	0b 34       	cpi	r16, 0x4B	; 75
    2eb4:	71 f4       	brne	.+28     	; 0x2ed2 <_Z10asciitoimgiiiih+0x168>
    2eb6:	0f 2e       	mov	r0, r31
    2eb8:	f9 e9       	ldi	r31, 0x99	; 153
    2eba:	ef 2e       	mov	r14, r31
    2ebc:	f1 e0       	ldi	r31, 0x01	; 1
    2ebe:	ff 2e       	mov	r15, r31
    2ec0:	f0 2d       	mov	r31, r0
    2ec2:	89 01       	movw	r16, r18
    2ec4:	9a 01       	movw	r18, r20
    2ec6:	ab 01       	movw	r20, r22
    2ec8:	bc 01       	movw	r22, r24
    2eca:	8d e8       	ldi	r24, 0x8D	; 141
    2ecc:	96 e0       	ldi	r25, 0x06	; 6
    2ece:	cb d4       	rcall	.+2454   	; 0x3866 <_ZN4OLED19OLED_Write_To_BuferEiiiiPKh>
    2ed0:	b7 c1       	rjmp	.+878    	; 0x3240 <_Z10asciitoimgiiiih+0x4d6>
    2ed2:	0c 34       	cpi	r16, 0x4C	; 76
    2ed4:	71 f4       	brne	.+28     	; 0x2ef2 <_Z10asciitoimgiiiih+0x188>
    2ed6:	0f 2e       	mov	r0, r31
    2ed8:	f1 e9       	ldi	r31, 0x91	; 145
    2eda:	ef 2e       	mov	r14, r31
    2edc:	f1 e0       	ldi	r31, 0x01	; 1
    2ede:	ff 2e       	mov	r15, r31
    2ee0:	f0 2d       	mov	r31, r0
    2ee2:	89 01       	movw	r16, r18
    2ee4:	9a 01       	movw	r18, r20
    2ee6:	ab 01       	movw	r20, r22
    2ee8:	bc 01       	movw	r22, r24
    2eea:	8d e8       	ldi	r24, 0x8D	; 141
    2eec:	96 e0       	ldi	r25, 0x06	; 6
    2eee:	bb d4       	rcall	.+2422   	; 0x3866 <_ZN4OLED19OLED_Write_To_BuferEiiiiPKh>
    2ef0:	a7 c1       	rjmp	.+846    	; 0x3240 <_Z10asciitoimgiiiih+0x4d6>
    2ef2:	0d 34       	cpi	r16, 0x4D	; 77
    2ef4:	71 f4       	brne	.+28     	; 0x2f12 <_Z10asciitoimgiiiih+0x1a8>
    2ef6:	0f 2e       	mov	r0, r31
    2ef8:	f9 e8       	ldi	r31, 0x89	; 137
    2efa:	ef 2e       	mov	r14, r31
    2efc:	f1 e0       	ldi	r31, 0x01	; 1
    2efe:	ff 2e       	mov	r15, r31
    2f00:	f0 2d       	mov	r31, r0
    2f02:	89 01       	movw	r16, r18
    2f04:	9a 01       	movw	r18, r20
    2f06:	ab 01       	movw	r20, r22
    2f08:	bc 01       	movw	r22, r24
    2f0a:	8d e8       	ldi	r24, 0x8D	; 141
    2f0c:	96 e0       	ldi	r25, 0x06	; 6
    2f0e:	ab d4       	rcall	.+2390   	; 0x3866 <_ZN4OLED19OLED_Write_To_BuferEiiiiPKh>
    2f10:	97 c1       	rjmp	.+814    	; 0x3240 <_Z10asciitoimgiiiih+0x4d6>
    2f12:	0e 34       	cpi	r16, 0x4E	; 78
    2f14:	71 f4       	brne	.+28     	; 0x2f32 <_Z10asciitoimgiiiih+0x1c8>
    2f16:	0f 2e       	mov	r0, r31
    2f18:	f1 e8       	ldi	r31, 0x81	; 129
    2f1a:	ef 2e       	mov	r14, r31
    2f1c:	f1 e0       	ldi	r31, 0x01	; 1
    2f1e:	ff 2e       	mov	r15, r31
    2f20:	f0 2d       	mov	r31, r0
    2f22:	89 01       	movw	r16, r18
    2f24:	9a 01       	movw	r18, r20
    2f26:	ab 01       	movw	r20, r22
    2f28:	bc 01       	movw	r22, r24
    2f2a:	8d e8       	ldi	r24, 0x8D	; 141
    2f2c:	96 e0       	ldi	r25, 0x06	; 6
    2f2e:	9b d4       	rcall	.+2358   	; 0x3866 <_ZN4OLED19OLED_Write_To_BuferEiiiiPKh>
    2f30:	87 c1       	rjmp	.+782    	; 0x3240 <_Z10asciitoimgiiiih+0x4d6>
    2f32:	0f 34       	cpi	r16, 0x4F	; 79
    2f34:	71 f4       	brne	.+28     	; 0x2f52 <_Z10asciitoimgiiiih+0x1e8>
    2f36:	0f 2e       	mov	r0, r31
    2f38:	f9 e7       	ldi	r31, 0x79	; 121
    2f3a:	ef 2e       	mov	r14, r31
    2f3c:	f1 e0       	ldi	r31, 0x01	; 1
    2f3e:	ff 2e       	mov	r15, r31
    2f40:	f0 2d       	mov	r31, r0
    2f42:	89 01       	movw	r16, r18
    2f44:	9a 01       	movw	r18, r20
    2f46:	ab 01       	movw	r20, r22
    2f48:	bc 01       	movw	r22, r24
    2f4a:	8d e8       	ldi	r24, 0x8D	; 141
    2f4c:	96 e0       	ldi	r25, 0x06	; 6
    2f4e:	8b d4       	rcall	.+2326   	; 0x3866 <_ZN4OLED19OLED_Write_To_BuferEiiiiPKh>
    2f50:	77 c1       	rjmp	.+750    	; 0x3240 <_Z10asciitoimgiiiih+0x4d6>
    2f52:	00 35       	cpi	r16, 0x50	; 80
    2f54:	71 f4       	brne	.+28     	; 0x2f72 <_Z10asciitoimgiiiih+0x208>
    2f56:	0f 2e       	mov	r0, r31
    2f58:	f1 e7       	ldi	r31, 0x71	; 113
    2f5a:	ef 2e       	mov	r14, r31
    2f5c:	f1 e0       	ldi	r31, 0x01	; 1
    2f5e:	ff 2e       	mov	r15, r31
    2f60:	f0 2d       	mov	r31, r0
    2f62:	89 01       	movw	r16, r18
    2f64:	9a 01       	movw	r18, r20
    2f66:	ab 01       	movw	r20, r22
    2f68:	bc 01       	movw	r22, r24
    2f6a:	8d e8       	ldi	r24, 0x8D	; 141
    2f6c:	96 e0       	ldi	r25, 0x06	; 6
    2f6e:	7b d4       	rcall	.+2294   	; 0x3866 <_ZN4OLED19OLED_Write_To_BuferEiiiiPKh>
    2f70:	67 c1       	rjmp	.+718    	; 0x3240 <_Z10asciitoimgiiiih+0x4d6>
    2f72:	01 35       	cpi	r16, 0x51	; 81
    2f74:	71 f4       	brne	.+28     	; 0x2f92 <_Z10asciitoimgiiiih+0x228>
    2f76:	0f 2e       	mov	r0, r31
    2f78:	f9 e6       	ldi	r31, 0x69	; 105
    2f7a:	ef 2e       	mov	r14, r31
    2f7c:	f1 e0       	ldi	r31, 0x01	; 1
    2f7e:	ff 2e       	mov	r15, r31
    2f80:	f0 2d       	mov	r31, r0
    2f82:	89 01       	movw	r16, r18
    2f84:	9a 01       	movw	r18, r20
    2f86:	ab 01       	movw	r20, r22
    2f88:	bc 01       	movw	r22, r24
    2f8a:	8d e8       	ldi	r24, 0x8D	; 141
    2f8c:	96 e0       	ldi	r25, 0x06	; 6
    2f8e:	6b d4       	rcall	.+2262   	; 0x3866 <_ZN4OLED19OLED_Write_To_BuferEiiiiPKh>
    2f90:	57 c1       	rjmp	.+686    	; 0x3240 <_Z10asciitoimgiiiih+0x4d6>
    2f92:	02 35       	cpi	r16, 0x52	; 82
    2f94:	71 f4       	brne	.+28     	; 0x2fb2 <_Z10asciitoimgiiiih+0x248>
    2f96:	0f 2e       	mov	r0, r31
    2f98:	f1 e6       	ldi	r31, 0x61	; 97
    2f9a:	ef 2e       	mov	r14, r31
    2f9c:	f1 e0       	ldi	r31, 0x01	; 1
    2f9e:	ff 2e       	mov	r15, r31
    2fa0:	f0 2d       	mov	r31, r0
    2fa2:	89 01       	movw	r16, r18
    2fa4:	9a 01       	movw	r18, r20
    2fa6:	ab 01       	movw	r20, r22
    2fa8:	bc 01       	movw	r22, r24
    2faa:	8d e8       	ldi	r24, 0x8D	; 141
    2fac:	96 e0       	ldi	r25, 0x06	; 6
    2fae:	5b d4       	rcall	.+2230   	; 0x3866 <_ZN4OLED19OLED_Write_To_BuferEiiiiPKh>
    2fb0:	47 c1       	rjmp	.+654    	; 0x3240 <_Z10asciitoimgiiiih+0x4d6>
    2fb2:	03 35       	cpi	r16, 0x53	; 83
    2fb4:	71 f4       	brne	.+28     	; 0x2fd2 <_Z10asciitoimgiiiih+0x268>
    2fb6:	0f 2e       	mov	r0, r31
    2fb8:	f9 e5       	ldi	r31, 0x59	; 89
    2fba:	ef 2e       	mov	r14, r31
    2fbc:	f1 e0       	ldi	r31, 0x01	; 1
    2fbe:	ff 2e       	mov	r15, r31
    2fc0:	f0 2d       	mov	r31, r0
    2fc2:	89 01       	movw	r16, r18
    2fc4:	9a 01       	movw	r18, r20
    2fc6:	ab 01       	movw	r20, r22
    2fc8:	bc 01       	movw	r22, r24
    2fca:	8d e8       	ldi	r24, 0x8D	; 141
    2fcc:	96 e0       	ldi	r25, 0x06	; 6
    2fce:	4b d4       	rcall	.+2198   	; 0x3866 <_ZN4OLED19OLED_Write_To_BuferEiiiiPKh>
    2fd0:	37 c1       	rjmp	.+622    	; 0x3240 <_Z10asciitoimgiiiih+0x4d6>
    2fd2:	04 35       	cpi	r16, 0x54	; 84
    2fd4:	71 f4       	brne	.+28     	; 0x2ff2 <_Z10asciitoimgiiiih+0x288>
    2fd6:	0f 2e       	mov	r0, r31
    2fd8:	f1 e5       	ldi	r31, 0x51	; 81
    2fda:	ef 2e       	mov	r14, r31
    2fdc:	f1 e0       	ldi	r31, 0x01	; 1
    2fde:	ff 2e       	mov	r15, r31
    2fe0:	f0 2d       	mov	r31, r0
    2fe2:	89 01       	movw	r16, r18
    2fe4:	9a 01       	movw	r18, r20
    2fe6:	ab 01       	movw	r20, r22
    2fe8:	bc 01       	movw	r22, r24
    2fea:	8d e8       	ldi	r24, 0x8D	; 141
    2fec:	96 e0       	ldi	r25, 0x06	; 6
    2fee:	3b d4       	rcall	.+2166   	; 0x3866 <_ZN4OLED19OLED_Write_To_BuferEiiiiPKh>
    2ff0:	27 c1       	rjmp	.+590    	; 0x3240 <_Z10asciitoimgiiiih+0x4d6>
    2ff2:	05 35       	cpi	r16, 0x55	; 85
    2ff4:	71 f4       	brne	.+28     	; 0x3012 <_Z10asciitoimgiiiih+0x2a8>
    2ff6:	0f 2e       	mov	r0, r31
    2ff8:	f9 e4       	ldi	r31, 0x49	; 73
    2ffa:	ef 2e       	mov	r14, r31
    2ffc:	f1 e0       	ldi	r31, 0x01	; 1
    2ffe:	ff 2e       	mov	r15, r31
    3000:	f0 2d       	mov	r31, r0
    3002:	89 01       	movw	r16, r18
    3004:	9a 01       	movw	r18, r20
    3006:	ab 01       	movw	r20, r22
    3008:	bc 01       	movw	r22, r24
    300a:	8d e8       	ldi	r24, 0x8D	; 141
    300c:	96 e0       	ldi	r25, 0x06	; 6
    300e:	2b d4       	rcall	.+2134   	; 0x3866 <_ZN4OLED19OLED_Write_To_BuferEiiiiPKh>
    3010:	17 c1       	rjmp	.+558    	; 0x3240 <_Z10asciitoimgiiiih+0x4d6>
    3012:	06 35       	cpi	r16, 0x56	; 86
    3014:	71 f4       	brne	.+28     	; 0x3032 <_Z10asciitoimgiiiih+0x2c8>
    3016:	0f 2e       	mov	r0, r31
    3018:	f1 e4       	ldi	r31, 0x41	; 65
    301a:	ef 2e       	mov	r14, r31
    301c:	f1 e0       	ldi	r31, 0x01	; 1
    301e:	ff 2e       	mov	r15, r31
    3020:	f0 2d       	mov	r31, r0
    3022:	89 01       	movw	r16, r18
    3024:	9a 01       	movw	r18, r20
    3026:	ab 01       	movw	r20, r22
    3028:	bc 01       	movw	r22, r24
    302a:	8d e8       	ldi	r24, 0x8D	; 141
    302c:	96 e0       	ldi	r25, 0x06	; 6
    302e:	1b d4       	rcall	.+2102   	; 0x3866 <_ZN4OLED19OLED_Write_To_BuferEiiiiPKh>
    3030:	07 c1       	rjmp	.+526    	; 0x3240 <_Z10asciitoimgiiiih+0x4d6>
    3032:	07 35       	cpi	r16, 0x57	; 87
    3034:	71 f4       	brne	.+28     	; 0x3052 <_Z10asciitoimgiiiih+0x2e8>
    3036:	0f 2e       	mov	r0, r31
    3038:	f9 e3       	ldi	r31, 0x39	; 57
    303a:	ef 2e       	mov	r14, r31
    303c:	f1 e0       	ldi	r31, 0x01	; 1
    303e:	ff 2e       	mov	r15, r31
    3040:	f0 2d       	mov	r31, r0
    3042:	89 01       	movw	r16, r18
    3044:	9a 01       	movw	r18, r20
    3046:	ab 01       	movw	r20, r22
    3048:	bc 01       	movw	r22, r24
    304a:	8d e8       	ldi	r24, 0x8D	; 141
    304c:	96 e0       	ldi	r25, 0x06	; 6
    304e:	0b d4       	rcall	.+2070   	; 0x3866 <_ZN4OLED19OLED_Write_To_BuferEiiiiPKh>
    3050:	f7 c0       	rjmp	.+494    	; 0x3240 <_Z10asciitoimgiiiih+0x4d6>
    3052:	08 35       	cpi	r16, 0x58	; 88
    3054:	71 f4       	brne	.+28     	; 0x3072 <_Z10asciitoimgiiiih+0x308>
    3056:	0f 2e       	mov	r0, r31
    3058:	f1 e3       	ldi	r31, 0x31	; 49
    305a:	ef 2e       	mov	r14, r31
    305c:	f1 e0       	ldi	r31, 0x01	; 1
    305e:	ff 2e       	mov	r15, r31
    3060:	f0 2d       	mov	r31, r0
    3062:	89 01       	movw	r16, r18
    3064:	9a 01       	movw	r18, r20
    3066:	ab 01       	movw	r20, r22
    3068:	bc 01       	movw	r22, r24
    306a:	8d e8       	ldi	r24, 0x8D	; 141
    306c:	96 e0       	ldi	r25, 0x06	; 6
    306e:	fb d3       	rcall	.+2038   	; 0x3866 <_ZN4OLED19OLED_Write_To_BuferEiiiiPKh>
    3070:	e7 c0       	rjmp	.+462    	; 0x3240 <_Z10asciitoimgiiiih+0x4d6>
    3072:	09 35       	cpi	r16, 0x59	; 89
    3074:	71 f4       	brne	.+28     	; 0x3092 <_Z10asciitoimgiiiih+0x328>
    3076:	0f 2e       	mov	r0, r31
    3078:	f9 e2       	ldi	r31, 0x29	; 41
    307a:	ef 2e       	mov	r14, r31
    307c:	f1 e0       	ldi	r31, 0x01	; 1
    307e:	ff 2e       	mov	r15, r31
    3080:	f0 2d       	mov	r31, r0
    3082:	89 01       	movw	r16, r18
    3084:	9a 01       	movw	r18, r20
    3086:	ab 01       	movw	r20, r22
    3088:	bc 01       	movw	r22, r24
    308a:	8d e8       	ldi	r24, 0x8D	; 141
    308c:	96 e0       	ldi	r25, 0x06	; 6
    308e:	eb d3       	rcall	.+2006   	; 0x3866 <_ZN4OLED19OLED_Write_To_BuferEiiiiPKh>
    3090:	d7 c0       	rjmp	.+430    	; 0x3240 <_Z10asciitoimgiiiih+0x4d6>
    3092:	0a 35       	cpi	r16, 0x5A	; 90
    3094:	71 f4       	brne	.+28     	; 0x30b2 <_Z10asciitoimgiiiih+0x348>
    3096:	0f 2e       	mov	r0, r31
    3098:	f1 e2       	ldi	r31, 0x21	; 33
    309a:	ef 2e       	mov	r14, r31
    309c:	f1 e0       	ldi	r31, 0x01	; 1
    309e:	ff 2e       	mov	r15, r31
    30a0:	f0 2d       	mov	r31, r0
    30a2:	89 01       	movw	r16, r18
    30a4:	9a 01       	movw	r18, r20
    30a6:	ab 01       	movw	r20, r22
    30a8:	bc 01       	movw	r22, r24
    30aa:	8d e8       	ldi	r24, 0x8D	; 141
    30ac:	96 e0       	ldi	r25, 0x06	; 6
    30ae:	db d3       	rcall	.+1974   	; 0x3866 <_ZN4OLED19OLED_Write_To_BuferEiiiiPKh>
    30b0:	c7 c0       	rjmp	.+398    	; 0x3240 <_Z10asciitoimgiiiih+0x4d6>
    30b2:	00 33       	cpi	r16, 0x30	; 48
    30b4:	71 f4       	brne	.+28     	; 0x30d2 <_Z10asciitoimgiiiih+0x368>
    30b6:	0f 2e       	mov	r0, r31
    30b8:	f9 e6       	ldi	r31, 0x69	; 105
    30ba:	ef 2e       	mov	r14, r31
    30bc:	f5 e0       	ldi	r31, 0x05	; 5
    30be:	ff 2e       	mov	r15, r31
    30c0:	f0 2d       	mov	r31, r0
    30c2:	89 01       	movw	r16, r18
    30c4:	9a 01       	movw	r18, r20
    30c6:	ab 01       	movw	r20, r22
    30c8:	bc 01       	movw	r22, r24
    30ca:	8d e8       	ldi	r24, 0x8D	; 141
    30cc:	96 e0       	ldi	r25, 0x06	; 6
    30ce:	cb d3       	rcall	.+1942   	; 0x3866 <_ZN4OLED19OLED_Write_To_BuferEiiiiPKh>
    30d0:	b7 c0       	rjmp	.+366    	; 0x3240 <_Z10asciitoimgiiiih+0x4d6>
    30d2:	01 33       	cpi	r16, 0x31	; 49
    30d4:	71 f4       	brne	.+28     	; 0x30f2 <_Z10asciitoimgiiiih+0x388>
    30d6:	0f 2e       	mov	r0, r31
    30d8:	f1 e6       	ldi	r31, 0x61	; 97
    30da:	ef 2e       	mov	r14, r31
    30dc:	f5 e0       	ldi	r31, 0x05	; 5
    30de:	ff 2e       	mov	r15, r31
    30e0:	f0 2d       	mov	r31, r0
    30e2:	89 01       	movw	r16, r18
    30e4:	9a 01       	movw	r18, r20
    30e6:	ab 01       	movw	r20, r22
    30e8:	bc 01       	movw	r22, r24
    30ea:	8d e8       	ldi	r24, 0x8D	; 141
    30ec:	96 e0       	ldi	r25, 0x06	; 6
    30ee:	bb d3       	rcall	.+1910   	; 0x3866 <_ZN4OLED19OLED_Write_To_BuferEiiiiPKh>
    30f0:	a7 c0       	rjmp	.+334    	; 0x3240 <_Z10asciitoimgiiiih+0x4d6>
    30f2:	02 33       	cpi	r16, 0x32	; 50
    30f4:	71 f4       	brne	.+28     	; 0x3112 <_Z10asciitoimgiiiih+0x3a8>
    30f6:	0f 2e       	mov	r0, r31
    30f8:	f9 e5       	ldi	r31, 0x59	; 89
    30fa:	ef 2e       	mov	r14, r31
    30fc:	f5 e0       	ldi	r31, 0x05	; 5
    30fe:	ff 2e       	mov	r15, r31
    3100:	f0 2d       	mov	r31, r0
    3102:	89 01       	movw	r16, r18
    3104:	9a 01       	movw	r18, r20
    3106:	ab 01       	movw	r20, r22
    3108:	bc 01       	movw	r22, r24
    310a:	8d e8       	ldi	r24, 0x8D	; 141
    310c:	96 e0       	ldi	r25, 0x06	; 6
    310e:	ab d3       	rcall	.+1878   	; 0x3866 <_ZN4OLED19OLED_Write_To_BuferEiiiiPKh>
    3110:	97 c0       	rjmp	.+302    	; 0x3240 <_Z10asciitoimgiiiih+0x4d6>
    3112:	03 33       	cpi	r16, 0x33	; 51
    3114:	71 f4       	brne	.+28     	; 0x3132 <_Z10asciitoimgiiiih+0x3c8>
    3116:	0f 2e       	mov	r0, r31
    3118:	f1 e5       	ldi	r31, 0x51	; 81
    311a:	ef 2e       	mov	r14, r31
    311c:	f5 e0       	ldi	r31, 0x05	; 5
    311e:	ff 2e       	mov	r15, r31
    3120:	f0 2d       	mov	r31, r0
    3122:	89 01       	movw	r16, r18
    3124:	9a 01       	movw	r18, r20
    3126:	ab 01       	movw	r20, r22
    3128:	bc 01       	movw	r22, r24
    312a:	8d e8       	ldi	r24, 0x8D	; 141
    312c:	96 e0       	ldi	r25, 0x06	; 6
    312e:	9b d3       	rcall	.+1846   	; 0x3866 <_ZN4OLED19OLED_Write_To_BuferEiiiiPKh>
    3130:	87 c0       	rjmp	.+270    	; 0x3240 <_Z10asciitoimgiiiih+0x4d6>
    3132:	04 33       	cpi	r16, 0x34	; 52
    3134:	71 f4       	brne	.+28     	; 0x3152 <_Z10asciitoimgiiiih+0x3e8>
    3136:	0f 2e       	mov	r0, r31
    3138:	f9 e4       	ldi	r31, 0x49	; 73
    313a:	ef 2e       	mov	r14, r31
    313c:	f5 e0       	ldi	r31, 0x05	; 5
    313e:	ff 2e       	mov	r15, r31
    3140:	f0 2d       	mov	r31, r0
    3142:	89 01       	movw	r16, r18
    3144:	9a 01       	movw	r18, r20
    3146:	ab 01       	movw	r20, r22
    3148:	bc 01       	movw	r22, r24
    314a:	8d e8       	ldi	r24, 0x8D	; 141
    314c:	96 e0       	ldi	r25, 0x06	; 6
    314e:	8b d3       	rcall	.+1814   	; 0x3866 <_ZN4OLED19OLED_Write_To_BuferEiiiiPKh>
    3150:	77 c0       	rjmp	.+238    	; 0x3240 <_Z10asciitoimgiiiih+0x4d6>
    3152:	05 33       	cpi	r16, 0x35	; 53
    3154:	71 f4       	brne	.+28     	; 0x3172 <_Z10asciitoimgiiiih+0x408>
    3156:	0f 2e       	mov	r0, r31
    3158:	f1 e4       	ldi	r31, 0x41	; 65
    315a:	ef 2e       	mov	r14, r31
    315c:	f5 e0       	ldi	r31, 0x05	; 5
    315e:	ff 2e       	mov	r15, r31
    3160:	f0 2d       	mov	r31, r0
    3162:	89 01       	movw	r16, r18
    3164:	9a 01       	movw	r18, r20
    3166:	ab 01       	movw	r20, r22
    3168:	bc 01       	movw	r22, r24
    316a:	8d e8       	ldi	r24, 0x8D	; 141
    316c:	96 e0       	ldi	r25, 0x06	; 6
    316e:	7b d3       	rcall	.+1782   	; 0x3866 <_ZN4OLED19OLED_Write_To_BuferEiiiiPKh>
    3170:	67 c0       	rjmp	.+206    	; 0x3240 <_Z10asciitoimgiiiih+0x4d6>
    3172:	06 33       	cpi	r16, 0x36	; 54
    3174:	71 f4       	brne	.+28     	; 0x3192 <_Z10asciitoimgiiiih+0x428>
    3176:	0f 2e       	mov	r0, r31
    3178:	f9 e3       	ldi	r31, 0x39	; 57
    317a:	ef 2e       	mov	r14, r31
    317c:	f5 e0       	ldi	r31, 0x05	; 5
    317e:	ff 2e       	mov	r15, r31
    3180:	f0 2d       	mov	r31, r0
    3182:	89 01       	movw	r16, r18
    3184:	9a 01       	movw	r18, r20
    3186:	ab 01       	movw	r20, r22
    3188:	bc 01       	movw	r22, r24
    318a:	8d e8       	ldi	r24, 0x8D	; 141
    318c:	96 e0       	ldi	r25, 0x06	; 6
    318e:	6b d3       	rcall	.+1750   	; 0x3866 <_ZN4OLED19OLED_Write_To_BuferEiiiiPKh>
    3190:	57 c0       	rjmp	.+174    	; 0x3240 <_Z10asciitoimgiiiih+0x4d6>
    3192:	07 33       	cpi	r16, 0x37	; 55
    3194:	71 f4       	brne	.+28     	; 0x31b2 <_Z10asciitoimgiiiih+0x448>
    3196:	0f 2e       	mov	r0, r31
    3198:	f1 e3       	ldi	r31, 0x31	; 49
    319a:	ef 2e       	mov	r14, r31
    319c:	f5 e0       	ldi	r31, 0x05	; 5
    319e:	ff 2e       	mov	r15, r31
    31a0:	f0 2d       	mov	r31, r0
    31a2:	89 01       	movw	r16, r18
    31a4:	9a 01       	movw	r18, r20
    31a6:	ab 01       	movw	r20, r22
    31a8:	bc 01       	movw	r22, r24
    31aa:	8d e8       	ldi	r24, 0x8D	; 141
    31ac:	96 e0       	ldi	r25, 0x06	; 6
    31ae:	5b d3       	rcall	.+1718   	; 0x3866 <_ZN4OLED19OLED_Write_To_BuferEiiiiPKh>
    31b0:	47 c0       	rjmp	.+142    	; 0x3240 <_Z10asciitoimgiiiih+0x4d6>
    31b2:	08 33       	cpi	r16, 0x38	; 56
    31b4:	71 f4       	brne	.+28     	; 0x31d2 <_Z10asciitoimgiiiih+0x468>
    31b6:	0f 2e       	mov	r0, r31
    31b8:	f9 e2       	ldi	r31, 0x29	; 41
    31ba:	ef 2e       	mov	r14, r31
    31bc:	f5 e0       	ldi	r31, 0x05	; 5
    31be:	ff 2e       	mov	r15, r31
    31c0:	f0 2d       	mov	r31, r0
    31c2:	89 01       	movw	r16, r18
    31c4:	9a 01       	movw	r18, r20
    31c6:	ab 01       	movw	r20, r22
    31c8:	bc 01       	movw	r22, r24
    31ca:	8d e8       	ldi	r24, 0x8D	; 141
    31cc:	96 e0       	ldi	r25, 0x06	; 6
    31ce:	4b d3       	rcall	.+1686   	; 0x3866 <_ZN4OLED19OLED_Write_To_BuferEiiiiPKh>
    31d0:	37 c0       	rjmp	.+110    	; 0x3240 <_Z10asciitoimgiiiih+0x4d6>
    31d2:	09 33       	cpi	r16, 0x39	; 57
    31d4:	71 f4       	brne	.+28     	; 0x31f2 <_Z10asciitoimgiiiih+0x488>
    31d6:	0f 2e       	mov	r0, r31
    31d8:	f1 e2       	ldi	r31, 0x21	; 33
    31da:	ef 2e       	mov	r14, r31
    31dc:	f5 e0       	ldi	r31, 0x05	; 5
    31de:	ff 2e       	mov	r15, r31
    31e0:	f0 2d       	mov	r31, r0
    31e2:	89 01       	movw	r16, r18
    31e4:	9a 01       	movw	r18, r20
    31e6:	ab 01       	movw	r20, r22
    31e8:	bc 01       	movw	r22, r24
    31ea:	8d e8       	ldi	r24, 0x8D	; 141
    31ec:	96 e0       	ldi	r25, 0x06	; 6
    31ee:	3b d3       	rcall	.+1654   	; 0x3866 <_ZN4OLED19OLED_Write_To_BuferEiiiiPKh>
    31f0:	27 c0       	rjmp	.+78     	; 0x3240 <_Z10asciitoimgiiiih+0x4d6>
    31f2:	e0 2f       	mov	r30, r16
    31f4:	f0 e0       	ldi	r31, 0x00	; 0
    31f6:	f5 95       	asr	r31
    31f8:	e7 95       	ror	r30
    31fa:	f5 95       	asr	r31
    31fc:	e7 95       	ror	r30
    31fe:	f5 95       	asr	r31
    3200:	e7 95       	ror	r30
    3202:	f5 95       	asr	r31
    3204:	e7 95       	ror	r30
    3206:	ef 2b       	or	r30, r31
    3208:	71 f4       	brne	.+28     	; 0x3226 <_Z10asciitoimgiiiih+0x4bc>
    320a:	0f 2e       	mov	r0, r31
    320c:	f1 e1       	ldi	r31, 0x11	; 17
    320e:	ef 2e       	mov	r14, r31
    3210:	f1 e0       	ldi	r31, 0x01	; 1
    3212:	ff 2e       	mov	r15, r31
    3214:	f0 2d       	mov	r31, r0
    3216:	89 01       	movw	r16, r18
    3218:	9a 01       	movw	r18, r20
    321a:	ab 01       	movw	r20, r22
    321c:	bc 01       	movw	r22, r24
    321e:	8d e8       	ldi	r24, 0x8D	; 141
    3220:	96 e0       	ldi	r25, 0x06	; 6
    3222:	21 d3       	rcall	.+1602   	; 0x3866 <_ZN4OLED19OLED_Write_To_BuferEiiiiPKh>
    3224:	0d c0       	rjmp	.+26     	; 0x3240 <_Z10asciitoimgiiiih+0x4d6>
    3226:	0f 2e       	mov	r0, r31
    3228:	f9 e1       	ldi	r31, 0x19	; 25
    322a:	ef 2e       	mov	r14, r31
    322c:	f1 e0       	ldi	r31, 0x01	; 1
    322e:	ff 2e       	mov	r15, r31
    3230:	f0 2d       	mov	r31, r0
    3232:	89 01       	movw	r16, r18
    3234:	9a 01       	movw	r18, r20
    3236:	ab 01       	movw	r20, r22
    3238:	bc 01       	movw	r22, r24
    323a:	8d e8       	ldi	r24, 0x8D	; 141
    323c:	96 e0       	ldi	r25, 0x06	; 6
    323e:	13 d3       	rcall	.+1574   	; 0x3866 <_ZN4OLED19OLED_Write_To_BuferEiiiiPKh>
    3240:	1f 91       	pop	r17
    3242:	0f 91       	pop	r16
    3244:	ff 90       	pop	r15
    3246:	ef 90       	pop	r14
    3248:	08 95       	ret

0000324a <__vector_20>:

uint8_t data_in[100];
bool read=false;
int count=0;
ISR (USART0_RX_vect)
{
    324a:	1f 92       	push	r1
    324c:	0f 92       	push	r0
    324e:	0f b6       	in	r0, 0x3f	; 63
    3250:	0f 92       	push	r0
    3252:	11 24       	eor	r1, r1
    3254:	0b b6       	in	r0, 0x3b	; 59
    3256:	0f 92       	push	r0
    3258:	2f 93       	push	r18
    325a:	8f 93       	push	r24
    325c:	9f 93       	push	r25
    325e:	af 93       	push	r26
    3260:	bf 93       	push	r27
    3262:	ef 93       	push	r30
    3264:	ff 93       	push	r31
	while(!(UCSR0A&(1<<RXC0))) {};
    3266:	e0 ec       	ldi	r30, 0xC0	; 192
    3268:	f0 e0       	ldi	r31, 0x00	; 0
    326a:	80 81       	ld	r24, Z
    326c:	88 23       	and	r24, r24
    326e:	ec f7       	brge	.-6      	; 0x326a <__vector_20+0x20>
	UCSR0B |=(0<<RXEN0)|(0<<RXCIE0);
    3270:	e1 ec       	ldi	r30, 0xC1	; 193
    3272:	f0 e0       	ldi	r31, 0x00	; 0
    3274:	80 81       	ld	r24, Z
    3276:	80 83       	st	Z, r24
	data_in[count] = UDR0;
    3278:	80 91 e2 05 	lds	r24, 0x05E2	; 0x8005e2 <__data_end>
    327c:	90 91 e3 05 	lds	r25, 0x05E3	; 0x8005e3 <__data_end+0x1>
    3280:	20 91 c6 00 	lds	r18, 0x00C6	; 0x8000c6 <__TEXT_REGION_LENGTH__+0x7e00c6>
    3284:	dc 01       	movw	r26, r24
    3286:	ab 51       	subi	r26, 0x1B	; 27
    3288:	ba 4f       	sbci	r27, 0xFA	; 250
    328a:	2c 93       	st	X, r18
		read=true;
    328c:	21 e0       	ldi	r18, 0x01	; 1
    328e:	20 93 e4 05 	sts	0x05E4, r18	; 0x8005e4 <read>
		count++;
    3292:	01 96       	adiw	r24, 0x01	; 1
    3294:	90 93 e3 05 	sts	0x05E3, r25	; 0x8005e3 <__data_end+0x1>
    3298:	80 93 e2 05 	sts	0x05E2, r24	; 0x8005e2 <__data_end>
	UCSR0B |=(1<<RXEN0)|(1<<RXCIE0); 
    329c:	80 81       	ld	r24, Z
    329e:	80 69       	ori	r24, 0x90	; 144
    32a0:	80 83       	st	Z, r24


}
    32a2:	ff 91       	pop	r31
    32a4:	ef 91       	pop	r30
    32a6:	bf 91       	pop	r27
    32a8:	af 91       	pop	r26
    32aa:	9f 91       	pop	r25
    32ac:	8f 91       	pop	r24
    32ae:	2f 91       	pop	r18
    32b0:	0f 90       	pop	r0
    32b2:	0b be       	out	0x3b, r0	; 59
    32b4:	0f 90       	pop	r0
    32b6:	0f be       	out	0x3f, r0	; 63
    32b8:	0f 90       	pop	r0
    32ba:	1f 90       	pop	r1
    32bc:	18 95       	reti

000032be <main>:

 

int main(void){
sei();
    32be:	78 94       	sei

		oled.OLED_Write_Bufer();
    32c0:	8d e8       	ldi	r24, 0x8D	; 141
    32c2:	96 e0       	ldi	r25, 0x06	; 6
    32c4:	d7 d1       	rcall	.+942    	; 0x3674 <_ZN4OLED16OLED_Write_BuferEv>
		DDRA = 0xff;  
    32c6:	8f ef       	ldi	r24, 0xFF	; 255
    32c8:	81 b9       	out	0x01, r24	; 1
		PORTA= 0x00;
    32ca:	12 b8       	out	0x02, r1	; 2
		DDRD = 0b10000000;
    32cc:	80 e8       	ldi	r24, 0x80	; 128
    32ce:	8a b9       	out	0x0a, r24	; 10
		//PORTD = 0b00000000;
		PCMSK0=0b00111100;
    32d0:	8c e3       	ldi	r24, 0x3C	; 60
    32d2:	80 93 6b 00 	sts	0x006B, r24	; 0x80006b <__TEXT_REGION_LENGTH__+0x7e006b>
		PCICR|=0b00000001;
    32d6:	e8 e6       	ldi	r30, 0x68	; 104
    32d8:	f0 e0       	ldi	r31, 0x00	; 0
    32da:	80 81       	ld	r24, Z
    32dc:	81 60       	ori	r24, 0x01	; 1
    32de:	80 83       	st	Z, r24
		oled.OLED_Write_To_Bufer(56,y-2,2,8,upwd);
	};
	
	void refresh() override
	{
		Default();
    32e0:	0f 2e       	mov	r0, r31
    32e2:	fb e7       	ldi	r31, 0x7B	; 123
    32e4:	4f 2e       	mov	r4, r31
    32e6:	f6 e0       	ldi	r31, 0x06	; 6
    32e8:	5f 2e       	mov	r5, r31
    32ea:	f0 2d       	mov	r31, r0
	};
	
	void refresh() override
	{
		//oled.OLED_Bufer_Clear();
		Default();
    32ec:	0f 2e       	mov	r0, r31
    32ee:	fb e6       	ldi	r31, 0x6B	; 107
    32f0:	2f 2e       	mov	r2, r31
    32f2:	f6 e0       	ldi	r31, 0x06	; 6
    32f4:	3f 2e       	mov	r3, r31
    32f6:	f0 2d       	mov	r31, r0
    };
	
    void refresh() override
	{
		//oled.OLED_Bufer_Clear();
		Default();
    32f8:	0f 2e       	mov	r0, r31
    32fa:	f1 e5       	ldi	r31, 0x51	; 81
    32fc:	6f 2e       	mov	r6, r31
    32fe:	f6 e0       	ldi	r31, 0x06	; 6
    3300:	7f 2e       	mov	r7, r31
    3302:	f0 2d       	mov	r31, r0
	};
	
	void refresh() override
	{
				//oled.OLED_Bufer_Clear();
				Default();
    3304:	0f 2e       	mov	r0, r31
    3306:	f7 e5       	ldi	r31, 0x57	; 87
    3308:	8f 2e       	mov	r8, r31
    330a:	f6 e0       	ldi	r31, 0x06	; 6
    330c:	9f 2e       	mov	r9, r31
    330e:	f0 2d       	mov	r31, r0
				_delay_ms(1000);
				send_Uart_str("AT");
				send_Uart((char)13);*/
	while(1)
	{
		if (read == true) {
    3310:	80 91 e4 05 	lds	r24, 0x05E4	; 0x8005e4 <read>
    3314:	88 23       	and	r24, r24
    3316:	b9 f1       	breq	.+110    	; 0x3386 <main+0xc8>
		 for(int j=0;j<count;j++)
    3318:	80 91 e2 05 	lds	r24, 0x05E2	; 0x8005e2 <__data_end>
    331c:	90 91 e3 05 	lds	r25, 0x05E3	; 0x8005e3 <__data_end+0x1>
    3320:	18 16       	cp	r1, r24
    3322:	19 06       	cpc	r1, r25
    3324:	54 f5       	brge	.+84     	; 0x337a <main+0xbc>
    3326:	0f 2e       	mov	r0, r31
    3328:	f5 ee       	ldi	r31, 0xE5	; 229
    332a:	cf 2e       	mov	r12, r31
    332c:	f5 e0       	ldi	r31, 0x05	; 5
    332e:	df 2e       	mov	r13, r31
    3330:	f0 2d       	mov	r31, r0
    3332:	c0 e0       	ldi	r28, 0x00	; 0
    3334:	d0 e0       	ldi	r29, 0x00	; 0
    3336:	e1 2c       	mov	r14, r1
    3338:	f1 2c       	mov	r15, r1
		 {
		 oled.OLED_Clear_Bufer_part((j)*8,1,1,8);
    333a:	08 e0       	ldi	r16, 0x08	; 8
    333c:	10 e0       	ldi	r17, 0x00	; 0
    333e:	21 e0       	ldi	r18, 0x01	; 1
    3340:	30 e0       	ldi	r19, 0x00	; 0
    3342:	41 e0       	ldi	r20, 0x01	; 1
    3344:	50 e0       	ldi	r21, 0x00	; 0
    3346:	be 01       	movw	r22, r28
    3348:	8d e8       	ldi	r24, 0x8D	; 141
    334a:	96 e0       	ldi	r25, 0x06	; 6
    334c:	3d d2       	rcall	.+1146   	; 0x37c8 <_ZN4OLED21OLED_Clear_Bufer_partEiiii>
		 asciitoimg((j)*8,1,1,8,data_in[j]);
    334e:	d6 01       	movw	r26, r12
    3350:	0d 91       	ld	r16, X+
    3352:	6d 01       	movw	r12, r26
    3354:	28 e0       	ldi	r18, 0x08	; 8
    3356:	30 e0       	ldi	r19, 0x00	; 0
    3358:	41 e0       	ldi	r20, 0x01	; 1
    335a:	50 e0       	ldi	r21, 0x00	; 0
    335c:	61 e0       	ldi	r22, 0x01	; 1
    335e:	70 e0       	ldi	r23, 0x00	; 0
    3360:	ce 01       	movw	r24, r28
    3362:	03 dd       	rcall	.-1530   	; 0x2d6a <_Z10asciitoimgiiiih>
				send_Uart_str("AT");
				send_Uart((char)13);*/
	while(1)
	{
		if (read == true) {
		 for(int j=0;j<count;j++)
    3364:	bf ef       	ldi	r27, 0xFF	; 255
    3366:	eb 1a       	sub	r14, r27
    3368:	fb 0a       	sbc	r15, r27
    336a:	28 96       	adiw	r28, 0x08	; 8
    336c:	80 91 e2 05 	lds	r24, 0x05E2	; 0x8005e2 <__data_end>
    3370:	90 91 e3 05 	lds	r25, 0x05E3	; 0x8005e3 <__data_end+0x1>
    3374:	e8 16       	cp	r14, r24
    3376:	f9 06       	cpc	r15, r25
    3378:	04 f3       	brlt	.-64     	; 0x333a <main+0x7c>
		 {
		 oled.OLED_Clear_Bufer_part((j)*8,1,1,8);
		 asciitoimg((j)*8,1,1,8,data_in[j]);
		 }
		 count=0;
    337a:	10 92 e3 05 	sts	0x05E3, r1	; 0x8005e3 <__data_end+0x1>
    337e:	10 92 e2 05 	sts	0x05E2, r1	; 0x8005e2 <__data_end>
		 read = false;
    3382:	10 92 e4 05 	sts	0x05E4, r1	; 0x8005e4 <read>
		}
		sei();
    3386:	78 94       	sei
		check();
    3388:	0e 94 ff 10 	call	0x21fe	; 0x21fe <_Z5checkv>
		if (Password_Menu_Status)
    338c:	80 91 8c 06 	lds	r24, 0x068C	; 0x80068c <Password_Menu_Status>
    3390:	88 23       	and	r24, r24
    3392:	89 f0       	breq	.+34     	; 0x33b6 <main+0xf8>
	};
	
	void refresh() override
	{
				//oled.OLED_Bufer_Clear();
				Default();
    3394:	d4 01       	movw	r26, r8
    3396:	ed 91       	ld	r30, X+
    3398:	fc 91       	ld	r31, X
    339a:	01 90       	ld	r0, Z+
    339c:	f0 81       	ld	r31, Z
    339e:	e0 2d       	mov	r30, r0
    33a0:	c4 01       	movw	r24, r8
    33a2:	09 95       	icall
				actions();
    33a4:	d4 01       	movw	r26, r8
    33a6:	ed 91       	ld	r30, X+
    33a8:	fc 91       	ld	r31, X
    33aa:	00 88       	ldd	r0, Z+16	; 0x10
    33ac:	f1 89       	ldd	r31, Z+17	; 0x11
    33ae:	e0 2d       	mov	r30, r0
    33b0:	c4 01       	movw	r24, r8
    33b2:	09 95       	icall
    33b4:	3e c0       	rjmp	.+124    	; 0x3432 <main+0x174>
		check();
		if (Password_Menu_Status)
		{
			passw_menu.refresh();
		}
		else if (Main_Menu_Status)
    33b6:	80 91 00 01 	lds	r24, 0x0100	; 0x800100 <Main_Menu_Status>
    33ba:	88 23       	and	r24, r24
    33bc:	89 f0       	breq	.+34     	; 0x33e0 <main+0x122>
    };
	
    void refresh() override
	{
		//oled.OLED_Bufer_Clear();
		Default();
    33be:	d3 01       	movw	r26, r6
    33c0:	ed 91       	ld	r30, X+
    33c2:	fc 91       	ld	r31, X
    33c4:	01 90       	ld	r0, Z+
    33c6:	f0 81       	ld	r31, Z
    33c8:	e0 2d       	mov	r30, r0
    33ca:	c3 01       	movw	r24, r6
    33cc:	09 95       	icall
		actions();
    33ce:	d3 01       	movw	r26, r6
    33d0:	ed 91       	ld	r30, X+
    33d2:	fc 91       	ld	r31, X
    33d4:	00 88       	ldd	r0, Z+16	; 0x10
    33d6:	f1 89       	ldd	r31, Z+17	; 0x11
    33d8:	e0 2d       	mov	r30, r0
    33da:	c3 01       	movw	r24, r6
    33dc:	09 95       	icall
    33de:	29 c0       	rjmp	.+82     	; 0x3432 <main+0x174>
		}
		else if (Main_Menu_Status)
		{
			menu.refresh();
		}
		else if (Settings_Menu_Status)
    33e0:	80 91 8b 06 	lds	r24, 0x068B	; 0x80068b <Settings_Menu_Status>
    33e4:	88 23       	and	r24, r24
    33e6:	89 f0       	breq	.+34     	; 0x340a <main+0x14c>
	};
	
	void refresh() override
	{
		//oled.OLED_Bufer_Clear();
		Default();
    33e8:	d1 01       	movw	r26, r2
    33ea:	ed 91       	ld	r30, X+
    33ec:	fc 91       	ld	r31, X
    33ee:	01 90       	ld	r0, Z+
    33f0:	f0 81       	ld	r31, Z
    33f2:	e0 2d       	mov	r30, r0
    33f4:	c1 01       	movw	r24, r2
    33f6:	09 95       	icall
		actions();
    33f8:	d1 01       	movw	r26, r2
    33fa:	ed 91       	ld	r30, X+
    33fc:	fc 91       	ld	r31, X
    33fe:	00 88       	ldd	r0, Z+16	; 0x10
    3400:	f1 89       	ldd	r31, Z+17	; 0x11
    3402:	e0 2d       	mov	r30, r0
    3404:	c1 01       	movw	r24, r2
    3406:	09 95       	icall
    3408:	14 c0       	rjmp	.+40     	; 0x3432 <main+0x174>
		}
		else if (Settings_Menu_Status)
		{
			sett_menu.refresh();	
		}
		else if (Info_Menu_Status)
    340a:	80 91 8a 06 	lds	r24, 0x068A	; 0x80068a <Info_Menu_Status>
    340e:	88 23       	and	r24, r24
    3410:	81 f0       	breq	.+32     	; 0x3432 <main+0x174>
		oled.OLED_Write_To_Bufer(56,y-2,2,8,upwd);
	};
	
	void refresh() override
	{
		Default();
    3412:	d2 01       	movw	r26, r4
    3414:	ed 91       	ld	r30, X+
    3416:	fc 91       	ld	r31, X
    3418:	01 90       	ld	r0, Z+
    341a:	f0 81       	ld	r31, Z
    341c:	e0 2d       	mov	r30, r0
    341e:	c2 01       	movw	r24, r4
    3420:	09 95       	icall
		actions();
    3422:	d2 01       	movw	r26, r4
    3424:	ed 91       	ld	r30, X+
    3426:	fc 91       	ld	r31, X
    3428:	00 88       	ldd	r0, Z+16	; 0x10
    342a:	f1 89       	ldd	r31, Z+17	; 0x11
    342c:	e0 2d       	mov	r30, r0
    342e:	c2 01       	movw	r24, r4
    3430:	09 95       	icall
}

void refreshlvl()
{
	int kf=0;
	if((PINB>>0)&0b00000001==1) kf++;
    3432:	83 b1       	in	r24, 0x03	; 3
	printlvltoOLEDbufer();
}

void refreshlvl()
{
	int kf=0;
    3434:	80 fb       	bst	r24, 0
    3436:	aa 24       	eor	r10, r10
    3438:	a0 f8       	bld	r10, 0
    343a:	b1 2c       	mov	r11, r1
    343c:	c5 01       	movw	r24, r10
	if((PINB>>0)&0b00000001==1) kf++;
	if((PINB>>1)&0b00000001==1) kf++;
    343e:	19 99       	sbic	0x03, 1	; 3
    3440:	01 96       	adiw	r24, 0x01	; 1
	if((PINB>>2)&0b00000001==1) kf++;
    3442:	1a 99       	sbic	0x03, 2	; 3
    3444:	01 96       	adiw	r24, 0x01	; 1
	if((PINB>>3)&0b00000001==1) kf++;
    3446:	1b 99       	sbic	0x03, 3	; 3
    3448:	01 96       	adiw	r24, 0x01	; 1
	curlvl=kf;
    344a:	90 93 4a 06 	sts	0x064A, r25	; 0x80064a <batary+0x1>
    344e:	80 93 49 06 	sts	0x0649, r24	; 0x800649 <batary>
}

void printlvltoOLEDbufer()
{
	if(curlvl==0) oled.OLED_Write_To_Bufer(96,0,4,8,batary5);
    3452:	89 2b       	or	r24, r25
    3454:	89 f4       	brne	.+34     	; 0x3478 <main+0x1ba>
    3456:	0f 2e       	mov	r0, r31
    3458:	f1 e8       	ldi	r31, 0x81	; 129
    345a:	ef 2e       	mov	r14, r31
    345c:	f2 e0       	ldi	r31, 0x02	; 2
    345e:	ff 2e       	mov	r15, r31
    3460:	f0 2d       	mov	r31, r0
    3462:	08 e0       	ldi	r16, 0x08	; 8
    3464:	10 e0       	ldi	r17, 0x00	; 0
    3466:	24 e0       	ldi	r18, 0x04	; 4
    3468:	30 e0       	ldi	r19, 0x00	; 0
    346a:	40 e0       	ldi	r20, 0x00	; 0
    346c:	50 e0       	ldi	r21, 0x00	; 0
    346e:	60 e6       	ldi	r22, 0x60	; 96
    3470:	70 e0       	ldi	r23, 0x00	; 0
    3472:	8d e8       	ldi	r24, 0x8D	; 141
    3474:	96 e0       	ldi	r25, 0x06	; 6
    3476:	f7 d1       	rcall	.+1006   	; 0x3866 <_ZN4OLED19OLED_Write_To_BuferEiiiiPKh>
	if(curlvl==1) oled.OLED_Write_To_Bufer(96,0,4,8,batary4);
    3478:	80 91 49 06 	lds	r24, 0x0649	; 0x800649 <batary>
    347c:	90 91 4a 06 	lds	r25, 0x064A	; 0x80064a <batary+0x1>
    3480:	01 97       	sbiw	r24, 0x01	; 1
    3482:	89 f4       	brne	.+34     	; 0x34a6 <main+0x1e8>
    3484:	0f 2e       	mov	r0, r31
    3486:	f1 e6       	ldi	r31, 0x61	; 97
    3488:	ef 2e       	mov	r14, r31
    348a:	f2 e0       	ldi	r31, 0x02	; 2
    348c:	ff 2e       	mov	r15, r31
    348e:	f0 2d       	mov	r31, r0
    3490:	08 e0       	ldi	r16, 0x08	; 8
    3492:	10 e0       	ldi	r17, 0x00	; 0
    3494:	24 e0       	ldi	r18, 0x04	; 4
    3496:	30 e0       	ldi	r19, 0x00	; 0
    3498:	40 e0       	ldi	r20, 0x00	; 0
    349a:	50 e0       	ldi	r21, 0x00	; 0
    349c:	60 e6       	ldi	r22, 0x60	; 96
    349e:	70 e0       	ldi	r23, 0x00	; 0
    34a0:	8d e8       	ldi	r24, 0x8D	; 141
    34a2:	96 e0       	ldi	r25, 0x06	; 6
    34a4:	e0 d1       	rcall	.+960    	; 0x3866 <_ZN4OLED19OLED_Write_To_BuferEiiiiPKh>
	if(curlvl==2) oled.OLED_Write_To_Bufer(96,0,4,8,batary3);
    34a6:	80 91 49 06 	lds	r24, 0x0649	; 0x800649 <batary>
    34aa:	90 91 4a 06 	lds	r25, 0x064A	; 0x80064a <batary+0x1>
    34ae:	02 97       	sbiw	r24, 0x02	; 2
    34b0:	89 f4       	brne	.+34     	; 0x34d4 <main+0x216>
    34b2:	0f 2e       	mov	r0, r31
    34b4:	f1 e4       	ldi	r31, 0x41	; 65
    34b6:	ef 2e       	mov	r14, r31
    34b8:	f2 e0       	ldi	r31, 0x02	; 2
    34ba:	ff 2e       	mov	r15, r31
    34bc:	f0 2d       	mov	r31, r0
    34be:	08 e0       	ldi	r16, 0x08	; 8
    34c0:	10 e0       	ldi	r17, 0x00	; 0
    34c2:	24 e0       	ldi	r18, 0x04	; 4
    34c4:	30 e0       	ldi	r19, 0x00	; 0
    34c6:	40 e0       	ldi	r20, 0x00	; 0
    34c8:	50 e0       	ldi	r21, 0x00	; 0
    34ca:	60 e6       	ldi	r22, 0x60	; 96
    34cc:	70 e0       	ldi	r23, 0x00	; 0
    34ce:	8d e8       	ldi	r24, 0x8D	; 141
    34d0:	96 e0       	ldi	r25, 0x06	; 6
    34d2:	c9 d1       	rcall	.+914    	; 0x3866 <_ZN4OLED19OLED_Write_To_BuferEiiiiPKh>
	if(curlvl==3) oled.OLED_Write_To_Bufer(96,0,4,8,batary2);
    34d4:	80 91 49 06 	lds	r24, 0x0649	; 0x800649 <batary>
    34d8:	90 91 4a 06 	lds	r25, 0x064A	; 0x80064a <batary+0x1>
    34dc:	03 97       	sbiw	r24, 0x03	; 3
    34de:	89 f4       	brne	.+34     	; 0x3502 <main+0x244>
    34e0:	0f 2e       	mov	r0, r31
    34e2:	f1 e2       	ldi	r31, 0x21	; 33
    34e4:	ef 2e       	mov	r14, r31
    34e6:	f2 e0       	ldi	r31, 0x02	; 2
    34e8:	ff 2e       	mov	r15, r31
    34ea:	f0 2d       	mov	r31, r0
    34ec:	08 e0       	ldi	r16, 0x08	; 8
    34ee:	10 e0       	ldi	r17, 0x00	; 0
    34f0:	24 e0       	ldi	r18, 0x04	; 4
    34f2:	30 e0       	ldi	r19, 0x00	; 0
    34f4:	40 e0       	ldi	r20, 0x00	; 0
    34f6:	50 e0       	ldi	r21, 0x00	; 0
    34f8:	60 e6       	ldi	r22, 0x60	; 96
    34fa:	70 e0       	ldi	r23, 0x00	; 0
    34fc:	8d e8       	ldi	r24, 0x8D	; 141
    34fe:	96 e0       	ldi	r25, 0x06	; 6
    3500:	b2 d1       	rcall	.+868    	; 0x3866 <_ZN4OLED19OLED_Write_To_BuferEiiiiPKh>
	if(curlvl==4) oled.OLED_Write_To_Bufer(96,0,4,8,batary1);
    3502:	80 91 49 06 	lds	r24, 0x0649	; 0x800649 <batary>
    3506:	90 91 4a 06 	lds	r25, 0x064A	; 0x80064a <batary+0x1>
    350a:	04 97       	sbiw	r24, 0x04	; 4
    350c:	89 f4       	brne	.+34     	; 0x3530 <main+0x272>
    350e:	0f 2e       	mov	r0, r31
    3510:	f1 e0       	ldi	r31, 0x01	; 1
    3512:	ef 2e       	mov	r14, r31
    3514:	f2 e0       	ldi	r31, 0x02	; 2
    3516:	ff 2e       	mov	r15, r31
    3518:	f0 2d       	mov	r31, r0
    351a:	08 e0       	ldi	r16, 0x08	; 8
    351c:	10 e0       	ldi	r17, 0x00	; 0
    351e:	24 e0       	ldi	r18, 0x04	; 4
    3520:	30 e0       	ldi	r19, 0x00	; 0
    3522:	40 e0       	ldi	r20, 0x00	; 0
    3524:	50 e0       	ldi	r21, 0x00	; 0
    3526:	60 e6       	ldi	r22, 0x60	; 96
    3528:	70 e0       	ldi	r23, 0x00	; 0
    352a:	8d e8       	ldi	r24, 0x8D	; 141
    352c:	96 e0       	ldi	r25, 0x06	; 6
    352e:	9b d1       	rcall	.+822    	; 0x3866 <_ZN4OLED19OLED_Write_To_BuferEiiiiPKh>
		{
			//	.refresh();
		}

		batary.refresh();
		oled.OLED_Write_To_Bufer(80,0,2,8,Net3);
    3530:	0f 2e       	mov	r0, r31
    3532:	f1 ef       	ldi	r31, 0xF1	; 241
    3534:	ef 2e       	mov	r14, r31
    3536:	f1 e0       	ldi	r31, 0x01	; 1
    3538:	ff 2e       	mov	r15, r31
    353a:	f0 2d       	mov	r31, r0
    353c:	08 e0       	ldi	r16, 0x08	; 8
    353e:	10 e0       	ldi	r17, 0x00	; 0
    3540:	22 e0       	ldi	r18, 0x02	; 2
    3542:	30 e0       	ldi	r19, 0x00	; 0
    3544:	40 e0       	ldi	r20, 0x00	; 0
    3546:	50 e0       	ldi	r21, 0x00	; 0
    3548:	60 e5       	ldi	r22, 0x50	; 80
    354a:	70 e0       	ldi	r23, 0x00	; 0
    354c:	8d e8       	ldi	r24, 0x8D	; 141
    354e:	96 e0       	ldi	r25, 0x06	; 6
		oled.OLED_Write_Bufer();
    3550:	8a d1       	rcall	.+788    	; 0x3866 <_ZN4OLED19OLED_Write_To_BuferEiiiiPKh>
    3552:	8d e8       	ldi	r24, 0x8D	; 141
    3554:	96 e0       	ldi	r25, 0x06	; 6
    3556:	8e d0       	rcall	.+284    	; 0x3674 <_ZN4OLED16OLED_Write_BuferEv>
		send_Uart_str("AT+CNMI=1,2,0,0,0");
		send_Uart((char)13);
				_delay_ms(1000);
				send_Uart_str("AT");
				send_Uart((char)13);*/
	while(1)
    3558:	db ce       	rjmp	.-586    	; 0x3310 <main+0x52>

0000355a <_GLOBAL__sub_I_zero>:

		batary.refresh();
		oled.OLED_Write_To_Bufer(80,0,2,8,Net3);
		oled.OLED_Write_Bufer();
	}
}
    355a:	0f 93       	push	r16
    355c:	1f 93       	push	r17
    355e:	cf 93       	push	r28
    3560:	df 93       	push	r29
#include "TWI.h"
#include "OLED.h"
#define CPU_F				2000000UL


TWI wire;
    3562:	8e e8       	ldi	r24, 0x8E	; 142
    3564:	9a e0       	ldi	r25, 0x0A	; 10
    3566:	2c d2       	rcall	.+1112   	; 0x39c0 <_ZN3TWIC1Ev>
OLED oled(wire);
    3568:	60 e0       	ldi	r22, 0x00	; 0
    356a:	8d e8       	ldi	r24, 0x8D	; 141
    356c:	96 e0       	ldi	r25, 0x06	; 6
    356e:	a2 d0       	rcall	.+324    	; 0x36b4 <_ZN4OLEDC1E3TWI>
	int pointer=0;
	int x[3]={ INFO_MENU_IMG_X_0, INFO_MENU_IMG_X_1, INFO_MENU_IMG_X_2};
	int y= INFO_MENU_IMG_Y;
	public:
	Info_menu()
	{
    3570:	cb e7       	ldi	r28, 0x7B	; 123
    3572:	d6 e0       	ldi	r29, 0x06	; 6
    3574:	8f ec       	ldi	r24, 0xCF	; 207
    3576:	95 e0       	ldi	r25, 0x05	; 5
    3578:	99 83       	std	Y+1, r25	; 0x01
    357a:	88 83       	st	Y, r24
    357c:	1d 82       	std	Y+5, r1	; 0x05
    357e:	1c 82       	std	Y+4, r1	; 0x04
    3580:	86 e0       	ldi	r24, 0x06	; 6
    3582:	e1 e7       	ldi	r30, 0x71	; 113
    3584:	f5 e0       	ldi	r31, 0x05	; 5
    3586:	a1 e8       	ldi	r26, 0x81	; 129
    3588:	b6 e0       	ldi	r27, 0x06	; 6
    358a:	01 90       	ld	r0, Z+
    358c:	0d 92       	st	X+, r0
    358e:	8a 95       	dec	r24
    3590:	e1 f7       	brne	.-8      	; 0x358a <_GLOBAL__sub_I_zero+0x30>
    3592:	84 e0       	ldi	r24, 0x04	; 4
    3594:	90 e0       	ldi	r25, 0x00	; 0
    3596:	9d 87       	std	Y+13, r25	; 0x0d
    3598:	8c 87       	std	Y+12, r24	; 0x0c
	int pointer=0;
	int x[4]={SETTINGS_MENU_IMG_X_0,SETTINGS_MENU_IMG_X_1,SETTINGS_MENU_IMG_X_2,SETTINGS_MENU_IMG_X_3};
	int y=SETTINGS_MENU_IMG_Y;
	public:
	Settings_Menu()
	{
    359a:	cb e6       	ldi	r28, 0x6B	; 107
    359c:	d6 e0       	ldi	r29, 0x06	; 6
    359e:	29 eb       	ldi	r18, 0xB9	; 185
    35a0:	35 e0       	ldi	r19, 0x05	; 5
    35a2:	39 83       	std	Y+1, r19	; 0x01
    35a4:	28 83       	st	Y, r18
    35a6:	1d 82       	std	Y+5, r1	; 0x05
    35a8:	1c 82       	std	Y+4, r1	; 0x04
    35aa:	28 e0       	ldi	r18, 0x08	; 8
    35ac:	e7 e7       	ldi	r30, 0x77	; 119
    35ae:	f5 e0       	ldi	r31, 0x05	; 5
    35b0:	a1 e7       	ldi	r26, 0x71	; 113
    35b2:	b6 e0       	ldi	r27, 0x06	; 6
    35b4:	01 90       	ld	r0, Z+
    35b6:	0d 92       	st	X+, r0
    35b8:	2a 95       	dec	r18
    35ba:	e1 f7       	brne	.-8      	; 0x35b4 <_GLOBAL__sub_I_zero+0x5a>
    35bc:	9f 87       	std	Y+15, r25	; 0x0f
    35be:	8e 87       	std	Y+14, r24	; 0x0e
	int symbol_pointer=0;
	int x[5]={PASSWORD_MENU_IMG_X_0,PASSWORD_MENU_IMG_X_1,PASSWORD_MENU_IMG_X_2,PASSWORD_MENU_IMG_X_3,PASSWORD_MENU_IMG_X_4};
	int y=PASSWORD_MENU_IMG_Y;
	public:
	Password_Menu()
	{
    35c0:	c7 e5       	ldi	r28, 0x57	; 87
    35c2:	d6 e0       	ldi	r29, 0x06	; 6
    35c4:	83 ea       	ldi	r24, 0xA3	; 163
    35c6:	95 e0       	ldi	r25, 0x05	; 5
    35c8:	99 83       	std	Y+1, r25	; 0x01
    35ca:	88 83       	st	Y, r24
    35cc:	1d 82       	std	Y+5, r1	; 0x05
    35ce:	1c 82       	std	Y+4, r1	; 0x04
    35d0:	1f 82       	std	Y+7, r1	; 0x07
    35d2:	1e 82       	std	Y+6, r1	; 0x06
    35d4:	8a e0       	ldi	r24, 0x0A	; 10
    35d6:	ef e7       	ldi	r30, 0x7F	; 127
    35d8:	f5 e0       	ldi	r31, 0x05	; 5
    35da:	af e5       	ldi	r26, 0x5F	; 95
    35dc:	b6 e0       	ldi	r27, 0x06	; 6
    35de:	01 90       	ld	r0, Z+
    35e0:	0d 92       	st	X+, r0
    35e2:	8a 95       	dec	r24
    35e4:	e1 f7       	brne	.-8      	; 0x35de <_GLOBAL__sub_I_zero+0x84>
    35e6:	82 e0       	ldi	r24, 0x02	; 2
    35e8:	90 e0       	ldi	r25, 0x00	; 0
    35ea:	9b 8b       	std	Y+19, r25	; 0x13
    35ec:	8a 8b       	std	Y+18, r24	; 0x12
{
	protected:
	int pointer=0;
	public:
	Main_Menu()
	{
    35ee:	e1 e5       	ldi	r30, 0x51	; 81
    35f0:	f6 e0       	ldi	r31, 0x06	; 6
    35f2:	8d e8       	ldi	r24, 0x8D	; 141
    35f4:	95 e0       	ldi	r25, 0x05	; 5
    35f6:	91 83       	std	Z+1, r25	; 0x01
    35f8:	80 83       	st	Z, r24
    35fa:	15 82       	std	Z+5, r1	; 0x05
    35fc:	14 82       	std	Z+4, r1	; 0x04
private:
int curlvl;
public:
Batary()
{
	DDRB=0x00;
    35fe:	14 b8       	out	0x04, r1	; 4
	PORTB=0xFF;	
    3600:	8f ef       	ldi	r24, 0xFF	; 255
    3602:	85 b9       	out	0x05, r24	; 5
}

void refreshlvl()
{
	int kf=0;
	if((PINB>>0)&0b00000001==1) kf++;
    3604:	83 b1       	in	r24, 0x03	; 3
	printlvltoOLEDbufer();
}

void refreshlvl()
{
	int kf=0;
    3606:	08 2f       	mov	r16, r24
    3608:	01 70       	andi	r16, 0x01	; 1
    360a:	10 e0       	ldi	r17, 0x00	; 0
    360c:	c8 01       	movw	r24, r16
	if((PINB>>0)&0b00000001==1) kf++;
	if((PINB>>1)&0b00000001==1) kf++;
    360e:	19 99       	sbic	0x03, 1	; 3
    3610:	01 96       	adiw	r24, 0x01	; 1
	if((PINB>>2)&0b00000001==1) kf++;
    3612:	1a 99       	sbic	0x03, 2	; 3
    3614:	01 96       	adiw	r24, 0x01	; 1
	if((PINB>>3)&0b00000001==1) kf++;
    3616:	1b 99       	sbic	0x03, 3	; 3
    3618:	01 96       	adiw	r24, 0x01	; 1
	curlvl=kf;
    361a:	90 93 4a 06 	sts	0x064A, r25	; 0x80064a <batary+0x1>
    361e:	80 93 49 06 	sts	0x0649, r24	; 0x800649 <batary>
Batary()
{
	DDRB=0x00;
	PORTB=0xFF;	
	refreshlvl();
	printlvltoOLEDbufer();
    3622:	89 e4       	ldi	r24, 0x49	; 73
    3624:	96 e0       	ldi	r25, 0x06	; 6
    3626:	2a db       	rcall	.-2476   	; 0x2c7c <_ZN6Batary19printlvltoOLEDbuferEv>

		batary.refresh();
		oled.OLED_Write_To_Bufer(80,0,2,8,Net3);
		oled.OLED_Write_Bufer();
	}
}
    3628:	df 91       	pop	r29
    362a:	cf 91       	pop	r28
    362c:	1f 91       	pop	r17
    362e:	0f 91       	pop	r16
    3630:	08 95       	ret

00003632 <_ZN4OLED12OLED_CommandEi>:
	}
	

	void OLED::OLED_Command(int command)
	{
		TWDR=0x80;
    3632:	80 e8       	ldi	r24, 0x80	; 128
    3634:	80 93 bb 00 	sts	0x00BB, r24	; 0x8000bb <__TEXT_REGION_LENGTH__+0x7e00bb>
		TWCR=(1<<TWINT)|(1<<TWEN);
    3638:	84 e8       	ldi	r24, 0x84	; 132
    363a:	80 93 bc 00 	sts	0x00BC, r24	; 0x8000bc <__TEXT_REGION_LENGTH__+0x7e00bc>
		while(!(TWCR & (1<<TWINT))){};
    363e:	ec eb       	ldi	r30, 0xBC	; 188
    3640:	f0 e0       	ldi	r31, 0x00	; 0
    3642:	80 81       	ld	r24, Z
    3644:	88 23       	and	r24, r24
    3646:	ec f7       	brge	.-6      	; 0x3642 <_ZN4OLED12OLED_CommandEi+0x10>

		TWDR=command;
    3648:	60 93 bb 00 	sts	0x00BB, r22	; 0x8000bb <__TEXT_REGION_LENGTH__+0x7e00bb>
		TWCR=(1<<TWINT)|(1<<TWEN);
    364c:	84 e8       	ldi	r24, 0x84	; 132
    364e:	80 93 bc 00 	sts	0x00BC, r24	; 0x8000bc <__TEXT_REGION_LENGTH__+0x7e00bc>
		while(!(TWCR & (1<<TWINT))){};
    3652:	ec eb       	ldi	r30, 0xBC	; 188
    3654:	f0 e0       	ldi	r31, 0x00	; 0
    3656:	80 81       	ld	r24, Z
    3658:	88 23       	and	r24, r24
    365a:	ec f7       	brge	.-6      	; 0x3656 <_ZN4OLED12OLED_CommandEi+0x24>
	}
    365c:	08 95       	ret

0000365e <_ZN4OLED9OLED_DataEi>:


	void OLED::OLED_Data(int data)
	{
		TWDR=data;
    365e:	60 93 bb 00 	sts	0x00BB, r22	; 0x8000bb <__TEXT_REGION_LENGTH__+0x7e00bb>
		TWCR=(1<<TWINT)|(1<<TWEN);
    3662:	84 e8       	ldi	r24, 0x84	; 132
    3664:	80 93 bc 00 	sts	0x00BC, r24	; 0x8000bc <__TEXT_REGION_LENGTH__+0x7e00bc>
		while(!(TWCR & (1<<TWINT))){};
    3668:	ec eb       	ldi	r30, 0xBC	; 188
    366a:	f0 e0       	ldi	r31, 0x00	; 0
    366c:	80 81       	ld	r24, Z
    366e:	88 23       	and	r24, r24
    3670:	ec f7       	brge	.-6      	; 0x366c <_ZN4OLED9OLED_DataEi+0xe>
	}
    3672:	08 95       	ret

00003674 <_ZN4OLED16OLED_Write_BuferEv>:


	void OLED::OLED_Write_Bufer()
	{
    3674:	ef 92       	push	r14
    3676:	ff 92       	push	r15
    3678:	0f 93       	push	r16
    367a:	1f 93       	push	r17
    367c:	cf 93       	push	r28
    367e:	df 93       	push	r29
    3680:	8c 01       	movw	r16, r24
    3682:	ec 01       	movw	r28, r24
    3684:	7c 01       	movw	r14, r24
    3686:	8c ef       	ldi	r24, 0xFC	; 252
    3688:	f8 1a       	sub	r15, r24
		for(int i=0;i<(OLED_HEIGHT/8)*OLED_WIDTH;i++)
		{
			OLED_Data(oled_bufer[i]);
    368a:	69 91       	ld	r22, Y+
    368c:	70 e0       	ldi	r23, 0x00	; 0
    368e:	c8 01       	movw	r24, r16
    3690:	e6 df       	rcall	.-52     	; 0x365e <_ZN4OLED9OLED_DataEi>
	}


	void OLED::OLED_Write_Bufer()
	{
		for(int i=0;i<(OLED_HEIGHT/8)*OLED_WIDTH;i++)
    3692:	ce 15       	cp	r28, r14
    3694:	df 05       	cpc	r29, r15
    3696:	c9 f7       	brne	.-14     	; 0x368a <_ZN4OLED16OLED_Write_BuferEv+0x16>
		{
			OLED_Data(oled_bufer[i]);
		}
	}
    3698:	df 91       	pop	r29
    369a:	cf 91       	pop	r28
    369c:	1f 91       	pop	r17
    369e:	0f 91       	pop	r16
    36a0:	ff 90       	pop	r15
    36a2:	ef 90       	pop	r14
    36a4:	08 95       	ret

000036a6 <_ZN4OLED16OLED_Bufer_ClearEv>:

	void OLED::OLED_Bufer_Clear()
	{
    36a6:	fc 01       	movw	r30, r24
    36a8:	9c 5f       	subi	r25, 0xFC	; 252
		for(int i=0;i<(OLED_HEIGHT/8)*OLED_WIDTH;i++)
		{
			oled_bufer[i]=0b00000000;
    36aa:	11 92       	st	Z+, r1
		}
	}

	void OLED::OLED_Bufer_Clear()
	{
		for(int i=0;i<(OLED_HEIGHT/8)*OLED_WIDTH;i++)
    36ac:	e8 17       	cp	r30, r24
    36ae:	f9 07       	cpc	r31, r25
    36b0:	e1 f7       	brne	.-8      	; 0x36aa <_ZN4OLED16OLED_Bufer_ClearEv+0x4>
		{
			oled_bufer[i]=0b00000000;
		}
	}
    36b2:	08 95       	ret

000036b4 <_ZN4OLEDC1E3TWI>:
#include "OLED.h"

	OLED::OLED(TWI _wire)
    36b4:	0f 93       	push	r16
    36b6:	1f 93       	push	r17
    36b8:	cf 93       	push	r28
    36ba:	df 93       	push	r29
    36bc:	ec 01       	movw	r28, r24
    36be:	8c 01       	movw	r16, r24
    36c0:	1c 5f       	subi	r17, 0xFC	; 252
    36c2:	c8 01       	movw	r24, r16
    36c4:	7d d1       	rcall	.+762    	; 0x39c0 <_ZN3TWIC1Ev>
	{
		wire=_wire;
		wire.twi_Init();
    36c6:	c8 01       	movw	r24, r16
    36c8:	7c d1       	rcall	.+760    	; 0x39c2 <_ZN3TWI8twi_InitEv>
		wire.twi_Start();
    36ca:	c8 01       	movw	r24, r16
    36cc:	8b d1       	rcall	.+790    	; 0x39e4 <_ZN3TWI9twi_StartEv>
		wire.twi_SendAdress();
    36ce:	c8 01       	movw	r24, r16
    36d0:	7d d1       	rcall	.+762    	; 0x39cc <_ZN3TWI14twi_SendAdressEv>
		OLED_Command(0xA8);
    36d2:	68 ea       	ldi	r22, 0xA8	; 168
    36d4:	70 e0       	ldi	r23, 0x00	; 0
    36d6:	ce 01       	movw	r24, r28
    36d8:	ac df       	rcall	.-168    	; 0x3632 <_ZN4OLED12OLED_CommandEi>
		OLED_Command(0x3F);
    36da:	6f e3       	ldi	r22, 0x3F	; 63
    36dc:	70 e0       	ldi	r23, 0x00	; 0
    36de:	ce 01       	movw	r24, r28
    36e0:	a8 df       	rcall	.-176    	; 0x3632 <_ZN4OLED12OLED_CommandEi>

		OLED_Command(0xD3);
    36e2:	63 ed       	ldi	r22, 0xD3	; 211
    36e4:	70 e0       	ldi	r23, 0x00	; 0
    36e6:	ce 01       	movw	r24, r28
    36e8:	a4 df       	rcall	.-184    	; 0x3632 <_ZN4OLED12OLED_CommandEi>
		OLED_Command(0x00);
    36ea:	60 e0       	ldi	r22, 0x00	; 0
    36ec:	70 e0       	ldi	r23, 0x00	; 0
    36ee:	ce 01       	movw	r24, r28
    36f0:	a0 df       	rcall	.-192    	; 0x3632 <_ZN4OLED12OLED_CommandEi>

		OLED_Command(0x40);
    36f2:	60 e4       	ldi	r22, 0x40	; 64
    36f4:	70 e0       	ldi	r23, 0x00	; 0
    36f6:	ce 01       	movw	r24, r28
    36f8:	9c df       	rcall	.-200    	; 0x3632 <_ZN4OLED12OLED_CommandEi>
		OLED_Command(0xA1);
    36fa:	61 ea       	ldi	r22, 0xA1	; 161
    36fc:	70 e0       	ldi	r23, 0x00	; 0
    36fe:	ce 01       	movw	r24, r28
    3700:	98 df       	rcall	.-208    	; 0x3632 <_ZN4OLED12OLED_CommandEi>

		OLED_Command(0xC8);
    3702:	68 ec       	ldi	r22, 0xC8	; 200
    3704:	70 e0       	ldi	r23, 0x00	; 0
    3706:	ce 01       	movw	r24, r28
    3708:	94 df       	rcall	.-216    	; 0x3632 <_ZN4OLED12OLED_CommandEi>
		OLED_Command(0xDA);
    370a:	6a ed       	ldi	r22, 0xDA	; 218
    370c:	70 e0       	ldi	r23, 0x00	; 0
    370e:	ce 01       	movw	r24, r28
    3710:	90 df       	rcall	.-224    	; 0x3632 <_ZN4OLED12OLED_CommandEi>
		OLED_Command(0x12);
    3712:	62 e1       	ldi	r22, 0x12	; 18
    3714:	70 e0       	ldi	r23, 0x00	; 0
    3716:	ce 01       	movw	r24, r28
    3718:	8c df       	rcall	.-232    	; 0x3632 <_ZN4OLED12OLED_CommandEi>

		OLED_Command(0x81);
    371a:	61 e8       	ldi	r22, 0x81	; 129
    371c:	70 e0       	ldi	r23, 0x00	; 0
    371e:	ce 01       	movw	r24, r28
    3720:	88 df       	rcall	.-240    	; 0x3632 <_ZN4OLED12OLED_CommandEi>
		OLED_Command(0xFF);
    3722:	6f ef       	ldi	r22, 0xFF	; 255
    3724:	70 e0       	ldi	r23, 0x00	; 0
    3726:	ce 01       	movw	r24, r28
    3728:	84 df       	rcall	.-248    	; 0x3632 <_ZN4OLED12OLED_CommandEi>
		OLED_Command(0xA4);
    372a:	64 ea       	ldi	r22, 0xA4	; 164
    372c:	70 e0       	ldi	r23, 0x00	; 0
    372e:	ce 01       	movw	r24, r28
    3730:	80 df       	rcall	.-256    	; 0x3632 <_ZN4OLED12OLED_CommandEi>

		OLED_Command(0xA6);
    3732:	66 ea       	ldi	r22, 0xA6	; 166
    3734:	70 e0       	ldi	r23, 0x00	; 0
    3736:	ce 01       	movw	r24, r28
    3738:	7c df       	rcall	.-264    	; 0x3632 <_ZN4OLED12OLED_CommandEi>
		OLED_Command(0xD5);
    373a:	65 ed       	ldi	r22, 0xD5	; 213
    373c:	70 e0       	ldi	r23, 0x00	; 0
    373e:	ce 01       	movw	r24, r28
    3740:	78 df       	rcall	.-272    	; 0x3632 <_ZN4OLED12OLED_CommandEi>
		OLED_Command(0x80);
    3742:	60 e8       	ldi	r22, 0x80	; 128
    3744:	70 e0       	ldi	r23, 0x00	; 0
    3746:	ce 01       	movw	r24, r28
    3748:	74 df       	rcall	.-280    	; 0x3632 <_ZN4OLED12OLED_CommandEi>
		OLED_Command(0x8D);
    374a:	6d e8       	ldi	r22, 0x8D	; 141
    374c:	70 e0       	ldi	r23, 0x00	; 0
    374e:	ce 01       	movw	r24, r28
    3750:	70 df       	rcall	.-288    	; 0x3632 <_ZN4OLED12OLED_CommandEi>
		OLED_Command(0x14);
    3752:	64 e1       	ldi	r22, 0x14	; 20
    3754:	70 e0       	ldi	r23, 0x00	; 0
    3756:	ce 01       	movw	r24, r28
    3758:	6c df       	rcall	.-296    	; 0x3632 <_ZN4OLED12OLED_CommandEi>
		OLED_Command(0xAF);
    375a:	6f ea       	ldi	r22, 0xAF	; 175
    375c:	70 e0       	ldi	r23, 0x00	; 0
    375e:	ce 01       	movw	r24, r28
    3760:	68 df       	rcall	.-304    	; 0x3632 <_ZN4OLED12OLED_CommandEi>

		OLED_Command(0x20);
    3762:	60 e2       	ldi	r22, 0x20	; 32
    3764:	70 e0       	ldi	r23, 0x00	; 0
    3766:	ce 01       	movw	r24, r28
    3768:	64 df       	rcall	.-312    	; 0x3632 <_ZN4OLED12OLED_CommandEi>
		OLED_Command(0x00);
    376a:	60 e0       	ldi	r22, 0x00	; 0
    376c:	70 e0       	ldi	r23, 0x00	; 0
    376e:	ce 01       	movw	r24, r28
    3770:	60 df       	rcall	.-320    	; 0x3632 <_ZN4OLED12OLED_CommandEi>
		OLED_Command(0x21);
    3772:	61 e2       	ldi	r22, 0x21	; 33
    3774:	70 e0       	ldi	r23, 0x00	; 0
    3776:	ce 01       	movw	r24, r28
    3778:	5c df       	rcall	.-328    	; 0x3632 <_ZN4OLED12OLED_CommandEi>
    377a:	60 e0       	ldi	r22, 0x00	; 0
		OLED_Command(0);
    377c:	70 e0       	ldi	r23, 0x00	; 0
    377e:	ce 01       	movw	r24, r28
    3780:	58 df       	rcall	.-336    	; 0x3632 <_ZN4OLED12OLED_CommandEi>
    3782:	6f e7       	ldi	r22, 0x7F	; 127
		OLED_Command(127);
    3784:	70 e0       	ldi	r23, 0x00	; 0
    3786:	ce 01       	movw	r24, r28
    3788:	54 df       	rcall	.-344    	; 0x3632 <_ZN4OLED12OLED_CommandEi>
		OLED_Command(0x22);
    378a:	62 e2       	ldi	r22, 0x22	; 34
    378c:	70 e0       	ldi	r23, 0x00	; 0
    378e:	ce 01       	movw	r24, r28
    3790:	50 df       	rcall	.-352    	; 0x3632 <_ZN4OLED12OLED_CommandEi>
    3792:	60 e0       	ldi	r22, 0x00	; 0
		OLED_Command(0);
    3794:	70 e0       	ldi	r23, 0x00	; 0
    3796:	ce 01       	movw	r24, r28
    3798:	4c df       	rcall	.-360    	; 0x3632 <_ZN4OLED12OLED_CommandEi>
    379a:	67 e0       	ldi	r22, 0x07	; 7
    379c:	70 e0       	ldi	r23, 0x00	; 0
		OLED_Command(7);
    379e:	ce 01       	movw	r24, r28
    37a0:	48 df       	rcall	.-368    	; 0x3632 <_ZN4OLED12OLED_CommandEi>
    37a2:	80 e4       	ldi	r24, 0x40	; 64
    37a4:	80 93 bb 00 	sts	0x00BB, r24	; 0x8000bb <__TEXT_REGION_LENGTH__+0x7e00bb>
		TWDR=0x40;
    37a8:	84 e8       	ldi	r24, 0x84	; 132
    37aa:	80 93 bc 00 	sts	0x00BC, r24	; 0x8000bc <__TEXT_REGION_LENGTH__+0x7e00bc>
		TWCR=(1<<TWINT)|(1<<TWEN);
    37ae:	ce 01       	movw	r24, r28
    37b0:	7a df       	rcall	.-268    	; 0x36a6 <_ZN4OLED16OLED_Bufer_ClearEv>
    37b2:	60 e0       	ldi	r22, 0x00	; 0
		OLED_Bufer_Clear();
    37b4:	70 e0       	ldi	r23, 0x00	; 0
    37b6:	ce 01       	movw	r24, r28
    37b8:	52 df       	rcall	.-348    	; 0x365e <_ZN4OLED9OLED_DataEi>
		OLED_Data(0b00000000);
    37ba:	ce 01       	movw	r24, r28
    37bc:	5b df       	rcall	.-330    	; 0x3674 <_ZN4OLED16OLED_Write_BuferEv>
    37be:	df 91       	pop	r29
    37c0:	cf 91       	pop	r28
    37c2:	1f 91       	pop	r17
		OLED_Write_Bufer();
    37c4:	0f 91       	pop	r16
    37c6:	08 95       	ret

000037c8 <_ZN4OLED21OLED_Clear_Bufer_partEiiii>:
    37c8:	cf 92       	push	r12
	}
    37ca:	df 92       	push	r13
    37cc:	ef 92       	push	r14
    37ce:	ff 92       	push	r15
    37d0:	0f 93       	push	r16
    37d2:	1f 93       	push	r17
		}
	}


	void OLED::OLED_Clear_Bufer_part(int x,int y,int width,int height)
	{
    37d4:	cf 93       	push	r28
    37d6:	df 93       	push	r29
    37d8:	ec 01       	movw	r28, r24
    37da:	7b 01       	movw	r14, r22
    37dc:	6a 01       	movw	r12, r20
    37de:	b9 01       	movw	r22, r18
		for(int j=0;j<height;j++)
    37e0:	10 16       	cp	r1, r16
    37e2:	11 06       	cpc	r1, r17
    37e4:	bc f5       	brge	.+110    	; 0x3854 <_ZN4OLED21OLED_Clear_Bufer_partEiiii+0x8c>
    37e6:	20 e0       	ldi	r18, 0x00	; 0
    37e8:	30 e0       	ldi	r19, 0x00	; 0
    37ea:	ab 01       	movw	r20, r22
    37ec:	44 0f       	add	r20, r20
    37ee:	55 1f       	adc	r21, r21
    37f0:	44 0f       	add	r20, r20
    37f2:	55 1f       	adc	r21, r21
    37f4:	44 0f       	add	r20, r20
    37f6:	55 1f       	adc	r21, r21
    37f8:	4e 0d       	add	r20, r14
    37fa:	5f 1d       	adc	r21, r15
		{
			
			for(int i=0;i<width;i++)
    37fc:	16 16       	cp	r1, r22
    37fe:	17 06       	cpc	r1, r23
    3800:	24 f5       	brge	.+72     	; 0x384a <_ZN4OLED21OLED_Clear_Bufer_partEiiii+0x82>
    3802:	c9 01       	movw	r24, r18
    3804:	33 23       	and	r19, r19
    3806:	0c f4       	brge	.+2      	; 0x380a <_ZN4OLED21OLED_Clear_Bufer_partEiiii+0x42>
    3808:	07 96       	adiw	r24, 0x07	; 7
    380a:	95 95       	asr	r25
    380c:	87 95       	ror	r24
    380e:	95 95       	asr	r25
    3810:	87 95       	ror	r24
    3812:	95 95       	asr	r25
    3814:	87 95       	ror	r24
    3816:	8c 0d       	add	r24, r12
    3818:	9d 1d       	adc	r25, r13
    381a:	96 95       	lsr	r25
    381c:	98 2f       	mov	r25, r24
    381e:	88 27       	eor	r24, r24
    3820:	97 95       	ror	r25
    3822:	87 95       	ror	r24
    3824:	fc 01       	movw	r30, r24
    3826:	ee 0d       	add	r30, r14
    3828:	ff 1d       	adc	r31, r15
    382a:	ec 0f       	add	r30, r28
    382c:	fd 1f       	adc	r31, r29
    382e:	84 0f       	add	r24, r20
    3830:	95 1f       	adc	r25, r21
    3832:	8c 0f       	add	r24, r28
    3834:	9d 1f       	adc	r25, r29
    3836:	df 01       	movw	r26, r30
    3838:	18 96       	adiw	r26, 0x08	; 8
			{
				for(int k=0;k<8;k++)
				{
					oled_bufer[(x+i*8+k)+(y+j/8)*OLED_WIDTH]=0b00000000;
    383a:	11 92       	st	Z+, r1
		for(int j=0;j<height;j++)
		{
			
			for(int i=0;i<width;i++)
			{
				for(int k=0;k<8;k++)
    383c:	ea 17       	cp	r30, r26
    383e:	fb 07       	cpc	r31, r27
    3840:	e1 f7       	brne	.-8      	; 0x383a <_ZN4OLED21OLED_Clear_Bufer_partEiiii+0x72>
    3842:	fd 01       	movw	r30, r26
	void OLED::OLED_Clear_Bufer_part(int x,int y,int width,int height)
	{
		for(int j=0;j<height;j++)
		{
			
			for(int i=0;i<width;i++)
    3844:	8a 17       	cp	r24, r26
    3846:	9b 07       	cpc	r25, r27
    3848:	b1 f7       	brne	.-20     	; 0x3836 <_ZN4OLED21OLED_Clear_Bufer_partEiiii+0x6e>
	}


	void OLED::OLED_Clear_Bufer_part(int x,int y,int width,int height)
	{
		for(int j=0;j<height;j++)
    384a:	2f 5f       	subi	r18, 0xFF	; 255
    384c:	3f 4f       	sbci	r19, 0xFF	; 255
    384e:	02 17       	cp	r16, r18
    3850:	13 07       	cpc	r17, r19
    3852:	a1 f6       	brne	.-88     	; 0x37fc <_ZN4OLED21OLED_Clear_Bufer_partEiiii+0x34>
				{
					oled_bufer[(x+i*8+k)+(y+j/8)*OLED_WIDTH]=0b00000000;
				}
			}
		}
	}
    3854:	df 91       	pop	r29
    3856:	cf 91       	pop	r28
    3858:	1f 91       	pop	r17
    385a:	0f 91       	pop	r16
    385c:	ff 90       	pop	r15
    385e:	ef 90       	pop	r14
    3860:	df 90       	pop	r13
    3862:	cf 90       	pop	r12
    3864:	08 95       	ret

00003866 <_ZN4OLED19OLED_Write_To_BuferEiiiiPKh>:

	void OLED::OLED_Write_To_Bufer(int x,int y,int width,int height,const uint8_t* img)
	{
    3866:	2f 92       	push	r2
    3868:	3f 92       	push	r3
    386a:	4f 92       	push	r4
    386c:	5f 92       	push	r5
    386e:	6f 92       	push	r6
    3870:	7f 92       	push	r7
    3872:	8f 92       	push	r8
    3874:	9f 92       	push	r9
    3876:	af 92       	push	r10
    3878:	bf 92       	push	r11
    387a:	cf 92       	push	r12
    387c:	df 92       	push	r13
    387e:	ef 92       	push	r14
    3880:	ff 92       	push	r15
    3882:	0f 93       	push	r16
    3884:	1f 93       	push	r17
    3886:	cf 93       	push	r28
    3888:	df 93       	push	r29
    388a:	00 d0       	rcall	.+0      	; 0x388c <_ZN4OLED19OLED_Write_To_BuferEiiiiPKh+0x26>
    388c:	00 d0       	rcall	.+0      	; 0x388e <_ZN4OLED19OLED_Write_To_BuferEiiiiPKh+0x28>
    388e:	00 d0       	rcall	.+0      	; 0x3890 <_ZN4OLED19OLED_Write_To_BuferEiiiiPKh+0x2a>
    3890:	cd b7       	in	r28, 0x3d	; 61
    3892:	de b7       	in	r29, 0x3e	; 62
    3894:	9e 83       	std	Y+6, r25	; 0x06
    3896:	8d 83       	std	Y+5, r24	; 0x05
    3898:	3a 01       	movw	r6, r20
    389a:	29 01       	movw	r4, r18
    389c:	18 01       	movw	r2, r16
		for(int j=0;j<height;j++)
    389e:	10 16       	cp	r1, r16
    38a0:	11 06       	cpc	r1, r17
    38a2:	0c f0       	brlt	.+2      	; 0x38a6 <_ZN4OLED19OLED_Write_To_BuferEiiiiPKh+0x40>
    38a4:	74 c0       	rjmp	.+232    	; 0x398e <_ZN4OLED19OLED_Write_To_BuferEiiiiPKh+0x128>
    38a6:	3c 83       	std	Y+4, r19	; 0x04
    38a8:	2b 83       	std	Y+3, r18	; 0x03
    38aa:	8e 2c       	mov	r8, r14
    38ac:	9f 2c       	mov	r9, r15
    38ae:	c1 2c       	mov	r12, r1
    38b0:	d1 2c       	mov	r13, r1
			
			for(int i=0;i<width;i++)
			{
				for(int k=0;k<8;k++)
				{
					oled_bufer[(x+i*8+k)+(y+j/8)*OLED_WIDTH]|=((img[j*width+i]<<k)&0b10000000)>>(7-j%8);
    38b2:	0f 2e       	mov	r0, r31
    38b4:	f7 e0       	ldi	r31, 0x07	; 7
    38b6:	af 2e       	mov	r10, r31
    38b8:	b1 2c       	mov	r11, r1
    38ba:	f0 2d       	mov	r31, r0
    38bc:	c9 01       	movw	r24, r18
    38be:	88 0f       	add	r24, r24
    38c0:	99 1f       	adc	r25, r25
    38c2:	88 0f       	add	r24, r24
    38c4:	99 1f       	adc	r25, r25
    38c6:	88 0f       	add	r24, r24
    38c8:	99 1f       	adc	r25, r25
    38ca:	9b 01       	movw	r18, r22
    38cc:	28 0f       	add	r18, r24
    38ce:	39 1f       	adc	r19, r25
    38d0:	3a 83       	std	Y+2, r19	; 0x02
    38d2:	29 83       	std	Y+1, r18	; 0x01
	void OLED::OLED_Write_To_Bufer(int x,int y,int width,int height,const uint8_t* img)
	{
		for(int j=0;j<height;j++)
		{
			
			for(int i=0;i<width;i++)
    38d4:	14 14       	cp	r1, r4
    38d6:	15 04       	cpc	r1, r5
    38d8:	0c f0       	brlt	.+2      	; 0x38dc <_ZN4OLED19OLED_Write_To_BuferEiiiiPKh+0x76>
    38da:	4e c0       	rjmp	.+156    	; 0x3978 <_ZN4OLED19OLED_Write_To_BuferEiiiiPKh+0x112>
			{
				for(int k=0;k<8;k++)
				{
					oled_bufer[(x+i*8+k)+(y+j/8)*OLED_WIDTH]|=((img[j*width+i]<<k)&0b10000000)>>(7-j%8);
    38dc:	c6 01       	movw	r24, r12
    38de:	87 70       	andi	r24, 0x07	; 7
    38e0:	90 78       	andi	r25, 0x80	; 128
    38e2:	99 23       	and	r25, r25
    38e4:	24 f4       	brge	.+8      	; 0x38ee <_ZN4OLED19OLED_Write_To_BuferEiiiiPKh+0x88>
    38e6:	01 97       	sbiw	r24, 0x01	; 1
    38e8:	88 6f       	ori	r24, 0xF8	; 248
    38ea:	9f 6f       	ori	r25, 0xFF	; 255
    38ec:	01 96       	adiw	r24, 0x01	; 1
    38ee:	85 01       	movw	r16, r10
    38f0:	08 1b       	sub	r16, r24
    38f2:	19 0b       	sbc	r17, r25
    38f4:	76 01       	movw	r14, r12
    38f6:	dd 20       	and	r13, r13
    38f8:	1c f4       	brge	.+6      	; 0x3900 <_ZN4OLED19OLED_Write_To_BuferEiiiiPKh+0x9a>
    38fa:	97 e0       	ldi	r25, 0x07	; 7
    38fc:	e9 0e       	add	r14, r25
    38fe:	f1 1c       	adc	r15, r1
    3900:	f5 94       	asr	r15
    3902:	e7 94       	ror	r14
    3904:	f5 94       	asr	r15
    3906:	e7 94       	ror	r14
    3908:	f5 94       	asr	r15
    390a:	e7 94       	ror	r14
    390c:	e6 0c       	add	r14, r6
    390e:	f7 1c       	adc	r15, r7
    3910:	f6 94       	lsr	r15
    3912:	fe 2c       	mov	r15, r14
    3914:	ee 24       	eor	r14, r14
    3916:	f7 94       	ror	r15
    3918:	e7 94       	ror	r14
    391a:	ab 01       	movw	r20, r22
    391c:	4e 0d       	add	r20, r14
    391e:	5f 1d       	adc	r21, r15
    3920:	2d 81       	ldd	r18, Y+5	; 0x05
    3922:	3e 81       	ldd	r19, Y+6	; 0x06
    3924:	42 0f       	add	r20, r18
    3926:	53 1f       	adc	r21, r19
    3928:	89 81       	ldd	r24, Y+1	; 0x01
    392a:	9a 81       	ldd	r25, Y+2	; 0x02
    392c:	e8 0e       	add	r14, r24
    392e:	f9 1e       	adc	r15, r25
    3930:	e2 0e       	add	r14, r18
    3932:	f3 1e       	adc	r15, r19
    3934:	d4 01       	movw	r26, r8
    3936:	fa 01       	movw	r30, r20
    3938:	20 e0       	ldi	r18, 0x00	; 0
    393a:	30 e0       	ldi	r19, 0x00	; 0
    393c:	8c 91       	ld	r24, X
    393e:	90 e0       	ldi	r25, 0x00	; 0
    3940:	02 2e       	mov	r0, r18
    3942:	02 c0       	rjmp	.+4      	; 0x3948 <_ZN4OLED19OLED_Write_To_BuferEiiiiPKh+0xe2>
    3944:	88 0f       	add	r24, r24
    3946:	99 1f       	adc	r25, r25
    3948:	0a 94       	dec	r0
    394a:	e2 f7       	brpl	.-8      	; 0x3944 <_ZN4OLED19OLED_Write_To_BuferEiiiiPKh+0xde>
    394c:	80 78       	andi	r24, 0x80	; 128
    394e:	99 27       	eor	r25, r25
    3950:	00 2e       	mov	r0, r16
    3952:	02 c0       	rjmp	.+4      	; 0x3958 <_ZN4OLED19OLED_Write_To_BuferEiiiiPKh+0xf2>
    3954:	95 95       	asr	r25
    3956:	87 95       	ror	r24
    3958:	0a 94       	dec	r0
    395a:	e2 f7       	brpl	.-8      	; 0x3954 <_ZN4OLED19OLED_Write_To_BuferEiiiiPKh+0xee>
    395c:	90 81       	ld	r25, Z
    395e:	89 2b       	or	r24, r25
    3960:	81 93       	st	Z+, r24
		for(int j=0;j<height;j++)
		{
			
			for(int i=0;i<width;i++)
			{
				for(int k=0;k<8;k++)
    3962:	2f 5f       	subi	r18, 0xFF	; 255
    3964:	3f 4f       	sbci	r19, 0xFF	; 255
    3966:	28 30       	cpi	r18, 0x08	; 8
    3968:	31 05       	cpc	r19, r1
    396a:	41 f7       	brne	.-48     	; 0x393c <_ZN4OLED19OLED_Write_To_BuferEiiiiPKh+0xd6>
    396c:	48 5f       	subi	r20, 0xF8	; 248
    396e:	5f 4f       	sbci	r21, 0xFF	; 255
    3970:	11 96       	adiw	r26, 0x01	; 1
	void OLED::OLED_Write_To_Bufer(int x,int y,int width,int height,const uint8_t* img)
	{
		for(int j=0;j<height;j++)
		{
			
			for(int i=0;i<width;i++)
    3972:	4e 15       	cp	r20, r14
    3974:	5f 05       	cpc	r21, r15
    3976:	f9 f6       	brne	.-66     	; 0x3936 <_ZN4OLED19OLED_Write_To_BuferEiiiiPKh+0xd0>
		}
	}

	void OLED::OLED_Write_To_Bufer(int x,int y,int width,int height,const uint8_t* img)
	{
		for(int j=0;j<height;j++)
    3978:	3f ef       	ldi	r19, 0xFF	; 255
    397a:	c3 1a       	sub	r12, r19
    397c:	d3 0a       	sbc	r13, r19
    397e:	8b 81       	ldd	r24, Y+3	; 0x03
    3980:	9c 81       	ldd	r25, Y+4	; 0x04
    3982:	88 0e       	add	r8, r24
    3984:	99 1e       	adc	r9, r25
    3986:	2c 14       	cp	r2, r12
    3988:	3d 04       	cpc	r3, r13
    398a:	09 f0       	breq	.+2      	; 0x398e <_ZN4OLED19OLED_Write_To_BuferEiiiiPKh+0x128>
    398c:	a3 cf       	rjmp	.-186    	; 0x38d4 <_ZN4OLED19OLED_Write_To_BuferEiiiiPKh+0x6e>
				{
					oled_bufer[(x+i*8+k)+(y+j/8)*OLED_WIDTH]|=((img[j*width+i]<<k)&0b10000000)>>(7-j%8);
				}
			}
		}
	}
    398e:	26 96       	adiw	r28, 0x06	; 6
    3990:	0f b6       	in	r0, 0x3f	; 63
    3992:	f8 94       	cli
    3994:	de bf       	out	0x3e, r29	; 62
    3996:	0f be       	out	0x3f, r0	; 63
    3998:	cd bf       	out	0x3d, r28	; 61
    399a:	df 91       	pop	r29
    399c:	cf 91       	pop	r28
    399e:	1f 91       	pop	r17
    39a0:	0f 91       	pop	r16
    39a2:	ff 90       	pop	r15
    39a4:	ef 90       	pop	r14
    39a6:	df 90       	pop	r13
    39a8:	cf 90       	pop	r12
    39aa:	bf 90       	pop	r11
    39ac:	af 90       	pop	r10
    39ae:	9f 90       	pop	r9
    39b0:	8f 90       	pop	r8
    39b2:	7f 90       	pop	r7
    39b4:	6f 90       	pop	r6
    39b6:	5f 90       	pop	r5
    39b8:	4f 90       	pop	r4
    39ba:	3f 90       	pop	r3
    39bc:	2f 90       	pop	r2
    39be:	08 95       	ret

000039c0 <_ZN3TWIC1Ev>:
#include "TWI.h"


	TWI::TWI(){}
    39c0:	08 95       	ret

000039c2 <_ZN3TWI8twi_InitEv>:

	void TWI::twi_Init(void)
	{
		TWBR=(((CPU_F)/(SCL_F)-16)/2);
    39c2:	10 92 b8 00 	sts	0x00B8, r1	; 0x8000b8 <__TEXT_REGION_LENGTH__+0x7e00b8>
		TWSR=0;
    39c6:	10 92 b9 00 	sts	0x00B9, r1	; 0x8000b9 <__TEXT_REGION_LENGTH__+0x7e00b9>
    39ca:	08 95       	ret

000039cc <_ZN3TWI14twi_SendAdressEv>:
	}

	void TWI::twi_SendAdress(void)
	{
		TWDR=(Dev_Adr<<1)|0;
    39cc:	88 e7       	ldi	r24, 0x78	; 120
    39ce:	80 93 bb 00 	sts	0x00BB, r24	; 0x8000bb <__TEXT_REGION_LENGTH__+0x7e00bb>
		TWCR=(1<<TWINT)|(1<<TWEN);
    39d2:	84 e8       	ldi	r24, 0x84	; 132
    39d4:	80 93 bc 00 	sts	0x00BC, r24	; 0x8000bc <__TEXT_REGION_LENGTH__+0x7e00bc>
		while(!(TWCR & (1<<TWINT))){};
    39d8:	ec eb       	ldi	r30, 0xBC	; 188
    39da:	f0 e0       	ldi	r31, 0x00	; 0
    39dc:	80 81       	ld	r24, Z
    39de:	88 23       	and	r24, r24
    39e0:	ec f7       	brge	.-6      	; 0x39dc <_ZN3TWI14twi_SendAdressEv+0x10>
	}
    39e2:	08 95       	ret

000039e4 <_ZN3TWI9twi_StartEv>:

	void TWI::twi_Start(void)
	{
		TWCR=(1<<TWINT)|(1<<TWSTA)|(1<<TWEN);
    39e4:	84 ea       	ldi	r24, 0xA4	; 164
    39e6:	80 93 bc 00 	sts	0x00BC, r24	; 0x8000bc <__TEXT_REGION_LENGTH__+0x7e00bc>
		while(!(TWCR & (1<<TWINT))){};
    39ea:	ec eb       	ldi	r30, 0xBC	; 188
    39ec:	f0 e0       	ldi	r31, 0x00	; 0
    39ee:	80 81       	ld	r24, Z
    39f0:	88 23       	and	r24, r24
    39f2:	ec f7       	brge	.-6      	; 0x39ee <_ZN3TWI9twi_StartEv+0xa>
	}
    39f4:	08 95       	ret

000039f6 <__tablejump2__>:
    39f6:	ee 0f       	add	r30, r30
    39f8:	ff 1f       	adc	r31, r31
    39fa:	00 24       	eor	r0, r0
    39fc:	00 1c       	adc	r0, r0
    39fe:	0b be       	out	0x3b, r0	; 59
    3a00:	07 90       	elpm	r0, Z+
    3a02:	f6 91       	elpm	r31, Z
    3a04:	e0 2d       	mov	r30, r0
    3a06:	09 94       	ijmp

00003a08 <_exit>:
    3a08:	f8 94       	cli

00003a0a <__stop_program>:
    3a0a:	ff cf       	rjmp	.-2      	; 0x3a0a <__stop_program>
